
/home/czlimx/codespace/temp/baremetal_for_c/bin/am3358/tryrtos/trycode:     file format elf32-littlearm


Disassembly of section .text:

c2000000 <_vector_table>:
c2000000:	e59ff018 	ldr	pc, [pc, #24]	; c2000020 <_reset_handle>
c2000004:	e59ff018 	ldr	pc, [pc, #24]	; c2000024 <_undefined_instruction_handle>
c2000008:	e59ff018 	ldr	pc, [pc, #24]	; c2000028 <_software_interrupt_handle>
c200000c:	e59ff018 	ldr	pc, [pc, #24]	; c200002c <_prefetch_abort_handle>
c2000010:	e59ff018 	ldr	pc, [pc, #24]	; c2000030 <_data_abort_handle>
c2000014:	e59ff018 	ldr	pc, [pc, #24]	; c2000034 <_not_used_handle>
c2000018:	e59ff018 	ldr	pc, [pc, #24]	; c2000038 <_irq_handle>
c200001c:	e59ff018 	ldr	pc, [pc, #24]	; c200003c <_fiq_handle>

c2000020 <_reset_handle>:
c2000020:	c200005c 	andgt	r0, r0, #92	; 0x5c

c2000024 <_undefined_instruction_handle>:
c2000024:	c2000040 	andgt	r0, r0, #64	; 0x40

c2000028 <_software_interrupt_handle>:
c2000028:	c2000044 	andgt	r0, r0, #68	; 0x44

c200002c <_prefetch_abort_handle>:
c200002c:	c20005dc 	andgt	r0, r0, #220, 10	; 0x37000000

c2000030 <_data_abort_handle>:
c2000030:	c20005e0 	andgt	r0, r0, #224, 10	; 0x38000000

c2000034 <_not_used_handle>:
c2000034:	c2000050 	andgt	r0, r0, #80	; 0x50

c2000038 <_irq_handle>:
c2000038:	c20005e4 	andgt	r0, r0, #228, 10	; 0x39000000

c200003c <_fiq_handle>:
c200003c:	c2000054 	andgt	r0, r0, #84	; 0x54

c2000040 <do_undefined_instruction>:
c2000040:	eafffffe 	b	c2000040 <do_undefined_instruction>

c2000044 <do_software_interrupt>:
c2000044:	eafffffe 	b	c2000044 <do_software_interrupt>
c2000048:	ea000163 	b	c20005dc <do_prefetch_abort>
c200004c:	ea000163 	b	c20005e0 <do_data_abort>

c2000050 <do_not_used>:
c2000050:	eafffffe 	b	c2000050 <do_not_used>

c2000054 <do_fiq>:
c2000054:	eafffffe 	b	c2000054 <do_fiq>
c2000058:	ea000161 	b	c20005e4 <do_irq>

c200005c <_start>:
c200005c:	f10e01d3 	cpsid	aif,#19
c2000060:	ee110f10 	mrc	15, 0, r0, cr1, cr0, {0}
c2000064:	e3c00a02 	bic	r0, r0, #8192	; 0x2000
c2000068:	ee010f10 	mcr	15, 0, r0, cr1, cr0, {0}
c200006c:	e59f0078 	ldr	r0, [pc, #120]	; c20000ec <loop+0x4>
c2000070:	ee0c0f10 	mcr	15, 0, r0, cr12, cr0, {0}
c2000074:	ee110f10 	mrc	15, 0, r0, cr1, cr0, {0}
c2000078:	e3c00001 	bic	r0, r0, #1
c200007c:	ee010f10 	mcr	15, 0, r0, cr1, cr0, {0}
c2000080:	ee110f10 	mrc	15, 0, r0, cr1, cr0, {0}
c2000084:	e3c00b02 	bic	r0, r0, #2048	; 0x800
c2000088:	ee010f10 	mcr	15, 0, r0, cr1, cr0, {0}
c200008c:	ee110f10 	mrc	15, 0, r0, cr1, cr0, {0}
c2000090:	e3c00a01 	bic	r0, r0, #4096	; 0x1000
c2000094:	ee010f10 	mcr	15, 0, r0, cr1, cr0, {0}
c2000098:	ee110f10 	mrc	15, 0, r0, cr1, cr0, {0}
c200009c:	e3c00004 	bic	r0, r0, #4
c20000a0:	ee010f10 	mcr	15, 0, r0, cr1, cr0, {0}
c20000a4:	ee110f10 	mrc	15, 0, r0, cr1, cr0, {0}
c20000a8:	e3c00002 	bic	r0, r0, #2
c20000ac:	ee010f10 	mcr	15, 0, r0, cr1, cr0, {0}
c20000b0:	f1020017 	cps	#23
c20000b4:	e59f0034 	ldr	r0, [pc, #52]	; c20000f0 <loop+0x8>
c20000b8:	e1a0d000 	mov	sp, r0
c20000bc:	f1020012 	cps	#18
c20000c0:	e2400a01 	sub	r0, r0, #4096	; 0x1000
c20000c4:	e1a0d000 	mov	sp, r0
c20000c8:	f1020013 	cps	#19
c20000cc:	e2400a01 	sub	r0, r0, #4096	; 0x1000
c20000d0:	e1a0d000 	mov	sp, r0
c20000d4:	f102001f 	cps	#31
c20000d8:	e2400a01 	sub	r0, r0, #4096	; 0x1000
c20000dc:	e1a0d000 	mov	sp, r0
c20000e0:	f1020013 	cps	#19
c20000e4:	eb000be0 	bl	c200306c <_early_arch_init>

c20000e8 <loop>:
c20000e8:	eafffffe 	b	c20000e8 <loop>
c20000ec:	c2000000 	andgt	r0, r0, #0
c20000f0:	c2026200 	andgt	r6, r2, #0, 4

c20000f4 <arch_branch_predictor_enable>:
c20000f4:	ee110f10 	mrc	15, 0, r0, cr1, cr0, {0}
c20000f8:	e3800b02 	orr	r0, r0, #2048	; 0x800
c20000fc:	ee010f10 	mcr	15, 0, r0, cr1, cr0, {0}
c2000100:	e12fff1e 	bx	lr

c2000104 <arch_branch_predictor_disable>:
c2000104:	ee110f10 	mrc	15, 0, r0, cr1, cr0, {0}
c2000108:	e3c00b02 	bic	r0, r0, #2048	; 0x800
c200010c:	ee010f10 	mcr	15, 0, r0, cr1, cr0, {0}
c2000110:	e12fff1e 	bx	lr

c2000114 <arch_branch_predictor_invalidate_all>:
c2000114:	e3a00000 	mov	r0, #0
c2000118:	ee070fd5 	mcr	15, 0, r0, cr7, cr5, {6}
c200011c:	e12fff1e 	bx	lr

c2000120 <arch_branch_predictor_invalidate_range>:
c2000120:	e92d1ff0 	push	{r4, r5, r6, r7, r8, r9, sl, fp, ip}
c2000124:	e3a02000 	mov	r2, #0
c2000128:	ee402f10 	mcr	15, 2, r2, cr0, cr0, {0}
c200012c:	f57ff06f 	isb	sy
c2000130:	ee302f10 	mrc	15, 1, r2, cr0, cr0, {0}
c2000134:	e2022007 	and	r2, r2, #7
c2000138:	e2822002 	add	r2, r2, #2
c200013c:	e3a03001 	mov	r3, #1
c2000140:	e1a03213 	lsl	r3, r3, r2
c2000144:	e0802001 	add	r2, r0, r1
c2000148:	e2434001 	sub	r4, r3, #1
c200014c:	e1c00004 	bic	r0, r0, r4
c2000150:	ee070ff5 	mcr	15, 0, r0, cr7, cr5, {7}
c2000154:	e0800003 	add	r0, r0, r3
c2000158:	e1500002 	cmp	r0, r2
c200015c:	3afffffb 	bcc	c2000150 <arch_branch_predictor_invalidate_range+0x30>
c2000160:	f57ff04f 	dsb	sy
c2000164:	e8bd1ff0 	pop	{r4, r5, r6, r7, r8, r9, sl, fp, ip}
c2000168:	e12fff1e 	bx	lr

c200016c <arch_icache_enable>:
c200016c:	ee110f10 	mrc	15, 0, r0, cr1, cr0, {0}
c2000170:	e3800a01 	orr	r0, r0, #4096	; 0x1000
c2000174:	ee010f10 	mcr	15, 0, r0, cr1, cr0, {0}
c2000178:	e12fff1e 	bx	lr

c200017c <arch_icache_disable>:
c200017c:	ee110f10 	mrc	15, 0, r0, cr1, cr0, {0}
c2000180:	e3c00a01 	bic	r0, r0, #4096	; 0x1000
c2000184:	ee010f10 	mcr	15, 0, r0, cr1, cr0, {0}
c2000188:	e12fff1e 	bx	lr

c200018c <arch_dcache_enable>:
c200018c:	ee110f10 	mrc	15, 0, r0, cr1, cr0, {0}
c2000190:	e3800004 	orr	r0, r0, #4
c2000194:	ee010f10 	mcr	15, 0, r0, cr1, cr0, {0}
c2000198:	e12fff1e 	bx	lr

c200019c <arch_dcache_disable>:
c200019c:	ee110f10 	mrc	15, 0, r0, cr1, cr0, {0}
c20001a0:	e3c00004 	bic	r0, r0, #4
c20001a4:	ee010f10 	mcr	15, 0, r0, cr1, cr0, {0}
c20001a8:	e12fff1e 	bx	lr

c20001ac <arch_icache_invalidate_all>:
c20001ac:	e3a00000 	mov	r0, #0
c20001b0:	ee070f15 	mcr	15, 0, r0, cr7, cr5, {0}
c20001b4:	e12fff1e 	bx	lr

c20001b8 <arch_icache_invalidate_range>:
c20001b8:	e92d1ff0 	push	{r4, r5, r6, r7, r8, r9, sl, fp, ip}
c20001bc:	e3a02001 	mov	r2, #1
c20001c0:	ee402f10 	mcr	15, 2, r2, cr0, cr0, {0}
c20001c4:	f57ff06f 	isb	sy
c20001c8:	ee302f10 	mrc	15, 1, r2, cr0, cr0, {0}
c20001cc:	e2022007 	and	r2, r2, #7
c20001d0:	e2822002 	add	r2, r2, #2
c20001d4:	e3a03001 	mov	r3, #1
c20001d8:	e1a03213 	lsl	r3, r3, r2
c20001dc:	e0802001 	add	r2, r0, r1
c20001e0:	e2434001 	sub	r4, r3, #1
c20001e4:	e1c00004 	bic	r0, r0, r4
c20001e8:	ee070f35 	mcr	15, 0, r0, cr7, cr5, {1}
c20001ec:	e0800003 	add	r0, r0, r3
c20001f0:	e1500002 	cmp	r0, r2
c20001f4:	3afffffb 	bcc	c20001e8 <arch_icache_invalidate_range+0x30>
c20001f8:	f57ff04f 	dsb	sy
c20001fc:	e8bd1ff0 	pop	{r4, r5, r6, r7, r8, r9, sl, fp, ip}
c2000200:	e12fff1e 	bx	lr

c2000204 <arch_dcache_invalidate_all>:
c2000204:	e92d1fff 	push	{r0, r1, r2, r3, r4, r5, r6, r7, r8, r9, sl, fp, ip}
c2000208:	f57ff05f 	dmb	sy
c200020c:	ee300f30 	mrc	15, 1, r0, cr0, cr0, {1}
c2000210:	e2103407 	ands	r3, r0, #117440512	; 0x7000000
c2000214:	e1a03ba3 	lsr	r3, r3, #23
c2000218:	0a00001b 	beq	c200028c <arch_dcache_invalidate_all+0x88>
c200021c:	e3a0a000 	mov	sl, #0
c2000220:	e08a20aa 	add	r2, sl, sl, lsr #1
c2000224:	e1a01230 	lsr	r1, r0, r2
c2000228:	e2011007 	and	r1, r1, #7
c200022c:	e3510002 	cmp	r1, #2
c2000230:	ba000011 	blt	c200027c <arch_dcache_invalidate_all+0x78>
c2000234:	ee40af10 	mcr	15, 2, sl, cr0, cr0, {0}
c2000238:	f57ff06f 	isb	sy
c200023c:	ee301f10 	mrc	15, 1, r1, cr0, cr0, {0}
c2000240:	e2012007 	and	r2, r1, #7
c2000244:	e2822004 	add	r2, r2, #4
c2000248:	e59f4248 	ldr	r4, [pc, #584]	; c2000498 <arch_dcache_flush_range+0x4c>
c200024c:	e01441a1 	ands	r4, r4, r1, lsr #3
c2000250:	e16f5f14 	clz	r5, r4
c2000254:	e1a09004 	mov	r9, r4
c2000258:	e59f723c 	ldr	r7, [pc, #572]	; c200049c <arch_dcache_flush_range+0x50>
c200025c:	e01776a1 	ands	r7, r7, r1, lsr #13
c2000260:	e18ab519 	orr	fp, sl, r9, lsl r5
c2000264:	e18bb217 	orr	fp, fp, r7, lsl r2
c2000268:	ee07bf56 	mcr	15, 0, fp, cr7, cr6, {2}
c200026c:	e2577001 	subs	r7, r7, #1
c2000270:	aafffffa 	bge	c2000260 <arch_dcache_invalidate_all+0x5c>
c2000274:	e2599001 	subs	r9, r9, #1
c2000278:	aafffff6 	bge	c2000258 <arch_dcache_invalidate_all+0x54>
c200027c:	e28aa002 	add	sl, sl, #2
c2000280:	e153000a 	cmp	r3, sl
c2000284:	caffffe5 	bgt	c2000220 <arch_dcache_invalidate_all+0x1c>
c2000288:	f57ff04f 	dsb	sy
c200028c:	e8bd1fff 	pop	{r0, r1, r2, r3, r4, r5, r6, r7, r8, r9, sl, fp, ip}
c2000290:	e12fff1e 	bx	lr

c2000294 <arch_dcache_clean_all>:
c2000294:	e92d1fff 	push	{r0, r1, r2, r3, r4, r5, r6, r7, r8, r9, sl, fp, ip}
c2000298:	f57ff05f 	dmb	sy
c200029c:	ee300f30 	mrc	15, 1, r0, cr0, cr0, {1}
c20002a0:	e2103407 	ands	r3, r0, #117440512	; 0x7000000
c20002a4:	e1a03ba3 	lsr	r3, r3, #23
c20002a8:	0a00001b 	beq	c200031c <arch_dcache_clean_all+0x88>
c20002ac:	e3a0a000 	mov	sl, #0
c20002b0:	e08a20aa 	add	r2, sl, sl, lsr #1
c20002b4:	e1a01230 	lsr	r1, r0, r2
c20002b8:	e2011007 	and	r1, r1, #7
c20002bc:	e3510002 	cmp	r1, #2
c20002c0:	ba000011 	blt	c200030c <arch_dcache_clean_all+0x78>
c20002c4:	ee40af10 	mcr	15, 2, sl, cr0, cr0, {0}
c20002c8:	f57ff06f 	isb	sy
c20002cc:	ee301f10 	mrc	15, 1, r1, cr0, cr0, {0}
c20002d0:	e2012007 	and	r2, r1, #7
c20002d4:	e2822004 	add	r2, r2, #4
c20002d8:	e59f41b8 	ldr	r4, [pc, #440]	; c2000498 <arch_dcache_flush_range+0x4c>
c20002dc:	e01441a1 	ands	r4, r4, r1, lsr #3
c20002e0:	e16f5f14 	clz	r5, r4
c20002e4:	e1a09004 	mov	r9, r4
c20002e8:	e59f71ac 	ldr	r7, [pc, #428]	; c200049c <arch_dcache_flush_range+0x50>
c20002ec:	e01776a1 	ands	r7, r7, r1, lsr #13
c20002f0:	e18ab519 	orr	fp, sl, r9, lsl r5
c20002f4:	e18bb217 	orr	fp, fp, r7, lsl r2
c20002f8:	ee07bf5a 	mcr	15, 0, fp, cr7, cr10, {2}
c20002fc:	e2577001 	subs	r7, r7, #1
c2000300:	aafffffa 	bge	c20002f0 <arch_dcache_clean_all+0x5c>
c2000304:	e2599001 	subs	r9, r9, #1
c2000308:	aafffff6 	bge	c20002e8 <arch_dcache_clean_all+0x54>
c200030c:	e28aa002 	add	sl, sl, #2
c2000310:	e153000a 	cmp	r3, sl
c2000314:	caffffe5 	bgt	c20002b0 <arch_dcache_clean_all+0x1c>
c2000318:	f57ff04f 	dsb	sy
c200031c:	e8bd1fff 	pop	{r0, r1, r2, r3, r4, r5, r6, r7, r8, r9, sl, fp, ip}
c2000320:	e12fff1e 	bx	lr

c2000324 <arch_dcache_flush_all>:
c2000324:	e92d1fff 	push	{r0, r1, r2, r3, r4, r5, r6, r7, r8, r9, sl, fp, ip}
c2000328:	f57ff05f 	dmb	sy
c200032c:	ee300f30 	mrc	15, 1, r0, cr0, cr0, {1}
c2000330:	e2103407 	ands	r3, r0, #117440512	; 0x7000000
c2000334:	e1a03ba3 	lsr	r3, r3, #23
c2000338:	0a00001b 	beq	c20003ac <arch_dcache_flush_all+0x88>
c200033c:	e3a0a000 	mov	sl, #0
c2000340:	e08a20aa 	add	r2, sl, sl, lsr #1
c2000344:	e1a01230 	lsr	r1, r0, r2
c2000348:	e2011007 	and	r1, r1, #7
c200034c:	e3510002 	cmp	r1, #2
c2000350:	ba000011 	blt	c200039c <arch_dcache_flush_all+0x78>
c2000354:	ee40af10 	mcr	15, 2, sl, cr0, cr0, {0}
c2000358:	f57ff06f 	isb	sy
c200035c:	ee301f10 	mrc	15, 1, r1, cr0, cr0, {0}
c2000360:	e2012007 	and	r2, r1, #7
c2000364:	e2822004 	add	r2, r2, #4
c2000368:	e59f4128 	ldr	r4, [pc, #296]	; c2000498 <arch_dcache_flush_range+0x4c>
c200036c:	e01441a1 	ands	r4, r4, r1, lsr #3
c2000370:	e16f5f14 	clz	r5, r4
c2000374:	e1a09004 	mov	r9, r4
c2000378:	e59f711c 	ldr	r7, [pc, #284]	; c200049c <arch_dcache_flush_range+0x50>
c200037c:	e01776a1 	ands	r7, r7, r1, lsr #13
c2000380:	e18ab519 	orr	fp, sl, r9, lsl r5
c2000384:	e18bb217 	orr	fp, fp, r7, lsl r2
c2000388:	ee07bf5e 	mcr	15, 0, fp, cr7, cr14, {2}
c200038c:	e2577001 	subs	r7, r7, #1
c2000390:	aafffffa 	bge	c2000380 <arch_dcache_flush_all+0x5c>
c2000394:	e2599001 	subs	r9, r9, #1
c2000398:	aafffff6 	bge	c2000378 <arch_dcache_flush_all+0x54>
c200039c:	e28aa002 	add	sl, sl, #2
c20003a0:	e153000a 	cmp	r3, sl
c20003a4:	caffffe5 	bgt	c2000340 <arch_dcache_flush_all+0x1c>
c20003a8:	f57ff04f 	dsb	sy
c20003ac:	e8bd1fff 	pop	{r0, r1, r2, r3, r4, r5, r6, r7, r8, r9, sl, fp, ip}
c20003b0:	e12fff1e 	bx	lr

c20003b4 <arch_dcache_invalidate_range>:
c20003b4:	e92d1ff0 	push	{r4, r5, r6, r7, r8, r9, sl, fp, ip}
c20003b8:	e3a02000 	mov	r2, #0
c20003bc:	ee402f10 	mcr	15, 2, r2, cr0, cr0, {0}
c20003c0:	f57ff06f 	isb	sy
c20003c4:	ee302f10 	mrc	15, 1, r2, cr0, cr0, {0}
c20003c8:	e2022007 	and	r2, r2, #7
c20003cc:	e2822002 	add	r2, r2, #2
c20003d0:	e3a03001 	mov	r3, #1
c20003d4:	e1a03213 	lsl	r3, r3, r2
c20003d8:	e0802001 	add	r2, r0, r1
c20003dc:	e2434001 	sub	r4, r3, #1
c20003e0:	e1c00004 	bic	r0, r0, r4
c20003e4:	ee070f36 	mcr	15, 0, r0, cr7, cr6, {1}
c20003e8:	e0800003 	add	r0, r0, r3
c20003ec:	e1500002 	cmp	r0, r2
c20003f0:	3afffffb 	bcc	c20003e4 <arch_dcache_invalidate_range+0x30>
c20003f4:	f57ff04f 	dsb	sy
c20003f8:	e8bd1ff0 	pop	{r4, r5, r6, r7, r8, r9, sl, fp, ip}
c20003fc:	e12fff1e 	bx	lr

c2000400 <arch_dcache_clean_range>:
c2000400:	e92d1ff0 	push	{r4, r5, r6, r7, r8, r9, sl, fp, ip}
c2000404:	e3a02000 	mov	r2, #0
c2000408:	ee402f10 	mcr	15, 2, r2, cr0, cr0, {0}
c200040c:	f57ff06f 	isb	sy
c2000410:	ee302f10 	mrc	15, 1, r2, cr0, cr0, {0}
c2000414:	e2022007 	and	r2, r2, #7
c2000418:	e2822002 	add	r2, r2, #2
c200041c:	e3a03001 	mov	r3, #1
c2000420:	e1a03213 	lsl	r3, r3, r2
c2000424:	e0802001 	add	r2, r0, r1
c2000428:	e2434001 	sub	r4, r3, #1
c200042c:	e1c00004 	bic	r0, r0, r4
c2000430:	ee070f3a 	mcr	15, 0, r0, cr7, cr10, {1}
c2000434:	e0800003 	add	r0, r0, r3
c2000438:	e1500002 	cmp	r0, r2
c200043c:	3afffffb 	bcc	c2000430 <arch_dcache_clean_range+0x30>
c2000440:	f57ff04f 	dsb	sy
c2000444:	e8bd1ff0 	pop	{r4, r5, r6, r7, r8, r9, sl, fp, ip}
c2000448:	e12fff1e 	bx	lr

c200044c <arch_dcache_flush_range>:
c200044c:	e92d1ff0 	push	{r4, r5, r6, r7, r8, r9, sl, fp, ip}
c2000450:	e3a02000 	mov	r2, #0
c2000454:	ee402f10 	mcr	15, 2, r2, cr0, cr0, {0}
c2000458:	f57ff06f 	isb	sy
c200045c:	ee302f10 	mrc	15, 1, r2, cr0, cr0, {0}
c2000460:	e2022007 	and	r2, r2, #7
c2000464:	e2822002 	add	r2, r2, #2
c2000468:	e3a03001 	mov	r3, #1
c200046c:	e1a03213 	lsl	r3, r3, r2
c2000470:	e0802001 	add	r2, r0, r1
c2000474:	e2434001 	sub	r4, r3, #1
c2000478:	e1c00004 	bic	r0, r0, r4
c200047c:	ee070f3e 	mcr	15, 0, r0, cr7, cr14, {1}
c2000480:	e0800003 	add	r0, r0, r3
c2000484:	e1500002 	cmp	r0, r2
c2000488:	3afffffb 	bcc	c200047c <arch_dcache_flush_range+0x30>
c200048c:	f57ff04f 	dsb	sy
c2000490:	e8bd1ff0 	pop	{r4, r5, r6, r7, r8, r9, sl, fp, ip}
c2000494:	e12fff1e 	bx	lr
c2000498:	000003ff 	strdeq	r0, [r0], -pc	; <UNPREDICTABLE>
c200049c:	00007fff 	strdeq	r7, [r0], -pc	; <UNPREDICTABLE>

c20004a0 <arch_context_start>:
c20004a0:	e1a0d000 	mov	sp, r0
c20004a4:	e8bd0008 	ldmfd	sp!, {r3}
c20004a8:	eee13a10 	vmsr	fpscr, r3
c20004ac:	ecbd0b20 	vpop	{d0-d15}
c20004b0:	e8bd000c 	pop	{r2, r3}
c20004b4:	e1a0100d 	mov	r1, sp
c20004b8:	e16ff002 	msr	SPSR_fsxc, r2
c20004bc:	e12ff003 	msr	CPSR_fsxc, r3
c20004c0:	e1a0d001 	mov	sp, r1
c20004c4:	e8bd5fff 	pop	{r0, r1, r2, r3, r4, r5, r6, r7, r8, r9, sl, fp, ip, lr}
c20004c8:	e1a0f00e 	mov	pc, lr

c20004cc <arch_context_init>:
c20004cc:	e92d5ff0 	push	{r4, r5, r6, r7, r8, r9, sl, fp, ip, lr}
c20004d0:	e3a04000 	mov	r4, #0
c20004d4:	e9200004 	stmdb	r0!, {r2}
c20004d8:	e9200010 	stmdb	r0!, {r4}
c20004dc:	e9200010 	stmdb	r0!, {r4}
c20004e0:	e9200010 	stmdb	r0!, {r4}
c20004e4:	e9200010 	stmdb	r0!, {r4}
c20004e8:	e9200010 	stmdb	r0!, {r4}
c20004ec:	e9200010 	stmdb	r0!, {r4}
c20004f0:	e9200010 	stmdb	r0!, {r4}
c20004f4:	e9200010 	stmdb	r0!, {r4}
c20004f8:	e9200010 	stmdb	r0!, {r4}
c20004fc:	e9200010 	stmdb	r0!, {r4}
c2000500:	e9200010 	stmdb	r0!, {r4}
c2000504:	e9200010 	stmdb	r0!, {r4}
c2000508:	e9200002 	stmdb	r0!, {r1}
c200050c:	e10f5000 	mrs	r5, CPSR
c2000510:	e3a06010 	mov	r6, #16
c2000514:	e9200060 	stmdb	r0!, {r5, r6}
c2000518:	e9200010 	stmdb	r0!, {r4}
c200051c:	e9200010 	stmdb	r0!, {r4}
c2000520:	e9200010 	stmdb	r0!, {r4}
c2000524:	e9200010 	stmdb	r0!, {r4}
c2000528:	e9200010 	stmdb	r0!, {r4}
c200052c:	e9200010 	stmdb	r0!, {r4}
c2000530:	e9200010 	stmdb	r0!, {r4}
c2000534:	e9200010 	stmdb	r0!, {r4}
c2000538:	e9200010 	stmdb	r0!, {r4}
c200053c:	e9200010 	stmdb	r0!, {r4}
c2000540:	e9200010 	stmdb	r0!, {r4}
c2000544:	e9200010 	stmdb	r0!, {r4}
c2000548:	e9200010 	stmdb	r0!, {r4}
c200054c:	e9200010 	stmdb	r0!, {r4}
c2000550:	e9200010 	stmdb	r0!, {r4}
c2000554:	e9200010 	stmdb	r0!, {r4}
c2000558:	e9200010 	stmdb	r0!, {r4}
c200055c:	e9200010 	stmdb	r0!, {r4}
c2000560:	e9200010 	stmdb	r0!, {r4}
c2000564:	e9200010 	stmdb	r0!, {r4}
c2000568:	e9200010 	stmdb	r0!, {r4}
c200056c:	e9200010 	stmdb	r0!, {r4}
c2000570:	e9200010 	stmdb	r0!, {r4}
c2000574:	e9200010 	stmdb	r0!, {r4}
c2000578:	e9200010 	stmdb	r0!, {r4}
c200057c:	e9200010 	stmdb	r0!, {r4}
c2000580:	e9200010 	stmdb	r0!, {r4}
c2000584:	e9200010 	stmdb	r0!, {r4}
c2000588:	e9200010 	stmdb	r0!, {r4}
c200058c:	e9200010 	stmdb	r0!, {r4}
c2000590:	e9200010 	stmdb	r0!, {r4}
c2000594:	e9200010 	stmdb	r0!, {r4}
c2000598:	e9200010 	stmdb	r0!, {r4}
c200059c:	e8bd9ff0 	pop	{r4, r5, r6, r7, r8, r9, sl, fp, ip, pc}

c20005a0 <arch_context_switch>:
c20005a0:	e8a07ff0 	stmia	r0!, {r4, r5, r6, r7, r8, r9, sl, fp, ip, sp, lr}
c20005a4:	e14f2000 	mrs	r2, SPSR
c20005a8:	e10f3000 	mrs	r3, CPSR
c20005ac:	e8a0000c 	stmia	r0!, {r2, r3}
c20005b0:	eef13a10 	vmrs	r3, fpscr
c20005b4:	e8a00008 	stmia	r0!, {r3}
c20005b8:	eca00b20 	vstmia	r0!, {d0-d15}
c20005bc:	e8b17ff0 	ldm	r1!, {r4, r5, r6, r7, r8, r9, sl, fp, ip, sp, lr}
c20005c0:	e8b1000c 	ldm	r1!, {r2, r3}
c20005c4:	e16ff002 	msr	SPSR_fsxc, r2
c20005c8:	e12ff003 	msr	CPSR_fsxc, r3
c20005cc:	e8b10008 	ldm	r1!, {r3}
c20005d0:	eee13a10 	vmsr	fpscr, r3
c20005d4:	ecb10b20 	vldmia	r1!, {d0-d15}
c20005d8:	e12fff1e 	bx	lr

c20005dc <do_prefetch_abort>:
c20005dc:	eafffffe 	b	c20005dc <do_prefetch_abort>

c20005e0 <do_data_abort>:
c20005e0:	eafffffe 	b	c20005e0 <do_data_abort>

c20005e4 <do_irq>:
c20005e4:	e24ee004 	sub	lr, lr, #4
c20005e8:	e92d5fff 	push	{r0, r1, r2, r3, r4, r5, r6, r7, r8, r9, sl, fp, ip, lr}
c20005ec:	eb000d1d 	bl	c2003a68 <sdrv_irq_handler>
c20005f0:	e8fd9fff 	ldm	sp!, {r0, r1, r2, r3, r4, r5, r6, r7, r8, r9, sl, fp, ip, pc}^

c20005f4 <arch_fpu_enable>:
c20005f4:	ee110f50 	mrc	15, 0, r0, cr1, cr0, {2}
c20005f8:	e380060f 	orr	r0, r0, #15728640	; 0xf00000
c20005fc:	ee010f50 	mcr	15, 0, r0, cr1, cr0, {2}
c2000600:	eef80a10 	vmrs	r0, fpexc
c2000604:	e3800101 	orr	r0, r0, #1073741824	; 0x40000000
c2000608:	eee80a10 	vmsr	fpexc, r0
c200060c:	eef80a10 	vmrs	r0, fpexc
c2000610:	e3800102 	orr	r0, r0, #-2147483648	; 0x80000000
c2000614:	eee80a10 	vmsr	fpexc, r0
c2000618:	e12fff1e 	bx	lr

c200061c <arch_fpu_disable>:
c200061c:	eef80a10 	vmrs	r0, fpexc
c2000620:	e3c00102 	bic	r0, r0, #-2147483648	; 0x80000000
c2000624:	eee80a10 	vmsr	fpexc, r0
c2000628:	eef80a10 	vmrs	r0, fpexc
c200062c:	e3c00101 	bic	r0, r0, #1073741824	; 0x40000000
c2000630:	eee80a10 	vmsr	fpexc, r0
c2000634:	e12fff1e 	bx	lr

c2000638 <MMU_AP_CLIENTD>:
c2000638:	55555555 	ldrbpl	r5, [r5, #-1365]	; 0xfffffaab

c200063c <arch_mmu_enable>:
c200063c:	ee110f10 	mrc	15, 0, r0, cr1, cr0, {0}
c2000640:	e3c00201 	bic	r0, r0, #268435456	; 0x10000000
c2000644:	ee010f10 	mcr	15, 0, r0, cr1, cr0, {0}
c2000648:	ee110f10 	mrc	15, 0, r0, cr1, cr0, {0}
c200064c:	e3c00202 	bic	r0, r0, #536870912	; 0x20000000
c2000650:	ee010f10 	mcr	15, 0, r0, cr1, cr0, {0}
c2000654:	e51f0024 	ldr	r0, [pc, #-36]	; c2000638 <MMU_AP_CLIENTD>
c2000658:	ee030f10 	mcr	15, 0, r0, cr3, cr0, {0}
c200065c:	f57ff04f 	dsb	sy
c2000660:	ee110f10 	mrc	15, 0, r0, cr1, cr0, {0}
c2000664:	e3800001 	orr	r0, r0, #1
c2000668:	ee010f10 	mcr	15, 0, r0, cr1, cr0, {0}
c200066c:	e12fff1e 	bx	lr

c2000670 <arch_mmu_disable>:
c2000670:	ee110f10 	mrc	15, 0, r0, cr1, cr0, {0}
c2000674:	e3c00001 	bic	r0, r0, #1
c2000678:	ee010f10 	mcr	15, 0, r0, cr1, cr0, {0}
c200067c:	e12fff1e 	bx	lr

c2000680 <arch_tlb_config_ttbr0>:
c2000680:	ee020f10 	mcr	15, 0, r0, cr2, cr0, {0}
c2000684:	e12fff1e 	bx	lr

c2000688 <arch_tlb_config_ttbr1>:
c2000688:	ee020f30 	mcr	15, 0, r0, cr2, cr0, {1}
c200068c:	e12fff1e 	bx	lr

c2000690 <arch_tlb_config_ttbcr>:
c2000690:	ee020f50 	mcr	15, 0, r0, cr2, cr0, {2}
c2000694:	e12fff1e 	bx	lr

c2000698 <arch_tlb_invalidate_all>:
c2000698:	ee080f17 	mcr	15, 0, r0, cr8, cr7, {0}
c200069c:	e12fff1e 	bx	lr

c20006a0 <arch_tlb_invalidate_data_all>:
c20006a0:	ee080f16 	mcr	15, 0, r0, cr8, cr6, {0}
c20006a4:	e12fff1e 	bx	lr

c20006a8 <arch_tlb_invalidate_data_asid>:
c20006a8:	ee080f56 	mcr	15, 0, r0, cr8, cr6, {2}
c20006ac:	e12fff1e 	bx	lr

c20006b0 <arch_tlb_invalidate_data_page>:
c20006b0:	ee080f36 	mcr	15, 0, r0, cr8, cr6, {1}
c20006b4:	e12fff1e 	bx	lr

c20006b8 <arch_tlb_invalidate_instruction_all>:
c20006b8:	ee080f15 	mcr	15, 0, r0, cr8, cr5, {0}
c20006bc:	e12fff1e 	bx	lr

c20006c0 <arch_tlb_invalidate_instruction_asid>:
c20006c0:	ee080f55 	mcr	15, 0, r0, cr8, cr5, {2}
c20006c4:	e12fff1e 	bx	lr

c20006c8 <arch_tlb_invalidate_instruction_page>:
c20006c8:	ee080f35 	mcr	15, 0, r0, cr8, cr5, {1}
c20006cc:	e12fff1e 	bx	lr

c20006d0 <arch_pmu_user_access_enable>:
c20006d0:	ee190f1e 	mrc	15, 0, r0, cr9, cr14, {0}
c20006d4:	e3800001 	orr	r0, r0, #1
c20006d8:	ee090f1e 	mcr	15, 0, r0, cr9, cr14, {0}
c20006dc:	e12fff1e 	bx	lr

c20006e0 <arch_pmu_user_access_disable>:
c20006e0:	ee190f1e 	mrc	15, 0, r0, cr9, cr14, {0}
c20006e4:	e3c00001 	bic	r0, r0, #1
c20006e8:	ee090f1e 	mcr	15, 0, r0, cr9, cr14, {0}
c20006ec:	e12fff1e 	bx	lr

c20006f0 <arch_pmu_cycle_counter_enable>:
c20006f0:	ee190f3c 	mrc	15, 0, r0, cr9, cr12, {1}
c20006f4:	e3800102 	orr	r0, r0, #-2147483648	; 0x80000000
c20006f8:	ee090f3c 	mcr	15, 0, r0, cr9, cr12, {1}
c20006fc:	e12fff1e 	bx	lr

c2000700 <arch_pmu_cycle_counter_disable>:
c2000700:	ee190f5c 	mrc	15, 0, r0, cr9, cr12, {2}
c2000704:	e3800102 	orr	r0, r0, #-2147483648	; 0x80000000
c2000708:	ee090f5c 	mcr	15, 0, r0, cr9, cr12, {2}
c200070c:	e12fff1e 	bx	lr

c2000710 <arch_pmu_cycle_counter_init>:
c2000710:	ee190f1c 	mrc	15, 0, r0, cr9, cr12, {0}
c2000714:	e3800004 	orr	r0, r0, #4
c2000718:	ee090f1c 	mcr	15, 0, r0, cr9, cr12, {0}
c200071c:	ee190f1c 	mrc	15, 0, r0, cr9, cr12, {0}
c2000720:	e3c00008 	bic	r0, r0, #8
c2000724:	ee090f1c 	mcr	15, 0, r0, cr9, cr12, {0}
c2000728:	ee190f1c 	mrc	15, 0, r0, cr9, cr12, {0}
c200072c:	e3800001 	orr	r0, r0, #1
c2000730:	ee090f1c 	mcr	15, 0, r0, cr9, cr12, {0}
c2000734:	e12fff1e 	bx	lr

c2000738 <arch_pmu_cycle_counter_enable_irq>:
c2000738:	ee190f3e 	mrc	15, 0, r0, cr9, cr14, {1}
c200073c:	e3800102 	orr	r0, r0, #-2147483648	; 0x80000000
c2000740:	ee090f3e 	mcr	15, 0, r0, cr9, cr14, {1}
c2000744:	e12fff1e 	bx	lr

c2000748 <arch_pmu_cycle_counter_disable_irq>:
c2000748:	ee190f5e 	mrc	15, 0, r0, cr9, cr14, {2}
c200074c:	e3800102 	orr	r0, r0, #-2147483648	; 0x80000000
c2000750:	ee090f5e 	mcr	15, 0, r0, cr9, cr14, {2}
c2000754:	e12fff1e 	bx	lr

c2000758 <arch_pmu_cycle_counter_set_counter>:
c2000758:	ee090f1d 	mcr	15, 0, r0, cr9, cr13, {0}
c200075c:	e12fff1e 	bx	lr

c2000760 <arch_pmu_cycle_counter_get_counter>:
c2000760:	ee190f1d 	mrc	15, 0, r0, cr9, cr13, {0}
c2000764:	e12fff1e 	bx	lr

c2000768 <arch_pmu_event_counter_enable>:
c2000768:	e3a02001 	mov	r2, #1
c200076c:	ee191f3c 	mrc	15, 0, r1, cr9, cr12, {1}
c2000770:	e1811012 	orr	r1, r1, r2, lsl r0
c2000774:	ee091f3c 	mcr	15, 0, r1, cr9, cr12, {1}
c2000778:	e12fff1e 	bx	lr

c200077c <arch_pmu_event_counter_disable>:
c200077c:	e3a02001 	mov	r2, #1
c2000780:	ee191f5c 	mrc	15, 0, r1, cr9, cr12, {2}
c2000784:	e1811012 	orr	r1, r1, r2, lsl r0
c2000788:	ee091f5c 	mcr	15, 0, r1, cr9, cr12, {2}
c200078c:	e12fff1e 	bx	lr

c2000790 <arch_pmu_event_counter_init>:
c2000790:	ee190f1c 	mrc	15, 0, r0, cr9, cr12, {0}
c2000794:	e3800002 	orr	r0, r0, #2
c2000798:	ee090f1c 	mcr	15, 0, r0, cr9, cr12, {0}
c200079c:	e12fff1e 	bx	lr

c20007a0 <arch_pmu_event_counter_increment>:
c20007a0:	e3a01001 	mov	r1, #1
c20007a4:	e1a01011 	lsl	r1, r1, r0
c20007a8:	ee091f9c 	mcr	15, 0, r1, cr9, cr12, {4}
c20007ac:	e12fff1e 	bx	lr

c20007b0 <arch_pmu_event_counter_select>:
c20007b0:	ee090fbc 	mcr	15, 0, r0, cr9, cr12, {5}
c20007b4:	ee091f3d 	mcr	15, 0, r1, cr9, cr13, {1}
c20007b8:	e12fff1e 	bx	lr

c20007bc <arch_pmu_event_counter_read>:
c20007bc:	ee090fbc 	mcr	15, 0, r0, cr9, cr12, {5}
c20007c0:	ee190f5d 	mrc	15, 0, r0, cr9, cr13, {2}
c20007c4:	e3a01000 	mov	r1, #0
c20007c8:	ee091f5d 	mcr	15, 0, r1, cr9, cr13, {2}
c20007cc:	e12fff1e 	bx	lr

c20007d0 <arch_pmu_event_counter_enable_irq>:
c20007d0:	e3a01001 	mov	r1, #1
c20007d4:	e1a01011 	lsl	r1, r1, r0
c20007d8:	ee190f3e 	mrc	15, 0, r0, cr9, cr14, {1}
c20007dc:	e1800001 	orr	r0, r0, r1
c20007e0:	ee090f3e 	mcr	15, 0, r0, cr9, cr14, {1}
c20007e4:	e12fff1e 	bx	lr

c20007e8 <arch_pmu_event_counter_disable_irq>:
c20007e8:	e3a01001 	mov	r1, #1
c20007ec:	e1a01011 	lsl	r1, r1, r0
c20007f0:	ee190f5e 	mrc	15, 0, r0, cr9, cr14, {2}
c20007f4:	e1800001 	orr	r0, r0, r1
c20007f8:	ee090f5e 	mcr	15, 0, r0, cr9, cr14, {2}
c20007fc:	e12fff1e 	bx	lr

c2000800 <arch_pmu_irq_handler>:
c2000800:	e92d4000 	stmfd	sp!, {lr}
c2000804:	ee190f7c 	mrc	15, 0, r0, cr9, cr12, {3}
c2000808:	ee090f7c 	mcr	15, 0, r0, cr9, cr12, {3}
c200080c:	eb000001 	bl	c2000818 <arch_pmu_irq_call_back>
c2000810:	e8bd4000 	ldmfd	sp!, {lr}
c2000814:	e12fff1e 	bx	lr

c2000818 <arch_pmu_irq_call_back>:
c2000818:	e12fff1e 	bx	lr

c200081c <libc_list_init>:
c200081c:	e52db004 	push	{fp}		; (str fp, [sp, #-4]!)
c2000820:	e28db000 	add	fp, sp, #0
c2000824:	e24dd00c 	sub	sp, sp, #12
c2000828:	e50b0008 	str	r0, [fp, #-8]
c200082c:	e51b3008 	ldr	r3, [fp, #-8]
c2000830:	e51b2008 	ldr	r2, [fp, #-8]
c2000834:	e5832000 	str	r2, [r3]
c2000838:	e51b3008 	ldr	r3, [fp, #-8]
c200083c:	e5932000 	ldr	r2, [r3]
c2000840:	e51b3008 	ldr	r3, [fp, #-8]
c2000844:	e5832004 	str	r2, [r3, #4]
c2000848:	e320f000 	nop	{0}
c200084c:	e28bd000 	add	sp, fp, #0
c2000850:	e49db004 	pop	{fp}		; (ldr fp, [sp], #4)
c2000854:	e12fff1e 	bx	lr

c2000858 <_libc_list_add>:
c2000858:	e52db004 	push	{fp}		; (str fp, [sp, #-4]!)
c200085c:	e28db000 	add	fp, sp, #0
c2000860:	e24dd014 	sub	sp, sp, #20
c2000864:	e50b0008 	str	r0, [fp, #-8]
c2000868:	e50b100c 	str	r1, [fp, #-12]
c200086c:	e50b2010 	str	r2, [fp, #-16]
c2000870:	e51b3010 	ldr	r3, [fp, #-16]
c2000874:	e51b2008 	ldr	r2, [fp, #-8]
c2000878:	e5832000 	str	r2, [r3]
c200087c:	e51b3008 	ldr	r3, [fp, #-8]
c2000880:	e51b2010 	ldr	r2, [fp, #-16]
c2000884:	e5832004 	str	r2, [r3, #4]
c2000888:	e51b3008 	ldr	r3, [fp, #-8]
c200088c:	e51b200c 	ldr	r2, [fp, #-12]
c2000890:	e5832000 	str	r2, [r3]
c2000894:	e51b300c 	ldr	r3, [fp, #-12]
c2000898:	e51b2008 	ldr	r2, [fp, #-8]
c200089c:	e5832004 	str	r2, [r3, #4]
c20008a0:	e320f000 	nop	{0}
c20008a4:	e28bd000 	add	sp, fp, #0
c20008a8:	e49db004 	pop	{fp}		; (ldr fp, [sp], #4)
c20008ac:	e12fff1e 	bx	lr

c20008b0 <libc_list_add>:
c20008b0:	e92d4800 	push	{fp, lr}
c20008b4:	e28db004 	add	fp, sp, #4
c20008b8:	e24dd008 	sub	sp, sp, #8
c20008bc:	e50b0008 	str	r0, [fp, #-8]
c20008c0:	e50b100c 	str	r1, [fp, #-12]
c20008c4:	e51b300c 	ldr	r3, [fp, #-12]
c20008c8:	e5933004 	ldr	r3, [r3, #4]
c20008cc:	e1a02003 	mov	r2, r3
c20008d0:	e51b100c 	ldr	r1, [fp, #-12]
c20008d4:	e51b0008 	ldr	r0, [fp, #-8]
c20008d8:	ebffffde 	bl	c2000858 <_libc_list_add>
c20008dc:	e320f000 	nop	{0}
c20008e0:	e24bd004 	sub	sp, fp, #4
c20008e4:	e8bd8800 	pop	{fp, pc}

c20008e8 <_libc_list_del>:
c20008e8:	e52db004 	push	{fp}		; (str fp, [sp, #-4]!)
c20008ec:	e28db000 	add	fp, sp, #0
c20008f0:	e24dd00c 	sub	sp, sp, #12
c20008f4:	e50b0008 	str	r0, [fp, #-8]
c20008f8:	e50b100c 	str	r1, [fp, #-12]
c20008fc:	e51b300c 	ldr	r3, [fp, #-12]
c2000900:	e51b2008 	ldr	r2, [fp, #-8]
c2000904:	e5832000 	str	r2, [r3]
c2000908:	e51b3008 	ldr	r3, [fp, #-8]
c200090c:	e51b200c 	ldr	r2, [fp, #-12]
c2000910:	e5832004 	str	r2, [r3, #4]
c2000914:	e320f000 	nop	{0}
c2000918:	e28bd000 	add	sp, fp, #0
c200091c:	e49db004 	pop	{fp}		; (ldr fp, [sp], #4)
c2000920:	e12fff1e 	bx	lr

c2000924 <libc_list_move>:
c2000924:	e92d4800 	push	{fp, lr}
c2000928:	e28db004 	add	fp, sp, #4
c200092c:	e24dd008 	sub	sp, sp, #8
c2000930:	e50b0008 	str	r0, [fp, #-8]
c2000934:	e50b100c 	str	r1, [fp, #-12]
c2000938:	e51b3008 	ldr	r3, [fp, #-8]
c200093c:	e5932000 	ldr	r2, [r3]
c2000940:	e51b3008 	ldr	r3, [fp, #-8]
c2000944:	e5933004 	ldr	r3, [r3, #4]
c2000948:	e1a01003 	mov	r1, r3
c200094c:	e1a00002 	mov	r0, r2
c2000950:	ebffffe4 	bl	c20008e8 <_libc_list_del>
c2000954:	e51b100c 	ldr	r1, [fp, #-12]
c2000958:	e51b0008 	ldr	r0, [fp, #-8]
c200095c:	ebffffd3 	bl	c20008b0 <libc_list_add>
c2000960:	e320f000 	nop	{0}
c2000964:	e24bd004 	sub	sp, fp, #4
c2000968:	e8bd8800 	pop	{fp, pc}

c200096c <libc_list_is_head>:
c200096c:	e52db004 	push	{fp}		; (str fp, [sp, #-4]!)
c2000970:	e28db000 	add	fp, sp, #0
c2000974:	e24dd00c 	sub	sp, sp, #12
c2000978:	e50b0008 	str	r0, [fp, #-8]
c200097c:	e50b100c 	str	r1, [fp, #-12]
c2000980:	e51b2008 	ldr	r2, [fp, #-8]
c2000984:	e51b300c 	ldr	r3, [fp, #-12]
c2000988:	e1520003 	cmp	r2, r3
c200098c:	03a03001 	moveq	r3, #1
c2000990:	13a03000 	movne	r3, #0
c2000994:	e6ef3073 	uxtb	r3, r3
c2000998:	e1a00003 	mov	r0, r3
c200099c:	e28bd000 	add	sp, fp, #0
c20009a0:	e49db004 	pop	{fp}		; (ldr fp, [sp], #4)
c20009a4:	e12fff1e 	bx	lr

c20009a8 <libc_list_is_empty>:
c20009a8:	e52db004 	push	{fp}		; (str fp, [sp, #-4]!)
c20009ac:	e28db000 	add	fp, sp, #0
c20009b0:	e24dd00c 	sub	sp, sp, #12
c20009b4:	e50b0008 	str	r0, [fp, #-8]
c20009b8:	e51b3008 	ldr	r3, [fp, #-8]
c20009bc:	e5933004 	ldr	r3, [r3, #4]
c20009c0:	e51b2008 	ldr	r2, [fp, #-8]
c20009c4:	e1520003 	cmp	r2, r3
c20009c8:	03a03001 	moveq	r3, #1
c20009cc:	13a03000 	movne	r3, #0
c20009d0:	e6ef3073 	uxtb	r3, r3
c20009d4:	e1a00003 	mov	r0, r3
c20009d8:	e28bd000 	add	sp, fp, #0
c20009dc:	e49db004 	pop	{fp}		; (ldr fp, [sp], #4)
c20009e0:	e12fff1e 	bx	lr

c20009e4 <strlen>:
c20009e4:	e52db004 	push	{fp}		; (str fp, [sp, #-4]!)
c20009e8:	e28db000 	add	fp, sp, #0
c20009ec:	e24dd014 	sub	sp, sp, #20
c20009f0:	e50b0010 	str	r0, [fp, #-16]
c20009f4:	e51b3010 	ldr	r3, [fp, #-16]
c20009f8:	e50b3008 	str	r3, [fp, #-8]
c20009fc:	ea000002 	b	c2000a0c <strlen+0x28>
c2000a00:	e51b3008 	ldr	r3, [fp, #-8]
c2000a04:	e2833001 	add	r3, r3, #1
c2000a08:	e50b3008 	str	r3, [fp, #-8]
c2000a0c:	e51b3008 	ldr	r3, [fp, #-8]
c2000a10:	e5d33000 	ldrb	r3, [r3]
c2000a14:	e3530000 	cmp	r3, #0
c2000a18:	1afffff8 	bne	c2000a00 <strlen+0x1c>
c2000a1c:	e51b2008 	ldr	r2, [fp, #-8]
c2000a20:	e51b3010 	ldr	r3, [fp, #-16]
c2000a24:	e0423003 	sub	r3, r2, r3
c2000a28:	e1a00003 	mov	r0, r3
c2000a2c:	e28bd000 	add	sp, fp, #0
c2000a30:	e49db004 	pop	{fp}		; (ldr fp, [sp], #4)
c2000a34:	e12fff1e 	bx	lr

c2000a38 <memset>:
c2000a38:	e52db004 	push	{fp}		; (str fp, [sp, #-4]!)
c2000a3c:	e28db000 	add	fp, sp, #0
c2000a40:	e24dd01c 	sub	sp, sp, #28
c2000a44:	e50b0010 	str	r0, [fp, #-16]
c2000a48:	e50b1014 	str	r1, [fp, #-20]	; 0xffffffec
c2000a4c:	e50b2018 	str	r2, [fp, #-24]	; 0xffffffe8
c2000a50:	e51b3010 	ldr	r3, [fp, #-16]
c2000a54:	e50b3008 	str	r3, [fp, #-8]
c2000a58:	ea000005 	b	c2000a74 <memset+0x3c>
c2000a5c:	e51b3008 	ldr	r3, [fp, #-8]
c2000a60:	e2832001 	add	r2, r3, #1
c2000a64:	e50b2008 	str	r2, [fp, #-8]
c2000a68:	e51b2014 	ldr	r2, [fp, #-20]	; 0xffffffec
c2000a6c:	e6ef2072 	uxtb	r2, r2
c2000a70:	e5c32000 	strb	r2, [r3]
c2000a74:	e51b3018 	ldr	r3, [fp, #-24]	; 0xffffffe8
c2000a78:	e2432001 	sub	r2, r3, #1
c2000a7c:	e50b2018 	str	r2, [fp, #-24]	; 0xffffffe8
c2000a80:	e3530000 	cmp	r3, #0
c2000a84:	1afffff4 	bne	c2000a5c <memset+0x24>
c2000a88:	e51b3010 	ldr	r3, [fp, #-16]
c2000a8c:	e1a00003 	mov	r0, r3
c2000a90:	e28bd000 	add	sp, fp, #0
c2000a94:	e49db004 	pop	{fp}		; (ldr fp, [sp], #4)
c2000a98:	e12fff1e 	bx	lr

c2000a9c <memcpy>:
c2000a9c:	e52db004 	push	{fp}		; (str fp, [sp, #-4]!)
c2000aa0:	e28db000 	add	fp, sp, #0
c2000aa4:	e24dd01c 	sub	sp, sp, #28
c2000aa8:	e50b0010 	str	r0, [fp, #-16]
c2000aac:	e50b1014 	str	r1, [fp, #-20]	; 0xffffffec
c2000ab0:	e50b2018 	str	r2, [fp, #-24]	; 0xffffffe8
c2000ab4:	e51b3010 	ldr	r3, [fp, #-16]
c2000ab8:	e50b3008 	str	r3, [fp, #-8]
c2000abc:	e51b3014 	ldr	r3, [fp, #-20]	; 0xffffffec
c2000ac0:	e50b300c 	str	r3, [fp, #-12]
c2000ac4:	ea000007 	b	c2000ae8 <memcpy+0x4c>
c2000ac8:	e51b200c 	ldr	r2, [fp, #-12]
c2000acc:	e2823001 	add	r3, r2, #1
c2000ad0:	e50b300c 	str	r3, [fp, #-12]
c2000ad4:	e51b3008 	ldr	r3, [fp, #-8]
c2000ad8:	e2831001 	add	r1, r3, #1
c2000adc:	e50b1008 	str	r1, [fp, #-8]
c2000ae0:	e5d22000 	ldrb	r2, [r2]
c2000ae4:	e5c32000 	strb	r2, [r3]
c2000ae8:	e51b3018 	ldr	r3, [fp, #-24]	; 0xffffffe8
c2000aec:	e2432001 	sub	r2, r3, #1
c2000af0:	e50b2018 	str	r2, [fp, #-24]	; 0xffffffe8
c2000af4:	e3530000 	cmp	r3, #0
c2000af8:	1afffff2 	bne	c2000ac8 <memcpy+0x2c>
c2000afc:	e51b3010 	ldr	r3, [fp, #-16]
c2000b00:	e1a00003 	mov	r0, r3
c2000b04:	e28bd000 	add	sp, fp, #0
c2000b08:	e49db004 	pop	{fp}		; (ldr fp, [sp], #4)
c2000b0c:	e12fff1e 	bx	lr

c2000b10 <_out_null>:
c2000b10:	e52db004 	push	{fp}		; (str fp, [sp, #-4]!)
c2000b14:	e28db000 	add	fp, sp, #0
c2000b18:	e24dd014 	sub	sp, sp, #20
c2000b1c:	e50b100c 	str	r1, [fp, #-12]
c2000b20:	e50b2010 	str	r2, [fp, #-16]
c2000b24:	e50b3014 	str	r3, [fp, #-20]	; 0xffffffec
c2000b28:	e1a03000 	mov	r3, r0
c2000b2c:	e54b3005 	strb	r3, [fp, #-5]
c2000b30:	e320f000 	nop	{0}
c2000b34:	e28bd000 	add	sp, fp, #0
c2000b38:	e49db004 	pop	{fp}		; (ldr fp, [sp], #4)
c2000b3c:	e12fff1e 	bx	lr

c2000b40 <_out_char>:
c2000b40:	e92d4800 	push	{fp, lr}
c2000b44:	e28db004 	add	fp, sp, #4
c2000b48:	e24dd010 	sub	sp, sp, #16
c2000b4c:	e50b100c 	str	r1, [fp, #-12]
c2000b50:	e50b2010 	str	r2, [fp, #-16]
c2000b54:	e50b3014 	str	r3, [fp, #-20]	; 0xffffffec
c2000b58:	e1a03000 	mov	r3, r0
c2000b5c:	e54b3005 	strb	r3, [fp, #-5]
c2000b60:	e55b3005 	ldrb	r3, [fp, #-5]
c2000b64:	e3530000 	cmp	r3, #0
c2000b68:	0a000002 	beq	c2000b78 <_out_char+0x38>
c2000b6c:	e55b3005 	ldrb	r3, [fp, #-5]
c2000b70:	e1a00003 	mov	r0, r3
c2000b74:	eb0009ba 	bl	c2003264 <_putchar>
c2000b78:	e320f000 	nop	{0}
c2000b7c:	e24bd004 	sub	sp, fp, #4
c2000b80:	e8bd8800 	pop	{fp, pc}

c2000b84 <_strnlen_s>:
c2000b84:	e52db004 	push	{fp}		; (str fp, [sp, #-4]!)
c2000b88:	e28db000 	add	fp, sp, #0
c2000b8c:	e24dd014 	sub	sp, sp, #20
c2000b90:	e50b0010 	str	r0, [fp, #-16]
c2000b94:	e50b1014 	str	r1, [fp, #-20]	; 0xffffffec
c2000b98:	e51b3010 	ldr	r3, [fp, #-16]
c2000b9c:	e50b3008 	str	r3, [fp, #-8]
c2000ba0:	ea000002 	b	c2000bb0 <_strnlen_s+0x2c>
c2000ba4:	e51b3008 	ldr	r3, [fp, #-8]
c2000ba8:	e2833001 	add	r3, r3, #1
c2000bac:	e50b3008 	str	r3, [fp, #-8]
c2000bb0:	e51b3008 	ldr	r3, [fp, #-8]
c2000bb4:	e5d33000 	ldrb	r3, [r3]
c2000bb8:	e3530000 	cmp	r3, #0
c2000bbc:	0a000004 	beq	c2000bd4 <_strnlen_s+0x50>
c2000bc0:	e51b3014 	ldr	r3, [fp, #-20]	; 0xffffffec
c2000bc4:	e2432001 	sub	r2, r3, #1
c2000bc8:	e50b2014 	str	r2, [fp, #-20]	; 0xffffffec
c2000bcc:	e3530000 	cmp	r3, #0
c2000bd0:	1afffff3 	bne	c2000ba4 <_strnlen_s+0x20>
c2000bd4:	e51b2008 	ldr	r2, [fp, #-8]
c2000bd8:	e51b3010 	ldr	r3, [fp, #-16]
c2000bdc:	e0423003 	sub	r3, r2, r3
c2000be0:	e1a00003 	mov	r0, r3
c2000be4:	e28bd000 	add	sp, fp, #0
c2000be8:	e49db004 	pop	{fp}		; (ldr fp, [sp], #4)
c2000bec:	e12fff1e 	bx	lr

c2000bf0 <_is_digit>:
c2000bf0:	e52db004 	push	{fp}		; (str fp, [sp, #-4]!)
c2000bf4:	e28db000 	add	fp, sp, #0
c2000bf8:	e24dd00c 	sub	sp, sp, #12
c2000bfc:	e1a03000 	mov	r3, r0
c2000c00:	e54b3005 	strb	r3, [fp, #-5]
c2000c04:	e55b3005 	ldrb	r3, [fp, #-5]
c2000c08:	e353002f 	cmp	r3, #47	; 0x2f
c2000c0c:	9a000004 	bls	c2000c24 <_is_digit+0x34>
c2000c10:	e55b3005 	ldrb	r3, [fp, #-5]
c2000c14:	e3530039 	cmp	r3, #57	; 0x39
c2000c18:	8a000001 	bhi	c2000c24 <_is_digit+0x34>
c2000c1c:	e3a03001 	mov	r3, #1
c2000c20:	ea000000 	b	c2000c28 <_is_digit+0x38>
c2000c24:	e3a03000 	mov	r3, #0
c2000c28:	e2033001 	and	r3, r3, #1
c2000c2c:	e6ef3073 	uxtb	r3, r3
c2000c30:	e1a00003 	mov	r0, r3
c2000c34:	e28bd000 	add	sp, fp, #0
c2000c38:	e49db004 	pop	{fp}		; (ldr fp, [sp], #4)
c2000c3c:	e12fff1e 	bx	lr

c2000c40 <_atoi>:
c2000c40:	e92d4800 	push	{fp, lr}
c2000c44:	e28db004 	add	fp, sp, #4
c2000c48:	e24dd010 	sub	sp, sp, #16
c2000c4c:	e50b0010 	str	r0, [fp, #-16]
c2000c50:	e3a03000 	mov	r3, #0
c2000c54:	e50b3008 	str	r3, [fp, #-8]
c2000c58:	ea00000b 	b	c2000c8c <_atoi+0x4c>
c2000c5c:	e51b3008 	ldr	r3, [fp, #-8]
c2000c60:	e3a0200a 	mov	r2, #10
c2000c64:	e0020392 	mul	r2, r2, r3
c2000c68:	e51b3010 	ldr	r3, [fp, #-16]
c2000c6c:	e5933000 	ldr	r3, [r3]
c2000c70:	e2830001 	add	r0, r3, #1
c2000c74:	e51b1010 	ldr	r1, [fp, #-16]
c2000c78:	e5810000 	str	r0, [r1]
c2000c7c:	e5d33000 	ldrb	r3, [r3]
c2000c80:	e0823003 	add	r3, r2, r3
c2000c84:	e2433030 	sub	r3, r3, #48	; 0x30
c2000c88:	e50b3008 	str	r3, [fp, #-8]
c2000c8c:	e51b3010 	ldr	r3, [fp, #-16]
c2000c90:	e5933000 	ldr	r3, [r3]
c2000c94:	e5d33000 	ldrb	r3, [r3]
c2000c98:	e1a00003 	mov	r0, r3
c2000c9c:	ebffffd3 	bl	c2000bf0 <_is_digit>
c2000ca0:	e1a03000 	mov	r3, r0
c2000ca4:	e3530000 	cmp	r3, #0
c2000ca8:	1affffeb 	bne	c2000c5c <_atoi+0x1c>
c2000cac:	e51b3008 	ldr	r3, [fp, #-8]
c2000cb0:	e1a00003 	mov	r0, r3
c2000cb4:	e24bd004 	sub	sp, fp, #4
c2000cb8:	e8bd8800 	pop	{fp, pc}

c2000cbc <_out_rev>:
c2000cbc:	e92d4810 	push	{r4, fp, lr}
c2000cc0:	e28db008 	add	fp, sp, #8
c2000cc4:	e24dd01c 	sub	sp, sp, #28
c2000cc8:	e50b0018 	str	r0, [fp, #-24]	; 0xffffffe8
c2000ccc:	e50b101c 	str	r1, [fp, #-28]	; 0xffffffe4
c2000cd0:	e50b2020 	str	r2, [fp, #-32]	; 0xffffffe0
c2000cd4:	e50b3024 	str	r3, [fp, #-36]	; 0xffffffdc
c2000cd8:	e51b3020 	ldr	r3, [fp, #-32]	; 0xffffffe0
c2000cdc:	e50b3014 	str	r3, [fp, #-20]	; 0xffffffec
c2000ce0:	e59b3010 	ldr	r3, [fp, #16]
c2000ce4:	e2033002 	and	r3, r3, #2
c2000ce8:	e3530000 	cmp	r3, #0
c2000cec:	1a000024 	bne	c2000d84 <_out_rev+0xc8>
c2000cf0:	e59b3010 	ldr	r3, [fp, #16]
c2000cf4:	e2033001 	and	r3, r3, #1
c2000cf8:	e3530000 	cmp	r3, #0
c2000cfc:	1a000020 	bne	c2000d84 <_out_rev+0xc8>
c2000d00:	e59b3008 	ldr	r3, [fp, #8]
c2000d04:	e50b3010 	str	r3, [fp, #-16]
c2000d08:	ea00000a 	b	c2000d38 <_out_rev+0x7c>
c2000d0c:	e51b2020 	ldr	r2, [fp, #-32]	; 0xffffffe0
c2000d10:	e2823001 	add	r3, r2, #1
c2000d14:	e50b3020 	str	r3, [fp, #-32]	; 0xffffffe0
c2000d18:	e51b4018 	ldr	r4, [fp, #-24]	; 0xffffffe8
c2000d1c:	e51b3024 	ldr	r3, [fp, #-36]	; 0xffffffdc
c2000d20:	e51b101c 	ldr	r1, [fp, #-28]	; 0xffffffe4
c2000d24:	e3a00020 	mov	r0, #32
c2000d28:	e12fff34 	blx	r4
c2000d2c:	e51b3010 	ldr	r3, [fp, #-16]
c2000d30:	e2833001 	add	r3, r3, #1
c2000d34:	e50b3010 	str	r3, [fp, #-16]
c2000d38:	e51b2010 	ldr	r2, [fp, #-16]
c2000d3c:	e59b300c 	ldr	r3, [fp, #12]
c2000d40:	e1520003 	cmp	r2, r3
c2000d44:	3afffff0 	bcc	c2000d0c <_out_rev+0x50>
c2000d48:	ea00000d 	b	c2000d84 <_out_rev+0xc8>
c2000d4c:	e59b3008 	ldr	r3, [fp, #8]
c2000d50:	e2433001 	sub	r3, r3, #1
c2000d54:	e58b3008 	str	r3, [fp, #8]
c2000d58:	e59b2004 	ldr	r2, [fp, #4]
c2000d5c:	e59b3008 	ldr	r3, [fp, #8]
c2000d60:	e0823003 	add	r3, r2, r3
c2000d64:	e5d30000 	ldrb	r0, [r3]
c2000d68:	e51b2020 	ldr	r2, [fp, #-32]	; 0xffffffe0
c2000d6c:	e2823001 	add	r3, r2, #1
c2000d70:	e50b3020 	str	r3, [fp, #-32]	; 0xffffffe0
c2000d74:	e51b4018 	ldr	r4, [fp, #-24]	; 0xffffffe8
c2000d78:	e51b3024 	ldr	r3, [fp, #-36]	; 0xffffffdc
c2000d7c:	e51b101c 	ldr	r1, [fp, #-28]	; 0xffffffe4
c2000d80:	e12fff34 	blx	r4
c2000d84:	e59b3008 	ldr	r3, [fp, #8]
c2000d88:	e3530000 	cmp	r3, #0
c2000d8c:	1affffee 	bne	c2000d4c <_out_rev+0x90>
c2000d90:	e59b3010 	ldr	r3, [fp, #16]
c2000d94:	e2033002 	and	r3, r3, #2
c2000d98:	e3530000 	cmp	r3, #0
c2000d9c:	0a00000e 	beq	c2000ddc <_out_rev+0x120>
c2000da0:	ea000007 	b	c2000dc4 <_out_rev+0x108>
c2000da4:	e51b2020 	ldr	r2, [fp, #-32]	; 0xffffffe0
c2000da8:	e2823001 	add	r3, r2, #1
c2000dac:	e50b3020 	str	r3, [fp, #-32]	; 0xffffffe0
c2000db0:	e51b4018 	ldr	r4, [fp, #-24]	; 0xffffffe8
c2000db4:	e51b3024 	ldr	r3, [fp, #-36]	; 0xffffffdc
c2000db8:	e51b101c 	ldr	r1, [fp, #-28]	; 0xffffffe4
c2000dbc:	e3a00020 	mov	r0, #32
c2000dc0:	e12fff34 	blx	r4
c2000dc4:	e51b2020 	ldr	r2, [fp, #-32]	; 0xffffffe0
c2000dc8:	e51b3014 	ldr	r3, [fp, #-20]	; 0xffffffec
c2000dcc:	e0423003 	sub	r3, r2, r3
c2000dd0:	e59b200c 	ldr	r2, [fp, #12]
c2000dd4:	e1520003 	cmp	r2, r3
c2000dd8:	8afffff1 	bhi	c2000da4 <_out_rev+0xe8>
c2000ddc:	e51b3020 	ldr	r3, [fp, #-32]	; 0xffffffe0
c2000de0:	e1a00003 	mov	r0, r3
c2000de4:	e24bd008 	sub	sp, fp, #8
c2000de8:	e8bd8810 	pop	{r4, fp, pc}

c2000dec <_ntoa_format>:
c2000dec:	e92d4800 	push	{fp, lr}
c2000df0:	e28db004 	add	fp, sp, #4
c2000df4:	e24dd020 	sub	sp, sp, #32
c2000df8:	e50b0008 	str	r0, [fp, #-8]
c2000dfc:	e50b100c 	str	r1, [fp, #-12]
c2000e00:	e50b2010 	str	r2, [fp, #-16]
c2000e04:	e50b3014 	str	r3, [fp, #-20]	; 0xffffffec
c2000e08:	e59b301c 	ldr	r3, [fp, #28]
c2000e0c:	e2033002 	and	r3, r3, #2
c2000e10:	e3530000 	cmp	r3, #0
c2000e14:	1a000032 	bne	c2000ee4 <_ntoa_format+0xf8>
c2000e18:	e59b3018 	ldr	r3, [fp, #24]
c2000e1c:	e3530000 	cmp	r3, #0
c2000e20:	0a000015 	beq	c2000e7c <_ntoa_format+0x90>
c2000e24:	e59b301c 	ldr	r3, [fp, #28]
c2000e28:	e2033001 	and	r3, r3, #1
c2000e2c:	e3530000 	cmp	r3, #0
c2000e30:	0a000011 	beq	c2000e7c <_ntoa_format+0x90>
c2000e34:	e5db300c 	ldrb	r3, [fp, #12]
c2000e38:	e3530000 	cmp	r3, #0
c2000e3c:	1a000003 	bne	c2000e50 <_ntoa_format+0x64>
c2000e40:	e59b301c 	ldr	r3, [fp, #28]
c2000e44:	e203300c 	and	r3, r3, #12
c2000e48:	e3530000 	cmp	r3, #0
c2000e4c:	0a00000a 	beq	c2000e7c <_ntoa_format+0x90>
c2000e50:	e59b3018 	ldr	r3, [fp, #24]
c2000e54:	e2433001 	sub	r3, r3, #1
c2000e58:	e58b3018 	str	r3, [fp, #24]
c2000e5c:	ea000006 	b	c2000e7c <_ntoa_format+0x90>
c2000e60:	e59b3008 	ldr	r3, [fp, #8]
c2000e64:	e2832001 	add	r2, r3, #1
c2000e68:	e58b2008 	str	r2, [fp, #8]
c2000e6c:	e59b2004 	ldr	r2, [fp, #4]
c2000e70:	e0823003 	add	r3, r2, r3
c2000e74:	e3a02030 	mov	r2, #48	; 0x30
c2000e78:	e5c32000 	strb	r2, [r3]
c2000e7c:	e59b2008 	ldr	r2, [fp, #8]
c2000e80:	e59b3014 	ldr	r3, [fp, #20]
c2000e84:	e1520003 	cmp	r2, r3
c2000e88:	2a00000a 	bcs	c2000eb8 <_ntoa_format+0xcc>
c2000e8c:	e59b3008 	ldr	r3, [fp, #8]
c2000e90:	e353001f 	cmp	r3, #31
c2000e94:	9afffff1 	bls	c2000e60 <_ntoa_format+0x74>
c2000e98:	ea000006 	b	c2000eb8 <_ntoa_format+0xcc>
c2000e9c:	e59b3008 	ldr	r3, [fp, #8]
c2000ea0:	e2832001 	add	r2, r3, #1
c2000ea4:	e58b2008 	str	r2, [fp, #8]
c2000ea8:	e59b2004 	ldr	r2, [fp, #4]
c2000eac:	e0823003 	add	r3, r2, r3
c2000eb0:	e3a02030 	mov	r2, #48	; 0x30
c2000eb4:	e5c32000 	strb	r2, [r3]
c2000eb8:	e59b301c 	ldr	r3, [fp, #28]
c2000ebc:	e2033001 	and	r3, r3, #1
c2000ec0:	e3530000 	cmp	r3, #0
c2000ec4:	0a000006 	beq	c2000ee4 <_ntoa_format+0xf8>
c2000ec8:	e59b2008 	ldr	r2, [fp, #8]
c2000ecc:	e59b3018 	ldr	r3, [fp, #24]
c2000ed0:	e1520003 	cmp	r2, r3
c2000ed4:	2a000002 	bcs	c2000ee4 <_ntoa_format+0xf8>
c2000ed8:	e59b3008 	ldr	r3, [fp, #8]
c2000edc:	e353001f 	cmp	r3, #31
c2000ee0:	9affffed 	bls	c2000e9c <_ntoa_format+0xb0>
c2000ee4:	e59b301c 	ldr	r3, [fp, #28]
c2000ee8:	e2033010 	and	r3, r3, #16
c2000eec:	e3530000 	cmp	r3, #0
c2000ef0:	0a000055 	beq	c200104c <_ntoa_format+0x260>
c2000ef4:	e59b301c 	ldr	r3, [fp, #28]
c2000ef8:	e2033b01 	and	r3, r3, #1024	; 0x400
c2000efc:	e3530000 	cmp	r3, #0
c2000f00:	1a000016 	bne	c2000f60 <_ntoa_format+0x174>
c2000f04:	e59b3008 	ldr	r3, [fp, #8]
c2000f08:	e3530000 	cmp	r3, #0
c2000f0c:	0a000013 	beq	c2000f60 <_ntoa_format+0x174>
c2000f10:	e59b2008 	ldr	r2, [fp, #8]
c2000f14:	e59b3014 	ldr	r3, [fp, #20]
c2000f18:	e1520003 	cmp	r2, r3
c2000f1c:	0a000003 	beq	c2000f30 <_ntoa_format+0x144>
c2000f20:	e59b2008 	ldr	r2, [fp, #8]
c2000f24:	e59b3018 	ldr	r3, [fp, #24]
c2000f28:	e1520003 	cmp	r2, r3
c2000f2c:	1a00000b 	bne	c2000f60 <_ntoa_format+0x174>
c2000f30:	e59b3008 	ldr	r3, [fp, #8]
c2000f34:	e2433001 	sub	r3, r3, #1
c2000f38:	e58b3008 	str	r3, [fp, #8]
c2000f3c:	e59b3008 	ldr	r3, [fp, #8]
c2000f40:	e3530000 	cmp	r3, #0
c2000f44:	0a000005 	beq	c2000f60 <_ntoa_format+0x174>
c2000f48:	e59b3010 	ldr	r3, [fp, #16]
c2000f4c:	e3530010 	cmp	r3, #16
c2000f50:	1a000002 	bne	c2000f60 <_ntoa_format+0x174>
c2000f54:	e59b3008 	ldr	r3, [fp, #8]
c2000f58:	e2433001 	sub	r3, r3, #1
c2000f5c:	e58b3008 	str	r3, [fp, #8]
c2000f60:	e59b3010 	ldr	r3, [fp, #16]
c2000f64:	e3530010 	cmp	r3, #16
c2000f68:	1a00000e 	bne	c2000fa8 <_ntoa_format+0x1bc>
c2000f6c:	e59b301c 	ldr	r3, [fp, #28]
c2000f70:	e2033020 	and	r3, r3, #32
c2000f74:	e3530000 	cmp	r3, #0
c2000f78:	1a00000a 	bne	c2000fa8 <_ntoa_format+0x1bc>
c2000f7c:	e59b3008 	ldr	r3, [fp, #8]
c2000f80:	e353001f 	cmp	r3, #31
c2000f84:	8a000007 	bhi	c2000fa8 <_ntoa_format+0x1bc>
c2000f88:	e59b3008 	ldr	r3, [fp, #8]
c2000f8c:	e2832001 	add	r2, r3, #1
c2000f90:	e58b2008 	str	r2, [fp, #8]
c2000f94:	e59b2004 	ldr	r2, [fp, #4]
c2000f98:	e0823003 	add	r3, r2, r3
c2000f9c:	e3a02078 	mov	r2, #120	; 0x78
c2000fa0:	e5c32000 	strb	r2, [r3]
c2000fa4:	ea00001e 	b	c2001024 <_ntoa_format+0x238>
c2000fa8:	e59b3010 	ldr	r3, [fp, #16]
c2000fac:	e3530010 	cmp	r3, #16
c2000fb0:	1a00000e 	bne	c2000ff0 <_ntoa_format+0x204>
c2000fb4:	e59b301c 	ldr	r3, [fp, #28]
c2000fb8:	e2033020 	and	r3, r3, #32
c2000fbc:	e3530000 	cmp	r3, #0
c2000fc0:	0a00000a 	beq	c2000ff0 <_ntoa_format+0x204>
c2000fc4:	e59b3008 	ldr	r3, [fp, #8]
c2000fc8:	e353001f 	cmp	r3, #31
c2000fcc:	8a000007 	bhi	c2000ff0 <_ntoa_format+0x204>
c2000fd0:	e59b3008 	ldr	r3, [fp, #8]
c2000fd4:	e2832001 	add	r2, r3, #1
c2000fd8:	e58b2008 	str	r2, [fp, #8]
c2000fdc:	e59b2004 	ldr	r2, [fp, #4]
c2000fe0:	e0823003 	add	r3, r2, r3
c2000fe4:	e3a02058 	mov	r2, #88	; 0x58
c2000fe8:	e5c32000 	strb	r2, [r3]
c2000fec:	ea00000c 	b	c2001024 <_ntoa_format+0x238>
c2000ff0:	e59b3010 	ldr	r3, [fp, #16]
c2000ff4:	e3530002 	cmp	r3, #2
c2000ff8:	1a000009 	bne	c2001024 <_ntoa_format+0x238>
c2000ffc:	e59b3008 	ldr	r3, [fp, #8]
c2001000:	e353001f 	cmp	r3, #31
c2001004:	8a000006 	bhi	c2001024 <_ntoa_format+0x238>
c2001008:	e59b3008 	ldr	r3, [fp, #8]
c200100c:	e2832001 	add	r2, r3, #1
c2001010:	e58b2008 	str	r2, [fp, #8]
c2001014:	e59b2004 	ldr	r2, [fp, #4]
c2001018:	e0823003 	add	r3, r2, r3
c200101c:	e3a02062 	mov	r2, #98	; 0x62
c2001020:	e5c32000 	strb	r2, [r3]
c2001024:	e59b3008 	ldr	r3, [fp, #8]
c2001028:	e353001f 	cmp	r3, #31
c200102c:	8a000006 	bhi	c200104c <_ntoa_format+0x260>
c2001030:	e59b3008 	ldr	r3, [fp, #8]
c2001034:	e2832001 	add	r2, r3, #1
c2001038:	e58b2008 	str	r2, [fp, #8]
c200103c:	e59b2004 	ldr	r2, [fp, #4]
c2001040:	e0823003 	add	r3, r2, r3
c2001044:	e3a02030 	mov	r2, #48	; 0x30
c2001048:	e5c32000 	strb	r2, [r3]
c200104c:	e59b3008 	ldr	r3, [fp, #8]
c2001050:	e353001f 	cmp	r3, #31
c2001054:	8a000021 	bhi	c20010e0 <_ntoa_format+0x2f4>
c2001058:	e5db300c 	ldrb	r3, [fp, #12]
c200105c:	e3530000 	cmp	r3, #0
c2001060:	0a000007 	beq	c2001084 <_ntoa_format+0x298>
c2001064:	e59b3008 	ldr	r3, [fp, #8]
c2001068:	e2832001 	add	r2, r3, #1
c200106c:	e58b2008 	str	r2, [fp, #8]
c2001070:	e59b2004 	ldr	r2, [fp, #4]
c2001074:	e0823003 	add	r3, r2, r3
c2001078:	e3a0202d 	mov	r2, #45	; 0x2d
c200107c:	e5c32000 	strb	r2, [r3]
c2001080:	ea000016 	b	c20010e0 <_ntoa_format+0x2f4>
c2001084:	e59b301c 	ldr	r3, [fp, #28]
c2001088:	e2033004 	and	r3, r3, #4
c200108c:	e3530000 	cmp	r3, #0
c2001090:	0a000007 	beq	c20010b4 <_ntoa_format+0x2c8>
c2001094:	e59b3008 	ldr	r3, [fp, #8]
c2001098:	e2832001 	add	r2, r3, #1
c200109c:	e58b2008 	str	r2, [fp, #8]
c20010a0:	e59b2004 	ldr	r2, [fp, #4]
c20010a4:	e0823003 	add	r3, r2, r3
c20010a8:	e3a0202b 	mov	r2, #43	; 0x2b
c20010ac:	e5c32000 	strb	r2, [r3]
c20010b0:	ea00000a 	b	c20010e0 <_ntoa_format+0x2f4>
c20010b4:	e59b301c 	ldr	r3, [fp, #28]
c20010b8:	e2033008 	and	r3, r3, #8
c20010bc:	e3530000 	cmp	r3, #0
c20010c0:	0a000006 	beq	c20010e0 <_ntoa_format+0x2f4>
c20010c4:	e59b3008 	ldr	r3, [fp, #8]
c20010c8:	e2832001 	add	r2, r3, #1
c20010cc:	e58b2008 	str	r2, [fp, #8]
c20010d0:	e59b2004 	ldr	r2, [fp, #4]
c20010d4:	e0823003 	add	r3, r2, r3
c20010d8:	e3a02020 	mov	r2, #32
c20010dc:	e5c32000 	strb	r2, [r3]
c20010e0:	e59b301c 	ldr	r3, [fp, #28]
c20010e4:	e58d300c 	str	r3, [sp, #12]
c20010e8:	e59b3018 	ldr	r3, [fp, #24]
c20010ec:	e58d3008 	str	r3, [sp, #8]
c20010f0:	e59b3008 	ldr	r3, [fp, #8]
c20010f4:	e58d3004 	str	r3, [sp, #4]
c20010f8:	e59b3004 	ldr	r3, [fp, #4]
c20010fc:	e58d3000 	str	r3, [sp]
c2001100:	e51b3014 	ldr	r3, [fp, #-20]	; 0xffffffec
c2001104:	e51b2010 	ldr	r2, [fp, #-16]
c2001108:	e51b100c 	ldr	r1, [fp, #-12]
c200110c:	e51b0008 	ldr	r0, [fp, #-8]
c2001110:	ebfffee9 	bl	c2000cbc <_out_rev>
c2001114:	e1a03000 	mov	r3, r0
c2001118:	e1a00003 	mov	r0, r3
c200111c:	e24bd004 	sub	sp, fp, #4
c2001120:	e8bd8800 	pop	{fp, pc}

c2001124 <_ntoa_long>:
c2001124:	e92d4800 	push	{fp, lr}
c2001128:	e28db004 	add	fp, sp, #4
c200112c:	e24dd058 	sub	sp, sp, #88	; 0x58
c2001130:	e50b0030 	str	r0, [fp, #-48]	; 0xffffffd0
c2001134:	e50b1034 	str	r1, [fp, #-52]	; 0xffffffcc
c2001138:	e50b2038 	str	r2, [fp, #-56]	; 0xffffffc8
c200113c:	e50b303c 	str	r3, [fp, #-60]	; 0xffffffc4
c2001140:	e3a03000 	mov	r3, #0
c2001144:	e50b3008 	str	r3, [fp, #-8]
c2001148:	e59b3004 	ldr	r3, [fp, #4]
c200114c:	e3530000 	cmp	r3, #0
c2001150:	1a000002 	bne	c2001160 <_ntoa_long+0x3c>
c2001154:	e59b3018 	ldr	r3, [fp, #24]
c2001158:	e3c33010 	bic	r3, r3, #16
c200115c:	e58b3018 	str	r3, [fp, #24]
c2001160:	e59b3018 	ldr	r3, [fp, #24]
c2001164:	e2033b01 	and	r3, r3, #1024	; 0x400
c2001168:	e3530000 	cmp	r3, #0
c200116c:	0a000002 	beq	c200117c <_ntoa_long+0x58>
c2001170:	e59b3004 	ldr	r3, [fp, #4]
c2001174:	e3530000 	cmp	r3, #0
c2001178:	0a000029 	beq	c2001224 <_ntoa_long+0x100>
c200117c:	e59b3004 	ldr	r3, [fp, #4]
c2001180:	e59b100c 	ldr	r1, [fp, #12]
c2001184:	e1a00003 	mov	r0, r3
c2001188:	fa000f5b 	blx	c2004efc <__aeabi_uidivmod>
c200118c:	e1a03001 	mov	r3, r1
c2001190:	e54b3009 	strb	r3, [fp, #-9]
c2001194:	e55b3009 	ldrb	r3, [fp, #-9]
c2001198:	e3530009 	cmp	r3, #9
c200119c:	8a000003 	bhi	c20011b0 <_ntoa_long+0x8c>
c20011a0:	e55b3009 	ldrb	r3, [fp, #-9]
c20011a4:	e2833030 	add	r3, r3, #48	; 0x30
c20011a8:	e6ef2073 	uxtb	r2, r3
c20011ac:	ea00000b 	b	c20011e0 <_ntoa_long+0xbc>
c20011b0:	e59b3018 	ldr	r3, [fp, #24]
c20011b4:	e2033020 	and	r3, r3, #32
c20011b8:	e3530000 	cmp	r3, #0
c20011bc:	0a000001 	beq	c20011c8 <_ntoa_long+0xa4>
c20011c0:	e3a02041 	mov	r2, #65	; 0x41
c20011c4:	ea000000 	b	c20011cc <_ntoa_long+0xa8>
c20011c8:	e3a02061 	mov	r2, #97	; 0x61
c20011cc:	e55b3009 	ldrb	r3, [fp, #-9]
c20011d0:	e0823003 	add	r3, r2, r3
c20011d4:	e6ef3073 	uxtb	r3, r3
c20011d8:	e243300a 	sub	r3, r3, #10
c20011dc:	e6ef2073 	uxtb	r2, r3
c20011e0:	e51b3008 	ldr	r3, [fp, #-8]
c20011e4:	e2831001 	add	r1, r3, #1
c20011e8:	e50b1008 	str	r1, [fp, #-8]
c20011ec:	e2433004 	sub	r3, r3, #4
c20011f0:	e083300b 	add	r3, r3, fp
c20011f4:	e5432028 	strb	r2, [r3, #-40]	; 0xffffffd8
c20011f8:	e59b100c 	ldr	r1, [fp, #12]
c20011fc:	e59b0004 	ldr	r0, [fp, #4]
c2001200:	fa000ea6 	blx	c2004ca0 <__udivsi3>
c2001204:	e1a03000 	mov	r3, r0
c2001208:	e58b3004 	str	r3, [fp, #4]
c200120c:	e59b3004 	ldr	r3, [fp, #4]
c2001210:	e3530000 	cmp	r3, #0
c2001214:	0a000002 	beq	c2001224 <_ntoa_long+0x100>
c2001218:	e51b3008 	ldr	r3, [fp, #-8]
c200121c:	e353001f 	cmp	r3, #31
c2001220:	9affffd5 	bls	c200117c <_ntoa_long+0x58>
c2001224:	e59b3018 	ldr	r3, [fp, #24]
c2001228:	e58d3018 	str	r3, [sp, #24]
c200122c:	e59b3014 	ldr	r3, [fp, #20]
c2001230:	e58d3014 	str	r3, [sp, #20]
c2001234:	e59b3010 	ldr	r3, [fp, #16]
c2001238:	e58d3010 	str	r3, [sp, #16]
c200123c:	e59b300c 	ldr	r3, [fp, #12]
c2001240:	e58d300c 	str	r3, [sp, #12]
c2001244:	e5db3008 	ldrb	r3, [fp, #8]
c2001248:	e58d3008 	str	r3, [sp, #8]
c200124c:	e51b3008 	ldr	r3, [fp, #-8]
c2001250:	e58d3004 	str	r3, [sp, #4]
c2001254:	e24b302c 	sub	r3, fp, #44	; 0x2c
c2001258:	e58d3000 	str	r3, [sp]
c200125c:	e51b303c 	ldr	r3, [fp, #-60]	; 0xffffffc4
c2001260:	e51b2038 	ldr	r2, [fp, #-56]	; 0xffffffc8
c2001264:	e51b1034 	ldr	r1, [fp, #-52]	; 0xffffffcc
c2001268:	e51b0030 	ldr	r0, [fp, #-48]	; 0xffffffd0
c200126c:	ebfffede 	bl	c2000dec <_ntoa_format>
c2001270:	e1a03000 	mov	r3, r0
c2001274:	e1a00003 	mov	r0, r3
c2001278:	e24bd004 	sub	sp, fp, #4
c200127c:	e8bd8800 	pop	{fp, pc}

c2001280 <_ntoa_long_long>:
c2001280:	e92d4800 	push	{fp, lr}
c2001284:	e28db004 	add	fp, sp, #4
c2001288:	e24dd058 	sub	sp, sp, #88	; 0x58
c200128c:	e50b0030 	str	r0, [fp, #-48]	; 0xffffffd0
c2001290:	e50b1034 	str	r1, [fp, #-52]	; 0xffffffcc
c2001294:	e50b2038 	str	r2, [fp, #-56]	; 0xffffffc8
c2001298:	e50b303c 	str	r3, [fp, #-60]	; 0xffffffc4
c200129c:	e3a03000 	mov	r3, #0
c20012a0:	e50b3008 	str	r3, [fp, #-8]
c20012a4:	e1cb20d4 	ldrd	r2, [fp, #4]
c20012a8:	e1923003 	orrs	r3, r2, r3
c20012ac:	1a000002 	bne	c20012bc <_ntoa_long_long+0x3c>
c20012b0:	e59b3024 	ldr	r3, [fp, #36]	; 0x24
c20012b4:	e3c33010 	bic	r3, r3, #16
c20012b8:	e58b3024 	str	r3, [fp, #36]	; 0x24
c20012bc:	e59b3024 	ldr	r3, [fp, #36]	; 0x24
c20012c0:	e2033b01 	and	r3, r3, #1024	; 0x400
c20012c4:	e3530000 	cmp	r3, #0
c20012c8:	0a000002 	beq	c20012d8 <_ntoa_long_long+0x58>
c20012cc:	e1cb20d4 	ldrd	r2, [fp, #4]
c20012d0:	e1923003 	orrs	r3, r2, r3
c20012d4:	0a000029 	beq	c2001380 <_ntoa_long_long+0x100>
c20012d8:	e1cb00d4 	ldrd	r0, [fp, #4]
c20012dc:	e1cb21d4 	ldrd	r2, [fp, #20]
c20012e0:	fa000f0d 	blx	c2004f1c <__aeabi_uldivmod>
c20012e4:	e1a03002 	mov	r3, r2
c20012e8:	e54b3009 	strb	r3, [fp, #-9]
c20012ec:	e55b3009 	ldrb	r3, [fp, #-9]
c20012f0:	e3530009 	cmp	r3, #9
c20012f4:	8a000003 	bhi	c2001308 <_ntoa_long_long+0x88>
c20012f8:	e55b3009 	ldrb	r3, [fp, #-9]
c20012fc:	e2833030 	add	r3, r3, #48	; 0x30
c2001300:	e6ef2073 	uxtb	r2, r3
c2001304:	ea00000b 	b	c2001338 <_ntoa_long_long+0xb8>
c2001308:	e59b3024 	ldr	r3, [fp, #36]	; 0x24
c200130c:	e2033020 	and	r3, r3, #32
c2001310:	e3530000 	cmp	r3, #0
c2001314:	0a000001 	beq	c2001320 <_ntoa_long_long+0xa0>
c2001318:	e3a02041 	mov	r2, #65	; 0x41
c200131c:	ea000000 	b	c2001324 <_ntoa_long_long+0xa4>
c2001320:	e3a02061 	mov	r2, #97	; 0x61
c2001324:	e55b3009 	ldrb	r3, [fp, #-9]
c2001328:	e0823003 	add	r3, r2, r3
c200132c:	e6ef3073 	uxtb	r3, r3
c2001330:	e243300a 	sub	r3, r3, #10
c2001334:	e6ef2073 	uxtb	r2, r3
c2001338:	e51b3008 	ldr	r3, [fp, #-8]
c200133c:	e2831001 	add	r1, r3, #1
c2001340:	e50b1008 	str	r1, [fp, #-8]
c2001344:	e2433004 	sub	r3, r3, #4
c2001348:	e083300b 	add	r3, r3, fp
c200134c:	e5432028 	strb	r2, [r3, #-40]	; 0xffffffd8
c2001350:	e1cb21d4 	ldrd	r2, [fp, #20]
c2001354:	e1cb00d4 	ldrd	r0, [fp, #4]
c2001358:	fa000eef 	blx	c2004f1c <__aeabi_uldivmod>
c200135c:	e1a02000 	mov	r2, r0
c2001360:	e1a03001 	mov	r3, r1
c2001364:	e1cb20f4 	strd	r2, [fp, #4]
c2001368:	e1cb20d4 	ldrd	r2, [fp, #4]
c200136c:	e1923003 	orrs	r3, r2, r3
c2001370:	0a000002 	beq	c2001380 <_ntoa_long_long+0x100>
c2001374:	e51b3008 	ldr	r3, [fp, #-8]
c2001378:	e353001f 	cmp	r3, #31
c200137c:	9affffd5 	bls	c20012d8 <_ntoa_long_long+0x58>
c2001380:	e59b3014 	ldr	r3, [fp, #20]
c2001384:	e59b2024 	ldr	r2, [fp, #36]	; 0x24
c2001388:	e58d2018 	str	r2, [sp, #24]
c200138c:	e59b2020 	ldr	r2, [fp, #32]
c2001390:	e58d2014 	str	r2, [sp, #20]
c2001394:	e59b201c 	ldr	r2, [fp, #28]
c2001398:	e58d2010 	str	r2, [sp, #16]
c200139c:	e58d300c 	str	r3, [sp, #12]
c20013a0:	e5db300c 	ldrb	r3, [fp, #12]
c20013a4:	e58d3008 	str	r3, [sp, #8]
c20013a8:	e51b3008 	ldr	r3, [fp, #-8]
c20013ac:	e58d3004 	str	r3, [sp, #4]
c20013b0:	e24b302c 	sub	r3, fp, #44	; 0x2c
c20013b4:	e58d3000 	str	r3, [sp]
c20013b8:	e51b303c 	ldr	r3, [fp, #-60]	; 0xffffffc4
c20013bc:	e51b2038 	ldr	r2, [fp, #-56]	; 0xffffffc8
c20013c0:	e51b1034 	ldr	r1, [fp, #-52]	; 0xffffffcc
c20013c4:	e51b0030 	ldr	r0, [fp, #-48]	; 0xffffffd0
c20013c8:	ebfffe87 	bl	c2000dec <_ntoa_format>
c20013cc:	e1a03000 	mov	r3, r0
c20013d0:	e1a00003 	mov	r0, r3
c20013d4:	e24bd004 	sub	sp, fp, #4
c20013d8:	e8bd8800 	pop	{fp, pc}
c20013dc:	00000000 	andeq	r0, r0, r0

c20013e0 <_ftoa>:
c20013e0:	e92d4800 	push	{fp, lr}
c20013e4:	e28db004 	add	fp, sp, #4
c20013e8:	e24dd070 	sub	sp, sp, #112	; 0x70
c20013ec:	e50b0050 	str	r0, [fp, #-80]	; 0xffffffb0
c20013f0:	e50b1054 	str	r1, [fp, #-84]	; 0xffffffac
c20013f4:	e50b2058 	str	r2, [fp, #-88]	; 0xffffffa8
c20013f8:	e50b305c 	str	r3, [fp, #-92]	; 0xffffffa4
c20013fc:	ed0b0b19 	vstr	d0, [fp, #-100]	; 0xffffff9c
c2001400:	e3a03000 	mov	r3, #0
c2001404:	e50b3008 	str	r3, [fp, #-8]
c2001408:	e3a02000 	mov	r2, #0
c200140c:	e3a03000 	mov	r3, #0
c2001410:	e14b22f4 	strd	r2, [fp, #-36]	; 0xffffffdc
c2001414:	ed1b6b19 	vldr	d6, [fp, #-100]	; 0xffffff9c
c2001418:	ed1b7b19 	vldr	d7, [fp, #-100]	; 0xffffff9c
c200141c:	eeb46b47 	vcmp.f64	d6, d7
c2001420:	eef1fa10 	vmrs	APSR_nzcv, fpscr
c2001424:	0a00000f 	beq	c2001468 <_ftoa+0x88>
c2001428:	e59b300c 	ldr	r3, [fp, #12]
c200142c:	e58d300c 	str	r3, [sp, #12]
c2001430:	e59b3008 	ldr	r3, [fp, #8]
c2001434:	e58d3008 	str	r3, [sp, #8]
c2001438:	e3a03003 	mov	r3, #3
c200143c:	e58d3004 	str	r3, [sp, #4]
c2001440:	e3053100 	movw	r3, #20736	; 0x5100
c2001444:	e34c3200 	movt	r3, #49664	; 0xc200
c2001448:	e58d3000 	str	r3, [sp]
c200144c:	e51b305c 	ldr	r3, [fp, #-92]	; 0xffffffa4
c2001450:	e51b2058 	ldr	r2, [fp, #-88]	; 0xffffffa8
c2001454:	e51b1054 	ldr	r1, [fp, #-84]	; 0xffffffac
c2001458:	e51b0050 	ldr	r0, [fp, #-80]	; 0xffffffb0
c200145c:	ebfffe16 	bl	c2000cbc <_out_rev>
c2001460:	e1a03000 	mov	r3, r0
c2001464:	ea00019b 	b	c2001ad8 <_ftoa+0x6f8>
c2001468:	ed1b7b19 	vldr	d7, [fp, #-100]	; 0xffffff9c
c200146c:	ed9f6bfb 	vldr	d6, [pc, #1004]	; c2001860 <_ftoa+0x480>
c2001470:	eeb47bc6 	vcmpe.f64	d7, d6
c2001474:	eef1fa10 	vmrs	APSR_nzcv, fpscr
c2001478:	5a00000f 	bpl	c20014bc <_ftoa+0xdc>
c200147c:	e59b300c 	ldr	r3, [fp, #12]
c2001480:	e58d300c 	str	r3, [sp, #12]
c2001484:	e59b3008 	ldr	r3, [fp, #8]
c2001488:	e58d3008 	str	r3, [sp, #8]
c200148c:	e3a03004 	mov	r3, #4
c2001490:	e58d3004 	str	r3, [sp, #4]
c2001494:	e3053104 	movw	r3, #20740	; 0x5104
c2001498:	e34c3200 	movt	r3, #49664	; 0xc200
c200149c:	e58d3000 	str	r3, [sp]
c20014a0:	e51b305c 	ldr	r3, [fp, #-92]	; 0xffffffa4
c20014a4:	e51b2058 	ldr	r2, [fp, #-88]	; 0xffffffa8
c20014a8:	e51b1054 	ldr	r1, [fp, #-84]	; 0xffffffac
c20014ac:	e51b0050 	ldr	r0, [fp, #-80]	; 0xffffffb0
c20014b0:	ebfffe01 	bl	c2000cbc <_out_rev>
c20014b4:	e1a03000 	mov	r3, r0
c20014b8:	ea000186 	b	c2001ad8 <_ftoa+0x6f8>
c20014bc:	ed1b7b19 	vldr	d7, [fp, #-100]	; 0xffffff9c
c20014c0:	ed9f6be8 	vldr	d6, [pc, #928]	; c2001868 <_ftoa+0x488>
c20014c4:	eeb47bc6 	vcmpe.f64	d7, d6
c20014c8:	eef1fa10 	vmrs	APSR_nzcv, fpscr
c20014cc:	da00001c 	ble	c2001544 <_ftoa+0x164>
c20014d0:	e59b300c 	ldr	r3, [fp, #12]
c20014d4:	e2033004 	and	r3, r3, #4
c20014d8:	e3530000 	cmp	r3, #0
c20014dc:	0a000002 	beq	c20014ec <_ftoa+0x10c>
c20014e0:	e305310c 	movw	r3, #20748	; 0x510c
c20014e4:	e34c3200 	movt	r3, #49664	; 0xc200
c20014e8:	ea000001 	b	c20014f4 <_ftoa+0x114>
c20014ec:	e3053114 	movw	r3, #20756	; 0x5114
c20014f0:	e34c3200 	movt	r3, #49664	; 0xc200
c20014f4:	e59b200c 	ldr	r2, [fp, #12]
c20014f8:	e2022004 	and	r2, r2, #4
c20014fc:	e3520000 	cmp	r2, #0
c2001500:	0a000001 	beq	c200150c <_ftoa+0x12c>
c2001504:	e3a02004 	mov	r2, #4
c2001508:	ea000000 	b	c2001510 <_ftoa+0x130>
c200150c:	e3a02003 	mov	r2, #3
c2001510:	e59b100c 	ldr	r1, [fp, #12]
c2001514:	e58d100c 	str	r1, [sp, #12]
c2001518:	e59b1008 	ldr	r1, [fp, #8]
c200151c:	e58d1008 	str	r1, [sp, #8]
c2001520:	e58d2004 	str	r2, [sp, #4]
c2001524:	e58d3000 	str	r3, [sp]
c2001528:	e51b305c 	ldr	r3, [fp, #-92]	; 0xffffffa4
c200152c:	e51b2058 	ldr	r2, [fp, #-88]	; 0xffffffa8
c2001530:	e51b1054 	ldr	r1, [fp, #-84]	; 0xffffffac
c2001534:	e51b0050 	ldr	r0, [fp, #-80]	; 0xffffffb0
c2001538:	ebfffddf 	bl	c2000cbc <_out_rev>
c200153c:	e1a03000 	mov	r3, r0
c2001540:	ea000164 	b	c2001ad8 <_ftoa+0x6f8>
c2001544:	ed1b7b19 	vldr	d7, [fp, #-100]	; 0xffffff9c
c2001548:	ed9f6bc8 	vldr	d6, [pc, #800]	; c2001870 <_ftoa+0x490>
c200154c:	eeb47bc6 	vcmpe.f64	d7, d6
c2001550:	eef1fa10 	vmrs	APSR_nzcv, fpscr
c2001554:	ca000004 	bgt	c200156c <_ftoa+0x18c>
c2001558:	ed1b7b19 	vldr	d7, [fp, #-100]	; 0xffffff9c
c200155c:	ed9f6bc5 	vldr	d6, [pc, #788]	; c2001878 <_ftoa+0x498>
c2001560:	eeb47bc6 	vcmpe.f64	d7, d6
c2001564:	eef1fa10 	vmrs	APSR_nzcv, fpscr
c2001568:	5a00000d 	bpl	c20015a4 <_ftoa+0x1c4>
c200156c:	e59b300c 	ldr	r3, [fp, #12]
c2001570:	e58d3008 	str	r3, [sp, #8]
c2001574:	e59b3008 	ldr	r3, [fp, #8]
c2001578:	e58d3004 	str	r3, [sp, #4]
c200157c:	e59b3004 	ldr	r3, [fp, #4]
c2001580:	e58d3000 	str	r3, [sp]
c2001584:	ed1b0b19 	vldr	d0, [fp, #-100]	; 0xffffff9c
c2001588:	e51b305c 	ldr	r3, [fp, #-92]	; 0xffffffa4
c200158c:	e51b2058 	ldr	r2, [fp, #-88]	; 0xffffffa8
c2001590:	e51b1054 	ldr	r1, [fp, #-84]	; 0xffffffac
c2001594:	e51b0050 	ldr	r0, [fp, #-80]	; 0xffffffb0
c2001598:	eb000152 	bl	c2001ae8 <_etoa>
c200159c:	e1a03000 	mov	r3, r0
c20015a0:	ea00014c 	b	c2001ad8 <_ftoa+0x6f8>
c20015a4:	e3a03000 	mov	r3, #0
c20015a8:	e54b3009 	strb	r3, [fp, #-9]
c20015ac:	ed1b7b19 	vldr	d7, [fp, #-100]	; 0xffffff9c
c20015b0:	eeb57bc0 	vcmpe.f64	d7, #0.0
c20015b4:	eef1fa10 	vmrs	APSR_nzcv, fpscr
c20015b8:	5a000005 	bpl	c20015d4 <_ftoa+0x1f4>
c20015bc:	e3a03001 	mov	r3, #1
c20015c0:	e54b3009 	strb	r3, [fp, #-9]
c20015c4:	ed9f6bad 	vldr	d6, [pc, #692]	; c2001880 <_ftoa+0x4a0>
c20015c8:	ed1b7b19 	vldr	d7, [fp, #-100]	; 0xffffff9c
c20015cc:	ee367b47 	vsub.f64	d7, d6, d7
c20015d0:	ed0b7b19 	vstr	d7, [fp, #-100]	; 0xffffff9c
c20015d4:	e59b300c 	ldr	r3, [fp, #12]
c20015d8:	e2033b01 	and	r3, r3, #1024	; 0x400
c20015dc:	e3530000 	cmp	r3, #0
c20015e0:	1a00000c 	bne	c2001618 <_ftoa+0x238>
c20015e4:	e3a03006 	mov	r3, #6
c20015e8:	e58b3004 	str	r3, [fp, #4]
c20015ec:	ea000009 	b	c2001618 <_ftoa+0x238>
c20015f0:	e51b3008 	ldr	r3, [fp, #-8]
c20015f4:	e2832001 	add	r2, r3, #1
c20015f8:	e50b2008 	str	r2, [fp, #-8]
c20015fc:	e2433004 	sub	r3, r3, #4
c2001600:	e083300b 	add	r3, r3, fp
c2001604:	e3a02030 	mov	r2, #48	; 0x30
c2001608:	e5432048 	strb	r2, [r3, #-72]	; 0xffffffb8
c200160c:	e59b3004 	ldr	r3, [fp, #4]
c2001610:	e2433001 	sub	r3, r3, #1
c2001614:	e58b3004 	str	r3, [fp, #4]
c2001618:	e51b3008 	ldr	r3, [fp, #-8]
c200161c:	e353001f 	cmp	r3, #31
c2001620:	8a000002 	bhi	c2001630 <_ftoa+0x250>
c2001624:	e59b3004 	ldr	r3, [fp, #4]
c2001628:	e3530009 	cmp	r3, #9
c200162c:	8affffef 	bhi	c20015f0 <_ftoa+0x210>
c2001630:	ed1b7b19 	vldr	d7, [fp, #-100]	; 0xffffff9c
c2001634:	eefd7bc7 	vcvt.s32.f64	s15, d7
c2001638:	ee173a90 	vmov	r3, s15
c200163c:	e50b3010 	str	r3, [fp, #-16]
c2001640:	e51b3010 	ldr	r3, [fp, #-16]
c2001644:	ee073a90 	vmov	s15, r3
c2001648:	eeb87be7 	vcvt.f64.s32	d7, s15
c200164c:	ed1b6b19 	vldr	d6, [fp, #-100]	; 0xffffff9c
c2001650:	ee366b47 	vsub.f64	d6, d6, d7
c2001654:	e3053118 	movw	r3, #20760	; 0x5118
c2001658:	e34c3200 	movt	r3, #49664	; 0xc200
c200165c:	e59b2004 	ldr	r2, [fp, #4]
c2001660:	e1a02182 	lsl	r2, r2, #3
c2001664:	e0833002 	add	r3, r3, r2
c2001668:	ed937b00 	vldr	d7, [r3]
c200166c:	ee267b07 	vmul.f64	d7, d6, d7
c2001670:	ed0b7b0b 	vstr	d7, [fp, #-44]	; 0xffffffd4
c2001674:	ed1b7b0b 	vldr	d7, [fp, #-44]	; 0xffffffd4
c2001678:	eefc7bc7 	vcvt.u32.f64	s15, d7
c200167c:	ee173a90 	vmov	r3, s15
c2001680:	e50b3014 	str	r3, [fp, #-20]	; 0xffffffec
c2001684:	e51b3014 	ldr	r3, [fp, #-20]	; 0xffffffec
c2001688:	ee073a90 	vmov	s15, r3
c200168c:	eeb87b67 	vcvt.f64.u32	d7, s15
c2001690:	ed1b6b0b 	vldr	d6, [fp, #-44]	; 0xffffffd4
c2001694:	ee367b47 	vsub.f64	d7, d6, d7
c2001698:	ed0b7b09 	vstr	d7, [fp, #-36]	; 0xffffffdc
c200169c:	ed1b7b09 	vldr	d7, [fp, #-36]	; 0xffffffdc
c20016a0:	eeb66b00 	vmov.f64	d6, #96	; 0x3f000000  0.5
c20016a4:	eeb47bc6 	vcmpe.f64	d7, d6
c20016a8:	eef1fa10 	vmrs	APSR_nzcv, fpscr
c20016ac:	da000014 	ble	c2001704 <_ftoa+0x324>
c20016b0:	e51b3014 	ldr	r3, [fp, #-20]	; 0xffffffec
c20016b4:	e2833001 	add	r3, r3, #1
c20016b8:	e50b3014 	str	r3, [fp, #-20]	; 0xffffffec
c20016bc:	e51b3014 	ldr	r3, [fp, #-20]	; 0xffffffec
c20016c0:	ee073a90 	vmov	s15, r3
c20016c4:	eeb86b67 	vcvt.f64.u32	d6, s15
c20016c8:	e3053118 	movw	r3, #20760	; 0x5118
c20016cc:	e34c3200 	movt	r3, #49664	; 0xc200
c20016d0:	e59b2004 	ldr	r2, [fp, #4]
c20016d4:	e1a02182 	lsl	r2, r2, #3
c20016d8:	e0833002 	add	r3, r3, r2
c20016dc:	ed937b00 	vldr	d7, [r3]
c20016e0:	eeb46bc7 	vcmpe.f64	d6, d7
c20016e4:	eef1fa10 	vmrs	APSR_nzcv, fpscr
c20016e8:	ba000014 	blt	c2001740 <_ftoa+0x360>
c20016ec:	e3a03000 	mov	r3, #0
c20016f0:	e50b3014 	str	r3, [fp, #-20]	; 0xffffffec
c20016f4:	e51b3010 	ldr	r3, [fp, #-16]
c20016f8:	e2833001 	add	r3, r3, #1
c20016fc:	e50b3010 	str	r3, [fp, #-16]
c2001700:	ea00000e 	b	c2001740 <_ftoa+0x360>
c2001704:	ed1b7b09 	vldr	d7, [fp, #-36]	; 0xffffffdc
c2001708:	eeb66b00 	vmov.f64	d6, #96	; 0x3f000000  0.5
c200170c:	eeb47bc6 	vcmpe.f64	d7, d6
c2001710:	eef1fa10 	vmrs	APSR_nzcv, fpscr
c2001714:	4a000009 	bmi	c2001740 <_ftoa+0x360>
c2001718:	e51b3014 	ldr	r3, [fp, #-20]	; 0xffffffec
c200171c:	e3530000 	cmp	r3, #0
c2001720:	0a000003 	beq	c2001734 <_ftoa+0x354>
c2001724:	e51b3014 	ldr	r3, [fp, #-20]	; 0xffffffec
c2001728:	e2033001 	and	r3, r3, #1
c200172c:	e3530000 	cmp	r3, #0
c2001730:	0a000002 	beq	c2001740 <_ftoa+0x360>
c2001734:	e51b3014 	ldr	r3, [fp, #-20]	; 0xffffffec
c2001738:	e2833001 	add	r3, r3, #1
c200173c:	e50b3014 	str	r3, [fp, #-20]	; 0xffffffec
c2001740:	e59b3004 	ldr	r3, [fp, #4]
c2001744:	e3530000 	cmp	r3, #0
c2001748:	1a00001d 	bne	c20017c4 <_ftoa+0x3e4>
c200174c:	e51b3010 	ldr	r3, [fp, #-16]
c2001750:	ee073a90 	vmov	s15, r3
c2001754:	eeb87be7 	vcvt.f64.s32	d7, s15
c2001758:	ed1b6b19 	vldr	d6, [fp, #-100]	; 0xffffff9c
c200175c:	ee367b47 	vsub.f64	d7, d6, d7
c2001760:	ed0b7b09 	vstr	d7, [fp, #-36]	; 0xffffffdc
c2001764:	ed1b7b09 	vldr	d7, [fp, #-36]	; 0xffffffdc
c2001768:	eeb66b00 	vmov.f64	d6, #96	; 0x3f000000  0.5
c200176c:	eeb47bc6 	vcmpe.f64	d7, d6
c2001770:	eef1fa10 	vmrs	APSR_nzcv, fpscr
c2001774:	43a03001 	movmi	r3, #1
c2001778:	53a03000 	movpl	r3, #0
c200177c:	e6ef3073 	uxtb	r3, r3
c2001780:	e2233001 	eor	r3, r3, #1
c2001784:	e6ef3073 	uxtb	r3, r3
c2001788:	e3530000 	cmp	r3, #0
c200178c:	1a000004 	bne	c20017a4 <_ftoa+0x3c4>
c2001790:	ed1b7b09 	vldr	d7, [fp, #-36]	; 0xffffffdc
c2001794:	eeb66b00 	vmov.f64	d6, #96	; 0x3f000000  0.5
c2001798:	eeb47bc6 	vcmpe.f64	d7, d6
c200179c:	eef1fa10 	vmrs	APSR_nzcv, fpscr
c20017a0:	da000051 	ble	c20018ec <_ftoa+0x50c>
c20017a4:	e51b3010 	ldr	r3, [fp, #-16]
c20017a8:	e2033001 	and	r3, r3, #1
c20017ac:	e3530000 	cmp	r3, #0
c20017b0:	0a00006c 	beq	c2001968 <_ftoa+0x588>
c20017b4:	e51b3010 	ldr	r3, [fp, #-16]
c20017b8:	e2833001 	add	r3, r3, #1
c20017bc:	e50b3010 	str	r3, [fp, #-16]
c20017c0:	ea000068 	b	c2001968 <_ftoa+0x588>
c20017c4:	e59b3004 	ldr	r3, [fp, #4]
c20017c8:	e50b3018 	str	r3, [fp, #-24]	; 0xffffffe8
c20017cc:	ea00001c 	b	c2001844 <_ftoa+0x464>
c20017d0:	e51b3018 	ldr	r3, [fp, #-24]	; 0xffffffe8
c20017d4:	e2433001 	sub	r3, r3, #1
c20017d8:	e50b3018 	str	r3, [fp, #-24]	; 0xffffffe8
c20017dc:	e51b2014 	ldr	r2, [fp, #-20]	; 0xffffffec
c20017e0:	e30c3ccd 	movw	r3, #52429	; 0xcccd
c20017e4:	e34c3ccc 	movt	r3, #52428	; 0xcccc
c20017e8:	e0831293 	umull	r1, r3, r3, r2
c20017ec:	e1a031a3 	lsr	r3, r3, #3
c20017f0:	e3a0100a 	mov	r1, #10
c20017f4:	e0030391 	mul	r3, r1, r3
c20017f8:	e0423003 	sub	r3, r2, r3
c20017fc:	e6ef2073 	uxtb	r2, r3
c2001800:	e51b3008 	ldr	r3, [fp, #-8]
c2001804:	e2831001 	add	r1, r3, #1
c2001808:	e50b1008 	str	r1, [fp, #-8]
c200180c:	e2822030 	add	r2, r2, #48	; 0x30
c2001810:	e6ef2072 	uxtb	r2, r2
c2001814:	e2433004 	sub	r3, r3, #4
c2001818:	e083300b 	add	r3, r3, fp
c200181c:	e5432048 	strb	r2, [r3, #-72]	; 0xffffffb8
c2001820:	e51b2014 	ldr	r2, [fp, #-20]	; 0xffffffec
c2001824:	e30c3ccd 	movw	r3, #52429	; 0xcccd
c2001828:	e34c3ccc 	movt	r3, #52428	; 0xcccc
c200182c:	e0832293 	umull	r2, r3, r3, r2
c2001830:	e1a031a3 	lsr	r3, r3, #3
c2001834:	e50b3014 	str	r3, [fp, #-20]	; 0xffffffec
c2001838:	e51b3014 	ldr	r3, [fp, #-20]	; 0xffffffec
c200183c:	e3530000 	cmp	r3, #0
c2001840:	0a000003 	beq	c2001854 <_ftoa+0x474>
c2001844:	e51b3008 	ldr	r3, [fp, #-8]
c2001848:	e353001f 	cmp	r3, #31
c200184c:	9affffdf 	bls	c20017d0 <_ftoa+0x3f0>
c2001850:	ea000013 	b	c20018a4 <_ftoa+0x4c4>
c2001854:	e320f000 	nop	{0}
c2001858:	ea000011 	b	c20018a4 <_ftoa+0x4c4>
c200185c:	e320f000 	nop	{0}
c2001860:	ffffffff 			; <UNDEFINED> instruction: 0xffffffff
c2001864:	ffefffff 			; <UNDEFINED> instruction: 0xffefffff
c2001868:	ffffffff 			; <UNDEFINED> instruction: 0xffffffff
c200186c:	7fefffff 	svcvc	0x00efffff
c2001870:	00000000 	andeq	r0, r0, r0
c2001874:	41cdcd65 	bicmi	ip, sp, r5, ror #26
c2001878:	00000000 	andeq	r0, r0, r0
c200187c:	c1cdcd65 	bicgt	ip, sp, r5, ror #26
	...
c2001888:	e51b3008 	ldr	r3, [fp, #-8]
c200188c:	e2832001 	add	r2, r3, #1
c2001890:	e50b2008 	str	r2, [fp, #-8]
c2001894:	e2433004 	sub	r3, r3, #4
c2001898:	e083300b 	add	r3, r3, fp
c200189c:	e3a02030 	mov	r2, #48	; 0x30
c20018a0:	e5432048 	strb	r2, [r3, #-72]	; 0xffffffb8
c20018a4:	e51b3008 	ldr	r3, [fp, #-8]
c20018a8:	e353001f 	cmp	r3, #31
c20018ac:	8a000004 	bhi	c20018c4 <_ftoa+0x4e4>
c20018b0:	e51b3018 	ldr	r3, [fp, #-24]	; 0xffffffe8
c20018b4:	e2432001 	sub	r2, r3, #1
c20018b8:	e50b2018 	str	r2, [fp, #-24]	; 0xffffffe8
c20018bc:	e3530000 	cmp	r3, #0
c20018c0:	1afffff0 	bne	c2001888 <_ftoa+0x4a8>
c20018c4:	e51b3008 	ldr	r3, [fp, #-8]
c20018c8:	e353001f 	cmp	r3, #31
c20018cc:	8a000025 	bhi	c2001968 <_ftoa+0x588>
c20018d0:	e51b3008 	ldr	r3, [fp, #-8]
c20018d4:	e2832001 	add	r2, r3, #1
c20018d8:	e50b2008 	str	r2, [fp, #-8]
c20018dc:	e2433004 	sub	r3, r3, #4
c20018e0:	e083300b 	add	r3, r3, fp
c20018e4:	e3a0202e 	mov	r2, #46	; 0x2e
c20018e8:	e5432048 	strb	r2, [r3, #-72]	; 0xffffffb8
c20018ec:	ea00001d 	b	c2001968 <_ftoa+0x588>
c20018f0:	e51b3010 	ldr	r3, [fp, #-16]
c20018f4:	e3062667 	movw	r2, #26215	; 0x6667
c20018f8:	e3462666 	movt	r2, #26214	; 0x6666
c20018fc:	e0c21392 	smull	r1, r2, r2, r3
c2001900:	e1a01142 	asr	r1, r2, #2
c2001904:	e1a02fc3 	asr	r2, r3, #31
c2001908:	e0412002 	sub	r2, r1, r2
c200190c:	e3a0100a 	mov	r1, #10
c2001910:	e0020291 	mul	r2, r1, r2
c2001914:	e0432002 	sub	r2, r3, r2
c2001918:	e6ef2072 	uxtb	r2, r2
c200191c:	e51b3008 	ldr	r3, [fp, #-8]
c2001920:	e2831001 	add	r1, r3, #1
c2001924:	e50b1008 	str	r1, [fp, #-8]
c2001928:	e2822030 	add	r2, r2, #48	; 0x30
c200192c:	e6ef2072 	uxtb	r2, r2
c2001930:	e2433004 	sub	r3, r3, #4
c2001934:	e083300b 	add	r3, r3, fp
c2001938:	e5432048 	strb	r2, [r3, #-72]	; 0xffffffb8
c200193c:	e51b2010 	ldr	r2, [fp, #-16]
c2001940:	e3063667 	movw	r3, #26215	; 0x6667
c2001944:	e3463666 	movt	r3, #26214	; 0x6666
c2001948:	e0c31293 	smull	r1, r3, r3, r2
c200194c:	e1a01143 	asr	r1, r3, #2
c2001950:	e1a03fc2 	asr	r3, r2, #31
c2001954:	e0413003 	sub	r3, r1, r3
c2001958:	e50b3010 	str	r3, [fp, #-16]
c200195c:	e51b3010 	ldr	r3, [fp, #-16]
c2001960:	e3530000 	cmp	r3, #0
c2001964:	0a000003 	beq	c2001978 <_ftoa+0x598>
c2001968:	e51b3008 	ldr	r3, [fp, #-8]
c200196c:	e353001f 	cmp	r3, #31
c2001970:	9affffde 	bls	c20018f0 <_ftoa+0x510>
c2001974:	ea000000 	b	c200197c <_ftoa+0x59c>
c2001978:	e320f000 	nop	{0}
c200197c:	e59b300c 	ldr	r3, [fp, #12]
c2001980:	e2033002 	and	r3, r3, #2
c2001984:	e3530000 	cmp	r3, #0
c2001988:	1a00001f 	bne	c2001a0c <_ftoa+0x62c>
c200198c:	e59b300c 	ldr	r3, [fp, #12]
c2001990:	e2033001 	and	r3, r3, #1
c2001994:	e3530000 	cmp	r3, #0
c2001998:	0a00001b 	beq	c2001a0c <_ftoa+0x62c>
c200199c:	e59b3008 	ldr	r3, [fp, #8]
c20019a0:	e3530000 	cmp	r3, #0
c20019a4:	0a000011 	beq	c20019f0 <_ftoa+0x610>
c20019a8:	e55b3009 	ldrb	r3, [fp, #-9]
c20019ac:	e3530000 	cmp	r3, #0
c20019b0:	1a000003 	bne	c20019c4 <_ftoa+0x5e4>
c20019b4:	e59b300c 	ldr	r3, [fp, #12]
c20019b8:	e203300c 	and	r3, r3, #12
c20019bc:	e3530000 	cmp	r3, #0
c20019c0:	0a00000a 	beq	c20019f0 <_ftoa+0x610>
c20019c4:	e59b3008 	ldr	r3, [fp, #8]
c20019c8:	e2433001 	sub	r3, r3, #1
c20019cc:	e58b3008 	str	r3, [fp, #8]
c20019d0:	ea000006 	b	c20019f0 <_ftoa+0x610>
c20019d4:	e51b3008 	ldr	r3, [fp, #-8]
c20019d8:	e2832001 	add	r2, r3, #1
c20019dc:	e50b2008 	str	r2, [fp, #-8]
c20019e0:	e2433004 	sub	r3, r3, #4
c20019e4:	e083300b 	add	r3, r3, fp
c20019e8:	e3a02030 	mov	r2, #48	; 0x30
c20019ec:	e5432048 	strb	r2, [r3, #-72]	; 0xffffffb8
c20019f0:	e51b2008 	ldr	r2, [fp, #-8]
c20019f4:	e59b3008 	ldr	r3, [fp, #8]
c20019f8:	e1520003 	cmp	r2, r3
c20019fc:	2a000002 	bcs	c2001a0c <_ftoa+0x62c>
c2001a00:	e51b3008 	ldr	r3, [fp, #-8]
c2001a04:	e353001f 	cmp	r3, #31
c2001a08:	9afffff1 	bls	c20019d4 <_ftoa+0x5f4>
c2001a0c:	e51b3008 	ldr	r3, [fp, #-8]
c2001a10:	e353001f 	cmp	r3, #31
c2001a14:	8a000021 	bhi	c2001aa0 <_ftoa+0x6c0>
c2001a18:	e55b3009 	ldrb	r3, [fp, #-9]
c2001a1c:	e3530000 	cmp	r3, #0
c2001a20:	0a000007 	beq	c2001a44 <_ftoa+0x664>
c2001a24:	e51b3008 	ldr	r3, [fp, #-8]
c2001a28:	e2832001 	add	r2, r3, #1
c2001a2c:	e50b2008 	str	r2, [fp, #-8]
c2001a30:	e2433004 	sub	r3, r3, #4
c2001a34:	e083300b 	add	r3, r3, fp
c2001a38:	e3a0202d 	mov	r2, #45	; 0x2d
c2001a3c:	e5432048 	strb	r2, [r3, #-72]	; 0xffffffb8
c2001a40:	ea000016 	b	c2001aa0 <_ftoa+0x6c0>
c2001a44:	e59b300c 	ldr	r3, [fp, #12]
c2001a48:	e2033004 	and	r3, r3, #4
c2001a4c:	e3530000 	cmp	r3, #0
c2001a50:	0a000007 	beq	c2001a74 <_ftoa+0x694>
c2001a54:	e51b3008 	ldr	r3, [fp, #-8]
c2001a58:	e2832001 	add	r2, r3, #1
c2001a5c:	e50b2008 	str	r2, [fp, #-8]
c2001a60:	e2433004 	sub	r3, r3, #4
c2001a64:	e083300b 	add	r3, r3, fp
c2001a68:	e3a0202b 	mov	r2, #43	; 0x2b
c2001a6c:	e5432048 	strb	r2, [r3, #-72]	; 0xffffffb8
c2001a70:	ea00000a 	b	c2001aa0 <_ftoa+0x6c0>
c2001a74:	e59b300c 	ldr	r3, [fp, #12]
c2001a78:	e2033008 	and	r3, r3, #8
c2001a7c:	e3530000 	cmp	r3, #0
c2001a80:	0a000006 	beq	c2001aa0 <_ftoa+0x6c0>
c2001a84:	e51b3008 	ldr	r3, [fp, #-8]
c2001a88:	e2832001 	add	r2, r3, #1
c2001a8c:	e50b2008 	str	r2, [fp, #-8]
c2001a90:	e2433004 	sub	r3, r3, #4
c2001a94:	e083300b 	add	r3, r3, fp
c2001a98:	e3a02020 	mov	r2, #32
c2001a9c:	e5432048 	strb	r2, [r3, #-72]	; 0xffffffb8
c2001aa0:	e59b300c 	ldr	r3, [fp, #12]
c2001aa4:	e58d300c 	str	r3, [sp, #12]
c2001aa8:	e59b3008 	ldr	r3, [fp, #8]
c2001aac:	e58d3008 	str	r3, [sp, #8]
c2001ab0:	e51b3008 	ldr	r3, [fp, #-8]
c2001ab4:	e58d3004 	str	r3, [sp, #4]
c2001ab8:	e24b304c 	sub	r3, fp, #76	; 0x4c
c2001abc:	e58d3000 	str	r3, [sp]
c2001ac0:	e51b305c 	ldr	r3, [fp, #-92]	; 0xffffffa4
c2001ac4:	e51b2058 	ldr	r2, [fp, #-88]	; 0xffffffa8
c2001ac8:	e51b1054 	ldr	r1, [fp, #-84]	; 0xffffffac
c2001acc:	e51b0050 	ldr	r0, [fp, #-80]	; 0xffffffb0
c2001ad0:	ebfffc79 	bl	c2000cbc <_out_rev>
c2001ad4:	e1a03000 	mov	r3, r0
c2001ad8:	e1a00003 	mov	r0, r3
c2001adc:	e24bd004 	sub	sp, fp, #4
c2001ae0:	e8bd8800 	pop	{fp, pc}
c2001ae4:	00000000 	andeq	r0, r0, r0

c2001ae8 <_etoa>:
c2001ae8:	e92d4bf0 	push	{r4, r5, r6, r7, r8, r9, fp, lr}
c2001aec:	e28db01c 	add	fp, sp, #28
c2001af0:	e24dd068 	sub	sp, sp, #104	; 0x68
c2001af4:	e50b0058 	str	r0, [fp, #-88]	; 0xffffffa8
c2001af8:	e50b105c 	str	r1, [fp, #-92]	; 0xffffffa4
c2001afc:	e50b2060 	str	r2, [fp, #-96]	; 0xffffffa0
c2001b00:	e50b3064 	str	r3, [fp, #-100]	; 0xffffff9c
c2001b04:	ed0b0b1b 	vstr	d0, [fp, #-108]	; 0xffffff94
c2001b08:	ed1b6b1b 	vldr	d6, [fp, #-108]	; 0xffffff94
c2001b0c:	ed1b7b1b 	vldr	d7, [fp, #-108]	; 0xffffff94
c2001b10:	eeb46b47 	vcmp.f64	d6, d7
c2001b14:	eef1fa10 	vmrs	APSR_nzcv, fpscr
c2001b18:	1a000009 	bne	c2001b44 <_etoa+0x5c>
c2001b1c:	ed1b7b1b 	vldr	d7, [fp, #-108]	; 0xffffff94
c2001b20:	ed9f6bec 	vldr	d6, [pc, #944]	; c2001ed8 <_etoa+0x3f0>
c2001b24:	eeb47bc6 	vcmpe.f64	d7, d6
c2001b28:	eef1fa10 	vmrs	APSR_nzcv, fpscr
c2001b2c:	ca000004 	bgt	c2001b44 <_etoa+0x5c>
c2001b30:	ed1b7b1b 	vldr	d7, [fp, #-108]	; 0xffffff94
c2001b34:	ed9f6be9 	vldr	d6, [pc, #932]	; c2001ee0 <_etoa+0x3f8>
c2001b38:	eeb47bc6 	vcmpe.f64	d7, d6
c2001b3c:	eef1fa10 	vmrs	APSR_nzcv, fpscr
c2001b40:	5a00000d 	bpl	c2001b7c <_etoa+0x94>
c2001b44:	e59b300c 	ldr	r3, [fp, #12]
c2001b48:	e58d3008 	str	r3, [sp, #8]
c2001b4c:	e59b3008 	ldr	r3, [fp, #8]
c2001b50:	e58d3004 	str	r3, [sp, #4]
c2001b54:	e59b3004 	ldr	r3, [fp, #4]
c2001b58:	e58d3000 	str	r3, [sp]
c2001b5c:	ed1b0b1b 	vldr	d0, [fp, #-108]	; 0xffffff94
c2001b60:	e51b3064 	ldr	r3, [fp, #-100]	; 0xffffff9c
c2001b64:	e51b2060 	ldr	r2, [fp, #-96]	; 0xffffffa0
c2001b68:	e51b105c 	ldr	r1, [fp, #-92]	; 0xffffffa4
c2001b6c:	e51b0058 	ldr	r0, [fp, #-88]	; 0xffffffa8
c2001b70:	ebfffe1a 	bl	c20013e0 <_ftoa>
c2001b74:	e1a03000 	mov	r3, r0
c2001b78:	ea000136 	b	c2002058 <_etoa+0x570>
c2001b7c:	ed1b7b1b 	vldr	d7, [fp, #-108]	; 0xffffff94
c2001b80:	eeb57bc0 	vcmpe.f64	d7, #0.0
c2001b84:	eef1fa10 	vmrs	APSR_nzcv, fpscr
c2001b88:	43a03001 	movmi	r3, #1
c2001b8c:	53a03000 	movpl	r3, #0
c2001b90:	e54b3029 	strb	r3, [fp, #-41]	; 0xffffffd7
c2001b94:	e55b3029 	ldrb	r3, [fp, #-41]	; 0xffffffd7
c2001b98:	e3530000 	cmp	r3, #0
c2001b9c:	0a000002 	beq	c2001bac <_etoa+0xc4>
c2001ba0:	ed1b7b1b 	vldr	d7, [fp, #-108]	; 0xffffff94
c2001ba4:	eeb17b47 	vneg.f64	d7, d7
c2001ba8:	ed0b7b1b 	vstr	d7, [fp, #-108]	; 0xffffff94
c2001bac:	e59b300c 	ldr	r3, [fp, #12]
c2001bb0:	e2033b01 	and	r3, r3, #1024	; 0x400
c2001bb4:	e3530000 	cmp	r3, #0
c2001bb8:	1a000001 	bne	c2001bc4 <_etoa+0xdc>
c2001bbc:	e3a03006 	mov	r3, #6
c2001bc0:	e58b3004 	str	r3, [fp, #4]
c2001bc4:	e14b26dc 	ldrd	r2, [fp, #-108]	; 0xffffff94
c2001bc8:	e14b25f4 	strd	r2, [fp, #-84]	; 0xffffffac
c2001bcc:	e14b05d4 	ldrd	r0, [fp, #-84]	; 0xffffffac
c2001bd0:	e3a02000 	mov	r2, #0
c2001bd4:	e3a03000 	mov	r3, #0
c2001bd8:	e1a02a21 	lsr	r2, r1, #20
c2001bdc:	e3a03000 	mov	r3, #0
c2001be0:	e1a03002 	mov	r3, r2
c2001be4:	e7ea3053 	ubfx	r3, r3, #0, #11
c2001be8:	e2433fff 	sub	r3, r3, #1020	; 0x3fc
c2001bec:	e2433003 	sub	r3, r3, #3
c2001bf0:	e50b3030 	str	r3, [fp, #-48]	; 0xffffffd0
c2001bf4:	e14b25d4 	ldrd	r2, [fp, #-84]	; 0xffffffac
c2001bf8:	e1a06002 	mov	r6, r2
c2001bfc:	e7f37053 	ubfx	r7, r3, #0, #20
c2001c00:	e1a04006 	mov	r4, r6
c2001c04:	e38755ff 	orr	r5, r7, #1069547520	; 0x3fc00000
c2001c08:	e3855603 	orr	r5, r5, #3145728	; 0x300000
c2001c0c:	e14b45f4 	strd	r4, [fp, #-84]	; 0xffffffac
c2001c10:	e51b3030 	ldr	r3, [fp, #-48]	; 0xffffffd0
c2001c14:	ee073a90 	vmov	s15, r3
c2001c18:	eeb87be7 	vcvt.f64.s32	d7, s15
c2001c1c:	ed9f6bb1 	vldr	d6, [pc, #708]	; c2001ee8 <_etoa+0x400>
c2001c20:	ee277b06 	vmul.f64	d7, d7, d6
c2001c24:	ed9f6bb1 	vldr	d6, [pc, #708]	; c2001ef0 <_etoa+0x408>
c2001c28:	ee376b06 	vadd.f64	d6, d7, d6
c2001c2c:	ed1b7b15 	vldr	d7, [fp, #-84]	; 0xffffffac
c2001c30:	eeb75b08 	vmov.f64	d5, #120	; 0x3fc00000  1.5
c2001c34:	ee377b45 	vsub.f64	d7, d7, d5
c2001c38:	ed9f5bae 	vldr	d5, [pc, #696]	; c2001ef8 <_etoa+0x410>
c2001c3c:	ee277b05 	vmul.f64	d7, d7, d5
c2001c40:	ee367b07 	vadd.f64	d7, d6, d7
c2001c44:	eefd7bc7 	vcvt.s32.f64	s15, d7
c2001c48:	ee173a90 	vmov	r3, s15
c2001c4c:	e50b3020 	str	r3, [fp, #-32]	; 0xffffffe0
c2001c50:	e51b3020 	ldr	r3, [fp, #-32]	; 0xffffffe0
c2001c54:	ee073a90 	vmov	s15, r3
c2001c58:	eeb87be7 	vcvt.f64.s32	d7, s15
c2001c5c:	ed9f6ba7 	vldr	d6, [pc, #668]	; c2001f00 <_etoa+0x418>
c2001c60:	ee277b06 	vmul.f64	d7, d7, d6
c2001c64:	eeb66b00 	vmov.f64	d6, #96	; 0x3f000000  0.5
c2001c68:	ee377b06 	vadd.f64	d7, d7, d6
c2001c6c:	eefd7bc7 	vcvt.s32.f64	s15, d7
c2001c70:	ee173a90 	vmov	r3, s15
c2001c74:	e50b3030 	str	r3, [fp, #-48]	; 0xffffffd0
c2001c78:	e51b3020 	ldr	r3, [fp, #-32]	; 0xffffffe0
c2001c7c:	ee073a90 	vmov	s15, r3
c2001c80:	eeb87be7 	vcvt.f64.s32	d7, s15
c2001c84:	ed9f6b9f 	vldr	d6, [pc, #636]	; c2001f08 <_etoa+0x420>
c2001c88:	ee276b06 	vmul.f64	d6, d7, d6
c2001c8c:	e51b3030 	ldr	r3, [fp, #-48]	; 0xffffffd0
c2001c90:	ee073a90 	vmov	s15, r3
c2001c94:	eeb87be7 	vcvt.f64.s32	d7, s15
c2001c98:	ed9f5b9c 	vldr	d5, [pc, #624]	; c2001f10 <_etoa+0x428>
c2001c9c:	ee277b05 	vmul.f64	d7, d7, d5
c2001ca0:	ee367b47 	vsub.f64	d7, d6, d7
c2001ca4:	ed0b7b0f 	vstr	d7, [fp, #-60]	; 0xffffffc4
c2001ca8:	ed1b7b0f 	vldr	d7, [fp, #-60]	; 0xffffffc4
c2001cac:	ee277b07 	vmul.f64	d7, d7, d7
c2001cb0:	ed0b7b11 	vstr	d7, [fp, #-68]	; 0xffffffbc
c2001cb4:	e51b3030 	ldr	r3, [fp, #-48]	; 0xffffffd0
c2001cb8:	e2833fff 	add	r3, r3, #1020	; 0x3fc
c2001cbc:	e2833003 	add	r3, r3, #3
c2001cc0:	e1a02fc3 	asr	r2, r3, #31
c2001cc4:	e1a08003 	mov	r8, r3
c2001cc8:	e1a09002 	mov	r9, r2
c2001ccc:	e3a02000 	mov	r2, #0
c2001cd0:	e3a03000 	mov	r3, #0
c2001cd4:	e1a03a08 	lsl	r3, r8, #20
c2001cd8:	e3a02000 	mov	r2, #0
c2001cdc:	e14b25f4 	strd	r2, [fp, #-84]	; 0xffffffac
c2001ce0:	ed1b6b15 	vldr	d6, [fp, #-84]	; 0xffffffac
c2001ce4:	ed1b7b0f 	vldr	d7, [fp, #-60]	; 0xffffffc4
c2001ce8:	ee374b07 	vadd.f64	d4, d7, d7
c2001cec:	eeb05b00 	vmov.f64	d5, #0	; 0x40000000  2.0
c2001cf0:	ed1b7b0f 	vldr	d7, [fp, #-60]	; 0xffffffc4
c2001cf4:	ee355b47 	vsub.f64	d5, d5, d7
c2001cf8:	ed1b3b11 	vldr	d3, [fp, #-68]	; 0xffffffbc
c2001cfc:	eeb22b0c 	vmov.f64	d2, #44	; 0x41600000  14.0
c2001d00:	ee837b02 	vdiv.f64	d7, d3, d2
c2001d04:	eeb23b04 	vmov.f64	d3, #36	; 0x41200000  10.0
c2001d08:	ee373b03 	vadd.f64	d3, d7, d3
c2001d0c:	ed1b2b11 	vldr	d2, [fp, #-68]	; 0xffffffbc
c2001d10:	ee827b03 	vdiv.f64	d7, d2, d3
c2001d14:	eeb13b08 	vmov.f64	d3, #24	; 0x40c00000  6.0
c2001d18:	ee373b03 	vadd.f64	d3, d7, d3
c2001d1c:	ed1b2b11 	vldr	d2, [fp, #-68]	; 0xffffffbc
c2001d20:	ee827b03 	vdiv.f64	d7, d2, d3
c2001d24:	ee355b07 	vadd.f64	d5, d5, d7
c2001d28:	ee847b05 	vdiv.f64	d7, d4, d5
c2001d2c:	eeb75b00 	vmov.f64	d5, #112	; 0x3f800000  1.0
c2001d30:	ee377b05 	vadd.f64	d7, d7, d5
c2001d34:	ee267b07 	vmul.f64	d7, d6, d7
c2001d38:	ed0b7b15 	vstr	d7, [fp, #-84]	; 0xffffffac
c2001d3c:	ed1b7b15 	vldr	d7, [fp, #-84]	; 0xffffffac
c2001d40:	ed1b6b1b 	vldr	d6, [fp, #-108]	; 0xffffff94
c2001d44:	eeb46bc7 	vcmpe.f64	d6, d7
c2001d48:	eef1fa10 	vmrs	APSR_nzcv, fpscr
c2001d4c:	5a000006 	bpl	c2001d6c <_etoa+0x284>
c2001d50:	e51b3020 	ldr	r3, [fp, #-32]	; 0xffffffe0
c2001d54:	e2433001 	sub	r3, r3, #1
c2001d58:	e50b3020 	str	r3, [fp, #-32]	; 0xffffffe0
c2001d5c:	ed1b6b15 	vldr	d6, [fp, #-84]	; 0xffffffac
c2001d60:	eeb25b04 	vmov.f64	d5, #36	; 0x41200000  10.0
c2001d64:	ee867b05 	vdiv.f64	d7, d6, d5
c2001d68:	ed0b7b15 	vstr	d7, [fp, #-84]	; 0xffffffac
c2001d6c:	e51b3020 	ldr	r3, [fp, #-32]	; 0xffffffe0
c2001d70:	e3530063 	cmp	r3, #99	; 0x63
c2001d74:	ca000004 	bgt	c2001d8c <_etoa+0x2a4>
c2001d78:	e51b3020 	ldr	r3, [fp, #-32]	; 0xffffffe0
c2001d7c:	e3730063 	cmn	r3, #99	; 0x63
c2001d80:	ba000001 	blt	c2001d8c <_etoa+0x2a4>
c2001d84:	e3a03004 	mov	r3, #4
c2001d88:	ea000000 	b	c2001d90 <_etoa+0x2a8>
c2001d8c:	e3a03005 	mov	r3, #5
c2001d90:	e50b3024 	str	r3, [fp, #-36]	; 0xffffffdc
c2001d94:	e59b300c 	ldr	r3, [fp, #12]
c2001d98:	e2033b02 	and	r3, r3, #2048	; 0x800
c2001d9c:	e3530000 	cmp	r3, #0
c2001da0:	0a000027 	beq	c2001e44 <_etoa+0x35c>
c2001da4:	ed1b7b1b 	vldr	d7, [fp, #-108]	; 0xffffff94
c2001da8:	ed9f6b5a 	vldr	d6, [pc, #360]	; c2001f18 <_etoa+0x430>
c2001dac:	eeb47bc6 	vcmpe.f64	d7, d6
c2001db0:	eef1fa10 	vmrs	APSR_nzcv, fpscr
c2001db4:	ba000018 	blt	c2001e1c <_etoa+0x334>
c2001db8:	ed1b7b1b 	vldr	d7, [fp, #-108]	; 0xffffff94
c2001dbc:	ed9f6b57 	vldr	d6, [pc, #348]	; c2001f20 <_etoa+0x438>
c2001dc0:	eeb47bc6 	vcmpe.f64	d7, d6
c2001dc4:	eef1fa10 	vmrs	APSR_nzcv, fpscr
c2001dc8:	5a000013 	bpl	c2001e1c <_etoa+0x334>
c2001dcc:	e59b3004 	ldr	r3, [fp, #4]
c2001dd0:	e51b2020 	ldr	r2, [fp, #-32]	; 0xffffffe0
c2001dd4:	e1520003 	cmp	r2, r3
c2001dd8:	aa000005 	bge	c2001df4 <_etoa+0x30c>
c2001ddc:	e59b2004 	ldr	r2, [fp, #4]
c2001de0:	e51b3020 	ldr	r3, [fp, #-32]	; 0xffffffe0
c2001de4:	e0423003 	sub	r3, r2, r3
c2001de8:	e2433001 	sub	r3, r3, #1
c2001dec:	e58b3004 	str	r3, [fp, #4]
c2001df0:	ea000001 	b	c2001dfc <_etoa+0x314>
c2001df4:	e3a03000 	mov	r3, #0
c2001df8:	e58b3004 	str	r3, [fp, #4]
c2001dfc:	e59b300c 	ldr	r3, [fp, #12]
c2001e00:	e3833b01 	orr	r3, r3, #1024	; 0x400
c2001e04:	e58b300c 	str	r3, [fp, #12]
c2001e08:	e3a03000 	mov	r3, #0
c2001e0c:	e50b3024 	str	r3, [fp, #-36]	; 0xffffffdc
c2001e10:	e3a03000 	mov	r3, #0
c2001e14:	e50b3020 	str	r3, [fp, #-32]	; 0xffffffe0
c2001e18:	ea000009 	b	c2001e44 <_etoa+0x35c>
c2001e1c:	e59b3004 	ldr	r3, [fp, #4]
c2001e20:	e3530000 	cmp	r3, #0
c2001e24:	0a000006 	beq	c2001e44 <_etoa+0x35c>
c2001e28:	e59b300c 	ldr	r3, [fp, #12]
c2001e2c:	e2033b01 	and	r3, r3, #1024	; 0x400
c2001e30:	e3530000 	cmp	r3, #0
c2001e34:	0a000002 	beq	c2001e44 <_etoa+0x35c>
c2001e38:	e59b3004 	ldr	r3, [fp, #4]
c2001e3c:	e2433001 	sub	r3, r3, #1
c2001e40:	e58b3004 	str	r3, [fp, #4]
c2001e44:	e59b3008 	ldr	r3, [fp, #8]
c2001e48:	e50b3028 	str	r3, [fp, #-40]	; 0xffffffd8
c2001e4c:	e59b2008 	ldr	r2, [fp, #8]
c2001e50:	e51b3024 	ldr	r3, [fp, #-36]	; 0xffffffdc
c2001e54:	e1520003 	cmp	r2, r3
c2001e58:	9a000004 	bls	c2001e70 <_etoa+0x388>
c2001e5c:	e51b2028 	ldr	r2, [fp, #-40]	; 0xffffffd8
c2001e60:	e51b3024 	ldr	r3, [fp, #-36]	; 0xffffffdc
c2001e64:	e0423003 	sub	r3, r2, r3
c2001e68:	e50b3028 	str	r3, [fp, #-40]	; 0xffffffd8
c2001e6c:	ea000001 	b	c2001e78 <_etoa+0x390>
c2001e70:	e3a03000 	mov	r3, #0
c2001e74:	e50b3028 	str	r3, [fp, #-40]	; 0xffffffd8
c2001e78:	e59b300c 	ldr	r3, [fp, #12]
c2001e7c:	e2033002 	and	r3, r3, #2
c2001e80:	e3530000 	cmp	r3, #0
c2001e84:	0a000004 	beq	c2001e9c <_etoa+0x3b4>
c2001e88:	e51b3024 	ldr	r3, [fp, #-36]	; 0xffffffdc
c2001e8c:	e3530000 	cmp	r3, #0
c2001e90:	0a000001 	beq	c2001e9c <_etoa+0x3b4>
c2001e94:	e3a03000 	mov	r3, #0
c2001e98:	e50b3028 	str	r3, [fp, #-40]	; 0xffffffd8
c2001e9c:	e51b3020 	ldr	r3, [fp, #-32]	; 0xffffffe0
c2001ea0:	e3530000 	cmp	r3, #0
c2001ea4:	0a000003 	beq	c2001eb8 <_etoa+0x3d0>
c2001ea8:	ed1b6b15 	vldr	d6, [fp, #-84]	; 0xffffffac
c2001eac:	ed1b5b1b 	vldr	d5, [fp, #-108]	; 0xffffff94
c2001eb0:	ee857b06 	vdiv.f64	d7, d5, d6
c2001eb4:	ed0b7b1b 	vstr	d7, [fp, #-108]	; 0xffffff94
c2001eb8:	e51b3060 	ldr	r3, [fp, #-96]	; 0xffffffa0
c2001ebc:	e50b3048 	str	r3, [fp, #-72]	; 0xffffffb8
c2001ec0:	e55b3029 	ldrb	r3, [fp, #-41]	; 0xffffffd7
c2001ec4:	e3530000 	cmp	r3, #0
c2001ec8:	0a000016 	beq	c2001f28 <_etoa+0x440>
c2001ecc:	ed1b7b1b 	vldr	d7, [fp, #-108]	; 0xffffff94
c2001ed0:	eeb17b47 	vneg.f64	d7, d7
c2001ed4:	ea000014 	b	c2001f2c <_etoa+0x444>
c2001ed8:	ffffffff 			; <UNDEFINED> instruction: 0xffffffff
c2001edc:	7fefffff 	svcvc	0x00efffff
c2001ee0:	ffffffff 			; <UNDEFINED> instruction: 0xffffffff
c2001ee4:	ffefffff 			; <UNDEFINED> instruction: 0xffefffff
c2001ee8:	509f79fb 			; <UNDEFINED> instruction: 0x509f79fb
c2001eec:	3fd34413 	svccc	0x00d34413
c2001ef0:	8b60c8b3 	blhi	c38341c4 <_stack_end+0x180dfc4>
c2001ef4:	3fc68a28 	svccc	0x00c68a28
c2001ef8:	636f4361 	cmnvs	pc, #-2080374783	; 0x84000001
c2001efc:	3fd287a7 	svccc	0x00d287a7
c2001f00:	0979a371 	ldmdbeq	r9!, {r0, r4, r5, r6, r8, r9, sp, pc}^
c2001f04:	400a934f 	andmi	r9, sl, pc, asr #6
c2001f08:	bbb55516 	bllt	c0d57368 <SYS_MODE+0xc0d57349>
c2001f0c:	40026bb1 			; <UNDEFINED> instruction: 0x40026bb1
c2001f10:	fefa39ef 			; <UNDEFINED> instruction: 0xfefa39ef
c2001f14:	3fe62e42 	svccc	0x00e62e42
c2001f18:	eb1c432d 	bl	c2712bd4 <_stack_end+0x6ec9d4>
c2001f1c:	3f1a36e2 	svccc	0x001a36e2
c2001f20:	00000000 	andeq	r0, r0, r0
c2001f24:	412e8480 	smlawbmi	lr, r0, r4, r8
c2001f28:	ed1b7b1b 	vldr	d7, [fp, #-108]	; 0xffffff94
c2001f2c:	e59b300c 	ldr	r3, [fp, #12]
c2001f30:	e3c33b02 	bic	r3, r3, #2048	; 0x800
c2001f34:	e58d3008 	str	r3, [sp, #8]
c2001f38:	e51b3028 	ldr	r3, [fp, #-40]	; 0xffffffd8
c2001f3c:	e58d3004 	str	r3, [sp, #4]
c2001f40:	e59b3004 	ldr	r3, [fp, #4]
c2001f44:	e58d3000 	str	r3, [sp]
c2001f48:	eeb00b47 	vmov.f64	d0, d7
c2001f4c:	e51b3064 	ldr	r3, [fp, #-100]	; 0xffffff9c
c2001f50:	e51b2060 	ldr	r2, [fp, #-96]	; 0xffffffa0
c2001f54:	e51b105c 	ldr	r1, [fp, #-92]	; 0xffffffa4
c2001f58:	e51b0058 	ldr	r0, [fp, #-88]	; 0xffffffa8
c2001f5c:	ebfffd1f 	bl	c20013e0 <_ftoa>
c2001f60:	e50b0060 	str	r0, [fp, #-96]	; 0xffffffa0
c2001f64:	e51b3024 	ldr	r3, [fp, #-36]	; 0xffffffdc
c2001f68:	e3530000 	cmp	r3, #0
c2001f6c:	0a000038 	beq	c2002054 <_etoa+0x56c>
c2001f70:	e59b300c 	ldr	r3, [fp, #12]
c2001f74:	e2033020 	and	r3, r3, #32
c2001f78:	e3530000 	cmp	r3, #0
c2001f7c:	0a000001 	beq	c2001f88 <_etoa+0x4a0>
c2001f80:	e3a00045 	mov	r0, #69	; 0x45
c2001f84:	ea000000 	b	c2001f8c <_etoa+0x4a4>
c2001f88:	e3a00065 	mov	r0, #101	; 0x65
c2001f8c:	e51b2060 	ldr	r2, [fp, #-96]	; 0xffffffa0
c2001f90:	e2823001 	add	r3, r2, #1
c2001f94:	e50b3060 	str	r3, [fp, #-96]	; 0xffffffa0
c2001f98:	e51b4058 	ldr	r4, [fp, #-88]	; 0xffffffa8
c2001f9c:	e51b3064 	ldr	r3, [fp, #-100]	; 0xffffff9c
c2001fa0:	e51b105c 	ldr	r1, [fp, #-92]	; 0xffffffa4
c2001fa4:	e12fff34 	blx	r4
c2001fa8:	e51b3020 	ldr	r3, [fp, #-32]	; 0xffffffe0
c2001fac:	e3530000 	cmp	r3, #0
c2001fb0:	b2633000 	rsblt	r3, r3, #0
c2001fb4:	e1a00003 	mov	r0, r3
c2001fb8:	e51b3020 	ldr	r3, [fp, #-32]	; 0xffffffe0
c2001fbc:	e1a03fa3 	lsr	r3, r3, #31
c2001fc0:	e6ef3073 	uxtb	r3, r3
c2001fc4:	e51b2024 	ldr	r2, [fp, #-36]	; 0xffffffdc
c2001fc8:	e2422001 	sub	r2, r2, #1
c2001fcc:	e3a01005 	mov	r1, #5
c2001fd0:	e58d1014 	str	r1, [sp, #20]
c2001fd4:	e58d2010 	str	r2, [sp, #16]
c2001fd8:	e3a02000 	mov	r2, #0
c2001fdc:	e58d200c 	str	r2, [sp, #12]
c2001fe0:	e3a0200a 	mov	r2, #10
c2001fe4:	e58d2008 	str	r2, [sp, #8]
c2001fe8:	e58d3004 	str	r3, [sp, #4]
c2001fec:	e58d0000 	str	r0, [sp]
c2001ff0:	e51b3064 	ldr	r3, [fp, #-100]	; 0xffffff9c
c2001ff4:	e51b2060 	ldr	r2, [fp, #-96]	; 0xffffffa0
c2001ff8:	e51b105c 	ldr	r1, [fp, #-92]	; 0xffffffa4
c2001ffc:	e51b0058 	ldr	r0, [fp, #-88]	; 0xffffffa8
c2002000:	ebfffc47 	bl	c2001124 <_ntoa_long>
c2002004:	e50b0060 	str	r0, [fp, #-96]	; 0xffffffa0
c2002008:	e59b300c 	ldr	r3, [fp, #12]
c200200c:	e2033002 	and	r3, r3, #2
c2002010:	e3530000 	cmp	r3, #0
c2002014:	0a00000e 	beq	c2002054 <_etoa+0x56c>
c2002018:	ea000007 	b	c200203c <_etoa+0x554>
c200201c:	e51b2060 	ldr	r2, [fp, #-96]	; 0xffffffa0
c2002020:	e2823001 	add	r3, r2, #1
c2002024:	e50b3060 	str	r3, [fp, #-96]	; 0xffffffa0
c2002028:	e51b4058 	ldr	r4, [fp, #-88]	; 0xffffffa8
c200202c:	e51b3064 	ldr	r3, [fp, #-100]	; 0xffffff9c
c2002030:	e51b105c 	ldr	r1, [fp, #-92]	; 0xffffffa4
c2002034:	e3a00020 	mov	r0, #32
c2002038:	e12fff34 	blx	r4
c200203c:	e51b2060 	ldr	r2, [fp, #-96]	; 0xffffffa0
c2002040:	e51b3048 	ldr	r3, [fp, #-72]	; 0xffffffb8
c2002044:	e0423003 	sub	r3, r2, r3
c2002048:	e59b2008 	ldr	r2, [fp, #8]
c200204c:	e1520003 	cmp	r2, r3
c2002050:	8afffff1 	bhi	c200201c <_etoa+0x534>
c2002054:	e51b3060 	ldr	r3, [fp, #-96]	; 0xffffffa0
c2002058:	e1a00003 	mov	r0, r3
c200205c:	e24bd01c 	sub	sp, fp, #28
c2002060:	e8bd8bf0 	pop	{r4, r5, r6, r7, r8, r9, fp, pc}

c2002064 <_vsnprintf>:
c2002064:	e92d4bf0 	push	{r4, r5, r6, r7, r8, r9, fp, lr}
c2002068:	e28db01c 	add	fp, sp, #28
c200206c:	e24dd098 	sub	sp, sp, #152	; 0x98
c2002070:	e50b0068 	str	r0, [fp, #-104]	; 0xffffff98
c2002074:	e50b106c 	str	r1, [fp, #-108]	; 0xffffff94
c2002078:	e50b2070 	str	r2, [fp, #-112]	; 0xffffff90
c200207c:	e50b3074 	str	r3, [fp, #-116]	; 0xffffff8c
c2002080:	e3a03000 	mov	r3, #0
c2002084:	e50b3030 	str	r3, [fp, #-48]	; 0xffffffd0
c2002088:	e51b306c 	ldr	r3, [fp, #-108]	; 0xffffff94
c200208c:	e3530000 	cmp	r3, #0
c2002090:	1a0003c2 	bne	c2002fa0 <_vsnprintf+0xf3c>
c2002094:	e3003b10 	movw	r3, #2832	; 0xb10
c2002098:	e34c3200 	movt	r3, #49664	; 0xc200
c200209c:	e50b3068 	str	r3, [fp, #-104]	; 0xffffff98
c20020a0:	ea0003be 	b	c2002fa0 <_vsnprintf+0xf3c>
c20020a4:	e51b3074 	ldr	r3, [fp, #-116]	; 0xffffff8c
c20020a8:	e5d33000 	ldrb	r3, [r3]
c20020ac:	e3530025 	cmp	r3, #37	; 0x25
c20020b0:	0a00000c 	beq	c20020e8 <_vsnprintf+0x84>
c20020b4:	e51b3074 	ldr	r3, [fp, #-116]	; 0xffffff8c
c20020b8:	e5d30000 	ldrb	r0, [r3]
c20020bc:	e51b2030 	ldr	r2, [fp, #-48]	; 0xffffffd0
c20020c0:	e2823001 	add	r3, r2, #1
c20020c4:	e50b3030 	str	r3, [fp, #-48]	; 0xffffffd0
c20020c8:	e51b4068 	ldr	r4, [fp, #-104]	; 0xffffff98
c20020cc:	e51b3070 	ldr	r3, [fp, #-112]	; 0xffffff90
c20020d0:	e51b106c 	ldr	r1, [fp, #-108]	; 0xffffff94
c20020d4:	e12fff34 	blx	r4
c20020d8:	e51b3074 	ldr	r3, [fp, #-116]	; 0xffffff8c
c20020dc:	e2833001 	add	r3, r3, #1
c20020e0:	e50b3074 	str	r3, [fp, #-116]	; 0xffffff8c
c20020e4:	ea0003ad 	b	c2002fa0 <_vsnprintf+0xf3c>
c20020e8:	e51b3074 	ldr	r3, [fp, #-116]	; 0xffffff8c
c20020ec:	e2833001 	add	r3, r3, #1
c20020f0:	e50b3074 	str	r3, [fp, #-116]	; 0xffffff8c
c20020f4:	e3a03000 	mov	r3, #0
c20020f8:	e50b3020 	str	r3, [fp, #-32]	; 0xffffffe0
c20020fc:	e51b3074 	ldr	r3, [fp, #-116]	; 0xffffff8c
c2002100:	e5d33000 	ldrb	r3, [r3]
c2002104:	e2433020 	sub	r3, r3, #32
c2002108:	e3530010 	cmp	r3, #16
c200210c:	979ff103 	ldrls	pc, [pc, r3, lsl #2]
c2002110:	ea00003d 	b	c200220c <_vsnprintf+0x1a8>
c2002114:	c20021c4 	andgt	r2, r0, #196, 2	; 0x31
c2002118:	c200220c 	andgt	r2, r0, #12, 4	; 0xc0000000
c200211c:	c200220c 	andgt	r2, r0, #12, 4	; 0xc0000000
c2002120:	c20021e8 	andgt	r2, r0, #232, 2	; 0x3a
c2002124:	c200220c 	andgt	r2, r0, #12, 4	; 0xc0000000
c2002128:	c200220c 	andgt	r2, r0, #12, 4	; 0xc0000000
c200212c:	c200220c 	andgt	r2, r0, #12, 4	; 0xc0000000
c2002130:	c200220c 	andgt	r2, r0, #12, 4	; 0xc0000000
c2002134:	c200220c 	andgt	r2, r0, #12, 4	; 0xc0000000
c2002138:	c200220c 	andgt	r2, r0, #12, 4	; 0xc0000000
c200213c:	c200220c 	andgt	r2, r0, #12, 4	; 0xc0000000
c2002140:	c20021a0 	andgt	r2, r0, #160, 2	; 0x28
c2002144:	c200220c 	andgt	r2, r0, #12, 4	; 0xc0000000
c2002148:	c200217c 	andgt	r2, r0, #124, 2
c200214c:	c200220c 	andgt	r2, r0, #12, 4	; 0xc0000000
c2002150:	c200220c 	andgt	r2, r0, #12, 4	; 0xc0000000
c2002154:	c2002158 	andgt	r2, r0, #88, 2
c2002158:	e51b3020 	ldr	r3, [fp, #-32]	; 0xffffffe0
c200215c:	e3833001 	orr	r3, r3, #1
c2002160:	e50b3020 	str	r3, [fp, #-32]	; 0xffffffe0
c2002164:	e51b3074 	ldr	r3, [fp, #-116]	; 0xffffff8c
c2002168:	e2833001 	add	r3, r3, #1
c200216c:	e50b3074 	str	r3, [fp, #-116]	; 0xffffff8c
c2002170:	e3a03001 	mov	r3, #1
c2002174:	e50b302c 	str	r3, [fp, #-44]	; 0xffffffd4
c2002178:	ea000026 	b	c2002218 <_vsnprintf+0x1b4>
c200217c:	e51b3020 	ldr	r3, [fp, #-32]	; 0xffffffe0
c2002180:	e3833002 	orr	r3, r3, #2
c2002184:	e50b3020 	str	r3, [fp, #-32]	; 0xffffffe0
c2002188:	e51b3074 	ldr	r3, [fp, #-116]	; 0xffffff8c
c200218c:	e2833001 	add	r3, r3, #1
c2002190:	e50b3074 	str	r3, [fp, #-116]	; 0xffffff8c
c2002194:	e3a03001 	mov	r3, #1
c2002198:	e50b302c 	str	r3, [fp, #-44]	; 0xffffffd4
c200219c:	ea00001d 	b	c2002218 <_vsnprintf+0x1b4>
c20021a0:	e51b3020 	ldr	r3, [fp, #-32]	; 0xffffffe0
c20021a4:	e3833004 	orr	r3, r3, #4
c20021a8:	e50b3020 	str	r3, [fp, #-32]	; 0xffffffe0
c20021ac:	e51b3074 	ldr	r3, [fp, #-116]	; 0xffffff8c
c20021b0:	e2833001 	add	r3, r3, #1
c20021b4:	e50b3074 	str	r3, [fp, #-116]	; 0xffffff8c
c20021b8:	e3a03001 	mov	r3, #1
c20021bc:	e50b302c 	str	r3, [fp, #-44]	; 0xffffffd4
c20021c0:	ea000014 	b	c2002218 <_vsnprintf+0x1b4>
c20021c4:	e51b3020 	ldr	r3, [fp, #-32]	; 0xffffffe0
c20021c8:	e3833008 	orr	r3, r3, #8
c20021cc:	e50b3020 	str	r3, [fp, #-32]	; 0xffffffe0
c20021d0:	e51b3074 	ldr	r3, [fp, #-116]	; 0xffffff8c
c20021d4:	e2833001 	add	r3, r3, #1
c20021d8:	e50b3074 	str	r3, [fp, #-116]	; 0xffffff8c
c20021dc:	e3a03001 	mov	r3, #1
c20021e0:	e50b302c 	str	r3, [fp, #-44]	; 0xffffffd4
c20021e4:	ea00000b 	b	c2002218 <_vsnprintf+0x1b4>
c20021e8:	e51b3020 	ldr	r3, [fp, #-32]	; 0xffffffe0
c20021ec:	e3833010 	orr	r3, r3, #16
c20021f0:	e50b3020 	str	r3, [fp, #-32]	; 0xffffffe0
c20021f4:	e51b3074 	ldr	r3, [fp, #-116]	; 0xffffff8c
c20021f8:	e2833001 	add	r3, r3, #1
c20021fc:	e50b3074 	str	r3, [fp, #-116]	; 0xffffff8c
c2002200:	e3a03001 	mov	r3, #1
c2002204:	e50b302c 	str	r3, [fp, #-44]	; 0xffffffd4
c2002208:	ea000002 	b	c2002218 <_vsnprintf+0x1b4>
c200220c:	e3a03000 	mov	r3, #0
c2002210:	e50b302c 	str	r3, [fp, #-44]	; 0xffffffd4
c2002214:	e320f000 	nop	{0}
c2002218:	e51b302c 	ldr	r3, [fp, #-44]	; 0xffffffd4
c200221c:	e3530000 	cmp	r3, #0
c2002220:	1affffb5 	bne	c20020fc <_vsnprintf+0x98>
c2002224:	e3a03000 	mov	r3, #0
c2002228:	e50b3024 	str	r3, [fp, #-36]	; 0xffffffdc
c200222c:	e51b3074 	ldr	r3, [fp, #-116]	; 0xffffff8c
c2002230:	e5d33000 	ldrb	r3, [r3]
c2002234:	e1a00003 	mov	r0, r3
c2002238:	ebfffa6c 	bl	c2000bf0 <_is_digit>
c200223c:	e1a03000 	mov	r3, r0
c2002240:	e3530000 	cmp	r3, #0
c2002244:	0a000004 	beq	c200225c <_vsnprintf+0x1f8>
c2002248:	e24b3074 	sub	r3, fp, #116	; 0x74
c200224c:	e1a00003 	mov	r0, r3
c2002250:	ebfffa7a 	bl	c2000c40 <_atoi>
c2002254:	e50b0024 	str	r0, [fp, #-36]	; 0xffffffdc
c2002258:	ea000017 	b	c20022bc <_vsnprintf+0x258>
c200225c:	e51b3074 	ldr	r3, [fp, #-116]	; 0xffffff8c
c2002260:	e5d33000 	ldrb	r3, [r3]
c2002264:	e353002a 	cmp	r3, #42	; 0x2a
c2002268:	1a000013 	bne	c20022bc <_vsnprintf+0x258>
c200226c:	e59b3004 	ldr	r3, [fp, #4]
c2002270:	e2832004 	add	r2, r3, #4
c2002274:	e58b2004 	str	r2, [fp, #4]
c2002278:	e5933000 	ldr	r3, [r3]
c200227c:	e50b3044 	str	r3, [fp, #-68]	; 0xffffffbc
c2002280:	e51b3044 	ldr	r3, [fp, #-68]	; 0xffffffbc
c2002284:	e3530000 	cmp	r3, #0
c2002288:	aa000006 	bge	c20022a8 <_vsnprintf+0x244>
c200228c:	e51b3020 	ldr	r3, [fp, #-32]	; 0xffffffe0
c2002290:	e3833002 	orr	r3, r3, #2
c2002294:	e50b3020 	str	r3, [fp, #-32]	; 0xffffffe0
c2002298:	e51b3044 	ldr	r3, [fp, #-68]	; 0xffffffbc
c200229c:	e2633000 	rsb	r3, r3, #0
c20022a0:	e50b3024 	str	r3, [fp, #-36]	; 0xffffffdc
c20022a4:	ea000001 	b	c20022b0 <_vsnprintf+0x24c>
c20022a8:	e51b3044 	ldr	r3, [fp, #-68]	; 0xffffffbc
c20022ac:	e50b3024 	str	r3, [fp, #-36]	; 0xffffffdc
c20022b0:	e51b3074 	ldr	r3, [fp, #-116]	; 0xffffff8c
c20022b4:	e2833001 	add	r3, r3, #1
c20022b8:	e50b3074 	str	r3, [fp, #-116]	; 0xffffff8c
c20022bc:	e3a03000 	mov	r3, #0
c20022c0:	e50b3028 	str	r3, [fp, #-40]	; 0xffffffd8
c20022c4:	e51b3074 	ldr	r3, [fp, #-116]	; 0xffffff8c
c20022c8:	e5d33000 	ldrb	r3, [r3]
c20022cc:	e353002e 	cmp	r3, #46	; 0x2e
c20022d0:	1a000020 	bne	c2002358 <_vsnprintf+0x2f4>
c20022d4:	e51b3020 	ldr	r3, [fp, #-32]	; 0xffffffe0
c20022d8:	e3833b01 	orr	r3, r3, #1024	; 0x400
c20022dc:	e50b3020 	str	r3, [fp, #-32]	; 0xffffffe0
c20022e0:	e51b3074 	ldr	r3, [fp, #-116]	; 0xffffff8c
c20022e4:	e2833001 	add	r3, r3, #1
c20022e8:	e50b3074 	str	r3, [fp, #-116]	; 0xffffff8c
c20022ec:	e51b3074 	ldr	r3, [fp, #-116]	; 0xffffff8c
c20022f0:	e5d33000 	ldrb	r3, [r3]
c20022f4:	e1a00003 	mov	r0, r3
c20022f8:	ebfffa3c 	bl	c2000bf0 <_is_digit>
c20022fc:	e1a03000 	mov	r3, r0
c2002300:	e3530000 	cmp	r3, #0
c2002304:	0a000004 	beq	c200231c <_vsnprintf+0x2b8>
c2002308:	e24b3074 	sub	r3, fp, #116	; 0x74
c200230c:	e1a00003 	mov	r0, r3
c2002310:	ebfffa4a 	bl	c2000c40 <_atoi>
c2002314:	e50b0028 	str	r0, [fp, #-40]	; 0xffffffd8
c2002318:	ea00000e 	b	c2002358 <_vsnprintf+0x2f4>
c200231c:	e51b3074 	ldr	r3, [fp, #-116]	; 0xffffff8c
c2002320:	e5d33000 	ldrb	r3, [r3]
c2002324:	e353002a 	cmp	r3, #42	; 0x2a
c2002328:	1a00000a 	bne	c2002358 <_vsnprintf+0x2f4>
c200232c:	e59b3004 	ldr	r3, [fp, #4]
c2002330:	e2832004 	add	r2, r3, #4
c2002334:	e58b2004 	str	r2, [fp, #4]
c2002338:	e5933000 	ldr	r3, [r3]
c200233c:	e50b3048 	str	r3, [fp, #-72]	; 0xffffffb8
c2002340:	e51b3048 	ldr	r3, [fp, #-72]	; 0xffffffb8
c2002344:	e1c33fc3 	bic	r3, r3, r3, asr #31
c2002348:	e50b3028 	str	r3, [fp, #-40]	; 0xffffffd8
c200234c:	e51b3074 	ldr	r3, [fp, #-116]	; 0xffffff8c
c2002350:	e2833001 	add	r3, r3, #1
c2002354:	e50b3074 	str	r3, [fp, #-116]	; 0xffffff8c
c2002358:	e51b3074 	ldr	r3, [fp, #-116]	; 0xffffff8c
c200235c:	e5d33000 	ldrb	r3, [r3]
c2002360:	e2433068 	sub	r3, r3, #104	; 0x68
c2002364:	e3530012 	cmp	r3, #18
c2002368:	979ff103 	ldrls	pc, [pc, r3, lsl #2]
c200236c:	ea000049 	b	c2002498 <_vsnprintf+0x434>
c2002370:	c2002400 	andgt	r2, r0, #0, 8
c2002374:	c2002498 	andgt	r2, r0, #152, 8	; 0x98000000
c2002378:	c2002460 	andgt	r2, r0, #96, 8	; 0x60000000
c200237c:	c2002498 	andgt	r2, r0, #152, 8	; 0x98000000
c2002380:	c20023bc 	andgt	r2, r0, #188, 6	; 0xf0000002
c2002384:	c2002498 	andgt	r2, r0, #152, 8	; 0x98000000
c2002388:	c2002498 	andgt	r2, r0, #152, 8	; 0x98000000
c200238c:	c2002498 	andgt	r2, r0, #152, 8	; 0x98000000
c2002390:	c2002498 	andgt	r2, r0, #152, 8	; 0x98000000
c2002394:	c2002498 	andgt	r2, r0, #152, 8	; 0x98000000
c2002398:	c2002498 	andgt	r2, r0, #152, 8	; 0x98000000
c200239c:	c2002498 	andgt	r2, r0, #152, 8	; 0x98000000
c20023a0:	c2002444 	andgt	r2, r0, #68, 8	; 0x44000000
c20023a4:	c2002498 	andgt	r2, r0, #152, 8	; 0x98000000
c20023a8:	c2002498 	andgt	r2, r0, #152, 8	; 0x98000000
c20023ac:	c2002498 	andgt	r2, r0, #152, 8	; 0x98000000
c20023b0:	c2002498 	andgt	r2, r0, #152, 8	; 0x98000000
c20023b4:	c2002498 	andgt	r2, r0, #152, 8	; 0x98000000
c20023b8:	c200247c 	andgt	r2, r0, #124, 8	; 0x7c000000
c20023bc:	e51b3020 	ldr	r3, [fp, #-32]	; 0xffffffe0
c20023c0:	e3833c01 	orr	r3, r3, #256	; 0x100
c20023c4:	e50b3020 	str	r3, [fp, #-32]	; 0xffffffe0
c20023c8:	e51b3074 	ldr	r3, [fp, #-116]	; 0xffffff8c
c20023cc:	e2833001 	add	r3, r3, #1
c20023d0:	e50b3074 	str	r3, [fp, #-116]	; 0xffffff8c
c20023d4:	e51b3074 	ldr	r3, [fp, #-116]	; 0xffffff8c
c20023d8:	e5d33000 	ldrb	r3, [r3]
c20023dc:	e353006c 	cmp	r3, #108	; 0x6c
c20023e0:	1a00002e 	bne	c20024a0 <_vsnprintf+0x43c>
c20023e4:	e51b3020 	ldr	r3, [fp, #-32]	; 0xffffffe0
c20023e8:	e3833c02 	orr	r3, r3, #512	; 0x200
c20023ec:	e50b3020 	str	r3, [fp, #-32]	; 0xffffffe0
c20023f0:	e51b3074 	ldr	r3, [fp, #-116]	; 0xffffff8c
c20023f4:	e2833001 	add	r3, r3, #1
c20023f8:	e50b3074 	str	r3, [fp, #-116]	; 0xffffff8c
c20023fc:	ea000027 	b	c20024a0 <_vsnprintf+0x43c>
c2002400:	e51b3020 	ldr	r3, [fp, #-32]	; 0xffffffe0
c2002404:	e3833080 	orr	r3, r3, #128	; 0x80
c2002408:	e50b3020 	str	r3, [fp, #-32]	; 0xffffffe0
c200240c:	e51b3074 	ldr	r3, [fp, #-116]	; 0xffffff8c
c2002410:	e2833001 	add	r3, r3, #1
c2002414:	e50b3074 	str	r3, [fp, #-116]	; 0xffffff8c
c2002418:	e51b3074 	ldr	r3, [fp, #-116]	; 0xffffff8c
c200241c:	e5d33000 	ldrb	r3, [r3]
c2002420:	e3530068 	cmp	r3, #104	; 0x68
c2002424:	1a00001f 	bne	c20024a8 <_vsnprintf+0x444>
c2002428:	e51b3020 	ldr	r3, [fp, #-32]	; 0xffffffe0
c200242c:	e3833040 	orr	r3, r3, #64	; 0x40
c2002430:	e50b3020 	str	r3, [fp, #-32]	; 0xffffffe0
c2002434:	e51b3074 	ldr	r3, [fp, #-116]	; 0xffffff8c
c2002438:	e2833001 	add	r3, r3, #1
c200243c:	e50b3074 	str	r3, [fp, #-116]	; 0xffffff8c
c2002440:	ea000018 	b	c20024a8 <_vsnprintf+0x444>
c2002444:	e51b3020 	ldr	r3, [fp, #-32]	; 0xffffffe0
c2002448:	e3833c01 	orr	r3, r3, #256	; 0x100
c200244c:	e50b3020 	str	r3, [fp, #-32]	; 0xffffffe0
c2002450:	e51b3074 	ldr	r3, [fp, #-116]	; 0xffffff8c
c2002454:	e2833001 	add	r3, r3, #1
c2002458:	e50b3074 	str	r3, [fp, #-116]	; 0xffffff8c
c200245c:	ea000012 	b	c20024ac <_vsnprintf+0x448>
c2002460:	e51b3020 	ldr	r3, [fp, #-32]	; 0xffffffe0
c2002464:	e3833c02 	orr	r3, r3, #512	; 0x200
c2002468:	e50b3020 	str	r3, [fp, #-32]	; 0xffffffe0
c200246c:	e51b3074 	ldr	r3, [fp, #-116]	; 0xffffff8c
c2002470:	e2833001 	add	r3, r3, #1
c2002474:	e50b3074 	str	r3, [fp, #-116]	; 0xffffff8c
c2002478:	ea00000b 	b	c20024ac <_vsnprintf+0x448>
c200247c:	e51b3020 	ldr	r3, [fp, #-32]	; 0xffffffe0
c2002480:	e3833c01 	orr	r3, r3, #256	; 0x100
c2002484:	e50b3020 	str	r3, [fp, #-32]	; 0xffffffe0
c2002488:	e51b3074 	ldr	r3, [fp, #-116]	; 0xffffff8c
c200248c:	e2833001 	add	r3, r3, #1
c2002490:	e50b3074 	str	r3, [fp, #-116]	; 0xffffff8c
c2002494:	ea000004 	b	c20024ac <_vsnprintf+0x448>
c2002498:	e320f000 	nop	{0}
c200249c:	ea000002 	b	c20024ac <_vsnprintf+0x448>
c20024a0:	e320f000 	nop	{0}
c20024a4:	ea000000 	b	c20024ac <_vsnprintf+0x448>
c20024a8:	e320f000 	nop	{0}
c20024ac:	e51b3074 	ldr	r3, [fp, #-116]	; 0xffffff8c
c20024b0:	e5d33000 	ldrb	r3, [r3]
c20024b4:	e2433025 	sub	r3, r3, #37	; 0x25
c20024b8:	e3530053 	cmp	r3, #83	; 0x53
c20024bc:	979ff103 	ldrls	pc, [pc, r3, lsl #2]
c20024c0:	ea0002a9 	b	c2002f6c <_vsnprintf+0xf08>
c20024c4:	c2002f3c 	andgt	r2, r0, #60, 30	; 0xf0
c20024c8:	c2002f6c 	andgt	r2, r0, #108, 30	; 0x1b0
c20024cc:	c2002f6c 	andgt	r2, r0, #108, 30	; 0x1b0
c20024d0:	c2002f6c 	andgt	r2, r0, #108, 30	; 0x1b0
c20024d4:	c2002f6c 	andgt	r2, r0, #108, 30	; 0x1b0
c20024d8:	c2002f6c 	andgt	r2, r0, #108, 30	; 0x1b0
c20024dc:	c2002f6c 	andgt	r2, r0, #108, 30	; 0x1b0
c20024e0:	c2002f6c 	andgt	r2, r0, #108, 30	; 0x1b0
c20024e4:	c2002f6c 	andgt	r2, r0, #108, 30	; 0x1b0
c20024e8:	c2002f6c 	andgt	r2, r0, #108, 30	; 0x1b0
c20024ec:	c2002f6c 	andgt	r2, r0, #108, 30	; 0x1b0
c20024f0:	c2002f6c 	andgt	r2, r0, #108, 30	; 0x1b0
c20024f4:	c2002f6c 	andgt	r2, r0, #108, 30	; 0x1b0
c20024f8:	c2002f6c 	andgt	r2, r0, #108, 30	; 0x1b0
c20024fc:	c2002f6c 	andgt	r2, r0, #108, 30	; 0x1b0
c2002500:	c2002f6c 	andgt	r2, r0, #108, 30	; 0x1b0
c2002504:	c2002f6c 	andgt	r2, r0, #108, 30	; 0x1b0
c2002508:	c2002f6c 	andgt	r2, r0, #108, 30	; 0x1b0
c200250c:	c2002f6c 	andgt	r2, r0, #108, 30	; 0x1b0
c2002510:	c2002f6c 	andgt	r2, r0, #108, 30	; 0x1b0
c2002514:	c2002f6c 	andgt	r2, r0, #108, 30	; 0x1b0
c2002518:	c2002f6c 	andgt	r2, r0, #108, 30	; 0x1b0
c200251c:	c2002f6c 	andgt	r2, r0, #108, 30	; 0x1b0
c2002520:	c2002f6c 	andgt	r2, r0, #108, 30	; 0x1b0
c2002524:	c2002f6c 	andgt	r2, r0, #108, 30	; 0x1b0
c2002528:	c2002f6c 	andgt	r2, r0, #108, 30	; 0x1b0
c200252c:	c2002f6c 	andgt	r2, r0, #108, 30	; 0x1b0
c2002530:	c2002f6c 	andgt	r2, r0, #108, 30	; 0x1b0
c2002534:	c2002f6c 	andgt	r2, r0, #108, 30	; 0x1b0
c2002538:	c2002f6c 	andgt	r2, r0, #108, 30	; 0x1b0
c200253c:	c2002f6c 	andgt	r2, r0, #108, 30	; 0x1b0
c2002540:	c2002f6c 	andgt	r2, r0, #108, 30	; 0x1b0
c2002544:	c2002b38 	andgt	r2, r0, #56, 22	; 0xe000
c2002548:	c2002ac0 	andgt	r2, r0, #192, 20	; 0xc0000
c200254c:	c2002b38 	andgt	r2, r0, #56, 22	; 0xe000
c2002550:	c2002f6c 	andgt	r2, r0, #108, 30	; 0x1b0
c2002554:	c2002f6c 	andgt	r2, r0, #108, 30	; 0x1b0
c2002558:	c2002f6c 	andgt	r2, r0, #108, 30	; 0x1b0
c200255c:	c2002f6c 	andgt	r2, r0, #108, 30	; 0x1b0
c2002560:	c2002f6c 	andgt	r2, r0, #108, 30	; 0x1b0
c2002564:	c2002f6c 	andgt	r2, r0, #108, 30	; 0x1b0
c2002568:	c2002f6c 	andgt	r2, r0, #108, 30	; 0x1b0
c200256c:	c2002f6c 	andgt	r2, r0, #108, 30	; 0x1b0
c2002570:	c2002f6c 	andgt	r2, r0, #108, 30	; 0x1b0
c2002574:	c2002f6c 	andgt	r2, r0, #108, 30	; 0x1b0
c2002578:	c2002f6c 	andgt	r2, r0, #108, 30	; 0x1b0
c200257c:	c2002f6c 	andgt	r2, r0, #108, 30	; 0x1b0
c2002580:	c2002f6c 	andgt	r2, r0, #108, 30	; 0x1b0
c2002584:	c2002f6c 	andgt	r2, r0, #108, 30	; 0x1b0
c2002588:	c2002f6c 	andgt	r2, r0, #108, 30	; 0x1b0
c200258c:	c2002f6c 	andgt	r2, r0, #108, 30	; 0x1b0
c2002590:	c2002614 	andgt	r2, r0, #20, 12	; 0x1400000
c2002594:	c2002f6c 	andgt	r2, r0, #108, 30	; 0x1b0
c2002598:	c2002f6c 	andgt	r2, r0, #108, 30	; 0x1b0
c200259c:	c2002f6c 	andgt	r2, r0, #108, 30	; 0x1b0
c20025a0:	c2002f6c 	andgt	r2, r0, #108, 30	; 0x1b0
c20025a4:	c2002f6c 	andgt	r2, r0, #108, 30	; 0x1b0
c20025a8:	c2002f6c 	andgt	r2, r0, #108, 30	; 0x1b0
c20025ac:	c2002f6c 	andgt	r2, r0, #108, 30	; 0x1b0
c20025b0:	c2002f6c 	andgt	r2, r0, #108, 30	; 0x1b0
c20025b4:	c2002f6c 	andgt	r2, r0, #108, 30	; 0x1b0
c20025b8:	c2002614 	andgt	r2, r0, #20, 12	; 0x1400000
c20025bc:	c2002bec 	andgt	r2, r0, #236, 22	; 0x3b000
c20025c0:	c2002614 	andgt	r2, r0, #20, 12	; 0x1400000
c20025c4:	c2002b38 	andgt	r2, r0, #56, 22	; 0xe000
c20025c8:	c2002ac0 	andgt	r2, r0, #192, 20	; 0xc0000
c20025cc:	c2002b38 	andgt	r2, r0, #56, 22	; 0xe000
c20025d0:	c2002f6c 	andgt	r2, r0, #108, 30	; 0x1b0
c20025d4:	c2002614 	andgt	r2, r0, #20, 12	; 0x1400000
c20025d8:	c2002f6c 	andgt	r2, r0, #108, 30	; 0x1b0
c20025dc:	c2002f6c 	andgt	r2, r0, #108, 30	; 0x1b0
c20025e0:	c2002f6c 	andgt	r2, r0, #108, 30	; 0x1b0
c20025e4:	c2002f6c 	andgt	r2, r0, #108, 30	; 0x1b0
c20025e8:	c2002f6c 	andgt	r2, r0, #108, 30	; 0x1b0
c20025ec:	c2002614 	andgt	r2, r0, #20, 12	; 0x1400000
c20025f0:	c2002e3c 	andgt	r2, r0, #60, 28	; 0x3c0
c20025f4:	c2002f6c 	andgt	r2, r0, #108, 30	; 0x1b0
c20025f8:	c2002f6c 	andgt	r2, r0, #108, 30	; 0x1b0
c20025fc:	c2002ccc 	andgt	r2, r0, #204, 24	; 0xcc00
c2002600:	c2002f6c 	andgt	r2, r0, #108, 30	; 0x1b0
c2002604:	c2002614 	andgt	r2, r0, #20, 12	; 0x1400000
c2002608:	c2002f6c 	andgt	r2, r0, #108, 30	; 0x1b0
c200260c:	c2002f6c 	andgt	r2, r0, #108, 30	; 0x1b0
c2002610:	c2002614 	andgt	r2, r0, #20, 12	; 0x1400000
c2002614:	e51b3074 	ldr	r3, [fp, #-116]	; 0xffffff8c
c2002618:	e5d33000 	ldrb	r3, [r3]
c200261c:	e3530078 	cmp	r3, #120	; 0x78
c2002620:	0a000003 	beq	c2002634 <_vsnprintf+0x5d0>
c2002624:	e51b3074 	ldr	r3, [fp, #-116]	; 0xffffff8c
c2002628:	e5d33000 	ldrb	r3, [r3]
c200262c:	e3530058 	cmp	r3, #88	; 0x58
c2002630:	1a000002 	bne	c2002640 <_vsnprintf+0x5dc>
c2002634:	e3a03010 	mov	r3, #16
c2002638:	e50b3034 	str	r3, [fp, #-52]	; 0xffffffcc
c200263c:	ea000012 	b	c200268c <_vsnprintf+0x628>
c2002640:	e51b3074 	ldr	r3, [fp, #-116]	; 0xffffff8c
c2002644:	e5d33000 	ldrb	r3, [r3]
c2002648:	e353006f 	cmp	r3, #111	; 0x6f
c200264c:	1a000002 	bne	c200265c <_vsnprintf+0x5f8>
c2002650:	e3a03008 	mov	r3, #8
c2002654:	e50b3034 	str	r3, [fp, #-52]	; 0xffffffcc
c2002658:	ea00000b 	b	c200268c <_vsnprintf+0x628>
c200265c:	e51b3074 	ldr	r3, [fp, #-116]	; 0xffffff8c
c2002660:	e5d33000 	ldrb	r3, [r3]
c2002664:	e3530062 	cmp	r3, #98	; 0x62
c2002668:	1a000002 	bne	c2002678 <_vsnprintf+0x614>
c200266c:	e3a03002 	mov	r3, #2
c2002670:	e50b3034 	str	r3, [fp, #-52]	; 0xffffffcc
c2002674:	ea000004 	b	c200268c <_vsnprintf+0x628>
c2002678:	e3a0300a 	mov	r3, #10
c200267c:	e50b3034 	str	r3, [fp, #-52]	; 0xffffffcc
c2002680:	e51b3020 	ldr	r3, [fp, #-32]	; 0xffffffe0
c2002684:	e3c33010 	bic	r3, r3, #16
c2002688:	e50b3020 	str	r3, [fp, #-32]	; 0xffffffe0
c200268c:	e51b3074 	ldr	r3, [fp, #-116]	; 0xffffff8c
c2002690:	e5d33000 	ldrb	r3, [r3]
c2002694:	e3530058 	cmp	r3, #88	; 0x58
c2002698:	1a000002 	bne	c20026a8 <_vsnprintf+0x644>
c200269c:	e51b3020 	ldr	r3, [fp, #-32]	; 0xffffffe0
c20026a0:	e3833020 	orr	r3, r3, #32
c20026a4:	e50b3020 	str	r3, [fp, #-32]	; 0xffffffe0
c20026a8:	e51b3074 	ldr	r3, [fp, #-116]	; 0xffffff8c
c20026ac:	e5d33000 	ldrb	r3, [r3]
c20026b0:	e3530069 	cmp	r3, #105	; 0x69
c20026b4:	0a000006 	beq	c20026d4 <_vsnprintf+0x670>
c20026b8:	e51b3074 	ldr	r3, [fp, #-116]	; 0xffffff8c
c20026bc:	e5d33000 	ldrb	r3, [r3]
c20026c0:	e3530064 	cmp	r3, #100	; 0x64
c20026c4:	0a000002 	beq	c20026d4 <_vsnprintf+0x670>
c20026c8:	e51b3020 	ldr	r3, [fp, #-32]	; 0xffffffe0
c20026cc:	e3c3300c 	bic	r3, r3, #12
c20026d0:	e50b3020 	str	r3, [fp, #-32]	; 0xffffffe0
c20026d4:	e51b3020 	ldr	r3, [fp, #-32]	; 0xffffffe0
c20026d8:	e2033b01 	and	r3, r3, #1024	; 0x400
c20026dc:	e3530000 	cmp	r3, #0
c20026e0:	0a000002 	beq	c20026f0 <_vsnprintf+0x68c>
c20026e4:	e51b3020 	ldr	r3, [fp, #-32]	; 0xffffffe0
c20026e8:	e3c33001 	bic	r3, r3, #1
c20026ec:	e50b3020 	str	r3, [fp, #-32]	; 0xffffffe0
c20026f0:	e51b3074 	ldr	r3, [fp, #-116]	; 0xffffff8c
c20026f4:	e5d33000 	ldrb	r3, [r3]
c20026f8:	e3530069 	cmp	r3, #105	; 0x69
c20026fc:	0a000003 	beq	c2002710 <_vsnprintf+0x6ac>
c2002700:	e51b3074 	ldr	r3, [fp, #-116]	; 0xffffff8c
c2002704:	e5d33000 	ldrb	r3, [r3]
c2002708:	e3530064 	cmp	r3, #100	; 0x64
c200270c:	1a000082 	bne	c200291c <_vsnprintf+0x8b8>
c2002710:	e51b3020 	ldr	r3, [fp, #-32]	; 0xffffffe0
c2002714:	e2033c02 	and	r3, r3, #512	; 0x200
c2002718:	e3530000 	cmp	r3, #0
c200271c:	0a00002c 	beq	c20027d4 <_vsnprintf+0x770>
c2002720:	e59b3004 	ldr	r3, [fp, #4]
c2002724:	e2833007 	add	r3, r3, #7
c2002728:	e3c33007 	bic	r3, r3, #7
c200272c:	e2832008 	add	r2, r3, #8
c2002730:	e58b2004 	str	r2, [fp, #4]
c2002734:	e1c320d0 	ldrd	r2, [r3]
c2002738:	e14b26f4 	strd	r2, [fp, #-100]	; 0xffffff9c
c200273c:	e14b06d4 	ldrd	r0, [fp, #-100]	; 0xffffff9c
c2002740:	e3a02000 	mov	r2, #0
c2002744:	e3a03000 	mov	r3, #0
c2002748:	e1a02fc1 	asr	r2, r1, #31
c200274c:	e1a03fc1 	asr	r3, r1, #31
c2002750:	e14b06d4 	ldrd	r0, [fp, #-100]	; 0xffffff9c
c2002754:	e0226000 	eor	r6, r2, r0
c2002758:	e0237001 	eor	r7, r3, r1
c200275c:	e0568002 	subs	r8, r6, r2
c2002760:	e0c79003 	sbc	r9, r7, r3
c2002764:	e1a06008 	mov	r6, r8
c2002768:	e1a07009 	mov	r7, r9
c200276c:	e1a00006 	mov	r0, r6
c2002770:	e1a01007 	mov	r1, r7
c2002774:	e51b3060 	ldr	r3, [fp, #-96]	; 0xffffffa0
c2002778:	e1a03fa3 	lsr	r3, r3, #31
c200277c:	e6ef2073 	uxtb	r2, r3
c2002780:	e51b3034 	ldr	r3, [fp, #-52]	; 0xffffffcc
c2002784:	e3a0c000 	mov	ip, #0
c2002788:	e50b307c 	str	r3, [fp, #-124]	; 0xffffff84
c200278c:	e50bc078 	str	ip, [fp, #-120]	; 0xffffff88
c2002790:	e51b3020 	ldr	r3, [fp, #-32]	; 0xffffffe0
c2002794:	e58d3020 	str	r3, [sp, #32]
c2002798:	e51b3024 	ldr	r3, [fp, #-36]	; 0xffffffdc
c200279c:	e58d301c 	str	r3, [sp, #28]
c20027a0:	e51b3028 	ldr	r3, [fp, #-40]	; 0xffffffd8
c20027a4:	e58d3018 	str	r3, [sp, #24]
c20027a8:	e14b47dc 	ldrd	r4, [fp, #-124]	; 0xffffff84
c20027ac:	e1cd41f0 	strd	r4, [sp, #16]
c20027b0:	e58d2008 	str	r2, [sp, #8]
c20027b4:	e1cd00f0 	strd	r0, [sp]
c20027b8:	e51b3070 	ldr	r3, [fp, #-112]	; 0xffffff90
c20027bc:	e51b2030 	ldr	r2, [fp, #-48]	; 0xffffffd0
c20027c0:	e51b106c 	ldr	r1, [fp, #-108]	; 0xffffff94
c20027c4:	e51b0068 	ldr	r0, [fp, #-104]	; 0xffffff98
c20027c8:	ebfffaac 	bl	c2001280 <_ntoa_long_long>
c20027cc:	e50b0030 	str	r0, [fp, #-48]	; 0xffffffd0
c20027d0:	ea0000b6 	b	c2002ab0 <_vsnprintf+0xa4c>
c20027d4:	e51b3020 	ldr	r3, [fp, #-32]	; 0xffffffe0
c20027d8:	e2033c01 	and	r3, r3, #256	; 0x100
c20027dc:	e3530000 	cmp	r3, #0
c20027e0:	0a00001c 	beq	c2002858 <_vsnprintf+0x7f4>
c20027e4:	e59b3004 	ldr	r3, [fp, #4]
c20027e8:	e2832004 	add	r2, r3, #4
c20027ec:	e58b2004 	str	r2, [fp, #4]
c20027f0:	e5933000 	ldr	r3, [r3]
c20027f4:	e50b3058 	str	r3, [fp, #-88]	; 0xffffffa8
c20027f8:	e51b3058 	ldr	r3, [fp, #-88]	; 0xffffffa8
c20027fc:	e3530000 	cmp	r3, #0
c2002800:	b2633000 	rsblt	r3, r3, #0
c2002804:	e1a01003 	mov	r1, r3
c2002808:	e51b3058 	ldr	r3, [fp, #-88]	; 0xffffffa8
c200280c:	e1a03fa3 	lsr	r3, r3, #31
c2002810:	e6ef3073 	uxtb	r3, r3
c2002814:	e51b2020 	ldr	r2, [fp, #-32]	; 0xffffffe0
c2002818:	e58d2014 	str	r2, [sp, #20]
c200281c:	e51b2024 	ldr	r2, [fp, #-36]	; 0xffffffdc
c2002820:	e58d2010 	str	r2, [sp, #16]
c2002824:	e51b2028 	ldr	r2, [fp, #-40]	; 0xffffffd8
c2002828:	e58d200c 	str	r2, [sp, #12]
c200282c:	e51b2034 	ldr	r2, [fp, #-52]	; 0xffffffcc
c2002830:	e58d2008 	str	r2, [sp, #8]
c2002834:	e58d3004 	str	r3, [sp, #4]
c2002838:	e58d1000 	str	r1, [sp]
c200283c:	e51b3070 	ldr	r3, [fp, #-112]	; 0xffffff90
c2002840:	e51b2030 	ldr	r2, [fp, #-48]	; 0xffffffd0
c2002844:	e51b106c 	ldr	r1, [fp, #-108]	; 0xffffff94
c2002848:	e51b0068 	ldr	r0, [fp, #-104]	; 0xffffff98
c200284c:	ebfffa34 	bl	c2001124 <_ntoa_long>
c2002850:	e50b0030 	str	r0, [fp, #-48]	; 0xffffffd0
c2002854:	ea000095 	b	c2002ab0 <_vsnprintf+0xa4c>
c2002858:	e51b3020 	ldr	r3, [fp, #-32]	; 0xffffffe0
c200285c:	e2033040 	and	r3, r3, #64	; 0x40
c2002860:	e3530000 	cmp	r3, #0
c2002864:	0a000005 	beq	c2002880 <_vsnprintf+0x81c>
c2002868:	e59b3004 	ldr	r3, [fp, #4]
c200286c:	e2832004 	add	r2, r3, #4
c2002870:	e58b2004 	str	r2, [fp, #4]
c2002874:	e5933000 	ldr	r3, [r3]
c2002878:	e6ef3073 	uxtb	r3, r3
c200287c:	ea00000d 	b	c20028b8 <_vsnprintf+0x854>
c2002880:	e51b3020 	ldr	r3, [fp, #-32]	; 0xffffffe0
c2002884:	e2033080 	and	r3, r3, #128	; 0x80
c2002888:	e3530000 	cmp	r3, #0
c200288c:	0a000005 	beq	c20028a8 <_vsnprintf+0x844>
c2002890:	e59b3004 	ldr	r3, [fp, #4]
c2002894:	e2832004 	add	r2, r3, #4
c2002898:	e58b2004 	str	r2, [fp, #4]
c200289c:	e5933000 	ldr	r3, [r3]
c20028a0:	e6bf3073 	sxth	r3, r3
c20028a4:	ea000003 	b	c20028b8 <_vsnprintf+0x854>
c20028a8:	e59b3004 	ldr	r3, [fp, #4]
c20028ac:	e2832004 	add	r2, r3, #4
c20028b0:	e58b2004 	str	r2, [fp, #4]
c20028b4:	e5933000 	ldr	r3, [r3]
c20028b8:	e50b3054 	str	r3, [fp, #-84]	; 0xffffffac
c20028bc:	e51b3054 	ldr	r3, [fp, #-84]	; 0xffffffac
c20028c0:	e3530000 	cmp	r3, #0
c20028c4:	b2633000 	rsblt	r3, r3, #0
c20028c8:	e1a01003 	mov	r1, r3
c20028cc:	e51b3054 	ldr	r3, [fp, #-84]	; 0xffffffac
c20028d0:	e1a03fa3 	lsr	r3, r3, #31
c20028d4:	e6ef3073 	uxtb	r3, r3
c20028d8:	e51b2020 	ldr	r2, [fp, #-32]	; 0xffffffe0
c20028dc:	e58d2014 	str	r2, [sp, #20]
c20028e0:	e51b2024 	ldr	r2, [fp, #-36]	; 0xffffffdc
c20028e4:	e58d2010 	str	r2, [sp, #16]
c20028e8:	e51b2028 	ldr	r2, [fp, #-40]	; 0xffffffd8
c20028ec:	e58d200c 	str	r2, [sp, #12]
c20028f0:	e51b2034 	ldr	r2, [fp, #-52]	; 0xffffffcc
c20028f4:	e58d2008 	str	r2, [sp, #8]
c20028f8:	e58d3004 	str	r3, [sp, #4]
c20028fc:	e58d1000 	str	r1, [sp]
c2002900:	e51b3070 	ldr	r3, [fp, #-112]	; 0xffffff90
c2002904:	e51b2030 	ldr	r2, [fp, #-48]	; 0xffffffd0
c2002908:	e51b106c 	ldr	r1, [fp, #-108]	; 0xffffff94
c200290c:	e51b0068 	ldr	r0, [fp, #-104]	; 0xffffff98
c2002910:	ebfffa03 	bl	c2001124 <_ntoa_long>
c2002914:	e50b0030 	str	r0, [fp, #-48]	; 0xffffffd0
c2002918:	ea000064 	b	c2002ab0 <_vsnprintf+0xa4c>
c200291c:	e51b3020 	ldr	r3, [fp, #-32]	; 0xffffffe0
c2002920:	e2033c02 	and	r3, r3, #512	; 0x200
c2002924:	e3530000 	cmp	r3, #0
c2002928:	0a00001b 	beq	c200299c <_vsnprintf+0x938>
c200292c:	e59b3004 	ldr	r3, [fp, #4]
c2002930:	e2833007 	add	r3, r3, #7
c2002934:	e3c33007 	bic	r3, r3, #7
c2002938:	e2832008 	add	r2, r3, #8
c200293c:	e58b2004 	str	r2, [fp, #4]
c2002940:	e1c320d0 	ldrd	r2, [r3]
c2002944:	e51b1034 	ldr	r1, [fp, #-52]	; 0xffffffcc
c2002948:	e3a00000 	mov	r0, #0
c200294c:	e50b1084 	str	r1, [fp, #-132]	; 0xffffff7c
c2002950:	e50b0080 	str	r0, [fp, #-128]	; 0xffffff80
c2002954:	e51b1020 	ldr	r1, [fp, #-32]	; 0xffffffe0
c2002958:	e58d1020 	str	r1, [sp, #32]
c200295c:	e51b1024 	ldr	r1, [fp, #-36]	; 0xffffffdc
c2002960:	e58d101c 	str	r1, [sp, #28]
c2002964:	e51b1028 	ldr	r1, [fp, #-40]	; 0xffffffd8
c2002968:	e58d1018 	str	r1, [sp, #24]
c200296c:	e14b08d4 	ldrd	r0, [fp, #-132]	; 0xffffff7c
c2002970:	e1cd01f0 	strd	r0, [sp, #16]
c2002974:	e3a01000 	mov	r1, #0
c2002978:	e58d1008 	str	r1, [sp, #8]
c200297c:	e1cd20f0 	strd	r2, [sp]
c2002980:	e51b3070 	ldr	r3, [fp, #-112]	; 0xffffff90
c2002984:	e51b2030 	ldr	r2, [fp, #-48]	; 0xffffffd0
c2002988:	e51b106c 	ldr	r1, [fp, #-108]	; 0xffffff94
c200298c:	e51b0068 	ldr	r0, [fp, #-104]	; 0xffffff98
c2002990:	ebfffa3a 	bl	c2001280 <_ntoa_long_long>
c2002994:	e50b0030 	str	r0, [fp, #-48]	; 0xffffffd0
c2002998:	ea000044 	b	c2002ab0 <_vsnprintf+0xa4c>
c200299c:	e51b3020 	ldr	r3, [fp, #-32]	; 0xffffffe0
c20029a0:	e2033c01 	and	r3, r3, #256	; 0x100
c20029a4:	e3530000 	cmp	r3, #0
c20029a8:	0a000015 	beq	c2002a04 <_vsnprintf+0x9a0>
c20029ac:	e59b3004 	ldr	r3, [fp, #4]
c20029b0:	e2832004 	add	r2, r3, #4
c20029b4:	e58b2004 	str	r2, [fp, #4]
c20029b8:	e5933000 	ldr	r3, [r3]
c20029bc:	e51b2020 	ldr	r2, [fp, #-32]	; 0xffffffe0
c20029c0:	e58d2014 	str	r2, [sp, #20]
c20029c4:	e51b2024 	ldr	r2, [fp, #-36]	; 0xffffffdc
c20029c8:	e58d2010 	str	r2, [sp, #16]
c20029cc:	e51b2028 	ldr	r2, [fp, #-40]	; 0xffffffd8
c20029d0:	e58d200c 	str	r2, [sp, #12]
c20029d4:	e51b2034 	ldr	r2, [fp, #-52]	; 0xffffffcc
c20029d8:	e58d2008 	str	r2, [sp, #8]
c20029dc:	e3a02000 	mov	r2, #0
c20029e0:	e58d2004 	str	r2, [sp, #4]
c20029e4:	e58d3000 	str	r3, [sp]
c20029e8:	e51b3070 	ldr	r3, [fp, #-112]	; 0xffffff90
c20029ec:	e51b2030 	ldr	r2, [fp, #-48]	; 0xffffffd0
c20029f0:	e51b106c 	ldr	r1, [fp, #-108]	; 0xffffff94
c20029f4:	e51b0068 	ldr	r0, [fp, #-104]	; 0xffffff98
c20029f8:	ebfff9c9 	bl	c2001124 <_ntoa_long>
c20029fc:	e50b0030 	str	r0, [fp, #-48]	; 0xffffffd0
c2002a00:	ea00002a 	b	c2002ab0 <_vsnprintf+0xa4c>
c2002a04:	e51b3020 	ldr	r3, [fp, #-32]	; 0xffffffe0
c2002a08:	e2033040 	and	r3, r3, #64	; 0x40
c2002a0c:	e3530000 	cmp	r3, #0
c2002a10:	0a000005 	beq	c2002a2c <_vsnprintf+0x9c8>
c2002a14:	e59b3004 	ldr	r3, [fp, #4]
c2002a18:	e2832004 	add	r2, r3, #4
c2002a1c:	e58b2004 	str	r2, [fp, #4]
c2002a20:	e5933000 	ldr	r3, [r3]
c2002a24:	e6ef3073 	uxtb	r3, r3
c2002a28:	ea00000d 	b	c2002a64 <_vsnprintf+0xa00>
c2002a2c:	e51b3020 	ldr	r3, [fp, #-32]	; 0xffffffe0
c2002a30:	e2033080 	and	r3, r3, #128	; 0x80
c2002a34:	e3530000 	cmp	r3, #0
c2002a38:	0a000005 	beq	c2002a54 <_vsnprintf+0x9f0>
c2002a3c:	e59b3004 	ldr	r3, [fp, #4]
c2002a40:	e2832004 	add	r2, r3, #4
c2002a44:	e58b2004 	str	r2, [fp, #4]
c2002a48:	e5933000 	ldr	r3, [r3]
c2002a4c:	e6ff3073 	uxth	r3, r3
c2002a50:	ea000003 	b	c2002a64 <_vsnprintf+0xa00>
c2002a54:	e59b3004 	ldr	r3, [fp, #4]
c2002a58:	e2832004 	add	r2, r3, #4
c2002a5c:	e58b2004 	str	r2, [fp, #4]
c2002a60:	e5933000 	ldr	r3, [r3]
c2002a64:	e50b3050 	str	r3, [fp, #-80]	; 0xffffffb0
c2002a68:	e51b3020 	ldr	r3, [fp, #-32]	; 0xffffffe0
c2002a6c:	e58d3014 	str	r3, [sp, #20]
c2002a70:	e51b3024 	ldr	r3, [fp, #-36]	; 0xffffffdc
c2002a74:	e58d3010 	str	r3, [sp, #16]
c2002a78:	e51b3028 	ldr	r3, [fp, #-40]	; 0xffffffd8
c2002a7c:	e58d300c 	str	r3, [sp, #12]
c2002a80:	e51b3034 	ldr	r3, [fp, #-52]	; 0xffffffcc
c2002a84:	e58d3008 	str	r3, [sp, #8]
c2002a88:	e3a03000 	mov	r3, #0
c2002a8c:	e58d3004 	str	r3, [sp, #4]
c2002a90:	e51b3050 	ldr	r3, [fp, #-80]	; 0xffffffb0
c2002a94:	e58d3000 	str	r3, [sp]
c2002a98:	e51b3070 	ldr	r3, [fp, #-112]	; 0xffffff90
c2002a9c:	e51b2030 	ldr	r2, [fp, #-48]	; 0xffffffd0
c2002aa0:	e51b106c 	ldr	r1, [fp, #-108]	; 0xffffff94
c2002aa4:	e51b0068 	ldr	r0, [fp, #-104]	; 0xffffff98
c2002aa8:	ebfff99d 	bl	c2001124 <_ntoa_long>
c2002aac:	e50b0030 	str	r0, [fp, #-48]	; 0xffffffd0
c2002ab0:	e51b3074 	ldr	r3, [fp, #-116]	; 0xffffff8c
c2002ab4:	e2833001 	add	r3, r3, #1
c2002ab8:	e50b3074 	str	r3, [fp, #-116]	; 0xffffff8c
c2002abc:	ea000137 	b	c2002fa0 <_vsnprintf+0xf3c>
c2002ac0:	e51b3074 	ldr	r3, [fp, #-116]	; 0xffffff8c
c2002ac4:	e5d33000 	ldrb	r3, [r3]
c2002ac8:	e3530046 	cmp	r3, #70	; 0x46
c2002acc:	1a000002 	bne	c2002adc <_vsnprintf+0xa78>
c2002ad0:	e51b3020 	ldr	r3, [fp, #-32]	; 0xffffffe0
c2002ad4:	e3833020 	orr	r3, r3, #32
c2002ad8:	e50b3020 	str	r3, [fp, #-32]	; 0xffffffe0
c2002adc:	e59b3004 	ldr	r3, [fp, #4]
c2002ae0:	e2833007 	add	r3, r3, #7
c2002ae4:	e3c33007 	bic	r3, r3, #7
c2002ae8:	e2832008 	add	r2, r3, #8
c2002aec:	e58b2004 	str	r2, [fp, #4]
c2002af0:	ed937b00 	vldr	d7, [r3]
c2002af4:	e51b3020 	ldr	r3, [fp, #-32]	; 0xffffffe0
c2002af8:	e58d3008 	str	r3, [sp, #8]
c2002afc:	e51b3024 	ldr	r3, [fp, #-36]	; 0xffffffdc
c2002b00:	e58d3004 	str	r3, [sp, #4]
c2002b04:	e51b3028 	ldr	r3, [fp, #-40]	; 0xffffffd8
c2002b08:	e58d3000 	str	r3, [sp]
c2002b0c:	eeb00b47 	vmov.f64	d0, d7
c2002b10:	e51b3070 	ldr	r3, [fp, #-112]	; 0xffffff90
c2002b14:	e51b2030 	ldr	r2, [fp, #-48]	; 0xffffffd0
c2002b18:	e51b106c 	ldr	r1, [fp, #-108]	; 0xffffff94
c2002b1c:	e51b0068 	ldr	r0, [fp, #-104]	; 0xffffff98
c2002b20:	ebfffa2e 	bl	c20013e0 <_ftoa>
c2002b24:	e50b0030 	str	r0, [fp, #-48]	; 0xffffffd0
c2002b28:	e51b3074 	ldr	r3, [fp, #-116]	; 0xffffff8c
c2002b2c:	e2833001 	add	r3, r3, #1
c2002b30:	e50b3074 	str	r3, [fp, #-116]	; 0xffffff8c
c2002b34:	ea000119 	b	c2002fa0 <_vsnprintf+0xf3c>
c2002b38:	e51b3074 	ldr	r3, [fp, #-116]	; 0xffffff8c
c2002b3c:	e5d33000 	ldrb	r3, [r3]
c2002b40:	e3530067 	cmp	r3, #103	; 0x67
c2002b44:	0a000003 	beq	c2002b58 <_vsnprintf+0xaf4>
c2002b48:	e51b3074 	ldr	r3, [fp, #-116]	; 0xffffff8c
c2002b4c:	e5d33000 	ldrb	r3, [r3]
c2002b50:	e3530047 	cmp	r3, #71	; 0x47
c2002b54:	1a000002 	bne	c2002b64 <_vsnprintf+0xb00>
c2002b58:	e51b3020 	ldr	r3, [fp, #-32]	; 0xffffffe0
c2002b5c:	e3833b02 	orr	r3, r3, #2048	; 0x800
c2002b60:	e50b3020 	str	r3, [fp, #-32]	; 0xffffffe0
c2002b64:	e51b3074 	ldr	r3, [fp, #-116]	; 0xffffff8c
c2002b68:	e5d33000 	ldrb	r3, [r3]
c2002b6c:	e3530045 	cmp	r3, #69	; 0x45
c2002b70:	0a000003 	beq	c2002b84 <_vsnprintf+0xb20>
c2002b74:	e51b3074 	ldr	r3, [fp, #-116]	; 0xffffff8c
c2002b78:	e5d33000 	ldrb	r3, [r3]
c2002b7c:	e3530047 	cmp	r3, #71	; 0x47
c2002b80:	1a000002 	bne	c2002b90 <_vsnprintf+0xb2c>
c2002b84:	e51b3020 	ldr	r3, [fp, #-32]	; 0xffffffe0
c2002b88:	e3833020 	orr	r3, r3, #32
c2002b8c:	e50b3020 	str	r3, [fp, #-32]	; 0xffffffe0
c2002b90:	e59b3004 	ldr	r3, [fp, #4]
c2002b94:	e2833007 	add	r3, r3, #7
c2002b98:	e3c33007 	bic	r3, r3, #7
c2002b9c:	e2832008 	add	r2, r3, #8
c2002ba0:	e58b2004 	str	r2, [fp, #4]
c2002ba4:	ed937b00 	vldr	d7, [r3]
c2002ba8:	e51b3020 	ldr	r3, [fp, #-32]	; 0xffffffe0
c2002bac:	e58d3008 	str	r3, [sp, #8]
c2002bb0:	e51b3024 	ldr	r3, [fp, #-36]	; 0xffffffdc
c2002bb4:	e58d3004 	str	r3, [sp, #4]
c2002bb8:	e51b3028 	ldr	r3, [fp, #-40]	; 0xffffffd8
c2002bbc:	e58d3000 	str	r3, [sp]
c2002bc0:	eeb00b47 	vmov.f64	d0, d7
c2002bc4:	e51b3070 	ldr	r3, [fp, #-112]	; 0xffffff90
c2002bc8:	e51b2030 	ldr	r2, [fp, #-48]	; 0xffffffd0
c2002bcc:	e51b106c 	ldr	r1, [fp, #-108]	; 0xffffff94
c2002bd0:	e51b0068 	ldr	r0, [fp, #-104]	; 0xffffff98
c2002bd4:	ebfffbc3 	bl	c2001ae8 <_etoa>
c2002bd8:	e50b0030 	str	r0, [fp, #-48]	; 0xffffffd0
c2002bdc:	e51b3074 	ldr	r3, [fp, #-116]	; 0xffffff8c
c2002be0:	e2833001 	add	r3, r3, #1
c2002be4:	e50b3074 	str	r3, [fp, #-116]	; 0xffffff8c
c2002be8:	ea0000ec 	b	c2002fa0 <_vsnprintf+0xf3c>
c2002bec:	e3a03001 	mov	r3, #1
c2002bf0:	e50b3038 	str	r3, [fp, #-56]	; 0xffffffc8
c2002bf4:	e51b3020 	ldr	r3, [fp, #-32]	; 0xffffffe0
c2002bf8:	e2033002 	and	r3, r3, #2
c2002bfc:	e3530000 	cmp	r3, #0
c2002c00:	1a00000e 	bne	c2002c40 <_vsnprintf+0xbdc>
c2002c04:	ea000007 	b	c2002c28 <_vsnprintf+0xbc4>
c2002c08:	e51b2030 	ldr	r2, [fp, #-48]	; 0xffffffd0
c2002c0c:	e2823001 	add	r3, r2, #1
c2002c10:	e50b3030 	str	r3, [fp, #-48]	; 0xffffffd0
c2002c14:	e51b4068 	ldr	r4, [fp, #-104]	; 0xffffff98
c2002c18:	e51b3070 	ldr	r3, [fp, #-112]	; 0xffffff90
c2002c1c:	e51b106c 	ldr	r1, [fp, #-108]	; 0xffffff94
c2002c20:	e3a00020 	mov	r0, #32
c2002c24:	e12fff34 	blx	r4
c2002c28:	e51b3038 	ldr	r3, [fp, #-56]	; 0xffffffc8
c2002c2c:	e2832001 	add	r2, r3, #1
c2002c30:	e50b2038 	str	r2, [fp, #-56]	; 0xffffffc8
c2002c34:	e51b2024 	ldr	r2, [fp, #-36]	; 0xffffffdc
c2002c38:	e1520003 	cmp	r2, r3
c2002c3c:	8afffff1 	bhi	c2002c08 <_vsnprintf+0xba4>
c2002c40:	e59b3004 	ldr	r3, [fp, #4]
c2002c44:	e2832004 	add	r2, r3, #4
c2002c48:	e58b2004 	str	r2, [fp, #4]
c2002c4c:	e5933000 	ldr	r3, [r3]
c2002c50:	e6ef0073 	uxtb	r0, r3
c2002c54:	e51b2030 	ldr	r2, [fp, #-48]	; 0xffffffd0
c2002c58:	e2823001 	add	r3, r2, #1
c2002c5c:	e50b3030 	str	r3, [fp, #-48]	; 0xffffffd0
c2002c60:	e51b4068 	ldr	r4, [fp, #-104]	; 0xffffff98
c2002c64:	e51b3070 	ldr	r3, [fp, #-112]	; 0xffffff90
c2002c68:	e51b106c 	ldr	r1, [fp, #-108]	; 0xffffff94
c2002c6c:	e12fff34 	blx	r4
c2002c70:	e51b3020 	ldr	r3, [fp, #-32]	; 0xffffffe0
c2002c74:	e2033002 	and	r3, r3, #2
c2002c78:	e3530000 	cmp	r3, #0
c2002c7c:	0a00000e 	beq	c2002cbc <_vsnprintf+0xc58>
c2002c80:	ea000007 	b	c2002ca4 <_vsnprintf+0xc40>
c2002c84:	e51b2030 	ldr	r2, [fp, #-48]	; 0xffffffd0
c2002c88:	e2823001 	add	r3, r2, #1
c2002c8c:	e50b3030 	str	r3, [fp, #-48]	; 0xffffffd0
c2002c90:	e51b4068 	ldr	r4, [fp, #-104]	; 0xffffff98
c2002c94:	e51b3070 	ldr	r3, [fp, #-112]	; 0xffffff90
c2002c98:	e51b106c 	ldr	r1, [fp, #-108]	; 0xffffff94
c2002c9c:	e3a00020 	mov	r0, #32
c2002ca0:	e12fff34 	blx	r4
c2002ca4:	e51b3038 	ldr	r3, [fp, #-56]	; 0xffffffc8
c2002ca8:	e2832001 	add	r2, r3, #1
c2002cac:	e50b2038 	str	r2, [fp, #-56]	; 0xffffffc8
c2002cb0:	e51b2024 	ldr	r2, [fp, #-36]	; 0xffffffdc
c2002cb4:	e1520003 	cmp	r2, r3
c2002cb8:	8afffff1 	bhi	c2002c84 <_vsnprintf+0xc20>
c2002cbc:	e51b3074 	ldr	r3, [fp, #-116]	; 0xffffff8c
c2002cc0:	e2833001 	add	r3, r3, #1
c2002cc4:	e50b3074 	str	r3, [fp, #-116]	; 0xffffff8c
c2002cc8:	ea0000b4 	b	c2002fa0 <_vsnprintf+0xf3c>
c2002ccc:	e59b3004 	ldr	r3, [fp, #4]
c2002cd0:	e2832004 	add	r2, r3, #4
c2002cd4:	e58b2004 	str	r2, [fp, #4]
c2002cd8:	e5933000 	ldr	r3, [r3]
c2002cdc:	e50b303c 	str	r3, [fp, #-60]	; 0xffffffc4
c2002ce0:	e51b3028 	ldr	r3, [fp, #-40]	; 0xffffffd8
c2002ce4:	e3530000 	cmp	r3, #0
c2002ce8:	0a000001 	beq	c2002cf4 <_vsnprintf+0xc90>
c2002cec:	e51b3028 	ldr	r3, [fp, #-40]	; 0xffffffd8
c2002cf0:	ea000000 	b	c2002cf8 <_vsnprintf+0xc94>
c2002cf4:	e3e03000 	mvn	r3, #0
c2002cf8:	e1a01003 	mov	r1, r3
c2002cfc:	e51b003c 	ldr	r0, [fp, #-60]	; 0xffffffc4
c2002d00:	ebfff79f 	bl	c2000b84 <_strnlen_s>
c2002d04:	e50b0040 	str	r0, [fp, #-64]	; 0xffffffc0
c2002d08:	e51b3020 	ldr	r3, [fp, #-32]	; 0xffffffe0
c2002d0c:	e2033b01 	and	r3, r3, #1024	; 0x400
c2002d10:	e3530000 	cmp	r3, #0
c2002d14:	0a000005 	beq	c2002d30 <_vsnprintf+0xccc>
c2002d18:	e51b2040 	ldr	r2, [fp, #-64]	; 0xffffffc0
c2002d1c:	e51b3028 	ldr	r3, [fp, #-40]	; 0xffffffd8
c2002d20:	e1520003 	cmp	r2, r3
c2002d24:	31a03002 	movcc	r3, r2
c2002d28:	21a03003 	movcs	r3, r3
c2002d2c:	e50b3040 	str	r3, [fp, #-64]	; 0xffffffc0
c2002d30:	e51b3020 	ldr	r3, [fp, #-32]	; 0xffffffe0
c2002d34:	e2033002 	and	r3, r3, #2
c2002d38:	e3530000 	cmp	r3, #0
c2002d3c:	1a00001a 	bne	c2002dac <_vsnprintf+0xd48>
c2002d40:	ea000007 	b	c2002d64 <_vsnprintf+0xd00>
c2002d44:	e51b2030 	ldr	r2, [fp, #-48]	; 0xffffffd0
c2002d48:	e2823001 	add	r3, r2, #1
c2002d4c:	e50b3030 	str	r3, [fp, #-48]	; 0xffffffd0
c2002d50:	e51b4068 	ldr	r4, [fp, #-104]	; 0xffffff98
c2002d54:	e51b3070 	ldr	r3, [fp, #-112]	; 0xffffff90
c2002d58:	e51b106c 	ldr	r1, [fp, #-108]	; 0xffffff94
c2002d5c:	e3a00020 	mov	r0, #32
c2002d60:	e12fff34 	blx	r4
c2002d64:	e51b3040 	ldr	r3, [fp, #-64]	; 0xffffffc0
c2002d68:	e2832001 	add	r2, r3, #1
c2002d6c:	e50b2040 	str	r2, [fp, #-64]	; 0xffffffc0
c2002d70:	e51b2024 	ldr	r2, [fp, #-36]	; 0xffffffdc
c2002d74:	e1520003 	cmp	r2, r3
c2002d78:	8afffff1 	bhi	c2002d44 <_vsnprintf+0xce0>
c2002d7c:	ea00000a 	b	c2002dac <_vsnprintf+0xd48>
c2002d80:	e51b303c 	ldr	r3, [fp, #-60]	; 0xffffffc4
c2002d84:	e2832001 	add	r2, r3, #1
c2002d88:	e50b203c 	str	r2, [fp, #-60]	; 0xffffffc4
c2002d8c:	e5d30000 	ldrb	r0, [r3]
c2002d90:	e51b2030 	ldr	r2, [fp, #-48]	; 0xffffffd0
c2002d94:	e2823001 	add	r3, r2, #1
c2002d98:	e50b3030 	str	r3, [fp, #-48]	; 0xffffffd0
c2002d9c:	e51b4068 	ldr	r4, [fp, #-104]	; 0xffffff98
c2002da0:	e51b3070 	ldr	r3, [fp, #-112]	; 0xffffff90
c2002da4:	e51b106c 	ldr	r1, [fp, #-108]	; 0xffffff94
c2002da8:	e12fff34 	blx	r4
c2002dac:	e51b303c 	ldr	r3, [fp, #-60]	; 0xffffffc4
c2002db0:	e5d33000 	ldrb	r3, [r3]
c2002db4:	e3530000 	cmp	r3, #0
c2002db8:	0a000008 	beq	c2002de0 <_vsnprintf+0xd7c>
c2002dbc:	e51b3020 	ldr	r3, [fp, #-32]	; 0xffffffe0
c2002dc0:	e2033b01 	and	r3, r3, #1024	; 0x400
c2002dc4:	e3530000 	cmp	r3, #0
c2002dc8:	0affffec 	beq	c2002d80 <_vsnprintf+0xd1c>
c2002dcc:	e51b3028 	ldr	r3, [fp, #-40]	; 0xffffffd8
c2002dd0:	e2432001 	sub	r2, r3, #1
c2002dd4:	e50b2028 	str	r2, [fp, #-40]	; 0xffffffd8
c2002dd8:	e3530000 	cmp	r3, #0
c2002ddc:	1affffe7 	bne	c2002d80 <_vsnprintf+0xd1c>
c2002de0:	e51b3020 	ldr	r3, [fp, #-32]	; 0xffffffe0
c2002de4:	e2033002 	and	r3, r3, #2
c2002de8:	e3530000 	cmp	r3, #0
c2002dec:	0a00000e 	beq	c2002e2c <_vsnprintf+0xdc8>
c2002df0:	ea000007 	b	c2002e14 <_vsnprintf+0xdb0>
c2002df4:	e51b2030 	ldr	r2, [fp, #-48]	; 0xffffffd0
c2002df8:	e2823001 	add	r3, r2, #1
c2002dfc:	e50b3030 	str	r3, [fp, #-48]	; 0xffffffd0
c2002e00:	e51b4068 	ldr	r4, [fp, #-104]	; 0xffffff98
c2002e04:	e51b3070 	ldr	r3, [fp, #-112]	; 0xffffff90
c2002e08:	e51b106c 	ldr	r1, [fp, #-108]	; 0xffffff94
c2002e0c:	e3a00020 	mov	r0, #32
c2002e10:	e12fff34 	blx	r4
c2002e14:	e51b3040 	ldr	r3, [fp, #-64]	; 0xffffffc0
c2002e18:	e2832001 	add	r2, r3, #1
c2002e1c:	e50b2040 	str	r2, [fp, #-64]	; 0xffffffc0
c2002e20:	e51b2024 	ldr	r2, [fp, #-36]	; 0xffffffdc
c2002e24:	e1520003 	cmp	r2, r3
c2002e28:	8afffff1 	bhi	c2002df4 <_vsnprintf+0xd90>
c2002e2c:	e51b3074 	ldr	r3, [fp, #-116]	; 0xffffff8c
c2002e30:	e2833001 	add	r3, r3, #1
c2002e34:	e50b3074 	str	r3, [fp, #-116]	; 0xffffff8c
c2002e38:	ea000058 	b	c2002fa0 <_vsnprintf+0xf3c>
c2002e3c:	e3a03008 	mov	r3, #8
c2002e40:	e50b3024 	str	r3, [fp, #-36]	; 0xffffffdc
c2002e44:	e51b3020 	ldr	r3, [fp, #-32]	; 0xffffffe0
c2002e48:	e3833021 	orr	r3, r3, #33	; 0x21
c2002e4c:	e50b3020 	str	r3, [fp, #-32]	; 0xffffffe0
c2002e50:	e3a03000 	mov	r3, #0
c2002e54:	e54b3049 	strb	r3, [fp, #-73]	; 0xffffffb7
c2002e58:	e55b3049 	ldrb	r3, [fp, #-73]	; 0xffffffb7
c2002e5c:	e3530000 	cmp	r3, #0
c2002e60:	0a00001b 	beq	c2002ed4 <_vsnprintf+0xe70>
c2002e64:	e59b3004 	ldr	r3, [fp, #4]
c2002e68:	e2832004 	add	r2, r3, #4
c2002e6c:	e58b2004 	str	r2, [fp, #4]
c2002e70:	e5933000 	ldr	r3, [r3]
c2002e74:	e1a02003 	mov	r2, r3
c2002e78:	e3a03000 	mov	r3, #0
c2002e7c:	e50b208c 	str	r2, [fp, #-140]	; 0xffffff74
c2002e80:	e50b3088 	str	r3, [fp, #-136]	; 0xffffff78
c2002e84:	e51b3020 	ldr	r3, [fp, #-32]	; 0xffffffe0
c2002e88:	e58d3020 	str	r3, [sp, #32]
c2002e8c:	e51b3024 	ldr	r3, [fp, #-36]	; 0xffffffdc
c2002e90:	e58d301c 	str	r3, [sp, #28]
c2002e94:	e51b3028 	ldr	r3, [fp, #-40]	; 0xffffffd8
c2002e98:	e58d3018 	str	r3, [sp, #24]
c2002e9c:	e3a02010 	mov	r2, #16
c2002ea0:	e3a03000 	mov	r3, #0
c2002ea4:	e1cd21f0 	strd	r2, [sp, #16]
c2002ea8:	e3a03000 	mov	r3, #0
c2002eac:	e58d3008 	str	r3, [sp, #8]
c2002eb0:	e14b28dc 	ldrd	r2, [fp, #-140]	; 0xffffff74
c2002eb4:	e1cd20f0 	strd	r2, [sp]
c2002eb8:	e51b3070 	ldr	r3, [fp, #-112]	; 0xffffff90
c2002ebc:	e51b2030 	ldr	r2, [fp, #-48]	; 0xffffffd0
c2002ec0:	e51b106c 	ldr	r1, [fp, #-108]	; 0xffffff94
c2002ec4:	e51b0068 	ldr	r0, [fp, #-104]	; 0xffffff98
c2002ec8:	ebfff8ec 	bl	c2001280 <_ntoa_long_long>
c2002ecc:	e50b0030 	str	r0, [fp, #-48]	; 0xffffffd0
c2002ed0:	ea000015 	b	c2002f2c <_vsnprintf+0xec8>
c2002ed4:	e59b3004 	ldr	r3, [fp, #4]
c2002ed8:	e2832004 	add	r2, r3, #4
c2002edc:	e58b2004 	str	r2, [fp, #4]
c2002ee0:	e5933000 	ldr	r3, [r3]
c2002ee4:	e1a02003 	mov	r2, r3
c2002ee8:	e51b3020 	ldr	r3, [fp, #-32]	; 0xffffffe0
c2002eec:	e58d3014 	str	r3, [sp, #20]
c2002ef0:	e51b3024 	ldr	r3, [fp, #-36]	; 0xffffffdc
c2002ef4:	e58d3010 	str	r3, [sp, #16]
c2002ef8:	e51b3028 	ldr	r3, [fp, #-40]	; 0xffffffd8
c2002efc:	e58d300c 	str	r3, [sp, #12]
c2002f00:	e3a03010 	mov	r3, #16
c2002f04:	e58d3008 	str	r3, [sp, #8]
c2002f08:	e3a03000 	mov	r3, #0
c2002f0c:	e58d3004 	str	r3, [sp, #4]
c2002f10:	e58d2000 	str	r2, [sp]
c2002f14:	e51b3070 	ldr	r3, [fp, #-112]	; 0xffffff90
c2002f18:	e51b2030 	ldr	r2, [fp, #-48]	; 0xffffffd0
c2002f1c:	e51b106c 	ldr	r1, [fp, #-108]	; 0xffffff94
c2002f20:	e51b0068 	ldr	r0, [fp, #-104]	; 0xffffff98
c2002f24:	ebfff87e 	bl	c2001124 <_ntoa_long>
c2002f28:	e50b0030 	str	r0, [fp, #-48]	; 0xffffffd0
c2002f2c:	e51b3074 	ldr	r3, [fp, #-116]	; 0xffffff8c
c2002f30:	e2833001 	add	r3, r3, #1
c2002f34:	e50b3074 	str	r3, [fp, #-116]	; 0xffffff8c
c2002f38:	ea000018 	b	c2002fa0 <_vsnprintf+0xf3c>
c2002f3c:	e51b2030 	ldr	r2, [fp, #-48]	; 0xffffffd0
c2002f40:	e2823001 	add	r3, r2, #1
c2002f44:	e50b3030 	str	r3, [fp, #-48]	; 0xffffffd0
c2002f48:	e51b4068 	ldr	r4, [fp, #-104]	; 0xffffff98
c2002f4c:	e51b3070 	ldr	r3, [fp, #-112]	; 0xffffff90
c2002f50:	e51b106c 	ldr	r1, [fp, #-108]	; 0xffffff94
c2002f54:	e3a00025 	mov	r0, #37	; 0x25
c2002f58:	e12fff34 	blx	r4
c2002f5c:	e51b3074 	ldr	r3, [fp, #-116]	; 0xffffff8c
c2002f60:	e2833001 	add	r3, r3, #1
c2002f64:	e50b3074 	str	r3, [fp, #-116]	; 0xffffff8c
c2002f68:	ea00000c 	b	c2002fa0 <_vsnprintf+0xf3c>
c2002f6c:	e51b3074 	ldr	r3, [fp, #-116]	; 0xffffff8c
c2002f70:	e5d30000 	ldrb	r0, [r3]
c2002f74:	e51b2030 	ldr	r2, [fp, #-48]	; 0xffffffd0
c2002f78:	e2823001 	add	r3, r2, #1
c2002f7c:	e50b3030 	str	r3, [fp, #-48]	; 0xffffffd0
c2002f80:	e51b4068 	ldr	r4, [fp, #-104]	; 0xffffff98
c2002f84:	e51b3070 	ldr	r3, [fp, #-112]	; 0xffffff90
c2002f88:	e51b106c 	ldr	r1, [fp, #-108]	; 0xffffff94
c2002f8c:	e12fff34 	blx	r4
c2002f90:	e51b3074 	ldr	r3, [fp, #-116]	; 0xffffff8c
c2002f94:	e2833001 	add	r3, r3, #1
c2002f98:	e50b3074 	str	r3, [fp, #-116]	; 0xffffff8c
c2002f9c:	e320f000 	nop	{0}
c2002fa0:	e51b3074 	ldr	r3, [fp, #-116]	; 0xffffff8c
c2002fa4:	e5d33000 	ldrb	r3, [r3]
c2002fa8:	e3530000 	cmp	r3, #0
c2002fac:	1afffc3c 	bne	c20020a4 <_vsnprintf+0x40>
c2002fb0:	e51b2030 	ldr	r2, [fp, #-48]	; 0xffffffd0
c2002fb4:	e51b3070 	ldr	r3, [fp, #-112]	; 0xffffff90
c2002fb8:	e1520003 	cmp	r2, r3
c2002fbc:	3a000002 	bcc	c2002fcc <_vsnprintf+0xf68>
c2002fc0:	e51b3070 	ldr	r3, [fp, #-112]	; 0xffffff90
c2002fc4:	e2432001 	sub	r2, r3, #1
c2002fc8:	ea000000 	b	c2002fd0 <_vsnprintf+0xf6c>
c2002fcc:	e51b2030 	ldr	r2, [fp, #-48]	; 0xffffffd0
c2002fd0:	e51b4068 	ldr	r4, [fp, #-104]	; 0xffffff98
c2002fd4:	e51b3070 	ldr	r3, [fp, #-112]	; 0xffffff90
c2002fd8:	e51b106c 	ldr	r1, [fp, #-108]	; 0xffffff94
c2002fdc:	e3a00000 	mov	r0, #0
c2002fe0:	e12fff34 	blx	r4
c2002fe4:	e51b3030 	ldr	r3, [fp, #-48]	; 0xffffffd0
c2002fe8:	e1a00003 	mov	r0, r3
c2002fec:	e24bd01c 	sub	sp, fp, #28
c2002ff0:	e8bd8bf0 	pop	{r4, r5, r6, r7, r8, r9, fp, pc}

c2002ff4 <printf_>:
c2002ff4:	e92d000f 	push	{r0, r1, r2, r3}
c2002ff8:	e92d4800 	push	{fp, lr}
c2002ffc:	e28db004 	add	fp, sp, #4
c2003000:	e24dd018 	sub	sp, sp, #24
c2003004:	e28b3008 	add	r3, fp, #8
c2003008:	e50b300c 	str	r3, [fp, #-12]
c200300c:	e24b1010 	sub	r1, fp, #16
c2003010:	e51b300c 	ldr	r3, [fp, #-12]
c2003014:	e58d3000 	str	r3, [sp]
c2003018:	e59b3004 	ldr	r3, [fp, #4]
c200301c:	e3e02000 	mvn	r2, #0
c2003020:	e3000b40 	movw	r0, #2880	; 0xb40
c2003024:	e34c0200 	movt	r0, #49664	; 0xc200
c2003028:	ebfffc0d 	bl	c2002064 <_vsnprintf>
c200302c:	e50b0008 	str	r0, [fp, #-8]
c2003030:	e51b3008 	ldr	r3, [fp, #-8]
c2003034:	e1a00003 	mov	r0, r3
c2003038:	e24bd004 	sub	sp, fp, #4
c200303c:	e8bd4800 	pop	{fp, lr}
c2003040:	e28dd010 	add	sp, sp, #16
c2003044:	e12fff1e 	bx	lr

c2003048 <arch_alignment_check_enable>:
c2003048:	e52db004 	push	{fp}		; (str fp, [sp, #-4]!)
c200304c:	e28db000 	add	fp, sp, #0
c2003050:	ee110f10 	mrc	15, 0, r0, cr1, cr0, {0}
c2003054:	e3800002 	orr	r0, r0, #2
c2003058:	ee010f10 	mcr	15, 0, r0, cr1, cr0, {0}
c200305c:	e320f000 	nop	{0}
c2003060:	e28bd000 	add	sp, fp, #0
c2003064:	e49db004 	pop	{fp}		; (ldr fp, [sp], #4)
c2003068:	e12fff1e 	bx	lr

c200306c <_early_arch_init>:
c200306c:	e92d4800 	push	{fp, lr}
c2003070:	e28db004 	add	fp, sp, #4
c2003074:	e59f006c 	ldr	r0, [pc, #108]	; c20030e8 <_early_arch_init+0x7c>
c2003078:	e3022200 	movw	r2, #8704	; 0x2200
c200307c:	e34c2202 	movt	r2, #49666	; 0xc202
c2003080:	e3053400 	movw	r3, #21504	; 0x5400
c2003084:	e34c3200 	movt	r3, #49664	; 0xc200
c2003088:	e0423003 	sub	r3, r2, r3
c200308c:	e1a02003 	mov	r2, r3
c2003090:	e3a01000 	mov	r1, #0
c2003094:	ebfff667 	bl	c2000a38 <memset>
c2003098:	eb000120 	bl	c2003520 <board_early_init>
c200309c:	ebfff57d 	bl	c2000698 <arch_tlb_invalidate_all>
c20030a0:	ebfff565 	bl	c200063c <arch_mmu_enable>
c20030a4:	ebfff456 	bl	c2000204 <arch_dcache_invalidate_all>
c20030a8:	ebfff437 	bl	c200018c <arch_dcache_enable>
c20030ac:	ebfff43e 	bl	c20001ac <arch_icache_invalidate_all>
c20030b0:	ebfff42d 	bl	c200016c <arch_icache_enable>
c20030b4:	ebfff416 	bl	c2000114 <arch_branch_predictor_invalidate_all>
c20030b8:	ebfff40d 	bl	c20000f4 <arch_branch_predictor_enable>
c20030bc:	ebffffe1 	bl	c2003048 <arch_alignment_check_enable>
c20030c0:	f1080100 	cpsie	a
c20030c4:	eb000025 	bl	c2003160 <arch_irq_init>
c20030c8:	ebfff580 	bl	c20006d0 <arch_pmu_user_access_enable>
c20030cc:	ebfff58f 	bl	c2000710 <arch_pmu_cycle_counter_init>
c20030d0:	ebfff586 	bl	c20006f0 <arch_pmu_cycle_counter_enable>
c20030d4:	ebfff546 	bl	c20005f4 <arch_fpu_enable>
c20030d8:	eb000136 	bl	c20035b8 <board_init>
c20030dc:	eb000187 	bl	c2003700 <main>
c20030e0:	e320f000 	nop	{0}
c20030e4:	e8bd8800 	pop	{fp, pc}
c20030e8:	82005400 	andhi	r5, r0, #0, 8

c20030ec <arch_default_irq_handler>:
c20030ec:	e52db004 	push	{fp}		; (str fp, [sp, #-4]!)
c20030f0:	e28db000 	add	fp, sp, #0
c20030f4:	e24dd00c 	sub	sp, sp, #12
c20030f8:	e50b0008 	str	r0, [fp, #-8]
c20030fc:	e320f000 	nop	{0}
c2003100:	e28bd000 	add	sp, fp, #0
c2003104:	e49db004 	pop	{fp}		; (ldr fp, [sp], #4)
c2003108:	e12fff1e 	bx	lr

c200310c <arch_irq_handler>:
c200310c:	e92d4800 	push	{fp, lr}
c2003110:	e28db004 	add	fp, sp, #4
c2003114:	e24dd008 	sub	sp, sp, #8
c2003118:	e50b0008 	str	r0, [fp, #-8]
c200311c:	e51b0008 	ldr	r0, [fp, #-8]
c2003120:	eb000230 	bl	c20039e8 <sdrv_irq_clear_status>
c2003124:	e3053400 	movw	r3, #21504	; 0x5400
c2003128:	e34c3200 	movt	r3, #49664	; 0xc200
c200312c:	e51b2008 	ldr	r2, [fp, #-8]
c2003130:	e7931182 	ldr	r1, [r3, r2, lsl #3]
c2003134:	e3052400 	movw	r2, #21504	; 0x5400
c2003138:	e34c2200 	movt	r2, #49664	; 0xc200
c200313c:	e51b3008 	ldr	r3, [fp, #-8]
c2003140:	e1a03183 	lsl	r3, r3, #3
c2003144:	e0823003 	add	r3, r2, r3
c2003148:	e5933004 	ldr	r3, [r3, #4]
c200314c:	e1a00003 	mov	r0, r3
c2003150:	e12fff31 	blx	r1
c2003154:	e320f000 	nop	{0}
c2003158:	e24bd004 	sub	sp, fp, #4
c200315c:	e8bd8800 	pop	{fp, pc}

c2003160 <arch_irq_init>:
c2003160:	e92d4800 	push	{fp, lr}
c2003164:	e28db004 	add	fp, sp, #4
c2003168:	e24dd008 	sub	sp, sp, #8
c200316c:	e3a03000 	mov	r3, #0
c2003170:	e50b3008 	str	r3, [fp, #-8]
c2003174:	ea00000f 	b	c20031b8 <arch_irq_init+0x58>
c2003178:	e3052400 	movw	r2, #21504	; 0x5400
c200317c:	e34c2200 	movt	r2, #49664	; 0xc200
c2003180:	e51b3008 	ldr	r3, [fp, #-8]
c2003184:	e1a03183 	lsl	r3, r3, #3
c2003188:	e0823003 	add	r3, r2, r3
c200318c:	e3a02000 	mov	r2, #0
c2003190:	e5832004 	str	r2, [r3, #4]
c2003194:	e3053400 	movw	r3, #21504	; 0x5400
c2003198:	e34c3200 	movt	r3, #49664	; 0xc200
c200319c:	e51b1008 	ldr	r1, [fp, #-8]
c20031a0:	e30320ec 	movw	r2, #12524	; 0x30ec
c20031a4:	e34c2200 	movt	r2, #49664	; 0xc200
c20031a8:	e7832181 	str	r2, [r3, r1, lsl #3]
c20031ac:	e51b3008 	ldr	r3, [fp, #-8]
c20031b0:	e2833001 	add	r3, r3, #1
c20031b4:	e50b3008 	str	r3, [fp, #-8]
c20031b8:	e51b3008 	ldr	r3, [fp, #-8]
c20031bc:	e353007f 	cmp	r3, #127	; 0x7f
c20031c0:	9affffec 	bls	c2003178 <arch_irq_init+0x18>
c20031c4:	eb0001b0 	bl	c200388c <sdrv_irq_init>
c20031c8:	e320f000 	nop	{0}
c20031cc:	e24bd004 	sub	sp, fp, #4
c20031d0:	e8bd8800 	pop	{fp, pc}

c20031d4 <arch_irq_register>:
c20031d4:	e92d4800 	push	{fp, lr}
c20031d8:	e28db004 	add	fp, sp, #4
c20031dc:	e24dd010 	sub	sp, sp, #16
c20031e0:	e50b0008 	str	r0, [fp, #-8]
c20031e4:	e50b100c 	str	r1, [fp, #-12]
c20031e8:	e50b2010 	str	r2, [fp, #-16]
c20031ec:	e50b3014 	str	r3, [fp, #-20]	; 0xffffffec
c20031f0:	e51b3014 	ldr	r3, [fp, #-20]	; 0xffffffec
c20031f4:	e3530000 	cmp	r3, #0
c20031f8:	0a000014 	beq	c2003250 <arch_irq_register+0x7c>
c20031fc:	e51b300c 	ldr	r3, [fp, #-12]
c2003200:	e353000f 	cmp	r3, #15
c2003204:	8a000013 	bhi	c2003258 <arch_irq_register+0x84>
c2003208:	e3052400 	movw	r2, #21504	; 0x5400
c200320c:	e34c2200 	movt	r2, #49664	; 0xc200
c2003210:	e51b3008 	ldr	r3, [fp, #-8]
c2003214:	e1a03183 	lsl	r3, r3, #3
c2003218:	e0823003 	add	r3, r2, r3
c200321c:	e51b2010 	ldr	r2, [fp, #-16]
c2003220:	e5832004 	str	r2, [r3, #4]
c2003224:	e3053400 	movw	r3, #21504	; 0x5400
c2003228:	e34c3200 	movt	r3, #49664	; 0xc200
c200322c:	e51b2008 	ldr	r2, [fp, #-8]
c2003230:	e51b1014 	ldr	r1, [fp, #-20]	; 0xffffffec
c2003234:	e7831182 	str	r1, [r3, r2, lsl #3]
c2003238:	e51b100c 	ldr	r1, [fp, #-12]
c200323c:	e51b0008 	ldr	r0, [fp, #-8]
c2003240:	eb0001b1 	bl	c200390c <sdrv_irq_set_priority>
c2003244:	e51b0008 	ldr	r0, [fp, #-8]
c2003248:	eb0001c6 	bl	c2003968 <sdrv_irq_enable>
c200324c:	ea000002 	b	c200325c <arch_irq_register+0x88>
c2003250:	e320f000 	nop	{0}
c2003254:	ea000000 	b	c200325c <arch_irq_register+0x88>
c2003258:	e320f000 	nop	{0}
c200325c:	e24bd004 	sub	sp, fp, #4
c2003260:	e8bd8800 	pop	{fp, pc}

c2003264 <_putchar>:
c2003264:	e92d4800 	push	{fp, lr}
c2003268:	e28db004 	add	fp, sp, #4
c200326c:	e24dd008 	sub	sp, sp, #8
c2003270:	e1a03000 	mov	r3, r0
c2003274:	e54b3005 	strb	r3, [fp, #-5]
c2003278:	e55b3005 	ldrb	r3, [fp, #-5]
c200327c:	e1a01003 	mov	r1, r3
c2003280:	e3a00a09 	mov	r0, #36864	; 0x9000
c2003284:	e34404e0 	movt	r0, #17632	; 0x44e0
c2003288:	eb0003e5 	bl	c2004224 <sdrv_uart_send>
c200328c:	e320f000 	nop	{0}
c2003290:	e24bd004 	sub	sp, fp, #4
c2003294:	e8bd8800 	pop	{fp, pc}

c2003298 <early_mmu_config>:
c2003298:	e92d4800 	push	{fp, lr}
c200329c:	e28db004 	add	fp, sp, #4
c20032a0:	e24dd028 	sub	sp, sp, #40	; 0x28
c20032a4:	e3a00102 	mov	r0, #-2147483648	; 0x80000000
c20032a8:	ebfff4f4 	bl	c2000680 <arch_tlb_config_ttbr0>
c20032ac:	e3a00901 	mov	r0, #16384	; 0x4000
c20032b0:	e3480000 	movt	r0, #32768	; 0x8000
c20032b4:	ebfff4f3 	bl	c2000688 <arch_tlb_config_ttbr1>
c20032b8:	e3a00001 	mov	r0, #1
c20032bc:	ebfff4f3 	bl	c2000690 <arch_tlb_config_ttbcr>
c20032c0:	e3a03000 	mov	r3, #0
c20032c4:	e50b3008 	str	r3, [fp, #-8]
c20032c8:	e3a03000 	mov	r3, #0
c20032cc:	e50b300c 	str	r3, [fp, #-12]
c20032d0:	e3a03102 	mov	r3, #-2147483648	; 0x80000000
c20032d4:	e50b3024 	str	r3, [fp, #-36]	; 0xffffffdc
c20032d8:	e3a03000 	mov	r3, #0
c20032dc:	e50b3010 	str	r3, [fp, #-16]
c20032e0:	ea00002c 	b	c2003398 <early_mmu_config+0x100>
c20032e4:	e51b300c 	ldr	r3, [fp, #-12]
c20032e8:	e3530000 	cmp	r3, #0
c20032ec:	ba00001b 	blt	c2003360 <early_mmu_config+0xc8>
c20032f0:	e51b300c 	ldr	r3, [fp, #-12]
c20032f4:	e373021e 	cmn	r3, #-536870911	; 0xe0000001
c20032f8:	8a000003 	bhi	c200330c <early_mmu_config+0x74>
c20032fc:	e3003c12 	movw	r3, #3090	; 0xc12
c2003300:	e3403009 	movt	r3, #9
c2003304:	e50b3008 	str	r3, [fp, #-8]
c2003308:	ea000009 	b	c2003334 <early_mmu_config+0x9c>
c200330c:	e51b300c 	ldr	r3, [fp, #-12]
c2003310:	e373036f 	cmn	r3, #-1140850687	; 0xbc000001
c2003314:	8a000003 	bhi	c2003328 <early_mmu_config+0x90>
c2003318:	e3a03012 	mov	r3, #18
c200331c:	e3403009 	movt	r3, #9
c2003320:	e50b3008 	str	r3, [fp, #-8]
c2003324:	ea000002 	b	c2003334 <early_mmu_config+0x9c>
c2003328:	e3003c16 	movw	r3, #3094	; 0xc16
c200332c:	e3403009 	movt	r3, #9
c2003330:	e50b3008 	str	r3, [fp, #-8]
c2003334:	e51b300c 	ldr	r3, [fp, #-12]
c2003338:	e1a03a23 	lsr	r3, r3, #20
c200333c:	e1a03a03 	lsl	r3, r3, #20
c2003340:	e51b2010 	ldr	r2, [fp, #-16]
c2003344:	e1a02102 	lsl	r2, r2, #2
c2003348:	e51b1024 	ldr	r1, [fp, #-36]	; 0xffffffdc
c200334c:	e0812002 	add	r2, r1, r2
c2003350:	e51b1008 	ldr	r1, [fp, #-8]
c2003354:	e1833001 	orr	r3, r3, r1
c2003358:	e5823000 	str	r3, [r2]
c200335c:	ea000007 	b	c2003380 <early_mmu_config+0xe8>
c2003360:	e3a03000 	mov	r3, #0
c2003364:	e50b3008 	str	r3, [fp, #-8]
c2003368:	e51b3010 	ldr	r3, [fp, #-16]
c200336c:	e1a03103 	lsl	r3, r3, #2
c2003370:	e51b2024 	ldr	r2, [fp, #-36]	; 0xffffffdc
c2003374:	e0823003 	add	r3, r2, r3
c2003378:	e51b2008 	ldr	r2, [fp, #-8]
c200337c:	e5832000 	str	r2, [r3]
c2003380:	e51b300c 	ldr	r3, [fp, #-12]
c2003384:	e2833601 	add	r3, r3, #1048576	; 0x100000
c2003388:	e50b300c 	str	r3, [fp, #-12]
c200338c:	e51b3010 	ldr	r3, [fp, #-16]
c2003390:	e2833001 	add	r3, r3, #1
c2003394:	e50b3010 	str	r3, [fp, #-16]
c2003398:	e51b3010 	ldr	r3, [fp, #-16]
c200339c:	e3530a01 	cmp	r3, #4096	; 0x1000
c20033a0:	3affffcf 	bcc	c20032e4 <early_mmu_config+0x4c>
c20033a4:	e3a03901 	mov	r3, #16384	; 0x4000
c20033a8:	e3483000 	movt	r3, #32768	; 0x8000
c20033ac:	e50b3024 	str	r3, [fp, #-36]	; 0xffffffdc
c20033b0:	e3a03000 	mov	r3, #0
c20033b4:	e50b300c 	str	r3, [fp, #-12]
c20033b8:	e3a03902 	mov	r3, #32768	; 0x8000
c20033bc:	e3483000 	movt	r3, #32768	; 0x8000
c20033c0:	e50b3014 	str	r3, [fp, #-20]	; 0xffffffec
c20033c4:	e3a03000 	mov	r3, #0
c20033c8:	e50b3018 	str	r3, [fp, #-24]	; 0xffffffe8
c20033cc:	ea000023 	b	c2003460 <early_mmu_config+0x1c8>
c20033d0:	e51b300c 	ldr	r3, [fp, #-12]
c20033d4:	e3730212 	cmn	r3, #536870913	; 0x20000001
c20033d8:	8a000012 	bhi	c2003428 <early_mmu_config+0x190>
c20033dc:	e51b300c 	ldr	r3, [fp, #-12]
c20033e0:	e3730105 	cmn	r3, #1073741825	; 0x40000001
c20033e4:	9a00000f 	bls	c2003428 <early_mmu_config+0x190>
c20033e8:	e3a03009 	mov	r3, #9
c20033ec:	e50b3008 	str	r3, [fp, #-8]
c20033f0:	e51b3014 	ldr	r3, [fp, #-20]	; 0xffffffec
c20033f4:	e3c33fff 	bic	r3, r3, #1020	; 0x3fc
c20033f8:	e3c33003 	bic	r3, r3, #3
c20033fc:	e51b2018 	ldr	r2, [fp, #-24]	; 0xffffffe8
c2003400:	e1a02102 	lsl	r2, r2, #2
c2003404:	e51b1024 	ldr	r1, [fp, #-36]	; 0xffffffdc
c2003408:	e0812002 	add	r2, r1, r2
c200340c:	e51b1008 	ldr	r1, [fp, #-8]
c2003410:	e1833001 	orr	r3, r3, r1
c2003414:	e5823000 	str	r3, [r2]
c2003418:	e51b3014 	ldr	r3, [fp, #-20]	; 0xffffffec
c200341c:	e2833b01 	add	r3, r3, #1024	; 0x400
c2003420:	e50b3014 	str	r3, [fp, #-20]	; 0xffffffec
c2003424:	ea000007 	b	c2003448 <early_mmu_config+0x1b0>
c2003428:	e3a03000 	mov	r3, #0
c200342c:	e50b3008 	str	r3, [fp, #-8]
c2003430:	e51b3018 	ldr	r3, [fp, #-24]	; 0xffffffe8
c2003434:	e1a03103 	lsl	r3, r3, #2
c2003438:	e51b2024 	ldr	r2, [fp, #-36]	; 0xffffffdc
c200343c:	e0823003 	add	r3, r2, r3
c2003440:	e51b2008 	ldr	r2, [fp, #-8]
c2003444:	e5832000 	str	r2, [r3]
c2003448:	e51b300c 	ldr	r3, [fp, #-12]
c200344c:	e2833601 	add	r3, r3, #1048576	; 0x100000
c2003450:	e50b300c 	str	r3, [fp, #-12]
c2003454:	e51b3018 	ldr	r3, [fp, #-24]	; 0xffffffe8
c2003458:	e2833001 	add	r3, r3, #1
c200345c:	e50b3018 	str	r3, [fp, #-24]	; 0xffffffe8
c2003460:	e51b3018 	ldr	r3, [fp, #-24]	; 0xffffffe8
c2003464:	e3530a01 	cmp	r3, #4096	; 0x1000
c2003468:	3affffd8 	bcc	c20033d0 <early_mmu_config+0x138>
c200346c:	e3a03902 	mov	r3, #32768	; 0x8000
c2003470:	e3483000 	movt	r3, #32768	; 0x8000
c2003474:	e50b3028 	str	r3, [fp, #-40]	; 0xffffffd8
c2003478:	e3a03102 	mov	r3, #-2147483648	; 0x80000000
c200347c:	e50b301c 	str	r3, [fp, #-28]	; 0xffffffe4
c2003480:	e3a03000 	mov	r3, #0
c2003484:	e50b3020 	str	r3, [fp, #-32]	; 0xffffffe0
c2003488:	ea00001d 	b	c2003504 <early_mmu_config+0x26c>
c200348c:	e51b301c 	ldr	r3, [fp, #-28]	; 0xffffffe4
c2003490:	e3530481 	cmp	r3, #-2130706432	; 0x81000000
c2003494:	2a000002 	bcs	c20034a4 <early_mmu_config+0x20c>
c2003498:	e3003403 	movw	r3, #1027	; 0x403
c200349c:	e50b3008 	str	r3, [fp, #-8]
c20034a0:	ea000007 	b	c20034c4 <early_mmu_config+0x22c>
c20034a4:	e51b301c 	ldr	r3, [fp, #-28]	; 0xffffffe4
c20034a8:	e3530482 	cmp	r3, #-2113929216	; 0x82000000
c20034ac:	2a000002 	bcs	c20034bc <early_mmu_config+0x224>
c20034b0:	e300343b 	movw	r3, #1083	; 0x43b
c20034b4:	e50b3008 	str	r3, [fp, #-8]
c20034b8:	ea000001 	b	c20034c4 <early_mmu_config+0x22c>
c20034bc:	e300387e 	movw	r3, #2174	; 0x87e
c20034c0:	e50b3008 	str	r3, [fp, #-8]
c20034c4:	e51b301c 	ldr	r3, [fp, #-28]	; 0xffffffe4
c20034c8:	e3c33eff 	bic	r3, r3, #4080	; 0xff0
c20034cc:	e3c3300f 	bic	r3, r3, #15
c20034d0:	e51b2020 	ldr	r2, [fp, #-32]	; 0xffffffe0
c20034d4:	e1a02102 	lsl	r2, r2, #2
c20034d8:	e51b1028 	ldr	r1, [fp, #-40]	; 0xffffffd8
c20034dc:	e0812002 	add	r2, r1, r2
c20034e0:	e51b1008 	ldr	r1, [fp, #-8]
c20034e4:	e1833001 	orr	r3, r3, r1
c20034e8:	e5823000 	str	r3, [r2]
c20034ec:	e51b301c 	ldr	r3, [fp, #-28]	; 0xffffffe4
c20034f0:	e2833a01 	add	r3, r3, #4096	; 0x1000
c20034f4:	e50b301c 	str	r3, [fp, #-28]	; 0xffffffe4
c20034f8:	e51b3020 	ldr	r3, [fp, #-32]	; 0xffffffe0
c20034fc:	e2833001 	add	r3, r3, #1
c2003500:	e50b3020 	str	r3, [fp, #-32]	; 0xffffffe0
c2003504:	e51b3020 	ldr	r3, [fp, #-32]	; 0xffffffe0
c2003508:	e3530802 	cmp	r3, #131072	; 0x20000
c200350c:	3affffde 	bcc	c200348c <early_mmu_config+0x1f4>
c2003510:	e320f000 	nop	{0}
c2003514:	e320f000 	nop	{0}
c2003518:	e24bd004 	sub	sp, fp, #4
c200351c:	e8bd8800 	pop	{fp, pc}

c2003520 <board_early_init>:
c2003520:	e92d4800 	push	{fp, lr}
c2003524:	e28db004 	add	fp, sp, #4
c2003528:	ebffff5a 	bl	c2003298 <early_mmu_config>
c200352c:	e320f000 	nop	{0}
c2003530:	e8bd8800 	pop	{fp, pc}

c2003534 <sdrv_timer_init>:
c2003534:	e92d4800 	push	{fp, lr}
c2003538:	e28db004 	add	fp, sp, #4
c200353c:	e24dd008 	sub	sp, sp, #8
c2003540:	e50b0008 	str	r0, [fp, #-8]
c2003544:	e3003508 	movw	r3, #1288	; 0x508
c2003548:	e34434e0 	movt	r3, #17632	; 0x44e0
c200354c:	e3a02002 	mov	r2, #2
c2003550:	e5832000 	str	r2, [r3]
c2003554:	e51b0008 	ldr	r0, [fp, #-8]
c2003558:	eb000391 	bl	c20043a4 <sdrv_dtimer_soft_reset>
c200355c:	e3e010ff 	mvn	r1, #255	; 0xff
c2003560:	e51b0008 	ldr	r0, [fp, #-8]
c2003564:	eb0003f3 	bl	c2004538 <sdrv_dtimer_counter_set>
c2003568:	e3e010ff 	mvn	r1, #255	; 0xff
c200356c:	e51b0008 	ldr	r0, [fp, #-8]
c2003570:	eb000400 	bl	c2004578 <sdrv_dtimer_reload_set>
c2003574:	e3a01000 	mov	r1, #0
c2003578:	e51b0008 	ldr	r0, [fp, #-8]
c200357c:	eb0003b1 	bl	c2004448 <sdrv_dtimer_mode_configure>
c2003580:	e3a01001 	mov	r1, #1
c2003584:	e51b0008 	ldr	r0, [fp, #-8]
c2003588:	eb00041c 	bl	c2004600 <sdrv_dtimer_int_enable>
c200358c:	e30335e8 	movw	r3, #13800	; 0x35e8
c2003590:	e34c3200 	movt	r3, #49664	; 0xc200
c2003594:	e3a02000 	mov	r2, #0
c2003598:	e3a0100f 	mov	r1, #15
c200359c:	e3a00044 	mov	r0, #68	; 0x44
c20035a0:	ebffff0b 	bl	c20031d4 <arch_irq_register>
c20035a4:	e51b0008 	ldr	r0, [fp, #-8]
c20035a8:	eb000396 	bl	c2004408 <sdrv_dtimer_enable>
c20035ac:	e320f000 	nop	{0}
c20035b0:	e24bd004 	sub	sp, fp, #4
c20035b4:	e8bd8800 	pop	{fp, pc}

c20035b8 <board_init>:
c20035b8:	e92d4800 	push	{fp, lr}
c20035bc:	e28db004 	add	fp, sp, #4
c20035c0:	e3051168 	movw	r1, #20840	; 0x5168
c20035c4:	e34c1200 	movt	r1, #49664	; 0xc200
c20035c8:	e3a00a09 	mov	r0, #36864	; 0x9000
c20035cc:	e34404e0 	movt	r0, #17632	; 0x44e0
c20035d0:	eb0002ff 	bl	c20041d4 <sdrv_uart_init>
c20035d4:	e3050178 	movw	r0, #20856	; 0x5178
c20035d8:	e34c0200 	movt	r0, #49664	; 0xc200
c20035dc:	ebfffe84 	bl	c2002ff4 <printf_>
c20035e0:	e320f000 	nop	{0}
c20035e4:	e8bd8800 	pop	{fp, pc}

c20035e8 <sdrv_timer_intc_handler>:
c20035e8:	e92d4800 	push	{fp, lr}
c20035ec:	e28db004 	add	fp, sp, #4
c20035f0:	e24dd008 	sub	sp, sp, #8
c20035f4:	e50b0008 	str	r0, [fp, #-8]
c20035f8:	eb000504 	bl	c2004a10 <tryrtos_tick_handler>
c20035fc:	e3a01001 	mov	r1, #1
c2003600:	e3a00000 	mov	r0, #0
c2003604:	e3440804 	movt	r0, #18436	; 0x4804
c2003608:	eb0003ea 	bl	c20045b8 <sdrv_dtimer_int_status_clear>
c200360c:	e320f000 	nop	{0}
c2003610:	e24bd004 	sub	sp, fp, #4
c2003614:	e8bd8800 	pop	{fp, pc}

c2003618 <tryrtos_idle_entry_call_back>:
c2003618:	e92d4800 	push	{fp, lr}
c200361c:	e28db004 	add	fp, sp, #4
c2003620:	e24dd008 	sub	sp, sp, #8
c2003624:	e50b0008 	str	r0, [fp, #-8]
c2003628:	e3a00000 	mov	r0, #0
c200362c:	e3440804 	movt	r0, #18436	; 0x4804
c2003630:	ebffffbf 	bl	c2003534 <sdrv_timer_init>
c2003634:	e320f000 	nop	{0}
c2003638:	e24bd004 	sub	sp, fp, #4
c200363c:	e8bd8800 	pop	{fp, pc}

c2003640 <tryrtos_thread_0_entry>:
c2003640:	e92d4800 	push	{fp, lr}
c2003644:	e28db004 	add	fp, sp, #4
c2003648:	e24dd008 	sub	sp, sp, #8
c200364c:	e50b0008 	str	r0, [fp, #-8]
c2003650:	e30501a8 	movw	r0, #20904	; 0x51a8
c2003654:	e34c0200 	movt	r0, #49664	; 0xc200
c2003658:	ebfffe65 	bl	c2002ff4 <printf_>
c200365c:	eafffffb 	b	c2003650 <tryrtos_thread_0_entry+0x10>

c2003660 <tryrtos_thread_1_entry>:
c2003660:	e92d4800 	push	{fp, lr}
c2003664:	e28db004 	add	fp, sp, #4
c2003668:	e24dd008 	sub	sp, sp, #8
c200366c:	e50b0008 	str	r0, [fp, #-8]
c2003670:	e30501c0 	movw	r0, #20928	; 0x51c0
c2003674:	e34c0200 	movt	r0, #49664	; 0xc200
c2003678:	ebfffe5d 	bl	c2002ff4 <printf_>
c200367c:	eafffffb 	b	c2003670 <tryrtos_thread_1_entry+0x10>

c2003680 <tryrtos_thread_2_entry>:
c2003680:	e92d4800 	push	{fp, lr}
c2003684:	e28db004 	add	fp, sp, #4
c2003688:	e24dd008 	sub	sp, sp, #8
c200368c:	e50b0008 	str	r0, [fp, #-8]
c2003690:	e30501d8 	movw	r0, #20952	; 0x51d8
c2003694:	e34c0200 	movt	r0, #49664	; 0xc200
c2003698:	ebfffe55 	bl	c2002ff4 <printf_>
c200369c:	eafffffb 	b	c2003690 <tryrtos_thread_2_entry+0x10>

c20036a0 <tryrtos_thread_3_entry>:
c20036a0:	e92d4800 	push	{fp, lr}
c20036a4:	e28db004 	add	fp, sp, #4
c20036a8:	e24dd008 	sub	sp, sp, #8
c20036ac:	e50b0008 	str	r0, [fp, #-8]
c20036b0:	e30501f0 	movw	r0, #20976	; 0x51f0
c20036b4:	e34c0200 	movt	r0, #49664	; 0xc200
c20036b8:	ebfffe4d 	bl	c2002ff4 <printf_>
c20036bc:	eafffffb 	b	c20036b0 <tryrtos_thread_3_entry+0x10>

c20036c0 <tryrtos_thread_4_entry>:
c20036c0:	e92d4800 	push	{fp, lr}
c20036c4:	e28db004 	add	fp, sp, #4
c20036c8:	e24dd008 	sub	sp, sp, #8
c20036cc:	e50b0008 	str	r0, [fp, #-8]
c20036d0:	e3050208 	movw	r0, #21000	; 0x5208
c20036d4:	e34c0200 	movt	r0, #49664	; 0xc200
c20036d8:	ebfffe45 	bl	c2002ff4 <printf_>
c20036dc:	eafffffb 	b	c20036d0 <tryrtos_thread_4_entry+0x10>

c20036e0 <tryrtos_thread_5_entry>:
c20036e0:	e92d4800 	push	{fp, lr}
c20036e4:	e28db004 	add	fp, sp, #4
c20036e8:	e24dd008 	sub	sp, sp, #8
c20036ec:	e50b0008 	str	r0, [fp, #-8]
c20036f0:	e3050220 	movw	r0, #21024	; 0x5220
c20036f4:	e34c0200 	movt	r0, #49664	; 0xc200
c20036f8:	ebfffe3d 	bl	c2002ff4 <printf_>
c20036fc:	eafffffb 	b	c20036f0 <tryrtos_thread_5_entry+0x10>

c2003700 <main>:
c2003700:	e92d4800 	push	{fp, lr}
c2003704:	e28db004 	add	fp, sp, #4
c2003708:	e24dd010 	sub	sp, sp, #16
c200370c:	eb000545 	bl	c2004c28 <tryrtos_kernel_init>
c2003710:	e3a03901 	mov	r3, #16384	; 0x4000
c2003714:	e58d3008 	str	r3, [sp, #8]
c2003718:	e3053fb0 	movw	r3, #24496	; 0x5fb0
c200371c:	e34c3200 	movt	r3, #49664	; 0xc200
c2003720:	e58d3004 	str	r3, [sp, #4]
c2003724:	e3033640 	movw	r3, #13888	; 0x3640
c2003728:	e34c3200 	movt	r3, #49664	; 0xc200
c200372c:	e58d3000 	str	r3, [sp]
c2003730:	e3a03000 	mov	r3, #0
c2003734:	e3a02000 	mov	r2, #0
c2003738:	e3051238 	movw	r1, #21048	; 0x5238
c200373c:	e34c1200 	movt	r1, #49664	; 0xc200
c2003740:	e3050800 	movw	r0, #22528	; 0x5800
c2003744:	e34c0200 	movt	r0, #49664	; 0xc200
c2003748:	eb0003de 	bl	c20046c8 <tryrtos_thread_create>
c200374c:	e3a03901 	mov	r3, #16384	; 0x4000
c2003750:	e58d3008 	str	r3, [sp, #8]
c2003754:	e3093fb0 	movw	r3, #40880	; 0x9fb0
c2003758:	e34c3200 	movt	r3, #49664	; 0xc200
c200375c:	e58d3004 	str	r3, [sp, #4]
c2003760:	e3033660 	movw	r3, #13920	; 0x3660
c2003764:	e34c3200 	movt	r3, #49664	; 0xc200
c2003768:	e58d3000 	str	r3, [sp]
c200376c:	e3a03000 	mov	r3, #0
c2003770:	e3a02000 	mov	r2, #0
c2003774:	e305124c 	movw	r1, #21068	; 0x524c
c2003778:	e34c1200 	movt	r1, #49664	; 0xc200
c200377c:	e3050948 	movw	r0, #22856	; 0x5948
c2003780:	e34c0200 	movt	r0, #49664	; 0xc200
c2003784:	eb0003cf 	bl	c20046c8 <tryrtos_thread_create>
c2003788:	e3a03901 	mov	r3, #16384	; 0x4000
c200378c:	e58d3008 	str	r3, [sp, #8]
c2003790:	e30d3fb0 	movw	r3, #57264	; 0xdfb0
c2003794:	e34c3200 	movt	r3, #49664	; 0xc200
c2003798:	e58d3004 	str	r3, [sp, #4]
c200379c:	e3033680 	movw	r3, #13952	; 0x3680
c20037a0:	e34c3200 	movt	r3, #49664	; 0xc200
c20037a4:	e58d3000 	str	r3, [sp]
c20037a8:	e3a03000 	mov	r3, #0
c20037ac:	e3a02001 	mov	r2, #1
c20037b0:	e3051260 	movw	r1, #21088	; 0x5260
c20037b4:	e34c1200 	movt	r1, #49664	; 0xc200
c20037b8:	e3050a90 	movw	r0, #23184	; 0x5a90
c20037bc:	e34c0200 	movt	r0, #49664	; 0xc200
c20037c0:	eb0003c0 	bl	c20046c8 <tryrtos_thread_create>
c20037c4:	e3a03901 	mov	r3, #16384	; 0x4000
c20037c8:	e58d3008 	str	r3, [sp, #8]
c20037cc:	e3013fb0 	movw	r3, #8112	; 0x1fb0
c20037d0:	e34c3201 	movt	r3, #49665	; 0xc201
c20037d4:	e58d3004 	str	r3, [sp, #4]
c20037d8:	e30336a0 	movw	r3, #13984	; 0x36a0
c20037dc:	e34c3200 	movt	r3, #49664	; 0xc200
c20037e0:	e58d3000 	str	r3, [sp]
c20037e4:	e3a03000 	mov	r3, #0
c20037e8:	e3a02001 	mov	r2, #1
c20037ec:	e3051274 	movw	r1, #21108	; 0x5274
c20037f0:	e34c1200 	movt	r1, #49664	; 0xc200
c20037f4:	e3050bd8 	movw	r0, #23512	; 0x5bd8
c20037f8:	e34c0200 	movt	r0, #49664	; 0xc200
c20037fc:	eb0003b1 	bl	c20046c8 <tryrtos_thread_create>
c2003800:	e3a03901 	mov	r3, #16384	; 0x4000
c2003804:	e58d3008 	str	r3, [sp, #8]
c2003808:	e3053fb0 	movw	r3, #24496	; 0x5fb0
c200380c:	e34c3201 	movt	r3, #49665	; 0xc201
c2003810:	e58d3004 	str	r3, [sp, #4]
c2003814:	e30336c0 	movw	r3, #14016	; 0x36c0
c2003818:	e34c3200 	movt	r3, #49664	; 0xc200
c200381c:	e58d3000 	str	r3, [sp]
c2003820:	e3a03000 	mov	r3, #0
c2003824:	e3a02001 	mov	r2, #1
c2003828:	e3051288 	movw	r1, #21128	; 0x5288
c200382c:	e34c1200 	movt	r1, #49664	; 0xc200
c2003830:	e3050d20 	movw	r0, #23840	; 0x5d20
c2003834:	e34c0200 	movt	r0, #49664	; 0xc200
c2003838:	eb0003a2 	bl	c20046c8 <tryrtos_thread_create>
c200383c:	e3a03901 	mov	r3, #16384	; 0x4000
c2003840:	e58d3008 	str	r3, [sp, #8]
c2003844:	e3093fb0 	movw	r3, #40880	; 0x9fb0
c2003848:	e34c3201 	movt	r3, #49665	; 0xc201
c200384c:	e58d3004 	str	r3, [sp, #4]
c2003850:	e30336e0 	movw	r3, #14048	; 0x36e0
c2003854:	e34c3200 	movt	r3, #49664	; 0xc200
c2003858:	e58d3000 	str	r3, [sp]
c200385c:	e3a03000 	mov	r3, #0
c2003860:	e3a02001 	mov	r2, #1
c2003864:	e305129c 	movw	r1, #21148	; 0x529c
c2003868:	e34c1200 	movt	r1, #49664	; 0xc200
c200386c:	e3050e68 	movw	r0, #24168	; 0x5e68
c2003870:	e34c0200 	movt	r0, #49664	; 0xc200
c2003874:	eb000393 	bl	c20046c8 <tryrtos_thread_create>
c2003878:	eb0004ef 	bl	c2004c3c <tryrtos_kernel_start>
c200387c:	e3a03000 	mov	r3, #0
c2003880:	e1a00003 	mov	r0, r3
c2003884:	e24bd004 	sub	sp, fp, #4
c2003888:	e8bd8800 	pop	{fp, pc}

c200388c <sdrv_irq_init>:
c200388c:	e52db004 	push	{fp}		; (str fp, [sp, #-4]!)
c2003890:	e28db000 	add	fp, sp, #0
c2003894:	e24dd00c 	sub	sp, sp, #12
c2003898:	e3a03000 	mov	r3, #0
c200389c:	e50b300c 	str	r3, [fp, #-12]
c20038a0:	e3a03000 	mov	r3, #0
c20038a4:	e50b3008 	str	r3, [fp, #-8]
c20038a8:	e3a03010 	mov	r3, #16
c20038ac:	e3443820 	movt	r3, #18464	; 0x4820
c20038b0:	e5933000 	ldr	r3, [r3]
c20038b4:	e50b300c 	str	r3, [fp, #-12]
c20038b8:	e51b300c 	ldr	r3, [fp, #-12]
c20038bc:	e3833002 	orr	r3, r3, #2
c20038c0:	e50b300c 	str	r3, [fp, #-12]
c20038c4:	e3a03010 	mov	r3, #16
c20038c8:	e3443820 	movt	r3, #18464	; 0x4820
c20038cc:	e51b200c 	ldr	r2, [fp, #-12]
c20038d0:	e5832000 	str	r2, [r3]
c20038d4:	ea000004 	b	c20038ec <sdrv_irq_init+0x60>
c20038d8:	e3a03014 	mov	r3, #20
c20038dc:	e3443820 	movt	r3, #18464	; 0x4820
c20038e0:	e5933000 	ldr	r3, [r3]
c20038e4:	e2033001 	and	r3, r3, #1
c20038e8:	e50b3008 	str	r3, [fp, #-8]
c20038ec:	e51b3008 	ldr	r3, [fp, #-8]
c20038f0:	e3530000 	cmp	r3, #0
c20038f4:	0afffff7 	beq	c20038d8 <sdrv_irq_init+0x4c>
c20038f8:	e320f000 	nop	{0}
c20038fc:	e320f000 	nop	{0}
c2003900:	e28bd000 	add	sp, fp, #0
c2003904:	e49db004 	pop	{fp}		; (ldr fp, [sp], #4)
c2003908:	e12fff1e 	bx	lr

c200390c <sdrv_irq_set_priority>:
c200390c:	e52db004 	push	{fp}		; (str fp, [sp, #-4]!)
c2003910:	e28db000 	add	fp, sp, #0
c2003914:	e24dd00c 	sub	sp, sp, #12
c2003918:	e50b0008 	str	r0, [fp, #-8]
c200391c:	e50b100c 	str	r1, [fp, #-12]
c2003920:	e51b3008 	ldr	r3, [fp, #-8]
c2003924:	e353007f 	cmp	r3, #127	; 0x7f
c2003928:	8a00000a 	bhi	c2003958 <sdrv_irq_set_priority+0x4c>
c200392c:	e51b300c 	ldr	r3, [fp, #-12]
c2003930:	e1a01103 	lsl	r1, r3, #2
c2003934:	e51b2008 	ldr	r2, [fp, #-8]
c2003938:	e3a03040 	mov	r3, #64	; 0x40
c200393c:	e3413208 	movt	r3, #4616	; 0x1208
c2003940:	e0823003 	add	r3, r2, r3
c2003944:	e1a03103 	lsl	r3, r3, #2
c2003948:	e1a02003 	mov	r2, r3
c200394c:	e6ef3071 	uxtb	r3, r1
c2003950:	e5823000 	str	r3, [r2]
c2003954:	ea000000 	b	c200395c <sdrv_irq_set_priority+0x50>
c2003958:	e320f000 	nop	{0}
c200395c:	e28bd000 	add	sp, fp, #0
c2003960:	e49db004 	pop	{fp}		; (ldr fp, [sp], #4)
c2003964:	e12fff1e 	bx	lr

c2003968 <sdrv_irq_enable>:
c2003968:	e52db004 	push	{fp}		; (str fp, [sp, #-4]!)
c200396c:	e28db000 	add	fp, sp, #0
c2003970:	e24dd014 	sub	sp, sp, #20
c2003974:	e50b0010 	str	r0, [fp, #-16]
c2003978:	e3a03000 	mov	r3, #0
c200397c:	e50b3008 	str	r3, [fp, #-8]
c2003980:	e3a03000 	mov	r3, #0
c2003984:	e50b300c 	str	r3, [fp, #-12]
c2003988:	e51b3010 	ldr	r3, [fp, #-16]
c200398c:	e353007f 	cmp	r3, #127	; 0x7f
c2003990:	8a000010 	bhi	c20039d8 <sdrv_irq_enable+0x70>
c2003994:	e51b3010 	ldr	r3, [fp, #-16]
c2003998:	e1a032a3 	lsr	r3, r3, #5
c200399c:	e50b3008 	str	r3, [fp, #-8]
c20039a0:	e51b3010 	ldr	r3, [fp, #-16]
c20039a4:	e203301f 	and	r3, r3, #31
c20039a8:	e50b300c 	str	r3, [fp, #-12]
c20039ac:	e3a02001 	mov	r2, #1
c20039b0:	e51b300c 	ldr	r3, [fp, #-12]
c20039b4:	e1a01312 	lsl	r1, r2, r3
c20039b8:	e51b3008 	ldr	r3, [fp, #-8]
c20039bc:	e1a02283 	lsl	r2, r3, #5
c20039c0:	e3a03088 	mov	r3, #136	; 0x88
c20039c4:	e3443820 	movt	r3, #18464	; 0x4820
c20039c8:	e0823003 	add	r3, r2, r3
c20039cc:	e1a02001 	mov	r2, r1
c20039d0:	e5832000 	str	r2, [r3]
c20039d4:	ea000000 	b	c20039dc <sdrv_irq_enable+0x74>
c20039d8:	e320f000 	nop	{0}
c20039dc:	e28bd000 	add	sp, fp, #0
c20039e0:	e49db004 	pop	{fp}		; (ldr fp, [sp], #4)
c20039e4:	e12fff1e 	bx	lr

c20039e8 <sdrv_irq_clear_status>:
c20039e8:	e52db004 	push	{fp}		; (str fp, [sp, #-4]!)
c20039ec:	e28db000 	add	fp, sp, #0
c20039f0:	e24dd014 	sub	sp, sp, #20
c20039f4:	e50b0010 	str	r0, [fp, #-16]
c20039f8:	e3a03000 	mov	r3, #0
c20039fc:	e50b3008 	str	r3, [fp, #-8]
c2003a00:	e3a03000 	mov	r3, #0
c2003a04:	e50b300c 	str	r3, [fp, #-12]
c2003a08:	e51b3010 	ldr	r3, [fp, #-16]
c2003a0c:	e353007f 	cmp	r3, #127	; 0x7f
c2003a10:	8a000010 	bhi	c2003a58 <sdrv_irq_clear_status+0x70>
c2003a14:	e51b3010 	ldr	r3, [fp, #-16]
c2003a18:	e1a032a3 	lsr	r3, r3, #5
c2003a1c:	e50b3008 	str	r3, [fp, #-8]
c2003a20:	e51b3010 	ldr	r3, [fp, #-16]
c2003a24:	e203301f 	and	r3, r3, #31
c2003a28:	e50b300c 	str	r3, [fp, #-12]
c2003a2c:	e3a02001 	mov	r2, #1
c2003a30:	e51b300c 	ldr	r3, [fp, #-12]
c2003a34:	e1a01312 	lsl	r1, r2, r3
c2003a38:	e51b3008 	ldr	r3, [fp, #-8]
c2003a3c:	e1a02283 	lsl	r2, r3, #5
c2003a40:	e3a03094 	mov	r3, #148	; 0x94
c2003a44:	e3443820 	movt	r3, #18464	; 0x4820
c2003a48:	e0823003 	add	r3, r2, r3
c2003a4c:	e1a02001 	mov	r2, r1
c2003a50:	e5832000 	str	r2, [r3]
c2003a54:	ea000000 	b	c2003a5c <sdrv_irq_clear_status+0x74>
c2003a58:	e320f000 	nop	{0}
c2003a5c:	e28bd000 	add	sp, fp, #0
c2003a60:	e49db004 	pop	{fp}		; (ldr fp, [sp], #4)
c2003a64:	e12fff1e 	bx	lr

c2003a68 <sdrv_irq_handler>:
c2003a68:	e14fb000 	mrs	fp, SPSR
c2003a6c:	e59f0054 	ldr	r0, [pc, #84]	; c2003ac8 <sdrv_irq_handler+0x60>
c2003a70:	e590c000 	ldr	ip, [r0]
c2003a74:	e59f1050 	ldr	r1, [pc, #80]	; c2003acc <sdrv_irq_handler+0x64>
c2003a78:	e5912000 	ldr	r2, [r1]
c2003a7c:	e202203f 	and	r2, r2, #63	; 0x3f
c2003a80:	e5802000 	str	r2, [r0]
c2003a84:	e59f1044 	ldr	r1, [pc, #68]	; c2003ad0 <sdrv_irq_handler+0x68>
c2003a88:	e5910000 	ldr	r0, [r1]
c2003a8c:	e200007f 	and	r0, r0, #127	; 0x7f
c2003a90:	e59f103c 	ldr	r1, [pc, #60]	; c2003ad4 <sdrv_irq_handler+0x6c>
c2003a94:	e5912000 	ldr	r2, [r1]
c2003a98:	e3822001 	orr	r2, r2, #1
c2003a9c:	e5812000 	str	r2, [r1]
c2003aa0:	e92d5800 	push	{fp, ip, lr}
c2003aa4:	f57ff04f 	dsb	sy
c2003aa8:	f1080080 	cpsie	i
c2003aac:	ebfffd96 	bl	c200310c <arch_irq_handler>
c2003ab0:	f10c0080 	cpsid	i
c2003ab4:	e8bd5800 	pop	{fp, ip, lr}
c2003ab8:	e59f0008 	ldr	r0, [pc, #8]	; c2003ac8 <sdrv_irq_handler+0x60>
c2003abc:	e580c000 	str	ip, [r0]
c2003ac0:	e16ff00b 	msr	SPSR_fsxc, fp
c2003ac4:	e12fff1e 	bx	lr
c2003ac8:	48200068 	stmdami	r0!, {r3, r5, r6}
c2003acc:	48200060 	stmdami	r0!, {r5, r6}
c2003ad0:	48200040 	stmdami	r0!, {r6}
c2003ad4:	48200048 	stmdami	r0!, {r3, r6}

c2003ad8 <sdrv_uart_find_rate>:
c2003ad8:	e52db004 	push	{fp}		; (str fp, [sp, #-4]!)
c2003adc:	e28db000 	add	fp, sp, #0
c2003ae0:	e24dd01c 	sub	sp, sp, #28
c2003ae4:	e50b0010 	str	r0, [fp, #-16]
c2003ae8:	e50b1014 	str	r1, [fp, #-20]	; 0xffffffec
c2003aec:	e50b2018 	str	r2, [fp, #-24]	; 0xffffffe8
c2003af0:	e51b3014 	ldr	r3, [fp, #-20]	; 0xffffffec
c2003af4:	e3530000 	cmp	r3, #0
c2003af8:	0a000002 	beq	c2003b08 <sdrv_uart_find_rate+0x30>
c2003afc:	e51b3018 	ldr	r3, [fp, #-24]	; 0xffffffe8
c2003b00:	e3530000 	cmp	r3, #0
c2003b04:	1a000001 	bne	c2003b10 <sdrv_uart_find_rate+0x38>
c2003b08:	e3a03000 	mov	r3, #0
c2003b0c:	ea00002c 	b	c2003bc4 <sdrv_uart_find_rate+0xec>
c2003b10:	e3a0300c 	mov	r3, #12
c2003b14:	e50b300c 	str	r3, [fp, #-12]
c2003b18:	e3a03000 	mov	r3, #0
c2003b1c:	e50b3008 	str	r3, [fp, #-8]
c2003b20:	ea000022 	b	c2003bb0 <sdrv_uart_find_rate+0xd8>
c2003b24:	e30532b0 	movw	r3, #21168	; 0x52b0
c2003b28:	e34c3200 	movt	r3, #49664	; 0xc200
c2003b2c:	e51b2008 	ldr	r2, [fp, #-8]
c2003b30:	e3a0100c 	mov	r1, #12
c2003b34:	e0020291 	mul	r2, r1, r2
c2003b38:	e0833002 	add	r3, r3, r2
c2003b3c:	e5933000 	ldr	r3, [r3]
c2003b40:	e51b2010 	ldr	r2, [fp, #-16]
c2003b44:	e1520003 	cmp	r2, r3
c2003b48:	1a000015 	bne	c2003ba4 <sdrv_uart_find_rate+0xcc>
c2003b4c:	e30532b0 	movw	r3, #21168	; 0x52b0
c2003b50:	e34c3200 	movt	r3, #49664	; 0xc200
c2003b54:	e51b2008 	ldr	r2, [fp, #-8]
c2003b58:	e3a0100c 	mov	r1, #12
c2003b5c:	e0020291 	mul	r2, r1, r2
c2003b60:	e0833002 	add	r3, r3, r2
c2003b64:	e2833004 	add	r3, r3, #4
c2003b68:	e5932000 	ldr	r2, [r3]
c2003b6c:	e51b3014 	ldr	r3, [fp, #-20]	; 0xffffffec
c2003b70:	e5832000 	str	r2, [r3]
c2003b74:	e30532b0 	movw	r3, #21168	; 0x52b0
c2003b78:	e34c3200 	movt	r3, #49664	; 0xc200
c2003b7c:	e51b2008 	ldr	r2, [fp, #-8]
c2003b80:	e3a0100c 	mov	r1, #12
c2003b84:	e0020291 	mul	r2, r1, r2
c2003b88:	e0833002 	add	r3, r3, r2
c2003b8c:	e2833008 	add	r3, r3, #8
c2003b90:	e5932000 	ldr	r2, [r3]
c2003b94:	e51b3018 	ldr	r3, [fp, #-24]	; 0xffffffe8
c2003b98:	e5832000 	str	r2, [r3]
c2003b9c:	e3a03001 	mov	r3, #1
c2003ba0:	ea000007 	b	c2003bc4 <sdrv_uart_find_rate+0xec>
c2003ba4:	e51b3008 	ldr	r3, [fp, #-8]
c2003ba8:	e2833001 	add	r3, r3, #1
c2003bac:	e50b3008 	str	r3, [fp, #-8]
c2003bb0:	e51b2008 	ldr	r2, [fp, #-8]
c2003bb4:	e51b300c 	ldr	r3, [fp, #-12]
c2003bb8:	e1520003 	cmp	r2, r3
c2003bbc:	3affffd8 	bcc	c2003b24 <sdrv_uart_find_rate+0x4c>
c2003bc0:	e3a03000 	mov	r3, #0
c2003bc4:	e1a00003 	mov	r0, r3
c2003bc8:	e28bd000 	add	sp, fp, #0
c2003bcc:	e49db004 	pop	{fp}		; (ldr fp, [sp], #4)
c2003bd0:	e12fff1e 	bx	lr

c2003bd4 <sdrv_uart_reset>:
c2003bd4:	e52db004 	push	{fp}		; (str fp, [sp, #-4]!)
c2003bd8:	e28db000 	add	fp, sp, #0
c2003bdc:	e24dd014 	sub	sp, sp, #20
c2003be0:	e50b0010 	str	r0, [fp, #-16]
c2003be4:	e3a03000 	mov	r3, #0
c2003be8:	e50b300c 	str	r3, [fp, #-12]
c2003bec:	e3a03000 	mov	r3, #0
c2003bf0:	e50b3008 	str	r3, [fp, #-8]
c2003bf4:	e51b3010 	ldr	r3, [fp, #-16]
c2003bf8:	e2833054 	add	r3, r3, #84	; 0x54
c2003bfc:	e5933000 	ldr	r3, [r3]
c2003c00:	e50b300c 	str	r3, [fp, #-12]
c2003c04:	e51b300c 	ldr	r3, [fp, #-12]
c2003c08:	e3c33002 	bic	r3, r3, #2
c2003c0c:	e50b300c 	str	r3, [fp, #-12]
c2003c10:	e51b3010 	ldr	r3, [fp, #-16]
c2003c14:	e2833054 	add	r3, r3, #84	; 0x54
c2003c18:	e1a02003 	mov	r2, r3
c2003c1c:	e51b300c 	ldr	r3, [fp, #-12]
c2003c20:	e5823000 	str	r3, [r2]
c2003c24:	ea000003 	b	c2003c38 <sdrv_uart_reset+0x64>
c2003c28:	e51b3010 	ldr	r3, [fp, #-16]
c2003c2c:	e2833058 	add	r3, r3, #88	; 0x58
c2003c30:	e5933000 	ldr	r3, [r3]
c2003c34:	e50b3008 	str	r3, [fp, #-8]
c2003c38:	e51b3008 	ldr	r3, [fp, #-8]
c2003c3c:	e2033001 	and	r3, r3, #1
c2003c40:	e3530000 	cmp	r3, #0
c2003c44:	0afffff7 	beq	c2003c28 <sdrv_uart_reset+0x54>
c2003c48:	e320f000 	nop	{0}
c2003c4c:	e320f000 	nop	{0}
c2003c50:	e28bd000 	add	sp, fp, #0
c2003c54:	e49db004 	pop	{fp}		; (ldr fp, [sp], #4)
c2003c58:	e12fff1e 	bx	lr

c2003c5c <sdrv_uart_configure_fifo_and_dma>:
c2003c5c:	e52db004 	push	{fp}		; (str fp, [sp, #-4]!)
c2003c60:	e28db000 	add	fp, sp, #0
c2003c64:	e24dd01c 	sub	sp, sp, #28
c2003c68:	e50b0018 	str	r0, [fp, #-24]	; 0xffffffe8
c2003c6c:	e50b101c 	str	r1, [fp, #-28]	; 0xffffffe4
c2003c70:	e3a03000 	mov	r3, #0
c2003c74:	e50b3008 	str	r3, [fp, #-8]
c2003c78:	e3a03000 	mov	r3, #0
c2003c7c:	e50b300c 	str	r3, [fp, #-12]
c2003c80:	e3a03000 	mov	r3, #0
c2003c84:	e50b3010 	str	r3, [fp, #-16]
c2003c88:	e3a03000 	mov	r3, #0
c2003c8c:	e50b3014 	str	r3, [fp, #-20]	; 0xffffffec
c2003c90:	e51b3018 	ldr	r3, [fp, #-24]	; 0xffffffe8
c2003c94:	e283300c 	add	r3, r3, #12
c2003c98:	e5933000 	ldr	r3, [r3]
c2003c9c:	e50b300c 	str	r3, [fp, #-12]
c2003ca0:	e51b3018 	ldr	r3, [fp, #-24]	; 0xffffffe8
c2003ca4:	e283300c 	add	r3, r3, #12
c2003ca8:	e1a02003 	mov	r2, r3
c2003cac:	e3a030bf 	mov	r3, #191	; 0xbf
c2003cb0:	e5823000 	str	r3, [r2]
c2003cb4:	e51b3018 	ldr	r3, [fp, #-24]	; 0xffffffe8
c2003cb8:	e2833008 	add	r3, r3, #8
c2003cbc:	e5933000 	ldr	r3, [r3]
c2003cc0:	e50b3008 	str	r3, [fp, #-8]
c2003cc4:	e51b3008 	ldr	r3, [fp, #-8]
c2003cc8:	e1a03223 	lsr	r3, r3, #4
c2003ccc:	e2033001 	and	r3, r3, #1
c2003cd0:	e50b3010 	str	r3, [fp, #-16]
c2003cd4:	e51b3008 	ldr	r3, [fp, #-8]
c2003cd8:	e3833010 	orr	r3, r3, #16
c2003cdc:	e50b3008 	str	r3, [fp, #-8]
c2003ce0:	e51b3018 	ldr	r3, [fp, #-24]	; 0xffffffe8
c2003ce4:	e2833008 	add	r3, r3, #8
c2003ce8:	e1a02003 	mov	r2, r3
c2003cec:	e51b3008 	ldr	r3, [fp, #-8]
c2003cf0:	e5823000 	str	r3, [r2]
c2003cf4:	e51b3018 	ldr	r3, [fp, #-24]	; 0xffffffe8
c2003cf8:	e283300c 	add	r3, r3, #12
c2003cfc:	e1a02003 	mov	r2, r3
c2003d00:	e3a03080 	mov	r3, #128	; 0x80
c2003d04:	e5823000 	str	r3, [r2]
c2003d08:	e51b3018 	ldr	r3, [fp, #-24]	; 0xffffffe8
c2003d0c:	e2833010 	add	r3, r3, #16
c2003d10:	e5933000 	ldr	r3, [r3]
c2003d14:	e50b3008 	str	r3, [fp, #-8]
c2003d18:	e51b3008 	ldr	r3, [fp, #-8]
c2003d1c:	e1a03323 	lsr	r3, r3, #6
c2003d20:	e2033001 	and	r3, r3, #1
c2003d24:	e50b3014 	str	r3, [fp, #-20]	; 0xffffffec
c2003d28:	e51b3008 	ldr	r3, [fp, #-8]
c2003d2c:	e3833040 	orr	r3, r3, #64	; 0x40
c2003d30:	e50b3008 	str	r3, [fp, #-8]
c2003d34:	e51b3018 	ldr	r3, [fp, #-24]	; 0xffffffe8
c2003d38:	e2833010 	add	r3, r3, #16
c2003d3c:	e1a02003 	mov	r2, r3
c2003d40:	e51b3008 	ldr	r3, [fp, #-8]
c2003d44:	e5823000 	str	r3, [r2]
c2003d48:	e3a03006 	mov	r3, #6
c2003d4c:	e50b3008 	str	r3, [fp, #-8]
c2003d50:	e51b301c 	ldr	r3, [fp, #-28]	; 0xffffffe4
c2003d54:	e5d33001 	ldrb	r3, [r3, #1]
c2003d58:	e3530000 	cmp	r3, #0
c2003d5c:	0a000002 	beq	c2003d6c <sdrv_uart_configure_fifo_and_dma+0x110>
c2003d60:	e51b3008 	ldr	r3, [fp, #-8]
c2003d64:	e3833001 	orr	r3, r3, #1
c2003d68:	e50b3008 	str	r3, [fp, #-8]
c2003d6c:	e51b301c 	ldr	r3, [fp, #-28]	; 0xffffffe4
c2003d70:	e5d33000 	ldrb	r3, [r3]
c2003d74:	e3530000 	cmp	r3, #0
c2003d78:	0a000002 	beq	c2003d88 <sdrv_uart_configure_fifo_and_dma+0x12c>
c2003d7c:	e51b3008 	ldr	r3, [fp, #-8]
c2003d80:	e3833008 	orr	r3, r3, #8
c2003d84:	e50b3008 	str	r3, [fp, #-8]
c2003d88:	e51b301c 	ldr	r3, [fp, #-28]	; 0xffffffe4
c2003d8c:	e5d33008 	ldrb	r3, [r3, #8]
c2003d90:	e1a03303 	lsl	r3, r3, #6
c2003d94:	e6ef3073 	uxtb	r3, r3
c2003d98:	e51b2008 	ldr	r2, [fp, #-8]
c2003d9c:	e1823003 	orr	r3, r2, r3
c2003da0:	e50b3008 	str	r3, [fp, #-8]
c2003da4:	e51b301c 	ldr	r3, [fp, #-28]	; 0xffffffe4
c2003da8:	e5d33009 	ldrb	r3, [r3, #9]
c2003dac:	e1a03203 	lsl	r3, r3, #4
c2003db0:	e2033030 	and	r3, r3, #48	; 0x30
c2003db4:	e51b2008 	ldr	r2, [fp, #-8]
c2003db8:	e1823003 	orr	r3, r2, r3
c2003dbc:	e50b3008 	str	r3, [fp, #-8]
c2003dc0:	e51b3018 	ldr	r3, [fp, #-24]	; 0xffffffe8
c2003dc4:	e2833008 	add	r3, r3, #8
c2003dc8:	e1a02003 	mov	r2, r3
c2003dcc:	e51b3008 	ldr	r3, [fp, #-8]
c2003dd0:	e5823000 	str	r3, [r2]
c2003dd4:	e51b3018 	ldr	r3, [fp, #-24]	; 0xffffffe8
c2003dd8:	e283300c 	add	r3, r3, #12
c2003ddc:	e1a02003 	mov	r2, r3
c2003de0:	e3a030bf 	mov	r3, #191	; 0xbf
c2003de4:	e5823000 	str	r3, [r2]
c2003de8:	e51b3018 	ldr	r3, [fp, #-24]	; 0xffffffe8
c2003dec:	e283301c 	add	r3, r3, #28
c2003df0:	e1a02003 	mov	r2, r3
c2003df4:	e3a03000 	mov	r3, #0
c2003df8:	e5823000 	str	r3, [r2]
c2003dfc:	e51b3018 	ldr	r3, [fp, #-24]	; 0xffffffe8
c2003e00:	e2833040 	add	r3, r3, #64	; 0x40
c2003e04:	e1a02003 	mov	r2, r3
c2003e08:	e3a03000 	mov	r3, #0
c2003e0c:	e5823000 	str	r3, [r2]
c2003e10:	e51b3018 	ldr	r3, [fp, #-24]	; 0xffffffe8
c2003e14:	e2833008 	add	r3, r3, #8
c2003e18:	e5933000 	ldr	r3, [r3]
c2003e1c:	e50b3008 	str	r3, [fp, #-8]
c2003e20:	e51b3010 	ldr	r3, [fp, #-16]
c2003e24:	e3530000 	cmp	r3, #0
c2003e28:	0a000003 	beq	c2003e3c <sdrv_uart_configure_fifo_and_dma+0x1e0>
c2003e2c:	e51b3008 	ldr	r3, [fp, #-8]
c2003e30:	e3833010 	orr	r3, r3, #16
c2003e34:	e50b3008 	str	r3, [fp, #-8]
c2003e38:	ea000002 	b	c2003e48 <sdrv_uart_configure_fifo_and_dma+0x1ec>
c2003e3c:	e51b3008 	ldr	r3, [fp, #-8]
c2003e40:	e3c33010 	bic	r3, r3, #16
c2003e44:	e50b3008 	str	r3, [fp, #-8]
c2003e48:	e51b3018 	ldr	r3, [fp, #-24]	; 0xffffffe8
c2003e4c:	e2833008 	add	r3, r3, #8
c2003e50:	e1a02003 	mov	r2, r3
c2003e54:	e51b3008 	ldr	r3, [fp, #-8]
c2003e58:	e5823000 	str	r3, [r2]
c2003e5c:	e51b3018 	ldr	r3, [fp, #-24]	; 0xffffffe8
c2003e60:	e283300c 	add	r3, r3, #12
c2003e64:	e1a02003 	mov	r2, r3
c2003e68:	e3a03080 	mov	r3, #128	; 0x80
c2003e6c:	e5823000 	str	r3, [r2]
c2003e70:	e51b3018 	ldr	r3, [fp, #-24]	; 0xffffffe8
c2003e74:	e2833010 	add	r3, r3, #16
c2003e78:	e5933000 	ldr	r3, [r3]
c2003e7c:	e50b3008 	str	r3, [fp, #-8]
c2003e80:	e51b3014 	ldr	r3, [fp, #-20]	; 0xffffffec
c2003e84:	e3530000 	cmp	r3, #0
c2003e88:	0a000003 	beq	c2003e9c <sdrv_uart_configure_fifo_and_dma+0x240>
c2003e8c:	e51b3008 	ldr	r3, [fp, #-8]
c2003e90:	e3833040 	orr	r3, r3, #64	; 0x40
c2003e94:	e50b3008 	str	r3, [fp, #-8]
c2003e98:	ea000002 	b	c2003ea8 <sdrv_uart_configure_fifo_and_dma+0x24c>
c2003e9c:	e51b3008 	ldr	r3, [fp, #-8]
c2003ea0:	e3c33040 	bic	r3, r3, #64	; 0x40
c2003ea4:	e50b3008 	str	r3, [fp, #-8]
c2003ea8:	e51b3018 	ldr	r3, [fp, #-24]	; 0xffffffe8
c2003eac:	e2833010 	add	r3, r3, #16
c2003eb0:	e1a02003 	mov	r2, r3
c2003eb4:	e51b3008 	ldr	r3, [fp, #-8]
c2003eb8:	e5823000 	str	r3, [r2]
c2003ebc:	e51b3018 	ldr	r3, [fp, #-24]	; 0xffffffe8
c2003ec0:	e283300c 	add	r3, r3, #12
c2003ec4:	e1a02003 	mov	r2, r3
c2003ec8:	e51b300c 	ldr	r3, [fp, #-12]
c2003ecc:	e5823000 	str	r3, [r2]
c2003ed0:	e320f000 	nop	{0}
c2003ed4:	e28bd000 	add	sp, fp, #0
c2003ed8:	e49db004 	pop	{fp}		; (ldr fp, [sp], #4)
c2003edc:	e12fff1e 	bx	lr

c2003ee0 <sdrv_uart_configure_protocol>:
c2003ee0:	e92d4800 	push	{fp, lr}
c2003ee4:	e28db004 	add	fp, sp, #4
c2003ee8:	e24dd018 	sub	sp, sp, #24
c2003eec:	e50b0018 	str	r0, [fp, #-24]	; 0xffffffe8
c2003ef0:	e50b101c 	str	r1, [fp, #-28]	; 0xffffffe4
c2003ef4:	e3a03000 	mov	r3, #0
c2003ef8:	e50b3008 	str	r3, [fp, #-8]
c2003efc:	e3a03000 	mov	r3, #0
c2003f00:	e50b300c 	str	r3, [fp, #-12]
c2003f04:	e3a03000 	mov	r3, #0
c2003f08:	e50b3010 	str	r3, [fp, #-16]
c2003f0c:	e3a03000 	mov	r3, #0
c2003f10:	e50b3014 	str	r3, [fp, #-20]	; 0xffffffec
c2003f14:	e51b301c 	ldr	r3, [fp, #-28]	; 0xffffffe4
c2003f18:	e5933004 	ldr	r3, [r3, #4]
c2003f1c:	e24b2014 	sub	r2, fp, #20
c2003f20:	e24b1010 	sub	r1, fp, #16
c2003f24:	e1a00003 	mov	r0, r3
c2003f28:	ebfffeea 	bl	c2003ad8 <sdrv_uart_find_rate>
c2003f2c:	e1a03000 	mov	r3, r0
c2003f30:	e2233001 	eor	r3, r3, #1
c2003f34:	e6ef3073 	uxtb	r3, r3
c2003f38:	e3530000 	cmp	r3, #0
c2003f3c:	1a0000a1 	bne	c20041c8 <sdrv_uart_configure_protocol+0x2e8>
c2003f40:	e51b3018 	ldr	r3, [fp, #-24]	; 0xffffffe8
c2003f44:	e2833020 	add	r3, r3, #32
c2003f48:	e1a02003 	mov	r2, r3
c2003f4c:	e3a03007 	mov	r3, #7
c2003f50:	e5823000 	str	r3, [r2]
c2003f54:	e51b3018 	ldr	r3, [fp, #-24]	; 0xffffffe8
c2003f58:	e283300c 	add	r3, r3, #12
c2003f5c:	e1a02003 	mov	r2, r3
c2003f60:	e3a030bf 	mov	r3, #191	; 0xbf
c2003f64:	e5823000 	str	r3, [r2]
c2003f68:	e51b3018 	ldr	r3, [fp, #-24]	; 0xffffffe8
c2003f6c:	e2833008 	add	r3, r3, #8
c2003f70:	e5933000 	ldr	r3, [r3]
c2003f74:	e50b3008 	str	r3, [fp, #-8]
c2003f78:	e51b3008 	ldr	r3, [fp, #-8]
c2003f7c:	e1a03223 	lsr	r3, r3, #4
c2003f80:	e2033001 	and	r3, r3, #1
c2003f84:	e50b300c 	str	r3, [fp, #-12]
c2003f88:	e51b3008 	ldr	r3, [fp, #-8]
c2003f8c:	e3833010 	orr	r3, r3, #16
c2003f90:	e50b3008 	str	r3, [fp, #-8]
c2003f94:	e51b3018 	ldr	r3, [fp, #-24]	; 0xffffffe8
c2003f98:	e2833008 	add	r3, r3, #8
c2003f9c:	e1a02003 	mov	r2, r3
c2003fa0:	e51b3008 	ldr	r3, [fp, #-8]
c2003fa4:	e5823000 	str	r3, [r2]
c2003fa8:	e51b3018 	ldr	r3, [fp, #-24]	; 0xffffffe8
c2003fac:	e283300c 	add	r3, r3, #12
c2003fb0:	e1a02003 	mov	r2, r3
c2003fb4:	e3a03000 	mov	r3, #0
c2003fb8:	e5823000 	str	r3, [r2]
c2003fbc:	e51b3018 	ldr	r3, [fp, #-24]	; 0xffffffe8
c2003fc0:	e2833004 	add	r3, r3, #4
c2003fc4:	e1a02003 	mov	r2, r3
c2003fc8:	e3a03000 	mov	r3, #0
c2003fcc:	e5823000 	str	r3, [r2]
c2003fd0:	e51b3018 	ldr	r3, [fp, #-24]	; 0xffffffe8
c2003fd4:	e283300c 	add	r3, r3, #12
c2003fd8:	e1a02003 	mov	r2, r3
c2003fdc:	e3a030bf 	mov	r3, #191	; 0xbf
c2003fe0:	e5823000 	str	r3, [r2]
c2003fe4:	e51b3018 	ldr	r3, [fp, #-24]	; 0xffffffe8
c2003fe8:	e2833004 	add	r3, r3, #4
c2003fec:	e1a02003 	mov	r2, r3
c2003ff0:	e51b3010 	ldr	r3, [fp, #-16]
c2003ff4:	e5823000 	str	r3, [r2]
c2003ff8:	e51b3018 	ldr	r3, [fp, #-24]	; 0xffffffe8
c2003ffc:	e51b2014 	ldr	r2, [fp, #-20]	; 0xffffffec
c2004000:	e5832000 	str	r2, [r3]
c2004004:	e51b3018 	ldr	r3, [fp, #-24]	; 0xffffffe8
c2004008:	e283300c 	add	r3, r3, #12
c200400c:	e1a02003 	mov	r2, r3
c2004010:	e3a03000 	mov	r3, #0
c2004014:	e5823000 	str	r3, [r2]
c2004018:	e51b3018 	ldr	r3, [fp, #-24]	; 0xffffffe8
c200401c:	e2833004 	add	r3, r3, #4
c2004020:	e1a02003 	mov	r2, r3
c2004024:	e3a03000 	mov	r3, #0
c2004028:	e5823000 	str	r3, [r2]
c200402c:	e51b3018 	ldr	r3, [fp, #-24]	; 0xffffffe8
c2004030:	e283300c 	add	r3, r3, #12
c2004034:	e1a02003 	mov	r2, r3
c2004038:	e3a030bf 	mov	r3, #191	; 0xbf
c200403c:	e5823000 	str	r3, [r2]
c2004040:	e51b3018 	ldr	r3, [fp, #-24]	; 0xffffffe8
c2004044:	e2833008 	add	r3, r3, #8
c2004048:	e5933000 	ldr	r3, [r3]
c200404c:	e50b3008 	str	r3, [fp, #-8]
c2004050:	e51b300c 	ldr	r3, [fp, #-12]
c2004054:	e3530000 	cmp	r3, #0
c2004058:	0a000003 	beq	c200406c <sdrv_uart_configure_protocol+0x18c>
c200405c:	e51b3008 	ldr	r3, [fp, #-8]
c2004060:	e3833010 	orr	r3, r3, #16
c2004064:	e50b3008 	str	r3, [fp, #-8]
c2004068:	ea000002 	b	c2004078 <sdrv_uart_configure_protocol+0x198>
c200406c:	e51b3008 	ldr	r3, [fp, #-8]
c2004070:	e3c33010 	bic	r3, r3, #16
c2004074:	e50b3008 	str	r3, [fp, #-8]
c2004078:	e51b3018 	ldr	r3, [fp, #-24]	; 0xffffffe8
c200407c:	e2833008 	add	r3, r3, #8
c2004080:	e1a02003 	mov	r2, r3
c2004084:	e51b3008 	ldr	r3, [fp, #-8]
c2004088:	e5823000 	str	r3, [r2]
c200408c:	e51b301c 	ldr	r3, [fp, #-28]	; 0xffffffe4
c2004090:	e5d3300c 	ldrb	r3, [r3, #12]
c2004094:	e2033003 	and	r3, r3, #3
c2004098:	e50b3008 	str	r3, [fp, #-8]
c200409c:	e51b301c 	ldr	r3, [fp, #-28]	; 0xffffffe4
c20040a0:	e5d3300b 	ldrb	r3, [r3, #11]
c20040a4:	e3530001 	cmp	r3, #1
c20040a8:	1a000007 	bne	c20040cc <sdrv_uart_configure_protocol+0x1ec>
c20040ac:	e51b301c 	ldr	r3, [fp, #-28]	; 0xffffffe4
c20040b0:	e5d3300c 	ldrb	r3, [r3, #12]
c20040b4:	e3530000 	cmp	r3, #0
c20040b8:	1a000003 	bne	c20040cc <sdrv_uart_configure_protocol+0x1ec>
c20040bc:	e51b3008 	ldr	r3, [fp, #-8]
c20040c0:	e3833004 	orr	r3, r3, #4
c20040c4:	e50b3008 	str	r3, [fp, #-8]
c20040c8:	ea00000e 	b	c2004108 <sdrv_uart_configure_protocol+0x228>
c20040cc:	e51b301c 	ldr	r3, [fp, #-28]	; 0xffffffe4
c20040d0:	e5d3300b 	ldrb	r3, [r3, #11]
c20040d4:	e3530002 	cmp	r3, #2
c20040d8:	1a000007 	bne	c20040fc <sdrv_uart_configure_protocol+0x21c>
c20040dc:	e51b301c 	ldr	r3, [fp, #-28]	; 0xffffffe4
c20040e0:	e5d3300c 	ldrb	r3, [r3, #12]
c20040e4:	e3530000 	cmp	r3, #0
c20040e8:	0a000003 	beq	c20040fc <sdrv_uart_configure_protocol+0x21c>
c20040ec:	e51b3008 	ldr	r3, [fp, #-8]
c20040f0:	e3833004 	orr	r3, r3, #4
c20040f4:	e50b3008 	str	r3, [fp, #-8]
c20040f8:	ea000002 	b	c2004108 <sdrv_uart_configure_protocol+0x228>
c20040fc:	e51b3008 	ldr	r3, [fp, #-8]
c2004100:	e3c33004 	bic	r3, r3, #4
c2004104:	e50b3008 	str	r3, [fp, #-8]
c2004108:	e51b301c 	ldr	r3, [fp, #-28]	; 0xffffffe4
c200410c:	e5d3300a 	ldrb	r3, [r3, #10]
c2004110:	e3530000 	cmp	r3, #0
c2004114:	1a000003 	bne	c2004128 <sdrv_uart_configure_protocol+0x248>
c2004118:	e51b3008 	ldr	r3, [fp, #-8]
c200411c:	e3c33008 	bic	r3, r3, #8
c2004120:	e50b3008 	str	r3, [fp, #-8]
c2004124:	ea000016 	b	c2004184 <sdrv_uart_configure_protocol+0x2a4>
c2004128:	e51b301c 	ldr	r3, [fp, #-28]	; 0xffffffe4
c200412c:	e5d3300a 	ldrb	r3, [r3, #10]
c2004130:	e3530001 	cmp	r3, #1
c2004134:	1a000009 	bne	c2004160 <sdrv_uart_configure_protocol+0x280>
c2004138:	e51b3008 	ldr	r3, [fp, #-8]
c200413c:	e3833008 	orr	r3, r3, #8
c2004140:	e50b3008 	str	r3, [fp, #-8]
c2004144:	e51b3008 	ldr	r3, [fp, #-8]
c2004148:	e3c33010 	bic	r3, r3, #16
c200414c:	e50b3008 	str	r3, [fp, #-8]
c2004150:	e51b3008 	ldr	r3, [fp, #-8]
c2004154:	e3c33020 	bic	r3, r3, #32
c2004158:	e50b3008 	str	r3, [fp, #-8]
c200415c:	ea000008 	b	c2004184 <sdrv_uart_configure_protocol+0x2a4>
c2004160:	e51b3008 	ldr	r3, [fp, #-8]
c2004164:	e3833008 	orr	r3, r3, #8
c2004168:	e50b3008 	str	r3, [fp, #-8]
c200416c:	e51b3008 	ldr	r3, [fp, #-8]
c2004170:	e3833010 	orr	r3, r3, #16
c2004174:	e50b3008 	str	r3, [fp, #-8]
c2004178:	e51b3008 	ldr	r3, [fp, #-8]
c200417c:	e3c33020 	bic	r3, r3, #32
c2004180:	e50b3008 	str	r3, [fp, #-8]
c2004184:	e51b3008 	ldr	r3, [fp, #-8]
c2004188:	e3c33080 	bic	r3, r3, #128	; 0x80
c200418c:	e50b3008 	str	r3, [fp, #-8]
c2004190:	e51b3008 	ldr	r3, [fp, #-8]
c2004194:	e3c33040 	bic	r3, r3, #64	; 0x40
c2004198:	e50b3008 	str	r3, [fp, #-8]
c200419c:	e51b3018 	ldr	r3, [fp, #-24]	; 0xffffffe8
c20041a0:	e283300c 	add	r3, r3, #12
c20041a4:	e1a02003 	mov	r2, r3
c20041a8:	e51b3008 	ldr	r3, [fp, #-8]
c20041ac:	e5823000 	str	r3, [r2]
c20041b0:	e51b3018 	ldr	r3, [fp, #-24]	; 0xffffffe8
c20041b4:	e2833020 	add	r3, r3, #32
c20041b8:	e1a02003 	mov	r2, r3
c20041bc:	e3a03000 	mov	r3, #0
c20041c0:	e5823000 	str	r3, [r2]
c20041c4:	ea000000 	b	c20041cc <sdrv_uart_configure_protocol+0x2ec>
c20041c8:	e320f000 	nop	{0}
c20041cc:	e24bd004 	sub	sp, fp, #4
c20041d0:	e8bd8800 	pop	{fp, pc}

c20041d4 <sdrv_uart_init>:
c20041d4:	e92d4800 	push	{fp, lr}
c20041d8:	e28db004 	add	fp, sp, #4
c20041dc:	e24dd008 	sub	sp, sp, #8
c20041e0:	e50b0008 	str	r0, [fp, #-8]
c20041e4:	e50b100c 	str	r1, [fp, #-12]
c20041e8:	e51b300c 	ldr	r3, [fp, #-12]
c20041ec:	e3530000 	cmp	r3, #0
c20041f0:	0a000008 	beq	c2004218 <sdrv_uart_init+0x44>
c20041f4:	e51b0008 	ldr	r0, [fp, #-8]
c20041f8:	ebfffe75 	bl	c2003bd4 <sdrv_uart_reset>
c20041fc:	e51b100c 	ldr	r1, [fp, #-12]
c2004200:	e51b0008 	ldr	r0, [fp, #-8]
c2004204:	ebfffe94 	bl	c2003c5c <sdrv_uart_configure_fifo_and_dma>
c2004208:	e51b100c 	ldr	r1, [fp, #-12]
c200420c:	e51b0008 	ldr	r0, [fp, #-8]
c2004210:	ebffff32 	bl	c2003ee0 <sdrv_uart_configure_protocol>
c2004214:	ea000000 	b	c200421c <sdrv_uart_init+0x48>
c2004218:	e320f000 	nop	{0}
c200421c:	e24bd004 	sub	sp, fp, #4
c2004220:	e8bd8800 	pop	{fp, pc}

c2004224 <sdrv_uart_send>:
c2004224:	e52db004 	push	{fp}		; (str fp, [sp, #-4]!)
c2004228:	e28db000 	add	fp, sp, #0
c200422c:	e24dd014 	sub	sp, sp, #20
c2004230:	e50b0010 	str	r0, [fp, #-16]
c2004234:	e50b1014 	str	r1, [fp, #-20]	; 0xffffffec
c2004238:	e3a03000 	mov	r3, #0
c200423c:	e50b3008 	str	r3, [fp, #-8]
c2004240:	e51b3010 	ldr	r3, [fp, #-16]
c2004244:	e2833014 	add	r3, r3, #20
c2004248:	e5933000 	ldr	r3, [r3]
c200424c:	e50b3008 	str	r3, [fp, #-8]
c2004250:	e51b3008 	ldr	r3, [fp, #-8]
c2004254:	e1a032a3 	lsr	r3, r3, #5
c2004258:	e2033001 	and	r3, r3, #1
c200425c:	e50b3008 	str	r3, [fp, #-8]
c2004260:	e51b3008 	ldr	r3, [fp, #-8]
c2004264:	e3530001 	cmp	r3, #1
c2004268:	1afffff4 	bne	c2004240 <sdrv_uart_send+0x1c>
c200426c:	e51b3010 	ldr	r3, [fp, #-16]
c2004270:	e51b2014 	ldr	r2, [fp, #-20]	; 0xffffffec
c2004274:	e5832000 	str	r2, [r3]
c2004278:	e320f000 	nop	{0}
c200427c:	e28bd000 	add	sp, fp, #0
c2004280:	e49db004 	pop	{fp}		; (ldr fp, [sp], #4)
c2004284:	e12fff1e 	bx	lr

c2004288 <rmwr32>:
c2004288:	e52db004 	push	{fp}		; (str fp, [sp, #-4]!)
c200428c:	e28db000 	add	fp, sp, #0
c2004290:	e24dd01c 	sub	sp, sp, #28
c2004294:	e50b0010 	str	r0, [fp, #-16]
c2004298:	e50b1014 	str	r1, [fp, #-20]	; 0xffffffec
c200429c:	e50b2018 	str	r2, [fp, #-24]	; 0xffffffe8
c20042a0:	e50b301c 	str	r3, [fp, #-28]	; 0xffffffe4
c20042a4:	e3a03000 	mov	r3, #0
c20042a8:	e50b3008 	str	r3, [fp, #-8]
c20042ac:	e51b3010 	ldr	r3, [fp, #-16]
c20042b0:	e5933000 	ldr	r3, [r3]
c20042b4:	e50b3008 	str	r3, [fp, #-8]
c20042b8:	e3a02001 	mov	r2, #1
c20042bc:	e51b3018 	ldr	r3, [fp, #-24]	; 0xffffffe8
c20042c0:	e1a03312 	lsl	r3, r2, r3
c20042c4:	e2432001 	sub	r2, r3, #1
c20042c8:	e51b3014 	ldr	r3, [fp, #-20]	; 0xffffffec
c20042cc:	e1a03312 	lsl	r3, r2, r3
c20042d0:	e1e03003 	mvn	r3, r3
c20042d4:	e51b2008 	ldr	r2, [fp, #-8]
c20042d8:	e0033002 	and	r3, r3, r2
c20042dc:	e50b3008 	str	r3, [fp, #-8]
c20042e0:	e3a02001 	mov	r2, #1
c20042e4:	e51b3018 	ldr	r3, [fp, #-24]	; 0xffffffe8
c20042e8:	e1a03312 	lsl	r3, r2, r3
c20042ec:	e2432001 	sub	r2, r3, #1
c20042f0:	e51b301c 	ldr	r3, [fp, #-28]	; 0xffffffe4
c20042f4:	e0022003 	and	r2, r2, r3
c20042f8:	e51b3014 	ldr	r3, [fp, #-20]	; 0xffffffec
c20042fc:	e1a03312 	lsl	r3, r2, r3
c2004300:	e51b2008 	ldr	r2, [fp, #-8]
c2004304:	e1823003 	orr	r3, r2, r3
c2004308:	e50b3008 	str	r3, [fp, #-8]
c200430c:	e51b3010 	ldr	r3, [fp, #-16]
c2004310:	e51b2008 	ldr	r2, [fp, #-8]
c2004314:	e5832000 	str	r2, [r3]
c2004318:	e320f000 	nop	{0}
c200431c:	e28bd000 	add	sp, fp, #0
c2004320:	e49db004 	pop	{fp}		; (ldr fp, [sp], #4)
c2004324:	e12fff1e 	bx	lr

c2004328 <sdrv_dtimer_wait_for_writel>:
c2004328:	e52db004 	push	{fp}		; (str fp, [sp, #-4]!)
c200432c:	e28db000 	add	fp, sp, #0
c2004330:	e24dd014 	sub	sp, sp, #20
c2004334:	e50b0010 	str	r0, [fp, #-16]
c2004338:	e1a03001 	mov	r3, r1
c200433c:	e54b3011 	strb	r3, [fp, #-17]	; 0xffffffef
c2004340:	e3a03001 	mov	r3, #1
c2004344:	e50b3008 	str	r3, [fp, #-8]
c2004348:	e51b3010 	ldr	r3, [fp, #-16]
c200434c:	e2833054 	add	r3, r3, #84	; 0x54
c2004350:	e5933000 	ldr	r3, [r3]
c2004354:	e1a03123 	lsr	r3, r3, #2
c2004358:	e2033001 	and	r3, r3, #1
c200435c:	e3530001 	cmp	r3, #1
c2004360:	1a00000b 	bne	c2004394 <sdrv_dtimer_wait_for_writel+0x6c>
c2004364:	ea000006 	b	c2004384 <sdrv_dtimer_wait_for_writel+0x5c>
c2004368:	e51b3010 	ldr	r3, [fp, #-16]
c200436c:	e2833048 	add	r3, r3, #72	; 0x48
c2004370:	e5932000 	ldr	r2, [r3]
c2004374:	e55b3011 	ldrb	r3, [fp, #-17]	; 0xffffffef
c2004378:	e1a03332 	lsr	r3, r2, r3
c200437c:	e2033001 	and	r3, r3, #1
c2004380:	e50b3008 	str	r3, [fp, #-8]
c2004384:	e51b3008 	ldr	r3, [fp, #-8]
c2004388:	e3530001 	cmp	r3, #1
c200438c:	0afffff5 	beq	c2004368 <sdrv_dtimer_wait_for_writel+0x40>
c2004390:	ea000000 	b	c2004398 <sdrv_dtimer_wait_for_writel+0x70>
c2004394:	e320f000 	nop	{0}
c2004398:	e28bd000 	add	sp, fp, #0
c200439c:	e49db004 	pop	{fp}		; (ldr fp, [sp], #4)
c20043a0:	e12fff1e 	bx	lr

c20043a4 <sdrv_dtimer_soft_reset>:
c20043a4:	e92d4800 	push	{fp, lr}
c20043a8:	e28db004 	add	fp, sp, #4
c20043ac:	e24dd010 	sub	sp, sp, #16
c20043b0:	e50b0010 	str	r0, [fp, #-16]
c20043b4:	e3a03001 	mov	r3, #1
c20043b8:	e50b3008 	str	r3, [fp, #-8]
c20043bc:	e51b3010 	ldr	r3, [fp, #-16]
c20043c0:	e2830010 	add	r0, r3, #16
c20043c4:	e3a03001 	mov	r3, #1
c20043c8:	e3a02001 	mov	r2, #1
c20043cc:	e3a01000 	mov	r1, #0
c20043d0:	ebffffac 	bl	c2004288 <rmwr32>
c20043d4:	ea000004 	b	c20043ec <sdrv_dtimer_soft_reset+0x48>
c20043d8:	e51b3010 	ldr	r3, [fp, #-16]
c20043dc:	e2833010 	add	r3, r3, #16
c20043e0:	e5933000 	ldr	r3, [r3]
c20043e4:	e2033001 	and	r3, r3, #1
c20043e8:	e50b3008 	str	r3, [fp, #-8]
c20043ec:	e51b3008 	ldr	r3, [fp, #-8]
c20043f0:	e3530001 	cmp	r3, #1
c20043f4:	0afffff7 	beq	c20043d8 <sdrv_dtimer_soft_reset+0x34>
c20043f8:	e320f000 	nop	{0}
c20043fc:	e320f000 	nop	{0}
c2004400:	e24bd004 	sub	sp, fp, #4
c2004404:	e8bd8800 	pop	{fp, pc}

c2004408 <sdrv_dtimer_enable>:
c2004408:	e92d4800 	push	{fp, lr}
c200440c:	e28db004 	add	fp, sp, #4
c2004410:	e24dd008 	sub	sp, sp, #8
c2004414:	e50b0008 	str	r0, [fp, #-8]
c2004418:	e3a01000 	mov	r1, #0
c200441c:	e51b0008 	ldr	r0, [fp, #-8]
c2004420:	ebffffc0 	bl	c2004328 <sdrv_dtimer_wait_for_writel>
c2004424:	e51b3008 	ldr	r3, [fp, #-8]
c2004428:	e2830038 	add	r0, r3, #56	; 0x38
c200442c:	e3a03001 	mov	r3, #1
c2004430:	e3a02001 	mov	r2, #1
c2004434:	e3a01000 	mov	r1, #0
c2004438:	ebffff92 	bl	c2004288 <rmwr32>
c200443c:	e320f000 	nop	{0}
c2004440:	e24bd004 	sub	sp, fp, #4
c2004444:	e8bd8800 	pop	{fp, pc}

c2004448 <sdrv_dtimer_mode_configure>:
c2004448:	e92d4800 	push	{fp, lr}
c200444c:	e28db004 	add	fp, sp, #4
c2004450:	e24dd010 	sub	sp, sp, #16
c2004454:	e50b0010 	str	r0, [fp, #-16]
c2004458:	e50b1014 	str	r1, [fp, #-20]	; 0xffffffec
c200445c:	e3a03000 	mov	r3, #0
c2004460:	e50b3008 	str	r3, [fp, #-8]
c2004464:	e3a01000 	mov	r1, #0
c2004468:	e51b0010 	ldr	r0, [fp, #-16]
c200446c:	ebffffad 	bl	c2004328 <sdrv_dtimer_wait_for_writel>
c2004470:	e51b3010 	ldr	r3, [fp, #-16]
c2004474:	e2833038 	add	r3, r3, #56	; 0x38
c2004478:	e5933000 	ldr	r3, [r3]
c200447c:	e50b3008 	str	r3, [fp, #-8]
c2004480:	e51b3008 	ldr	r3, [fp, #-8]
c2004484:	e3c33002 	bic	r3, r3, #2
c2004488:	e50b3008 	str	r3, [fp, #-8]
c200448c:	e51b3008 	ldr	r3, [fp, #-8]
c2004490:	e3c33040 	bic	r3, r3, #64	; 0x40
c2004494:	e50b3008 	str	r3, [fp, #-8]
c2004498:	e51b3010 	ldr	r3, [fp, #-16]
c200449c:	e2833038 	add	r3, r3, #56	; 0x38
c20044a0:	e1a02003 	mov	r2, r3
c20044a4:	e51b3008 	ldr	r3, [fp, #-8]
c20044a8:	e5823000 	str	r3, [r2]
c20044ac:	e3a01000 	mov	r1, #0
c20044b0:	e51b0010 	ldr	r0, [fp, #-16]
c20044b4:	ebffff9b 	bl	c2004328 <sdrv_dtimer_wait_for_writel>
c20044b8:	e51b3010 	ldr	r3, [fp, #-16]
c20044bc:	e2833038 	add	r3, r3, #56	; 0x38
c20044c0:	e5933000 	ldr	r3, [r3]
c20044c4:	e50b3008 	str	r3, [fp, #-8]
c20044c8:	e51b3014 	ldr	r3, [fp, #-20]	; 0xffffffec
c20044cc:	e3530000 	cmp	r3, #0
c20044d0:	1a000003 	bne	c20044e4 <sdrv_dtimer_mode_configure+0x9c>
c20044d4:	e51b3008 	ldr	r3, [fp, #-8]
c20044d8:	e3833002 	orr	r3, r3, #2
c20044dc:	e50b3008 	str	r3, [fp, #-8]
c20044e0:	ea00000c 	b	c2004518 <sdrv_dtimer_mode_configure+0xd0>
c20044e4:	e51b3014 	ldr	r3, [fp, #-20]	; 0xffffffec
c20044e8:	e3530001 	cmp	r3, #1
c20044ec:	1a000003 	bne	c2004500 <sdrv_dtimer_mode_configure+0xb8>
c20044f0:	e51b3008 	ldr	r3, [fp, #-8]
c20044f4:	e3833040 	orr	r3, r3, #64	; 0x40
c20044f8:	e50b3008 	str	r3, [fp, #-8]
c20044fc:	ea000005 	b	c2004518 <sdrv_dtimer_mode_configure+0xd0>
c2004500:	e51b3008 	ldr	r3, [fp, #-8]
c2004504:	e3833002 	orr	r3, r3, #2
c2004508:	e50b3008 	str	r3, [fp, #-8]
c200450c:	e51b3008 	ldr	r3, [fp, #-8]
c2004510:	e3833040 	orr	r3, r3, #64	; 0x40
c2004514:	e50b3008 	str	r3, [fp, #-8]
c2004518:	e51b3010 	ldr	r3, [fp, #-16]
c200451c:	e2833038 	add	r3, r3, #56	; 0x38
c2004520:	e1a02003 	mov	r2, r3
c2004524:	e51b3008 	ldr	r3, [fp, #-8]
c2004528:	e5823000 	str	r3, [r2]
c200452c:	e320f000 	nop	{0}
c2004530:	e24bd004 	sub	sp, fp, #4
c2004534:	e8bd8800 	pop	{fp, pc}

c2004538 <sdrv_dtimer_counter_set>:
c2004538:	e92d4800 	push	{fp, lr}
c200453c:	e28db004 	add	fp, sp, #4
c2004540:	e24dd008 	sub	sp, sp, #8
c2004544:	e50b0008 	str	r0, [fp, #-8]
c2004548:	e50b100c 	str	r1, [fp, #-12]
c200454c:	e3a01001 	mov	r1, #1
c2004550:	e51b0008 	ldr	r0, [fp, #-8]
c2004554:	ebffff73 	bl	c2004328 <sdrv_dtimer_wait_for_writel>
c2004558:	e51b3008 	ldr	r3, [fp, #-8]
c200455c:	e283303c 	add	r3, r3, #60	; 0x3c
c2004560:	e1a02003 	mov	r2, r3
c2004564:	e51b300c 	ldr	r3, [fp, #-12]
c2004568:	e5823000 	str	r3, [r2]
c200456c:	e320f000 	nop	{0}
c2004570:	e24bd004 	sub	sp, fp, #4
c2004574:	e8bd8800 	pop	{fp, pc}

c2004578 <sdrv_dtimer_reload_set>:
c2004578:	e92d4800 	push	{fp, lr}
c200457c:	e28db004 	add	fp, sp, #4
c2004580:	e24dd008 	sub	sp, sp, #8
c2004584:	e50b0008 	str	r0, [fp, #-8]
c2004588:	e50b100c 	str	r1, [fp, #-12]
c200458c:	e3a01002 	mov	r1, #2
c2004590:	e51b0008 	ldr	r0, [fp, #-8]
c2004594:	ebffff63 	bl	c2004328 <sdrv_dtimer_wait_for_writel>
c2004598:	e51b3008 	ldr	r3, [fp, #-8]
c200459c:	e2833040 	add	r3, r3, #64	; 0x40
c20045a0:	e1a02003 	mov	r2, r3
c20045a4:	e51b300c 	ldr	r3, [fp, #-12]
c20045a8:	e5823000 	str	r3, [r2]
c20045ac:	e320f000 	nop	{0}
c20045b0:	e24bd004 	sub	sp, fp, #4
c20045b4:	e8bd8800 	pop	{fp, pc}

c20045b8 <sdrv_dtimer_int_status_clear>:
c20045b8:	e92d4800 	push	{fp, lr}
c20045bc:	e28db004 	add	fp, sp, #4
c20045c0:	e24dd008 	sub	sp, sp, #8
c20045c4:	e50b0008 	str	r0, [fp, #-8]
c20045c8:	e1a03001 	mov	r3, r1
c20045cc:	e54b3009 	strb	r3, [fp, #-9]
c20045d0:	e51b3008 	ldr	r3, [fp, #-8]
c20045d4:	e2830028 	add	r0, r3, #40	; 0x28
c20045d8:	e55b1009 	ldrb	r1, [fp, #-9]
c20045dc:	e3a03001 	mov	r3, #1
c20045e0:	e3a02001 	mov	r2, #1
c20045e4:	ebffff27 	bl	c2004288 <rmwr32>
c20045e8:	e51b3008 	ldr	r3, [fp, #-8]
c20045ec:	e2833028 	add	r3, r3, #40	; 0x28
c20045f0:	e5933000 	ldr	r3, [r3]
c20045f4:	e320f000 	nop	{0}
c20045f8:	e24bd004 	sub	sp, fp, #4
c20045fc:	e8bd8800 	pop	{fp, pc}

c2004600 <sdrv_dtimer_int_enable>:
c2004600:	e92d4800 	push	{fp, lr}
c2004604:	e28db004 	add	fp, sp, #4
c2004608:	e24dd008 	sub	sp, sp, #8
c200460c:	e50b0008 	str	r0, [fp, #-8]
c2004610:	e1a03001 	mov	r3, r1
c2004614:	e54b3009 	strb	r3, [fp, #-9]
c2004618:	e51b3008 	ldr	r3, [fp, #-8]
c200461c:	e283002c 	add	r0, r3, #44	; 0x2c
c2004620:	e55b1009 	ldrb	r1, [fp, #-9]
c2004624:	e3a03001 	mov	r3, #1
c2004628:	e3a02001 	mov	r2, #1
c200462c:	ebffff15 	bl	c2004288 <rmwr32>
c2004630:	e320f000 	nop	{0}
c2004634:	e24bd004 	sub	sp, fp, #4
c2004638:	e8bd8800 	pop	{fp, pc}

c200463c <tryrtos_tick_add>:
c200463c:	e52db004 	push	{fp}		; (str fp, [sp, #-4]!)
c2004640:	e28db000 	add	fp, sp, #0
c2004644:	e30d3fb0 	movw	r3, #57264	; 0xdfb0
c2004648:	e34c3201 	movt	r3, #49665	; 0xc201
c200464c:	e1c320d0 	ldrd	r2, [r3]
c2004650:	e2920001 	adds	r0, r2, #1
c2004654:	e2a31000 	adc	r1, r3, #0
c2004658:	e30d3fb0 	movw	r3, #57264	; 0xdfb0
c200465c:	e34c3201 	movt	r3, #49665	; 0xc201
c2004660:	e1c300f0 	strd	r0, [r3]
c2004664:	e320f000 	nop	{0}
c2004668:	e28bd000 	add	sp, fp, #0
c200466c:	e49db004 	pop	{fp}		; (ldr fp, [sp], #4)
c2004670:	e12fff1e 	bx	lr

c2004674 <tryrtos_thread_register>:
c2004674:	e92d4800 	push	{fp, lr}
c2004678:	e28db004 	add	fp, sp, #4
c200467c:	e24dd008 	sub	sp, sp, #8
c2004680:	e50b0008 	str	r0, [fp, #-8]
c2004684:	e1a03001 	mov	r3, r1
c2004688:	e54b3009 	strb	r3, [fp, #-9]
c200468c:	e55b3009 	ldrb	r3, [fp, #-9]
c2004690:	e353000f 	cmp	r3, #15
c2004694:	8a000008 	bhi	c20046bc <tryrtos_thread_register+0x48>
c2004698:	e55b3009 	ldrb	r3, [fp, #-9]
c200469c:	e1a02183 	lsl	r2, r3, #3
c20046a0:	e30d3fc0 	movw	r3, #57280	; 0xdfc0
c20046a4:	e34c3201 	movt	r3, #49665	; 0xc201
c20046a8:	e0823003 	add	r3, r2, r3
c20046ac:	e1a01003 	mov	r1, r3
c20046b0:	e51b0008 	ldr	r0, [fp, #-8]
c20046b4:	ebfff07d 	bl	c20008b0 <libc_list_add>
c20046b8:	ea000000 	b	c20046c0 <tryrtos_thread_register+0x4c>
c20046bc:	e320f000 	nop	{0}
c20046c0:	e24bd004 	sub	sp, fp, #4
c20046c4:	e8bd8800 	pop	{fp, pc}

c20046c8 <tryrtos_thread_create>:
c20046c8:	e92d4810 	push	{r4, fp, lr}
c20046cc:	e28db008 	add	fp, sp, #8
c20046d0:	e24dd014 	sub	sp, sp, #20
c20046d4:	e50b0010 	str	r0, [fp, #-16]
c20046d8:	e50b1014 	str	r1, [fp, #-20]	; 0xffffffec
c20046dc:	e50b301c 	str	r3, [fp, #-28]	; 0xffffffe4
c20046e0:	e1a03002 	mov	r3, r2
c20046e4:	e54b3015 	strb	r3, [fp, #-21]	; 0xffffffeb
c20046e8:	e51b3010 	ldr	r3, [fp, #-16]
c20046ec:	e3530000 	cmp	r3, #0
c20046f0:	0a00004b 	beq	c2004824 <tryrtos_thread_create+0x15c>
c20046f4:	e51b3014 	ldr	r3, [fp, #-20]	; 0xffffffec
c20046f8:	e3530000 	cmp	r3, #0
c20046fc:	0a00004a 	beq	c200482c <tryrtos_thread_create+0x164>
c2004700:	e59b3008 	ldr	r3, [fp, #8]
c2004704:	e3530000 	cmp	r3, #0
c2004708:	0a000049 	beq	c2004834 <tryrtos_thread_create+0x16c>
c200470c:	e59b300c 	ldr	r3, [fp, #12]
c2004710:	e3530000 	cmp	r3, #0
c2004714:	0a000048 	beq	c200483c <tryrtos_thread_create+0x174>
c2004718:	e51b3010 	ldr	r3, [fp, #-16]
c200471c:	e2834004 	add	r4, r3, #4
c2004720:	e51b0014 	ldr	r0, [fp, #-20]	; 0xffffffec
c2004724:	ebfff0ae 	bl	c20009e4 <strlen>
c2004728:	e1a03000 	mov	r3, r0
c200472c:	e1a02003 	mov	r2, r3
c2004730:	e51b1014 	ldr	r1, [fp, #-20]	; 0xffffffec
c2004734:	e1a00004 	mov	r0, r4
c2004738:	ebfff0d7 	bl	c2000a9c <memcpy>
c200473c:	e51b3010 	ldr	r3, [fp, #-16]
c2004740:	e51b201c 	ldr	r2, [fp, #-28]	; 0xffffffe4
c2004744:	e5832000 	str	r2, [r3]
c2004748:	e51b3010 	ldr	r3, [fp, #-16]
c200474c:	e55b2015 	ldrb	r2, [fp, #-21]	; 0xffffffeb
c2004750:	e5c32104 	strb	r2, [r3, #260]	; 0x104
c2004754:	e51b3010 	ldr	r3, [fp, #-16]
c2004758:	e59b2004 	ldr	r2, [fp, #4]
c200475c:	e5832108 	str	r2, [r3, #264]	; 0x108
c2004760:	e51b3010 	ldr	r3, [fp, #-16]
c2004764:	e59b2008 	ldr	r2, [fp, #8]
c2004768:	e5832138 	str	r2, [r3, #312]	; 0x138
c200476c:	e51b3010 	ldr	r3, [fp, #-16]
c2004770:	e59b200c 	ldr	r2, [fp, #12]
c2004774:	e583213c 	str	r2, [r3, #316]	; 0x13c
c2004778:	e59b300c 	ldr	r3, [fp, #12]
c200477c:	e1a03103 	lsl	r3, r3, #2
c2004780:	e59b2008 	ldr	r2, [fp, #8]
c2004784:	e0822003 	add	r2, r2, r3
c2004788:	e51b3010 	ldr	r3, [fp, #-16]
c200478c:	e5832134 	str	r2, [r3, #308]	; 0x134
c2004790:	e51b3010 	ldr	r3, [fp, #-16]
c2004794:	e55b2015 	ldrb	r2, [fp, #-21]	; 0xffffffeb
c2004798:	e5c32128 	strb	r2, [r3, #296]	; 0x128
c200479c:	e51b3010 	ldr	r3, [fp, #-16]
c20047a0:	e2832f4b 	add	r2, r3, #300	; 0x12c
c20047a4:	e51b3010 	ldr	r3, [fp, #-16]
c20047a8:	e5d33104 	ldrb	r3, [r3, #260]	; 0x104
c20047ac:	e1a01003 	mov	r1, r3
c20047b0:	e1a00002 	mov	r0, r2
c20047b4:	ebffffae 	bl	c2004674 <tryrtos_thread_register>
c20047b8:	e51b3010 	ldr	r3, [fp, #-16]
c20047bc:	e2833e12 	add	r3, r3, #288	; 0x120
c20047c0:	e1a01003 	mov	r1, r3
c20047c4:	e3a02000 	mov	r2, #0
c20047c8:	e3a03000 	mov	r3, #0
c20047cc:	e14120f8 	strd	r2, [r1, #-8]
c20047d0:	e51b3010 	ldr	r3, [fp, #-16]
c20047d4:	e2833e12 	add	r3, r3, #288	; 0x120
c20047d8:	e1a01003 	mov	r1, r3
c20047dc:	e3a02000 	mov	r2, #0
c20047e0:	e3a03000 	mov	r3, #0
c20047e4:	e1c120f0 	strd	r2, [r1]
c20047e8:	e51b3010 	ldr	r3, [fp, #-16]
c20047ec:	e5930134 	ldr	r0, [r3, #308]	; 0x134
c20047f0:	e51b3010 	ldr	r3, [fp, #-16]
c20047f4:	e5931000 	ldr	r1, [r3]
c20047f8:	e51b3010 	ldr	r3, [fp, #-16]
c20047fc:	e5933108 	ldr	r3, [r3, #264]	; 0x108
c2004800:	e1a02003 	mov	r2, r3
c2004804:	ebffef30 	bl	c20004cc <arch_context_init>
c2004808:	e1a02000 	mov	r2, r0
c200480c:	e51b3010 	ldr	r3, [fp, #-16]
c2004810:	e5832140 	str	r2, [r3, #320]	; 0x140
c2004814:	e51b3010 	ldr	r3, [fp, #-16]
c2004818:	e3a02001 	mov	r2, #1
c200481c:	e5c32129 	strb	r2, [r3, #297]	; 0x129
c2004820:	ea000006 	b	c2004840 <tryrtos_thread_create+0x178>
c2004824:	e320f000 	nop	{0}
c2004828:	ea000004 	b	c2004840 <tryrtos_thread_create+0x178>
c200482c:	e320f000 	nop	{0}
c2004830:	ea000002 	b	c2004840 <tryrtos_thread_create+0x178>
c2004834:	e320f000 	nop	{0}
c2004838:	ea000000 	b	c2004840 <tryrtos_thread_create+0x178>
c200483c:	e320f000 	nop	{0}
c2004840:	e24bd008 	sub	sp, fp, #8
c2004844:	e8bd8810 	pop	{r4, fp, pc}

c2004848 <tryrtos_thread_init>:
c2004848:	e92d4800 	push	{fp, lr}
c200484c:	e28db004 	add	fp, sp, #4
c2004850:	e24dd008 	sub	sp, sp, #8
c2004854:	e3a03000 	mov	r3, #0
c2004858:	e50b3008 	str	r3, [fp, #-8]
c200485c:	ea000009 	b	c2004888 <tryrtos_thread_init+0x40>
c2004860:	e51b3008 	ldr	r3, [fp, #-8]
c2004864:	e1a02183 	lsl	r2, r3, #3
c2004868:	e30d3fc0 	movw	r3, #57280	; 0xdfc0
c200486c:	e34c3201 	movt	r3, #49665	; 0xc201
c2004870:	e0823003 	add	r3, r2, r3
c2004874:	e1a00003 	mov	r0, r3
c2004878:	ebffefe7 	bl	c200081c <libc_list_init>
c200487c:	e51b3008 	ldr	r3, [fp, #-8]
c2004880:	e2833001 	add	r3, r3, #1
c2004884:	e50b3008 	str	r3, [fp, #-8]
c2004888:	e51b3008 	ldr	r3, [fp, #-8]
c200488c:	e353000f 	cmp	r3, #15
c2004890:	9afffff2 	bls	c2004860 <tryrtos_thread_init+0x18>
c2004894:	e30e0040 	movw	r0, #57408	; 0xe040
c2004898:	e34c0201 	movt	r0, #49665	; 0xc201
c200489c:	ebffefde 	bl	c200081c <libc_list_init>
c20048a0:	e30d3fbc 	movw	r3, #57276	; 0xdfbc
c20048a4:	e34c3201 	movt	r3, #49665	; 0xc201
c20048a8:	e3a02000 	mov	r2, #0
c20048ac:	e5c32000 	strb	r2, [r3]
c20048b0:	e320f000 	nop	{0}
c20048b4:	e24bd004 	sub	sp, fp, #4
c20048b8:	e8bd8800 	pop	{fp, pc}

c20048bc <tryrtos_thread_switch>:
c20048bc:	e92d4800 	push	{fp, lr}
c20048c0:	e28db004 	add	fp, sp, #4
c20048c4:	e24dd010 	sub	sp, sp, #16
c20048c8:	e50b0010 	str	r0, [fp, #-16]
c20048cc:	e3a03000 	mov	r3, #0
c20048d0:	e50b3008 	str	r3, [fp, #-8]
c20048d4:	e51b3010 	ldr	r3, [fp, #-16]
c20048d8:	e3530000 	cmp	r3, #0
c20048dc:	0a000044 	beq	c20049f4 <tryrtos_thread_switch+0x138>
c20048e0:	e51b3010 	ldr	r3, [fp, #-16]
c20048e4:	e2833e11 	add	r3, r3, #272	; 0x110
c20048e8:	e1a01003 	mov	r1, r3
c20048ec:	e3a0200a 	mov	r2, #10
c20048f0:	e3a03000 	mov	r3, #0
c20048f4:	e1c120f0 	strd	r2, [r1]
c20048f8:	e30d3fbc 	movw	r3, #57276	; 0xdfbc
c20048fc:	e34c3201 	movt	r3, #49665	; 0xc201
c2004900:	e3a02000 	mov	r2, #0
c2004904:	e5c32000 	strb	r2, [r3]
c2004908:	e30d3fb8 	movw	r3, #57272	; 0xdfb8
c200490c:	e34c3201 	movt	r3, #49665	; 0xc201
c2004910:	e5933000 	ldr	r3, [r3]
c2004914:	e51b2010 	ldr	r2, [fp, #-16]
c2004918:	e1520003 	cmp	r2, r3
c200491c:	0a000036 	beq	c20049fc <tryrtos_thread_switch+0x140>
c2004920:	e51b3010 	ldr	r3, [fp, #-16]
c2004924:	e5d33129 	ldrb	r3, [r3, #297]	; 0x129
c2004928:	e3530001 	cmp	r3, #1
c200492c:	0a000003 	beq	c2004940 <tryrtos_thread_switch+0x84>
c2004930:	e51b3010 	ldr	r3, [fp, #-16]
c2004934:	e5d33129 	ldrb	r3, [r3, #297]	; 0x129
c2004938:	e3530002 	cmp	r3, #2
c200493c:	1a000030 	bne	c2004a04 <tryrtos_thread_switch+0x148>
c2004940:	e30d3fb8 	movw	r3, #57272	; 0xdfb8
c2004944:	e34c3201 	movt	r3, #49665	; 0xc201
c2004948:	e5933000 	ldr	r3, [r3]
c200494c:	e3530000 	cmp	r3, #0
c2004950:	0a000004 	beq	c2004968 <tryrtos_thread_switch+0xac>
c2004954:	e30d3fb8 	movw	r3, #57272	; 0xdfb8
c2004958:	e34c3201 	movt	r3, #49665	; 0xc201
c200495c:	e5933000 	ldr	r3, [r3]
c2004960:	e3a02002 	mov	r2, #2
c2004964:	e5c32129 	strb	r2, [r3, #297]	; 0x129
c2004968:	e51b3010 	ldr	r3, [fp, #-16]
c200496c:	e5d33129 	ldrb	r3, [r3, #297]	; 0x129
c2004970:	e3530001 	cmp	r3, #1
c2004974:	1a00000b 	bne	c20049a8 <tryrtos_thread_switch+0xec>
c2004978:	e30d3fb8 	movw	r3, #57272	; 0xdfb8
c200497c:	e34c3201 	movt	r3, #49665	; 0xc201
c2004980:	e51b2010 	ldr	r2, [fp, #-16]
c2004984:	e5832000 	str	r2, [r3]
c2004988:	e51b3010 	ldr	r3, [fp, #-16]
c200498c:	e3a02003 	mov	r2, #3
c2004990:	e5c32129 	strb	r2, [r3, #297]	; 0x129
c2004994:	e51b3010 	ldr	r3, [fp, #-16]
c2004998:	e5933140 	ldr	r3, [r3, #320]	; 0x140
c200499c:	e1a00003 	mov	r0, r3
c20049a0:	ebffeebe 	bl	c20004a0 <arch_context_start>
c20049a4:	ea000017 	b	c2004a08 <tryrtos_thread_switch+0x14c>
c20049a8:	e30d3fb8 	movw	r3, #57272	; 0xdfb8
c20049ac:	e34c3201 	movt	r3, #49665	; 0xc201
c20049b0:	e5933000 	ldr	r3, [r3]
c20049b4:	e50b3008 	str	r3, [fp, #-8]
c20049b8:	e30d3fb8 	movw	r3, #57272	; 0xdfb8
c20049bc:	e34c3201 	movt	r3, #49665	; 0xc201
c20049c0:	e51b2010 	ldr	r2, [fp, #-16]
c20049c4:	e5832000 	str	r2, [r3]
c20049c8:	e51b3010 	ldr	r3, [fp, #-16]
c20049cc:	e3a02003 	mov	r2, #3
c20049d0:	e5c32129 	strb	r2, [r3, #297]	; 0x129
c20049d4:	e51b3008 	ldr	r3, [fp, #-8]
c20049d8:	e5932140 	ldr	r2, [r3, #320]	; 0x140
c20049dc:	e51b3010 	ldr	r3, [fp, #-16]
c20049e0:	e5933140 	ldr	r3, [r3, #320]	; 0x140
c20049e4:	e1a01003 	mov	r1, r3
c20049e8:	e1a00002 	mov	r0, r2
c20049ec:	ebffeeeb 	bl	c20005a0 <arch_context_switch>
c20049f0:	ea000004 	b	c2004a08 <tryrtos_thread_switch+0x14c>
c20049f4:	e320f000 	nop	{0}
c20049f8:	ea000002 	b	c2004a08 <tryrtos_thread_switch+0x14c>
c20049fc:	e320f000 	nop	{0}
c2004a00:	ea000000 	b	c2004a08 <tryrtos_thread_switch+0x14c>
c2004a04:	e320f000 	nop	{0}
c2004a08:	e24bd004 	sub	sp, fp, #4
c2004a0c:	e8bd8800 	pop	{fp, pc}

c2004a10 <tryrtos_tick_handler>:
c2004a10:	e92d4bf0 	push	{r4, r5, r6, r7, r8, r9, fp, lr}
c2004a14:	e28db01c 	add	fp, sp, #28
c2004a18:	e24dd010 	sub	sp, sp, #16
c2004a1c:	e30e3040 	movw	r3, #57408	; 0xe040
c2004a20:	e34c3201 	movt	r3, #49665	; 0xc201
c2004a24:	e5933004 	ldr	r3, [r3, #4]
c2004a28:	e50b3020 	str	r3, [fp, #-32]	; 0xffffffe0
c2004a2c:	e3a03000 	mov	r3, #0
c2004a30:	e50b3024 	str	r3, [fp, #-36]	; 0xffffffdc
c2004a34:	ebffff00 	bl	c200463c <tryrtos_tick_add>
c2004a38:	e30d3fb8 	movw	r3, #57272	; 0xdfb8
c2004a3c:	e34c3201 	movt	r3, #49665	; 0xc201
c2004a40:	e5931000 	ldr	r1, [r3]
c2004a44:	e2813e12 	add	r3, r1, #288	; 0x120
c2004a48:	e1c320d0 	ldrd	r2, [r3]
c2004a4c:	e2928001 	adds	r8, r2, #1
c2004a50:	e2a39000 	adc	r9, r3, #0
c2004a54:	e2813e12 	add	r3, r1, #288	; 0x120
c2004a58:	e1c380f0 	strd	r8, [r3]
c2004a5c:	e30d3fb8 	movw	r3, #57272	; 0xdfb8
c2004a60:	e34c3201 	movt	r3, #49665	; 0xc201
c2004a64:	e5933000 	ldr	r3, [r3]
c2004a68:	e2833e11 	add	r3, r3, #272	; 0x110
c2004a6c:	e1c320d0 	ldrd	r2, [r3]
c2004a70:	e1923003 	orrs	r3, r2, r3
c2004a74:	0a000008 	beq	c2004a9c <tryrtos_tick_handler+0x8c>
c2004a78:	e30d3fb8 	movw	r3, #57272	; 0xdfb8
c2004a7c:	e34c3201 	movt	r3, #49665	; 0xc201
c2004a80:	e5931000 	ldr	r1, [r3]
c2004a84:	e2813e11 	add	r3, r1, #272	; 0x110
c2004a88:	e1c320d0 	ldrd	r2, [r3]
c2004a8c:	e2526001 	subs	r6, r2, #1
c2004a90:	e2c37000 	sbc	r7, r3, #0
c2004a94:	e2813e11 	add	r3, r1, #272	; 0x110
c2004a98:	e1c360f0 	strd	r6, [r3]
c2004a9c:	e30d3fb8 	movw	r3, #57272	; 0xdfb8
c2004aa0:	e34c3201 	movt	r3, #49665	; 0xc201
c2004aa4:	e5933000 	ldr	r3, [r3]
c2004aa8:	e2833e11 	add	r3, r3, #272	; 0x110
c2004aac:	e1c320d0 	ldrd	r2, [r3]
c2004ab0:	e1923003 	orrs	r3, r2, r3
c2004ab4:	1a000003 	bne	c2004ac8 <tryrtos_tick_handler+0xb8>
c2004ab8:	e30d3fbc 	movw	r3, #57276	; 0xdfbc
c2004abc:	e34c3201 	movt	r3, #49665	; 0xc201
c2004ac0:	e3a02001 	mov	r2, #1
c2004ac4:	e5c32000 	strb	r2, [r3]
c2004ac8:	e30e0040 	movw	r0, #57408	; 0xe040
c2004acc:	e34c0201 	movt	r0, #49665	; 0xc201
c2004ad0:	ebffefb4 	bl	c20009a8 <libc_list_is_empty>
c2004ad4:	e1a03000 	mov	r3, r0
c2004ad8:	e3530000 	cmp	r3, #0
c2004adc:	1a000030 	bne	c2004ba4 <tryrtos_tick_handler+0x194>
c2004ae0:	e51b3020 	ldr	r3, [fp, #-32]	; 0xffffffe0
c2004ae4:	e50b3028 	str	r3, [fp, #-40]	; 0xffffffd8
c2004ae8:	e51b3028 	ldr	r3, [fp, #-40]	; 0xffffffd8
c2004aec:	e2433f4b 	sub	r3, r3, #300	; 0x12c
c2004af0:	e50b3024 	str	r3, [fp, #-36]	; 0xffffffdc
c2004af4:	e51b3024 	ldr	r3, [fp, #-36]	; 0xffffffdc
c2004af8:	e2833e12 	add	r3, r3, #288	; 0x120
c2004afc:	e14320d8 	ldrd	r2, [r3, #-8]
c2004b00:	e1923003 	orrs	r3, r2, r3
c2004b04:	0a000007 	beq	c2004b28 <tryrtos_tick_handler+0x118>
c2004b08:	e51b3024 	ldr	r3, [fp, #-36]	; 0xffffffdc
c2004b0c:	e2833e12 	add	r3, r3, #288	; 0x120
c2004b10:	e14320d8 	ldrd	r2, [r3, #-8]
c2004b14:	e2524001 	subs	r4, r2, #1
c2004b18:	e2c35000 	sbc	r5, r3, #0
c2004b1c:	e51b3024 	ldr	r3, [fp, #-36]	; 0xffffffdc
c2004b20:	e2833e12 	add	r3, r3, #288	; 0x120
c2004b24:	e14340f8 	strd	r4, [r3, #-8]
c2004b28:	e51b3024 	ldr	r3, [fp, #-36]	; 0xffffffdc
c2004b2c:	e2833e12 	add	r3, r3, #288	; 0x120
c2004b30:	e14320d8 	ldrd	r2, [r3, #-8]
c2004b34:	e1923003 	orrs	r3, r2, r3
c2004b38:	1a00000c 	bne	c2004b70 <tryrtos_tick_handler+0x160>
c2004b3c:	e51b3024 	ldr	r3, [fp, #-36]	; 0xffffffdc
c2004b40:	e3a02002 	mov	r2, #2
c2004b44:	e5c32129 	strb	r2, [r3, #297]	; 0x129
c2004b48:	e51b3024 	ldr	r3, [fp, #-36]	; 0xffffffdc
c2004b4c:	e2830f4b 	add	r0, r3, #300	; 0x12c
c2004b50:	e51b3024 	ldr	r3, [fp, #-36]	; 0xffffffdc
c2004b54:	e5d33104 	ldrb	r3, [r3, #260]	; 0x104
c2004b58:	e1a02183 	lsl	r2, r3, #3
c2004b5c:	e30d3fc0 	movw	r3, #57280	; 0xdfc0
c2004b60:	e34c3201 	movt	r3, #49665	; 0xc201
c2004b64:	e0823003 	add	r3, r2, r3
c2004b68:	e1a01003 	mov	r1, r3
c2004b6c:	ebffef6c 	bl	c2000924 <libc_list_move>
c2004b70:	e51b3020 	ldr	r3, [fp, #-32]	; 0xffffffe0
c2004b74:	e5933004 	ldr	r3, [r3, #4]
c2004b78:	e50b3020 	str	r3, [fp, #-32]	; 0xffffffe0
c2004b7c:	e30e1040 	movw	r1, #57408	; 0xe040
c2004b80:	e34c1201 	movt	r1, #49665	; 0xc201
c2004b84:	e51b0020 	ldr	r0, [fp, #-32]	; 0xffffffe0
c2004b88:	ebffef77 	bl	c200096c <libc_list_is_head>
c2004b8c:	e1a03000 	mov	r3, r0
c2004b90:	e2233001 	eor	r3, r3, #1
c2004b94:	e6ef3073 	uxtb	r3, r3
c2004b98:	e3530000 	cmp	r3, #0
c2004b9c:	1affffcf 	bne	c2004ae0 <tryrtos_tick_handler+0xd0>
c2004ba0:	ea000000 	b	c2004ba8 <tryrtos_tick_handler+0x198>
c2004ba4:	e320f000 	nop	{0}
c2004ba8:	e24bd01c 	sub	sp, fp, #28
c2004bac:	e8bd8bf0 	pop	{r4, r5, r6, r7, r8, r9, fp, pc}

c2004bb0 <tryrtos_idle_entry>:
c2004bb0:	e92d4830 	push	{r4, r5, fp, lr}
c2004bb4:	e28db00c 	add	fp, sp, #12
c2004bb8:	e24dd018 	sub	sp, sp, #24
c2004bbc:	e50b0020 	str	r0, [fp, #-32]	; 0xffffffe0
c2004bc0:	e51b0020 	ldr	r0, [fp, #-32]	; 0xffffffe0
c2004bc4:	ebfffa93 	bl	c2003618 <tryrtos_idle_entry_call_back>
c2004bc8:	e30d3fb0 	movw	r3, #57264	; 0xdfb0
c2004bcc:	e34c3201 	movt	r3, #49665	; 0xc201
c2004bd0:	e1c300d0 	ldrd	r0, [r3]
c2004bd4:	e30e3048 	movw	r3, #57416	; 0xe048
c2004bd8:	e34c3201 	movt	r3, #49665	; 0xc201
c2004bdc:	e2833e12 	add	r3, r3, #288	; 0x120
c2004be0:	e1c320d0 	ldrd	r2, [r3]
c2004be4:	e0504002 	subs	r4, r0, r2
c2004be8:	e0c15003 	sbc	r5, r1, r3
c2004bec:	e14b41f4 	strd	r4, [fp, #-20]	; 0xffffffec
c2004bf0:	e30d3fb0 	movw	r3, #57264	; 0xdfb0
c2004bf4:	e34c3201 	movt	r3, #49665	; 0xc201
c2004bf8:	e1c320d0 	ldrd	r2, [r3]
c2004bfc:	e14b01d4 	ldrd	r0, [fp, #-20]	; 0xffffffec
c2004c00:	fa0000c5 	blx	c2004f1c <__aeabi_uldivmod>
c2004c04:	e1a02000 	mov	r2, r0
c2004c08:	e1a03001 	mov	r3, r1
c2004c0c:	e1a03002 	mov	r3, r2
c2004c10:	e50b3018 	str	r3, [fp, #-24]	; 0xffffffe8
c2004c14:	e51b1018 	ldr	r1, [fp, #-24]	; 0xffffffe8
c2004c18:	e3050340 	movw	r0, #21312	; 0x5340
c2004c1c:	e34c0200 	movt	r0, #49664	; 0xc200
c2004c20:	ebfff8f3 	bl	c2002ff4 <printf_>
c2004c24:	eaffffe7 	b	c2004bc8 <tryrtos_idle_entry+0x18>

c2004c28 <tryrtos_kernel_init>:
c2004c28:	e92d4800 	push	{fp, lr}
c2004c2c:	e28db004 	add	fp, sp, #4
c2004c30:	ebffff04 	bl	c2004848 <tryrtos_thread_init>
c2004c34:	e320f000 	nop	{0}
c2004c38:	e8bd8800 	pop	{fp, pc}

c2004c3c <tryrtos_kernel_start>:
c2004c3c:	e92d4800 	push	{fp, lr}
c2004c40:	e28db004 	add	fp, sp, #4
c2004c44:	e24dd010 	sub	sp, sp, #16
c2004c48:	e3a03901 	mov	r3, #16384	; 0x4000
c2004c4c:	e58d3008 	str	r3, [sp, #8]
c2004c50:	e30e3190 	movw	r3, #57744	; 0xe190
c2004c54:	e34c3201 	movt	r3, #49665	; 0xc201
c2004c58:	e58d3004 	str	r3, [sp, #4]
c2004c5c:	e3043bb0 	movw	r3, #19376	; 0x4bb0
c2004c60:	e34c3200 	movt	r3, #49664	; 0xc200
c2004c64:	e58d3000 	str	r3, [sp]
c2004c68:	e3a03000 	mov	r3, #0
c2004c6c:	e3a0200f 	mov	r2, #15
c2004c70:	e3051354 	movw	r1, #21332	; 0x5354
c2004c74:	e34c1200 	movt	r1, #49664	; 0xc200
c2004c78:	e30e0048 	movw	r0, #57416	; 0xe048
c2004c7c:	e34c0201 	movt	r0, #49665	; 0xc201
c2004c80:	ebfffe90 	bl	c20046c8 <tryrtos_thread_create>
c2004c84:	e30e0048 	movw	r0, #57416	; 0xe048
c2004c88:	e34c0201 	movt	r0, #49665	; 0xc201
c2004c8c:	ebffff0a 	bl	c20048bc <tryrtos_thread_switch>
c2004c90:	e320f000 	nop	{0}
c2004c94:	e24bd004 	sub	sp, fp, #4
c2004c98:	e8bd8800 	pop	{fp, pc}
c2004c9c:	00000000 	andeq	r0, r0, r0

c2004ca0 <__udivsi3>:
c2004ca0:	1e4a      	subs	r2, r1, #1
c2004ca2:	bf08      	it	eq
c2004ca4:	4770      	bxeq	lr
c2004ca6:	f0c0 8124 	bcc.w	c2004ef2 <__udivsi3+0x252>
c2004caa:	4288      	cmp	r0, r1
c2004cac:	f240 8116 	bls.w	c2004edc <__udivsi3+0x23c>
c2004cb0:	4211      	tst	r1, r2
c2004cb2:	f000 8117 	beq.w	c2004ee4 <__udivsi3+0x244>
c2004cb6:	fab0 f380 	clz	r3, r0
c2004cba:	fab1 f281 	clz	r2, r1
c2004cbe:	eba2 0303 	sub.w	r3, r2, r3
c2004cc2:	f1c3 031f 	rsb	r3, r3, #31
c2004cc6:	a204      	add	r2, pc, #16	; (adr r2, c2004cd8 <__udivsi3+0x38>)
c2004cc8:	eb02 1303 	add.w	r3, r2, r3, lsl #4
c2004ccc:	f04f 0200 	mov.w	r2, #0
c2004cd0:	469f      	mov	pc, r3
c2004cd2:	bf00      	nop
c2004cd4:	f3af 8000 	nop.w
c2004cd8:	ebb0 7fc1 	cmp.w	r0, r1, lsl #31
c2004cdc:	bf00      	nop
c2004cde:	eb42 0202 	adc.w	r2, r2, r2
c2004ce2:	bf28      	it	cs
c2004ce4:	eba0 70c1 	subcs.w	r0, r0, r1, lsl #31
c2004ce8:	ebb0 7f81 	cmp.w	r0, r1, lsl #30
c2004cec:	bf00      	nop
c2004cee:	eb42 0202 	adc.w	r2, r2, r2
c2004cf2:	bf28      	it	cs
c2004cf4:	eba0 7081 	subcs.w	r0, r0, r1, lsl #30
c2004cf8:	ebb0 7f41 	cmp.w	r0, r1, lsl #29
c2004cfc:	bf00      	nop
c2004cfe:	eb42 0202 	adc.w	r2, r2, r2
c2004d02:	bf28      	it	cs
c2004d04:	eba0 7041 	subcs.w	r0, r0, r1, lsl #29
c2004d08:	ebb0 7f01 	cmp.w	r0, r1, lsl #28
c2004d0c:	bf00      	nop
c2004d0e:	eb42 0202 	adc.w	r2, r2, r2
c2004d12:	bf28      	it	cs
c2004d14:	eba0 7001 	subcs.w	r0, r0, r1, lsl #28
c2004d18:	ebb0 6fc1 	cmp.w	r0, r1, lsl #27
c2004d1c:	bf00      	nop
c2004d1e:	eb42 0202 	adc.w	r2, r2, r2
c2004d22:	bf28      	it	cs
c2004d24:	eba0 60c1 	subcs.w	r0, r0, r1, lsl #27
c2004d28:	ebb0 6f81 	cmp.w	r0, r1, lsl #26
c2004d2c:	bf00      	nop
c2004d2e:	eb42 0202 	adc.w	r2, r2, r2
c2004d32:	bf28      	it	cs
c2004d34:	eba0 6081 	subcs.w	r0, r0, r1, lsl #26
c2004d38:	ebb0 6f41 	cmp.w	r0, r1, lsl #25
c2004d3c:	bf00      	nop
c2004d3e:	eb42 0202 	adc.w	r2, r2, r2
c2004d42:	bf28      	it	cs
c2004d44:	eba0 6041 	subcs.w	r0, r0, r1, lsl #25
c2004d48:	ebb0 6f01 	cmp.w	r0, r1, lsl #24
c2004d4c:	bf00      	nop
c2004d4e:	eb42 0202 	adc.w	r2, r2, r2
c2004d52:	bf28      	it	cs
c2004d54:	eba0 6001 	subcs.w	r0, r0, r1, lsl #24
c2004d58:	ebb0 5fc1 	cmp.w	r0, r1, lsl #23
c2004d5c:	bf00      	nop
c2004d5e:	eb42 0202 	adc.w	r2, r2, r2
c2004d62:	bf28      	it	cs
c2004d64:	eba0 50c1 	subcs.w	r0, r0, r1, lsl #23
c2004d68:	ebb0 5f81 	cmp.w	r0, r1, lsl #22
c2004d6c:	bf00      	nop
c2004d6e:	eb42 0202 	adc.w	r2, r2, r2
c2004d72:	bf28      	it	cs
c2004d74:	eba0 5081 	subcs.w	r0, r0, r1, lsl #22
c2004d78:	ebb0 5f41 	cmp.w	r0, r1, lsl #21
c2004d7c:	bf00      	nop
c2004d7e:	eb42 0202 	adc.w	r2, r2, r2
c2004d82:	bf28      	it	cs
c2004d84:	eba0 5041 	subcs.w	r0, r0, r1, lsl #21
c2004d88:	ebb0 5f01 	cmp.w	r0, r1, lsl #20
c2004d8c:	bf00      	nop
c2004d8e:	eb42 0202 	adc.w	r2, r2, r2
c2004d92:	bf28      	it	cs
c2004d94:	eba0 5001 	subcs.w	r0, r0, r1, lsl #20
c2004d98:	ebb0 4fc1 	cmp.w	r0, r1, lsl #19
c2004d9c:	bf00      	nop
c2004d9e:	eb42 0202 	adc.w	r2, r2, r2
c2004da2:	bf28      	it	cs
c2004da4:	eba0 40c1 	subcs.w	r0, r0, r1, lsl #19
c2004da8:	ebb0 4f81 	cmp.w	r0, r1, lsl #18
c2004dac:	bf00      	nop
c2004dae:	eb42 0202 	adc.w	r2, r2, r2
c2004db2:	bf28      	it	cs
c2004db4:	eba0 4081 	subcs.w	r0, r0, r1, lsl #18
c2004db8:	ebb0 4f41 	cmp.w	r0, r1, lsl #17
c2004dbc:	bf00      	nop
c2004dbe:	eb42 0202 	adc.w	r2, r2, r2
c2004dc2:	bf28      	it	cs
c2004dc4:	eba0 4041 	subcs.w	r0, r0, r1, lsl #17
c2004dc8:	ebb0 4f01 	cmp.w	r0, r1, lsl #16
c2004dcc:	bf00      	nop
c2004dce:	eb42 0202 	adc.w	r2, r2, r2
c2004dd2:	bf28      	it	cs
c2004dd4:	eba0 4001 	subcs.w	r0, r0, r1, lsl #16
c2004dd8:	ebb0 3fc1 	cmp.w	r0, r1, lsl #15
c2004ddc:	bf00      	nop
c2004dde:	eb42 0202 	adc.w	r2, r2, r2
c2004de2:	bf28      	it	cs
c2004de4:	eba0 30c1 	subcs.w	r0, r0, r1, lsl #15
c2004de8:	ebb0 3f81 	cmp.w	r0, r1, lsl #14
c2004dec:	bf00      	nop
c2004dee:	eb42 0202 	adc.w	r2, r2, r2
c2004df2:	bf28      	it	cs
c2004df4:	eba0 3081 	subcs.w	r0, r0, r1, lsl #14
c2004df8:	ebb0 3f41 	cmp.w	r0, r1, lsl #13
c2004dfc:	bf00      	nop
c2004dfe:	eb42 0202 	adc.w	r2, r2, r2
c2004e02:	bf28      	it	cs
c2004e04:	eba0 3041 	subcs.w	r0, r0, r1, lsl #13
c2004e08:	ebb0 3f01 	cmp.w	r0, r1, lsl #12
c2004e0c:	bf00      	nop
c2004e0e:	eb42 0202 	adc.w	r2, r2, r2
c2004e12:	bf28      	it	cs
c2004e14:	eba0 3001 	subcs.w	r0, r0, r1, lsl #12
c2004e18:	ebb0 2fc1 	cmp.w	r0, r1, lsl #11
c2004e1c:	bf00      	nop
c2004e1e:	eb42 0202 	adc.w	r2, r2, r2
c2004e22:	bf28      	it	cs
c2004e24:	eba0 20c1 	subcs.w	r0, r0, r1, lsl #11
c2004e28:	ebb0 2f81 	cmp.w	r0, r1, lsl #10
c2004e2c:	bf00      	nop
c2004e2e:	eb42 0202 	adc.w	r2, r2, r2
c2004e32:	bf28      	it	cs
c2004e34:	eba0 2081 	subcs.w	r0, r0, r1, lsl #10
c2004e38:	ebb0 2f41 	cmp.w	r0, r1, lsl #9
c2004e3c:	bf00      	nop
c2004e3e:	eb42 0202 	adc.w	r2, r2, r2
c2004e42:	bf28      	it	cs
c2004e44:	eba0 2041 	subcs.w	r0, r0, r1, lsl #9
c2004e48:	ebb0 2f01 	cmp.w	r0, r1, lsl #8
c2004e4c:	bf00      	nop
c2004e4e:	eb42 0202 	adc.w	r2, r2, r2
c2004e52:	bf28      	it	cs
c2004e54:	eba0 2001 	subcs.w	r0, r0, r1, lsl #8
c2004e58:	ebb0 1fc1 	cmp.w	r0, r1, lsl #7
c2004e5c:	bf00      	nop
c2004e5e:	eb42 0202 	adc.w	r2, r2, r2
c2004e62:	bf28      	it	cs
c2004e64:	eba0 10c1 	subcs.w	r0, r0, r1, lsl #7
c2004e68:	ebb0 1f81 	cmp.w	r0, r1, lsl #6
c2004e6c:	bf00      	nop
c2004e6e:	eb42 0202 	adc.w	r2, r2, r2
c2004e72:	bf28      	it	cs
c2004e74:	eba0 1081 	subcs.w	r0, r0, r1, lsl #6
c2004e78:	ebb0 1f41 	cmp.w	r0, r1, lsl #5
c2004e7c:	bf00      	nop
c2004e7e:	eb42 0202 	adc.w	r2, r2, r2
c2004e82:	bf28      	it	cs
c2004e84:	eba0 1041 	subcs.w	r0, r0, r1, lsl #5
c2004e88:	ebb0 1f01 	cmp.w	r0, r1, lsl #4
c2004e8c:	bf00      	nop
c2004e8e:	eb42 0202 	adc.w	r2, r2, r2
c2004e92:	bf28      	it	cs
c2004e94:	eba0 1001 	subcs.w	r0, r0, r1, lsl #4
c2004e98:	ebb0 0fc1 	cmp.w	r0, r1, lsl #3
c2004e9c:	bf00      	nop
c2004e9e:	eb42 0202 	adc.w	r2, r2, r2
c2004ea2:	bf28      	it	cs
c2004ea4:	eba0 00c1 	subcs.w	r0, r0, r1, lsl #3
c2004ea8:	ebb0 0f81 	cmp.w	r0, r1, lsl #2
c2004eac:	bf00      	nop
c2004eae:	eb42 0202 	adc.w	r2, r2, r2
c2004eb2:	bf28      	it	cs
c2004eb4:	eba0 0081 	subcs.w	r0, r0, r1, lsl #2
c2004eb8:	ebb0 0f41 	cmp.w	r0, r1, lsl #1
c2004ebc:	bf00      	nop
c2004ebe:	eb42 0202 	adc.w	r2, r2, r2
c2004ec2:	bf28      	it	cs
c2004ec4:	eba0 0041 	subcs.w	r0, r0, r1, lsl #1
c2004ec8:	ebb0 0f01 	cmp.w	r0, r1
c2004ecc:	bf00      	nop
c2004ece:	eb42 0202 	adc.w	r2, r2, r2
c2004ed2:	bf28      	it	cs
c2004ed4:	eba0 0001 	subcs.w	r0, r0, r1
c2004ed8:	4610      	mov	r0, r2
c2004eda:	4770      	bx	lr
c2004edc:	bf0c      	ite	eq
c2004ede:	2001      	moveq	r0, #1
c2004ee0:	2000      	movne	r0, #0
c2004ee2:	4770      	bx	lr
c2004ee4:	fab1 f281 	clz	r2, r1
c2004ee8:	f1c2 021f 	rsb	r2, r2, #31
c2004eec:	fa20 f002 	lsr.w	r0, r0, r2
c2004ef0:	4770      	bx	lr
c2004ef2:	b108      	cbz	r0, c2004ef8 <__udivsi3+0x258>
c2004ef4:	f04f 30ff 	mov.w	r0, #4294967295	; 0xffffffff
c2004ef8:	f000 b80e 	b.w	c2004f18 <__aeabi_idiv0>

c2004efc <__aeabi_uidivmod>:
c2004efc:	2900      	cmp	r1, #0
c2004efe:	d0f8      	beq.n	c2004ef2 <__udivsi3+0x252>
c2004f00:	e92d 4003 	stmdb	sp!, {r0, r1, lr}
c2004f04:	f7ff fecc 	bl	c2004ca0 <__udivsi3>
c2004f08:	e8bd 4006 	ldmia.w	sp!, {r1, r2, lr}
c2004f0c:	fb02 f300 	mul.w	r3, r2, r0
c2004f10:	eba1 0103 	sub.w	r1, r1, r3
c2004f14:	4770      	bx	lr
c2004f16:	bf00      	nop

c2004f18 <__aeabi_idiv0>:
c2004f18:	4770      	bx	lr
c2004f1a:	bf00      	nop

c2004f1c <__aeabi_uldivmod>:
c2004f1c:	b953      	cbnz	r3, c2004f34 <__aeabi_uldivmod+0x18>
c2004f1e:	b94a      	cbnz	r2, c2004f34 <__aeabi_uldivmod+0x18>
c2004f20:	2900      	cmp	r1, #0
c2004f22:	bf08      	it	eq
c2004f24:	2800      	cmpeq	r0, #0
c2004f26:	bf1c      	itt	ne
c2004f28:	f04f 31ff 	movne.w	r1, #4294967295	; 0xffffffff
c2004f2c:	f04f 30ff 	movne.w	r0, #4294967295	; 0xffffffff
c2004f30:	f7ff bff2 	b.w	c2004f18 <__aeabi_idiv0>
c2004f34:	f1ad 0c08 	sub.w	ip, sp, #8
c2004f38:	e96d ce04 	strd	ip, lr, [sp, #-16]!
c2004f3c:	f000 f806 	bl	c2004f4c <__udivmoddi4>
c2004f40:	f8dd e004 	ldr.w	lr, [sp, #4]
c2004f44:	e9dd 2302 	ldrd	r2, r3, [sp, #8]
c2004f48:	b004      	add	sp, #16
c2004f4a:	4770      	bx	lr

c2004f4c <__udivmoddi4>:
c2004f4c:	4290      	cmp	r0, r2
c2004f4e:	e92d 47f0 	stmdb	sp!, {r4, r5, r6, r7, r8, r9, sl, lr}
c2004f52:	eb71 0403 	sbcs.w	r4, r1, r3
c2004f56:	bf38      	it	cc
c2004f58:	2500      	movcc	r5, #0
c2004f5a:	9f08      	ldr	r7, [sp, #32]
c2004f5c:	bf38      	it	cc
c2004f5e:	462e      	movcc	r6, r5
c2004f60:	d369      	bcc.n	c2005036 <__udivmoddi4+0xea>
c2004f62:	fab3 f583 	clz	r5, r3
c2004f66:	2b00      	cmp	r3, #0
c2004f68:	d070      	beq.n	c200504c <__udivmoddi4+0x100>
c2004f6a:	fab1 f481 	clz	r4, r1
c2004f6e:	2900      	cmp	r1, #0
c2004f70:	d068      	beq.n	c2005044 <__udivmoddi4+0xf8>
c2004f72:	1b2c      	subs	r4, r5, r4
c2004f74:	f1a4 0820 	sub.w	r8, r4, #32
c2004f78:	f1c4 0920 	rsb	r9, r4, #32
c2004f7c:	40a3      	lsls	r3, r4
c2004f7e:	fa02 f508 	lsl.w	r5, r2, r8
c2004f82:	fa02 fe04 	lsl.w	lr, r2, r4
c2004f86:	432b      	orrs	r3, r5
c2004f88:	fa22 f209 	lsr.w	r2, r2, r9
c2004f8c:	4570      	cmp	r0, lr
c2004f8e:	ea43 0302 	orr.w	r3, r3, r2
c2004f92:	eb71 0203 	sbcs.w	r2, r1, r3
c2004f96:	bf3c      	itt	cc
c2004f98:	2500      	movcc	r5, #0
c2004f9a:	462e      	movcc	r6, r5
c2004f9c:	d30a      	bcc.n	c2004fb4 <__udivmoddi4+0x68>
c2004f9e:	2501      	movs	r5, #1
c2004fa0:	ebb0 000e 	subs.w	r0, r0, lr
c2004fa4:	eb61 0103 	sbc.w	r1, r1, r3
c2004fa8:	fa05 f608 	lsl.w	r6, r5, r8
c2004fac:	fa25 f209 	lsr.w	r2, r5, r9
c2004fb0:	4316      	orrs	r6, r2
c2004fb2:	40a5      	lsls	r5, r4
c2004fb4:	2c00      	cmp	r4, #0
c2004fb6:	d03e      	beq.n	c2005036 <__udivmoddi4+0xea>
c2004fb8:	ea4f 0e5e 	mov.w	lr, lr, lsr #1
c2004fbc:	ea4f 0c53 	mov.w	ip, r3, lsr #1
c2004fc0:	ea4e 7ec3 	orr.w	lr, lr, r3, lsl #31
c2004fc4:	46a2      	mov	sl, r4
c2004fc6:	e00c      	b.n	c2004fe2 <__udivmoddi4+0x96>
c2004fc8:	ebb0 030e 	subs.w	r3, r0, lr
c2004fcc:	eb61 020c 	sbc.w	r2, r1, ip
c2004fd0:	18db      	adds	r3, r3, r3
c2004fd2:	eb42 0102 	adc.w	r1, r2, r2
c2004fd6:	1c58      	adds	r0, r3, #1
c2004fd8:	f141 0100 	adc.w	r1, r1, #0
c2004fdc:	f1ba 0a01 	subs.w	sl, sl, #1
c2004fe0:	d008      	beq.n	c2004ff4 <__udivmoddi4+0xa8>
c2004fe2:	4570      	cmp	r0, lr
c2004fe4:	eb71 030c 	sbcs.w	r3, r1, ip
c2004fe8:	d2ee      	bcs.n	c2004fc8 <__udivmoddi4+0x7c>
c2004fea:	1800      	adds	r0, r0, r0
c2004fec:	4149      	adcs	r1, r1
c2004fee:	f1ba 0a01 	subs.w	sl, sl, #1
c2004ff2:	d1f6      	bne.n	c2004fe2 <__udivmoddi4+0x96>
c2004ff4:	182d      	adds	r5, r5, r0
c2004ff6:	fa01 f909 	lsl.w	r9, r1, r9
c2004ffa:	fa20 f004 	lsr.w	r0, r0, r4
c2004ffe:	eb46 0601 	adc.w	r6, r6, r1
c2005002:	fa21 f808 	lsr.w	r8, r1, r8
c2005006:	ea40 0009 	orr.w	r0, r0, r9
c200500a:	ea40 0008 	orr.w	r0, r0, r8
c200500e:	40e1      	lsrs	r1, r4
c2005010:	f1a4 0e20 	sub.w	lr, r4, #32
c2005014:	f1c4 0c20 	rsb	ip, r4, #32
c2005018:	fa01 f204 	lsl.w	r2, r1, r4
c200501c:	fa00 fe0e 	lsl.w	lr, r0, lr
c2005020:	fa20 fc0c 	lsr.w	ip, r0, ip
c2005024:	ea42 020e 	orr.w	r2, r2, lr
c2005028:	fa00 f304 	lsl.w	r3, r0, r4
c200502c:	ea42 020c 	orr.w	r2, r2, ip
c2005030:	1aed      	subs	r5, r5, r3
c2005032:	eb66 0602 	sbc.w	r6, r6, r2
c2005036:	b10f      	cbz	r7, c200503c <__udivmoddi4+0xf0>
c2005038:	e9c7 0100 	strd	r0, r1, [r7]
c200503c:	4628      	mov	r0, r5
c200503e:	4631      	mov	r1, r6
c2005040:	e8bd 87f0 	ldmia.w	sp!, {r4, r5, r6, r7, r8, r9, sl, pc}
c2005044:	fab0 f480 	clz	r4, r0
c2005048:	3420      	adds	r4, #32
c200504a:	e792      	b.n	c2004f72 <__udivmoddi4+0x26>
c200504c:	fab2 f482 	clz	r4, r2
c2005050:	f104 0520 	add.w	r5, r4, #32
c2005054:	fab1 f481 	clz	r4, r1
c2005058:	2900      	cmp	r1, #0
c200505a:	d18a      	bne.n	c2004f72 <__udivmoddi4+0x26>
c200505c:	e7f2      	b.n	c2005044 <__udivmoddi4+0xf8>
c200505e:	bf00      	nop

Disassembly of section .rodata:

c2005060 <pow10.0-0xb8>:
	...
c2005100:	006e616e 	rsbeq	r6, lr, lr, ror #2
c2005104:	2d696e66 	stclcs	14, cr6, [r9, #-408]!	; 0xfffffe68
c2005108:	00000000 	andeq	r0, r0, r0
c200510c:	2b696e66 	blcs	c3a60aac <_stack_end+0x1a3a8ac>
c2005110:	00000000 	andeq	r0, r0, r0
c2005114:	00696e66 	rsbeq	r6, r9, r6, ror #28

c2005118 <pow10.0>:
c2005118:	00000000 	andeq	r0, r0, r0
c200511c:	3ff00000 	svccc	0x00f00000	; IMB
c2005120:	00000000 	andeq	r0, r0, r0
c2005124:	40240000 	eormi	r0, r4, r0
c2005128:	00000000 	andeq	r0, r0, r0
c200512c:	40590000 	subsmi	r0, r9, r0
c2005130:	00000000 	andeq	r0, r0, r0
c2005134:	408f4000 	addmi	r4, pc, r0
c2005138:	00000000 	andeq	r0, r0, r0
c200513c:	40c38800 	sbcmi	r8, r3, r0, lsl #16
c2005140:	00000000 	andeq	r0, r0, r0
c2005144:	40f86a00 	rscsmi	r6, r8, r0, lsl #20
c2005148:	00000000 	andeq	r0, r0, r0
c200514c:	412e8480 	smlawbmi	lr, r0, r4, r8
c2005150:	00000000 	andeq	r0, r0, r0
c2005154:	416312d0 	ldrdmi	r1, [r3, #-32]!	; 0xffffffe0
c2005158:	00000000 	andeq	r0, r0, r0
c200515c:	4197d784 	orrsmi	sp, r7, r4, lsl #15
c2005160:	00000000 	andeq	r0, r0, r0
c2005164:	41cdcd65 	bicmi	ip, sp, r5, ror #26

c2005168 <default_uart>:
c2005168:	00000100 	andeq	r0, r0, r0, lsl #2
c200516c:	0001c200 	andeq	ip, r1, r0, lsl #4
c2005170:	00000300 	andeq	r0, r0, r0, lsl #6
c2005174:	00000003 	andeq	r0, r0, r3
c2005178:	65680a0d 	strbvs	r0, [r8, #-2573]!	; 0xfffff5f3
c200517c:	2c6f6c6c 	stclcs	12, cr6, [pc], #-432	; c2004fd4 <__udivmoddi4+0x88>
c2005180:	65687420 	strbvs	r7, [r8, #-1056]!	; 0xfffffbe0
c2005184:	616f6220 	cmnvs	pc, r0, lsr #4
c2005188:	73206472 			; <UNDEFINED> instruction: 0x73206472
c200518c:	74726174 	ldrbtvc	r6, [r2], #-372	; 0xfffffe8c
c2005190:	73206465 			; <UNDEFINED> instruction: 0x73206465
c2005194:	65636375 	strbvs	r6, [r3, #-885]!	; 0xfffffc8b
c2005198:	75667373 	strbvc	r7, [r6, #-883]!	; 0xfffffc8d
c200519c:	21796c6c 	cmncs	r9, ip, ror #24
c20051a0:	0a0d2121 	beq	c234d62c <_stack_end+0x32742c>
c20051a4:	00000000 	andeq	r0, r0, r0
c20051a8:	65726874 	ldrbvs	r6, [r2, #-2164]!	; 0xfffff78c
c20051ac:	30206461 	eorcc	r6, r0, r1, ror #8
c20051b0:	20736920 	rsbscs	r6, r3, r0, lsr #18
c20051b4:	6e6e7572 	mcrvs	5, 3, r7, cr14, cr2, {3}
c20051b8:	0d676e69 	stcleq	14, cr6, [r7, #-420]!	; 0xfffffe5c
c20051bc:	0000000a 	andeq	r0, r0, sl
c20051c0:	65726874 	ldrbvs	r6, [r2, #-2164]!	; 0xfffff78c
c20051c4:	31206461 			; <UNDEFINED> instruction: 0x31206461
c20051c8:	20736920 	rsbscs	r6, r3, r0, lsr #18
c20051cc:	6e6e7572 	mcrvs	5, 3, r7, cr14, cr2, {3}
c20051d0:	0d676e69 	stcleq	14, cr6, [r7, #-420]!	; 0xfffffe5c
c20051d4:	0000000a 	andeq	r0, r0, sl
c20051d8:	65726874 	ldrbvs	r6, [r2, #-2164]!	; 0xfffff78c
c20051dc:	32206461 	eorcc	r6, r0, #1627389952	; 0x61000000
c20051e0:	20736920 	rsbscs	r6, r3, r0, lsr #18
c20051e4:	6e6e7572 	mcrvs	5, 3, r7, cr14, cr2, {3}
c20051e8:	0d676e69 	stcleq	14, cr6, [r7, #-420]!	; 0xfffffe5c
c20051ec:	0000000a 	andeq	r0, r0, sl
c20051f0:	65726874 	ldrbvs	r6, [r2, #-2164]!	; 0xfffff78c
c20051f4:	33206461 			; <UNDEFINED> instruction: 0x33206461
c20051f8:	20736920 	rsbscs	r6, r3, r0, lsr #18
c20051fc:	6e6e7572 	mcrvs	5, 3, r7, cr14, cr2, {3}
c2005200:	0d676e69 	stcleq	14, cr6, [r7, #-420]!	; 0xfffffe5c
c2005204:	0000000a 	andeq	r0, r0, sl
c2005208:	65726874 	ldrbvs	r6, [r2, #-2164]!	; 0xfffff78c
c200520c:	34206461 	strtcc	r6, [r0], #-1121	; 0xfffffb9f
c2005210:	20736920 	rsbscs	r6, r3, r0, lsr #18
c2005214:	6e6e7572 	mcrvs	5, 3, r7, cr14, cr2, {3}
c2005218:	0d676e69 	stcleq	14, cr6, [r7, #-420]!	; 0xfffffe5c
c200521c:	0000000a 	andeq	r0, r0, sl
c2005220:	65726874 	ldrbvs	r6, [r2, #-2164]!	; 0xfffff78c
c2005224:	35206461 	strcc	r6, [r0, #-1121]!	; 0xfffffb9f
c2005228:	20736920 	rsbscs	r6, r3, r0, lsr #18
c200522c:	6e6e7572 	mcrvs	5, 3, r7, cr14, cr2, {3}
c2005230:	0d676e69 	stcleq	14, cr6, [r7, #-420]!	; 0xfffffe5c
c2005234:	0000000a 	andeq	r0, r0, sl
c2005238:	72797274 	rsbsvc	r7, r9, #116, 4	; 0x40000007
c200523c:	20736f74 	rsbscs	r6, r3, r4, ror pc
c2005240:	68742030 	ldmdavs	r4!, {r4, r5, sp}^
c2005244:	64616572 	strbtvs	r6, [r1], #-1394	; 0xfffffa8e
c2005248:	00000000 	andeq	r0, r0, r0
c200524c:	72797274 	rsbsvc	r7, r9, #116, 4	; 0x40000007
c2005250:	20736f74 	rsbscs	r6, r3, r4, ror pc
c2005254:	68742031 	ldmdavs	r4!, {r0, r4, r5, sp}^
c2005258:	64616572 	strbtvs	r6, [r1], #-1394	; 0xfffffa8e
c200525c:	00000000 	andeq	r0, r0, r0
c2005260:	72797274 	rsbsvc	r7, r9, #116, 4	; 0x40000007
c2005264:	20736f74 	rsbscs	r6, r3, r4, ror pc
c2005268:	68742032 	ldmdavs	r4!, {r1, r4, r5, sp}^
c200526c:	64616572 	strbtvs	r6, [r1], #-1394	; 0xfffffa8e
c2005270:	00000000 	andeq	r0, r0, r0
c2005274:	72797274 	rsbsvc	r7, r9, #116, 4	; 0x40000007
c2005278:	20736f74 	rsbscs	r6, r3, r4, ror pc
c200527c:	68742033 	ldmdavs	r4!, {r0, r1, r4, r5, sp}^
c2005280:	64616572 	strbtvs	r6, [r1], #-1394	; 0xfffffa8e
c2005284:	00000000 	andeq	r0, r0, r0
c2005288:	72797274 	rsbsvc	r7, r9, #116, 4	; 0x40000007
c200528c:	20736f74 	rsbscs	r6, r3, r4, ror pc
c2005290:	68742034 	ldmdavs	r4!, {r2, r4, r5, sp}^
c2005294:	64616572 	strbtvs	r6, [r1], #-1394	; 0xfffffa8e
c2005298:	00000000 	andeq	r0, r0, r0
c200529c:	72797274 	rsbsvc	r7, r9, #116, 4	; 0x40000007
c20052a0:	20736f74 	rsbscs	r6, r3, r4, ror pc
c20052a4:	68742035 	ldmdavs	r4!, {r0, r2, r4, r5, sp}^
c20052a8:	64616572 	strbtvs	r6, [r1], #-1394	; 0xfffffa8e
c20052ac:	00000000 	andeq	r0, r0, r0

c20052b0 <uart_baudrate_array>:
c20052b0:	0000012c 	andeq	r0, r0, ip, lsr #2
c20052b4:	00000027 	andeq	r0, r0, r7, lsr #32
c20052b8:	00000010 	andeq	r0, r0, r0, lsl r0
c20052bc:	00000258 	andeq	r0, r0, r8, asr r2
c20052c0:	00000013 	andeq	r0, r0, r3, lsl r0
c20052c4:	00000088 	andeq	r0, r0, r8, lsl #1
c20052c8:	000004b0 			; <UNDEFINED> instruction: 0x000004b0
c20052cc:	00000009 	andeq	r0, r0, r9
c20052d0:	000000c4 	andeq	r0, r0, r4, asr #1
c20052d4:	00000960 	andeq	r0, r0, r0, ror #18
c20052d8:	00000004 	andeq	r0, r0, r4
c20052dc:	000000e2 	andeq	r0, r0, r2, ror #1
c20052e0:	000012c0 	andeq	r1, r0, r0, asr #5
c20052e4:	00000002 	andeq	r0, r0, r2
c20052e8:	00000071 	andeq	r0, r0, r1, ror r0
c20052ec:	00002580 	andeq	r2, r0, r0, lsl #11
c20052f0:	00000001 	andeq	r0, r0, r1
c20052f4:	00000038 	andeq	r0, r0, r8, lsr r0
c20052f8:	00003840 	andeq	r3, r0, r0, asr #16
c20052fc:	00000000 	andeq	r0, r0, r0
c2005300:	000000d0 	ldrdeq	r0, [r0], -r0	; <UNPREDICTABLE>
c2005304:	00004b00 	andeq	r4, r0, r0, lsl #22
c2005308:	00000000 	andeq	r0, r0, r0
c200530c:	0000009c 	muleq	r0, ip, r0
c2005310:	00007080 	andeq	r7, r0, r0, lsl #1
c2005314:	00000000 	andeq	r0, r0, r0
c2005318:	00000068 	andeq	r0, r0, r8, rrx
c200531c:	00009600 	andeq	r9, r0, r0, lsl #12
c2005320:	00000000 	andeq	r0, r0, r0
c2005324:	0000004e 	andeq	r0, r0, lr, asr #32
c2005328:	0000e100 	andeq	lr, r0, r0, lsl #2
c200532c:	00000000 	andeq	r0, r0, r0
c2005330:	00000034 	andeq	r0, r0, r4, lsr r0
c2005334:	0001c200 	andeq	ip, r1, r0, lsl #4
c2005338:	00000000 	andeq	r0, r0, r0
c200533c:	0000001a 	andeq	r0, r0, sl, lsl r0
c2005340:	20555043 	subscs	r5, r5, r3, asr #32
c2005344:	64616f6c 	strbtvs	r6, [r1], #-3948	; 0xfffff094
c2005348:	20736920 	rsbscs	r6, r3, r0, lsr #18
c200534c:	25256425 	strcs	r6, [r5, #-1061]!	; 0xfffffbdb
c2005350:	00000a0d 	andeq	r0, r0, sp, lsl #20
c2005354:	72797274 	rsbsvc	r7, r9, #116, 4	; 0x40000007
c2005358:	20736f74 	rsbscs	r6, r3, r4, ror pc
c200535c:	656c6469 	strbvs	r6, [ip, #-1129]!	; 0xfffffb97
c2005360:	72687420 	rsbvc	r7, r8, #32, 8	; 0x20000000
c2005364:	00646165 	rsbeq	r6, r4, r5, ror #2

Disassembly of section .ARM.exidx:

c2005368 <.ARM.exidx>:
c2005368:	7ffffbe4 	svcvc	0x00fffbe4
c200536c:	00000001 	andeq	r0, r0, r1

Disassembly of section .data:

c2005370 <.data>:
	...

Disassembly of section .bss:

c2005400 <arch_irq_handler_array>:
	...

c2005800 <tryrtos_thread_0_handler>:
	...

c2005948 <tryrtos_thread_1_handler>:
	...

c2005a90 <tryrtos_thread_2_handler>:
	...

c2005bd8 <tryrtos_thread_3_handler>:
	...

c2005d20 <tryrtos_thread_4_handler>:
	...

c2005e68 <tryrtos_thread_5_handler>:
	...

c2005fb0 <tryrtos_thread_0_stack>:
	...

c2009fb0 <tryrtos_thread_1_stack>:
	...

c200dfb0 <tryrtos_thread_2_stack>:
	...

c2011fb0 <tryrtos_thread_3_stack>:
	...

c2015fb0 <tryrtos_thread_4_stack>:
	...

c2019fb0 <tryrtos_thread_5_stack>:
	...

c201dfb0 <tryrtos_kernel_tick>:
	...

c201dfb8 <tryrtos_cur_handler>:
c201dfb8:	00000000 	andeq	r0, r0, r0

c201dfbc <tryrtos_need_reschedule>:
c201dfbc:	00000000 	andeq	r0, r0, r0

c201dfc0 <tryrtos_ready_array>:
	...

c201e040 <tryrtos_delay_head>:
	...

c201e048 <tryrtos_idle_handler>:
	...

c201e190 <tryrtos_idle_stack>:
	...

Disassembly of section .stack:

c2022200 <_stack_end-0x4000>:
	...

Disassembly of section .debug_info:

00000000 <.debug_info>:
       0:	000003cc 	andeq	r0, r0, ip, asr #7
       4:	00000002 	andeq	r0, r0, r2
       8:	01040000 	mrseq	r0, (UNDEF: 4)
       c:	00000018 	andeq	r0, r0, r8, lsl r0
      10:	0000fa0c 	andeq	pc, r0, ip, lsl #20
      14:	00026a00 	andeq	r6, r2, r0, lsl #20
	...
      28:	06010200 	streq	r0, [r1], -r0, lsl #4
      2c:	00000186 	andeq	r0, r0, r6, lsl #3
      30:	3d050202 	sfmcc	f0, 4, [r5, #-8]
      34:	02000002 	andeq	r0, r0, #2
      38:	02110504 	andseq	r0, r1, #4, 10	; 0x1000000
      3c:	08020000 	stmdaeq	r2, {}	; <UNPREDICTABLE>
      40:	00020c05 	andeq	r0, r2, r5, lsl #24
      44:	08010200 	stmdaeq	r1, {r9}
      48:	00000184 	andeq	r0, r0, r4, lsl #3
      4c:	62070202 	andvs	r0, r7, #536870912	; 0x20000000
      50:	02000001 	andeq	r0, r0, #1
      54:	01d90704 	bicseq	r0, r9, r4, lsl #14
      58:	08020000 	stmdaeq	r2, {}	; <UNPREDICTABLE>
      5c:	0001d407 	andeq	sp, r1, r7, lsl #8
      60:	07040200 	streq	r0, [r4, -r0, lsl #4]
      64:	000001de 	ldrdeq	r0, [r0], -lr
      68:	69050403 	stmdbvs	r5, {r0, r1, sl}
      6c:	0400746e 	streq	r7, [r0], #-1134	; 0xfffffb92
      70:	000001fd 	strdeq	r0, [r0], -sp
      74:	08060208 	stmdaeq	r6, {r3, r9}
      78:	0000009b 	muleq	r0, fp, r0
      7c:	00026505 	andeq	r6, r2, r5, lsl #10
      80:	1c080200 	sfmne	f0, 4, [r8], {-0}
      84:	0000009b 	muleq	r0, fp, r0
      88:	05002302 	streq	r2, [r0, #-770]	; 0xfffffcfe
      8c:	00000000 	andeq	r0, r0, r0
      90:	9b1c0902 	blls	7024a0 <SYS_MODE+0x702481>
      94:	02000000 	andeq	r0, r0, #0
      98:	06000423 	streq	r0, [r0], -r3, lsr #8
      9c:	00006f04 	andeq	r6, r0, r4, lsl #30
      a0:	40010700 	andmi	r0, r1, r0, lsl #14
      a4:	01000001 	tsteq	r0, r1
      a8:	d00106a9 	andle	r0, r1, r9, lsr #13
      ac:	a8000000 	stmdage	r0, {}	; <UNPREDICTABLE>
      b0:	e4c20009 	strb	r0, [r2], #9
      b4:	00c20009 	sbceq	r0, r2, r9
      b8:	01000000 	mrseq	r0, (UNDEF: 0)
      bc:	000000d0 	ldrdeq	r0, [r0], -r0	; <UNPREDICTABLE>
      c0:	0001cf08 	andeq	ip, r1, r8, lsl #30
      c4:	30a90100 	adccc	r0, r9, r0, lsl #2
      c8:	0000009b 	muleq	r0, fp, r0
      cc:	00749102 	rsbseq	r9, r4, r2, lsl #2
      d0:	5f020102 	svcpl	0x00020102
      d4:	07000002 	streq	r0, [r0, -r2]
      d8:	0001c201 	andeq	ip, r1, r1, lsl #4
      dc:	06a00100 	strteq	r0, [r0], r0, lsl #2
      e0:	0000d001 	andeq	sp, r0, r1
      e4:	00096c00 	andeq	r6, r9, r0, lsl #24
      e8:	0009a8c2 	andeq	sl, r9, r2, asr #17
      ec:	000044c2 	andeq	r4, r0, r2, asr #9
      f0:	01150100 	tsteq	r5, r0, lsl #2
      f4:	49080000 	stmdbmi	r8, {}	; <UNPREDICTABLE>
      f8:	0100000e 	tsteq	r0, lr
      fc:	009b2fa0 	addseq	r2, fp, r0, lsr #31
     100:	91020000 	mrsls	r0, (UNDEF: 2)
     104:	01cf0874 	biceq	r0, pc, r4, ror r8	; <UNPREDICTABLE>
     108:	a0010000 	andge	r0, r1, r0
     10c:	00009b4d 	andeq	r9, r0, sp, asr #22
     110:	70910200 	addsvc	r0, r1, r0, lsl #4
     114:	eb010700 	bl	41d1c <SYS_MODE+0x41cfd>
     118:	01000001 	tsteq	r0, r1
     11c:	d0010696 	mulle	r1, r6, r6
	...
     128:	88000000 	stmdahi	r0, {}	; <UNPREDICTABLE>
     12c:	01000000 	mrseq	r0, (UNDEF: 0)
     130:	00000153 	andeq	r0, r0, r3, asr r1
     134:	000e4908 	andeq	r4, lr, r8, lsl #18
     138:	2f960100 	svccs	0x00960100
     13c:	0000009b 	muleq	r0, fp, r0
     140:	08749102 	ldmdaeq	r4!, {r1, r8, ip, pc}^
     144:	000001cf 	andeq	r0, r0, pc, asr #3
     148:	9b4d9601 	blls	1365954 <SYS_MODE+0x1365935>
     14c:	02000000 	andeq	r0, r0, #0
     150:	07007091 			; <UNDEFINED> instruction: 0x07007091
     154:	00024701 	andeq	r4, r2, r1, lsl #14
     158:	068c0100 	streq	r0, [ip], r0, lsl #2
     15c:	0000d001 	andeq	sp, r0, r1
	...
     168:	0000cc00 	andeq	ip, r0, r0, lsl #24
     16c:	01910100 	orrseq	r0, r1, r0, lsl #2
     170:	49080000 	stmdbmi	r8, {}	; <UNPREDICTABLE>
     174:	0100000e 	tsteq	r0, lr
     178:	009b308c 	addseq	r3, fp, ip, lsl #1
     17c:	91020000 	mrsls	r0, (UNDEF: 2)
     180:	01cf0874 	biceq	r0, pc, r4, ror r8	; <UNPREDICTABLE>
     184:	8c010000 	stchi	0, cr0, [r1], {-0}
     188:	00009b4e 	andeq	r9, r0, lr, asr #22
     18c:	70910200 	addsvc	r0, r1, r0, lsl #4
     190:	29010900 	stmdbcs	r1, {r8, fp}
     194:	01000002 	tsteq	r0, r2
     198:	00010681 	andeq	r0, r1, r1, lsl #13
     19c:	00000000 	andeq	r0, r0, r0
     1a0:	10000000 	andne	r0, r0, r0
     1a4:	01000001 	tsteq	r0, r1
     1a8:	000001cb 	andeq	r0, r0, fp, asr #3
     1ac:	000e4908 	andeq	r4, lr, r8, lsl #18
     1b0:	31810100 	orrcc	r0, r1, r0, lsl #2
     1b4:	0000009b 	muleq	r0, fp, r0
     1b8:	08749102 	ldmdaeq	r4!, {r1, r8, ip, pc}^
     1bc:	000001cf 	andeq	r0, r0, pc, asr #3
     1c0:	9b4f8101 	blls	13e05cc <SYS_MODE+0x13e05ad>
     1c4:	02000000 	andeq	r0, r0, #0
     1c8:	09007091 	stmdbeq	r0, {r0, r4, r7, ip, sp, lr}
     1cc:	00017501 	andeq	r7, r1, r1, lsl #10
     1d0:	06760100 	ldrbteq	r0, [r6], -r0, lsl #2
     1d4:	00092401 	andeq	r2, r9, r1, lsl #8
     1d8:	00096cc2 	andeq	r6, r9, r2, asr #25
     1dc:	000148c2 	andeq	r4, r1, r2, asr #17
     1e0:	02050100 	andeq	r0, r5, #0, 2
     1e4:	49080000 	stmdbmi	r8, {}	; <UNPREDICTABLE>
     1e8:	0100000e 	tsteq	r0, lr
     1ec:	009b2c76 	addseq	r2, fp, r6, ror ip
     1f0:	91020000 	mrsls	r0, (UNDEF: 2)
     1f4:	01cf0874 	biceq	r0, pc, r4, ror r8	; <UNPREDICTABLE>
     1f8:	76010000 	strvc	r0, [r1], -r0
     1fc:	00009b4a 	andeq	r9, r0, sl, asr #22
     200:	70910200 	addsvc	r0, r1, r0, lsl #4
     204:	92010900 	andls	r0, r1, #0, 18
     208:	01000001 	tsteq	r0, r1
     20c:	00010666 	andeq	r0, r1, r6, ror #12
     210:	00000000 	andeq	r0, r0, r0
     214:	80000000 	andhi	r0, r0, r0
     218:	01000001 	tsteq	r0, r1
     21c:	0000024e 	andeq	r0, r0, lr, asr #4
     220:	0000ec08 	andeq	lr, r0, r8, lsl #24
     224:	2c660100 	stfcse	f0, [r6], #-0
     228:	0000009b 	muleq	r0, fp, r0
     22c:	086c9102 	stmdaeq	ip!, {r1, r8, ip, pc}^
     230:	000000f3 	strdeq	r0, [r0], -r3
     234:	9b4b6601 	blls	12d9a40 <SYS_MODE+0x12d9a21>
     238:	02000000 	andeq	r0, r0, #0
     23c:	700a6891 	mulvc	sl, r1, r8
     240:	0100736f 	tsteq	r0, pc, ror #6
     244:	009b1c68 	addseq	r1, fp, r8, ror #24
     248:	91020000 	mrsls	r0, (UNDEF: 2)
     24c:	010b0074 	tsteq	fp, r4, ror r0
     250:	000001b0 			; <UNDEFINED> instruction: 0x000001b0
     254:	01065901 	tsteq	r6, r1, lsl #18
	...
     260:	000001b8 			; <UNDEFINED> instruction: 0x000001b8
     264:	00028801 	andeq	r8, r2, r1, lsl #16
     268:	6c6f0c00 	stclvs	12, cr0, [pc], #-0	; 270 <SYS_MODE+0x251>
     26c:	59010064 	stmdbpl	r1, {r2, r5, r6}
     270:	00009b2f 	andeq	r9, r0, pc, lsr #22
     274:	74910200 	ldrvc	r0, [r1], #512	; 0x200
     278:	00025a08 	andeq	r5, r2, r8, lsl #20
     27c:	4b590100 	blmi	1640684 <SYS_MODE+0x1640665>
     280:	0000009b 	muleq	r0, fp, r0
     284:	00709102 	rsbseq	r9, r0, r2, lsl #2
     288:	021b0109 	andseq	r0, fp, #1073741826	; 0x40000002
     28c:	4b010000 	blmi	40294 <SYS_MODE+0x40275>
     290:	00000106 	andeq	r0, r0, r6, lsl #2
     294:	00000000 	andeq	r0, r0, r0
     298:	01fc0000 	mvnseq	r0, r0
     29c:	b3010000 	movwlt	r0, #4096	; 0x1000
     2a0:	08000002 	stmdaeq	r0, {r1}
     2a4:	00000e49 	andeq	r0, r0, r9, asr #28
     2a8:	9b2b4b01 	blls	ad2eb4 <SYS_MODE+0xad2e95>
     2ac:	02000000 	andeq	r0, r0, #0
     2b0:	0d007491 	cfstrseq	mvf7, [r0, #-580]	; 0xfffffdbc
     2b4:	0000021a 	andeq	r0, r0, sl, lsl r2
     2b8:	01143f01 	tsteq	r4, r1, lsl #30
     2bc:	c20008e8 	andgt	r0, r0, #232, 16	; 0xe80000
     2c0:	c2000924 	andgt	r0, r0, #36, 18	; 0x90000
     2c4:	00000234 	andeq	r0, r0, r4, lsr r2
     2c8:	0002ec01 	andeq	lr, r2, r1, lsl #24
     2cc:	02650800 	rsbeq	r0, r5, #0, 16
     2d0:	3f010000 	svccc	0x00010000
     2d4:	00009b3a 	andeq	r9, r0, sl, lsr fp
     2d8:	74910200 	ldrvc	r0, [r1], #512	; 0x200
     2dc:	00000008 	andeq	r0, r0, r8
     2e0:	573f0100 	ldrpl	r0, [pc, -r0, lsl #2]!
     2e4:	0000009b 	muleq	r0, fp, r0
     2e8:	00709102 	rsbseq	r9, r0, r2, lsl #2
     2ec:	00050109 	andeq	r0, r5, r9, lsl #2
     2f0:	33010000 	movwcc	r0, #4096	; 0x1000
     2f4:	00000106 	andeq	r0, r0, r6, lsl #2
     2f8:	00000000 	andeq	r0, r0, r0
     2fc:	02780000 	rsbseq	r0, r8, #0
     300:	26010000 	strcs	r0, [r1], -r0
     304:	08000003 	stmdaeq	r0, {r0, r1}
     308:	0000025a 	andeq	r0, r0, sl, asr r2
     30c:	9b303301 	blls	c0cf18 <SYS_MODE+0xc0cef9>
     310:	02000000 	andeq	r0, r0, #0
     314:	cf087491 	svcgt	0x00087491
     318:	01000001 	tsteq	r0, r1
     31c:	009b4d33 	addseq	r4, fp, r3, lsr sp
     320:	91020000 	mrsls	r0, (UNDEF: 2)
     324:	01090070 	tsteq	r9, r0, ror r0
     328:	00000154 	andeq	r0, r0, r4, asr r1
     32c:	01062601 	tsteq	r6, r1, lsl #12
     330:	c20008b0 	andgt	r0, r0, #176, 16	; 0xb00000
     334:	c20008e8 	andgt	r0, r0, #232, 16	; 0xe80000
     338:	000002b0 			; <UNDEFINED> instruction: 0x000002b0
     33c:	00036001 	andeq	r6, r3, r1
     340:	025a0800 	subseq	r0, sl, #0, 16
     344:	26010000 	strcs	r0, [r1], -r0
     348:	00009b2b 	andeq	r9, r0, fp, lsr #22
     34c:	74910200 	ldrvc	r0, [r1], #512	; 0x200
     350:	0001cf08 	andeq	ip, r1, r8, lsl #30
     354:	48260100 	stmdami	r6!, {r8}
     358:	0000009b 	muleq	r0, fp, r0
     35c:	00709102 	rsbseq	r9, r0, r2, lsl #2
     360:	0001530d 	andeq	r5, r1, sp, lsl #6
     364:	14150100 	ldrne	r0, [r5], #-256	; 0xffffff00
     368:	00085801 	andeq	r5, r8, r1, lsl #16
     36c:	0008b0c2 	andeq	fp, r8, r2, asr #1
     370:	0002e8c2 	andeq	lr, r2, r2, asr #17
     374:	03a80100 			; <UNDEFINED> instruction: 0x03a80100
     378:	5a080000 	bpl	200380 <SYS_MODE+0x200361>
     37c:	01000002 	tsteq	r0, r2
     380:	009b3a15 	addseq	r3, fp, r5, lsl sl
     384:	91020000 	mrsls	r0, (UNDEF: 2)
     388:	02650874 	rsbeq	r0, r5, #116, 16	; 0x740000
     38c:	16010000 	strne	r0, [r1], -r0
     390:	00009b1a 	andeq	r9, r0, sl, lsl fp
     394:	70910200 	addsvc	r0, r1, r0, lsl #4
     398:	00000008 	andeq	r0, r0, r8
     39c:	37160100 	ldrcc	r0, [r6, -r0, lsl #2]
     3a0:	0000009b 	muleq	r0, fp, r0
     3a4:	006c9102 	rsbeq	r9, ip, r2, lsl #2
     3a8:	01a1010e 			; <UNDEFINED> instruction: 0x01a1010e
     3ac:	0a010000 	beq	403b4 <SYS_MODE+0x40395>
     3b0:	081c0106 	ldmdaeq	ip, {r1, r2, r8}
     3b4:	0858c200 	ldmdaeq	r8, {r9, lr, pc}^
     3b8:	032cc200 			; <UNDEFINED> instruction: 0x032cc200
     3bc:	08010000 	stmdaeq	r1, {}	; <UNPREDICTABLE>
     3c0:	00000e49 	andeq	r0, r0, r9, asr #28
     3c4:	9b2c0a01 	blls	b02bd0 <SYS_MODE+0xb02bb1>
     3c8:	02000000 	andeq	r0, r0, #0
     3cc:	00007491 	muleq	r0, r1, r4
     3d0:	0000036f 	andeq	r0, r0, pc, ror #6
     3d4:	01140002 	tsteq	r4, r2
     3d8:	01040000 	mrseq	r0, (UNDEF: 4)
     3dc:	00000018 	andeq	r0, r0, r8, lsl r0
     3e0:	0002e10c 	andeq	lr, r2, ip, lsl #2
     3e4:	00026a00 	andeq	r6, r2, r0, lsl #20
     3e8:	00007800 	andeq	r7, r0, r0, lsl #16
	...
     3f4:	00023700 	andeq	r3, r2, r0, lsl #14
     3f8:	06010200 	streq	r0, [r1], -r0, lsl #4
     3fc:	00000186 	andeq	r0, r0, r6, lsl #3
     400:	3d050202 	sfmcc	f0, 4, [r5, #-8]
     404:	02000002 	andeq	r0, r0, #2
     408:	02110504 	andseq	r0, r1, #4, 10	; 0x1000000
     40c:	08020000 	stmdaeq	r2, {}	; <UNPREDICTABLE>
     410:	00020c05 	andeq	r0, r2, r5, lsl #24
     414:	08010200 	stmdaeq	r1, {r9}
     418:	00000184 	andeq	r0, r0, r4, lsl #3
     41c:	00004503 	andeq	r4, r0, r3, lsl #10
     420:	07020200 	streq	r0, [r2, -r0, lsl #4]
     424:	00000162 	andeq	r0, r0, r2, ror #2
     428:	d9070402 	stmdble	r7, {r1, sl}
     42c:	02000001 	andeq	r0, r0, #1
     430:	01d40708 	bicseq	r0, r4, r8, lsl #14
     434:	ab040000 	blge	10043c <SYS_MODE+0x10041d>
     438:	02000002 	andeq	r0, r0, #2
     43c:	00721d25 	rsbseq	r1, r2, r5, lsr #26
     440:	04020000 	streq	r0, [r2], #-0
     444:	0001de07 	andeq	sp, r1, r7, lsl #28
     448:	06040500 	streq	r0, [r4], -r0, lsl #10
     44c:	6e690504 	cdpvs	5, 6, cr0, cr9, cr4, {0}
     450:	01070074 	tsteq	r7, r4, ror r0
     454:	000002b2 			; <UNDEFINED> instruction: 0x000002b2
     458:	01058a01 	tsteq	r5, r1, lsl #20
     45c:	0000007b 	andeq	r0, r0, fp, ror r0
	...
     468:	00000370 	andeq	r0, r0, r0, ror r3
     46c:	0000fa01 	andeq	pc, r0, r1, lsl #20
     470:	73630800 	cmnvc	r3, #0, 16
     474:	198a0100 	stmibne	sl, {r8}
     478:	000000fa 	strdeq	r0, [r0], -sl
     47c:	08649102 	stmdaeq	r4!, {r1, r8, ip, pc}^
     480:	01007463 	tsteq	r0, r3, ror #8
     484:	00fa2a8a 	rscseq	r2, sl, sl, lsl #21
     488:	91020000 	mrsls	r0, (UNDEF: 2)
     48c:	02b90960 	adcseq	r0, r9, #96, 18	; 0x180000
     490:	8a010000 	bhi	40498 <SYS_MODE+0x40479>
     494:	00006635 	andeq	r6, r0, r5, lsr r6
     498:	5c910200 	lfmpl	f0, 4, [r1], {0}
     49c:	3175730a 	cmncc	r5, sl, lsl #6
     4a0:	178c0100 	strne	r0, [ip, r0, lsl #2]
     4a4:	00000101 	andeq	r0, r0, r1, lsl #2
     4a8:	0a749102 	beq	1d248b8 <SYS_MODE+0x1d24899>
     4ac:	00327573 	eorseq	r7, r2, r3, ror r5
     4b0:	011d8c01 	tsteq	sp, r1, lsl #24
     4b4:	02000001 	andeq	r0, r0, #1
     4b8:	720a7091 	andvc	r7, sl, #145	; 0x91
     4bc:	01007365 	tsteq	r0, r5, ror #6
     4c0:	007b068d 	rsbseq	r0, fp, sp, lsl #13
     4c4:	91020000 	mrsls	r0, (UNDEF: 2)
     4c8:	040b006c 	streq	r0, [fp], #-108	; 0xffffff94
     4cc:	00000100 	andeq	r0, r0, r0, lsl #2
     4d0:	4c040b0c 			; <UNDEFINED> instruction: 0x4c040b0c
     4d4:	07000000 	streq	r0, [r0, -r0]
     4d8:	0002a301 	andeq	sl, r2, r1, lsl #6
     4dc:	07700100 	ldrbeq	r0, [r0, -r0, lsl #2]!
     4e0:	00007901 	andeq	r7, r0, r1, lsl #18
	...
     4ec:	0003b400 	andeq	fp, r3, r0, lsl #8
     4f0:	01700100 	cmneq	r0, r0, lsl #2
     4f4:	c6090000 	strgt	r0, [r9], -r0
     4f8:	01000002 	tsteq	r0, r2
     4fc:	00791670 	rsbseq	r1, r9, r0, ror r6
     500:	91020000 	mrsls	r0, (UNDEF: 2)
     504:	7273086c 	rsbsvc	r0, r3, #108, 16	; 0x6c0000
     508:	70010063 	andvc	r0, r1, r3, rrx
     50c:	00007922 	andeq	r7, r0, r2, lsr #18
     510:	68910200 	ldmvs	r1, {r9}
     514:	0002b909 	andeq	fp, r2, r9, lsl #18
     518:	2e700100 	rpwcss	f0, f0, f0
     51c:	00000066 	andeq	r0, r0, r6, rrx
     520:	0a649102 	beq	1924930 <SYS_MODE+0x1924911>
     524:	00706d74 	rsbseq	r6, r0, r4, ror sp
     528:	70087201 	andvc	r7, r8, r1, lsl #4
     52c:	02000001 	andeq	r0, r0, #1
     530:	730a7491 	movwvc	r7, #42129	; 0xa491
     534:	0e720100 	rpweqs	f0, f2, f0
     538:	00000170 	andeq	r0, r0, r0, ror r1
     53c:	00709102 	rsbseq	r9, r0, r2, lsl #2
     540:	0176040b 	cmneq	r6, fp, lsl #8
     544:	01020000 	mrseq	r0, (UNDEF: 2)
     548:	00018d08 	andeq	r8, r1, r8, lsl #26
     54c:	01760300 	cmneq	r6, r0, lsl #6
     550:	01070000 	mrseq	r0, (UNDEF: 7)
     554:	00000330 	andeq	r0, r0, r0, lsr r3
     558:	01075e01 	tsteq	r7, r1, lsl #28
     55c:	00000079 	andeq	r0, r0, r9, ror r0
     560:	c2000a9c 	andgt	r0, r0, #156, 20	; 0x9c000
     564:	c2000b10 	andgt	r0, r0, #16, 22	; 0x4000
     568:	000003f8 	strdeq	r0, [r0], -r8
     56c:	0001eb01 	andeq	lr, r1, r1, lsl #22
     570:	02c60900 	sbceq	r0, r6, #0, 18
     574:	5e010000 	cdppl	0, 0, cr0, cr1, cr0, {0}
     578:	00007915 	andeq	r7, r0, r5, lsl r9
     57c:	6c910200 	lfmvs	f0, 4, [r1], {0}
     580:	63727308 	cmnvs	r2, #8, 6	; 0x20000000
     584:	215e0100 	cmpcs	lr, r0, lsl #2
     588:	00000079 	andeq	r0, r0, r9, ror r0
     58c:	09689102 	stmdbeq	r8!, {r1, r8, ip, pc}^
     590:	000002b9 			; <UNDEFINED> instruction: 0x000002b9
     594:	662d5e01 	strtvs	r5, [sp], -r1, lsl #28
     598:	02000000 	andeq	r0, r0, #0
     59c:	740a6491 	strvc	r6, [sl], #-1169	; 0xfffffb6f
     5a0:	0100706d 	tsteq	r0, sp, rrx
     5a4:	01700860 	cmneq	r0, r0, ror #16
     5a8:	91020000 	mrsls	r0, (UNDEF: 2)
     5ac:	00730a74 	rsbseq	r0, r3, r4, ror sl
     5b0:	701d6001 	andsvc	r6, sp, r1
     5b4:	02000001 	andeq	r0, r0, #1
     5b8:	07007091 			; <UNDEFINED> instruction: 0x07007091
     5bc:	0002da01 	andeq	sp, r2, r1, lsl #20
     5c0:	074b0100 	strbeq	r0, [fp, -r0, lsl #2]
     5c4:	00007901 	andeq	r7, r0, r1, lsl #18
     5c8:	000a3800 	andeq	r3, sl, r0, lsl #16
     5cc:	000a9cc2 	andeq	r9, sl, r2, asr #25
     5d0:	00043cc2 	andeq	r3, r4, r2, asr #25
     5d4:	02420100 	subeq	r0, r2, #0, 2
     5d8:	73080000 	movwvc	r0, #32768	; 0x8000
     5dc:	154b0100 	strbne	r0, [fp, #-256]	; 0xffffff00
     5e0:	00000079 	andeq	r0, r0, r9, ror r0
     5e4:	086c9102 	stmdaeq	ip!, {r1, r8, ip, pc}^
     5e8:	4b010063 	blmi	4077c <SYS_MODE+0x4075d>
     5ec:	00007b1c 	andeq	r7, r0, ip, lsl fp
     5f0:	68910200 	ldmvs	r1, {r9}
     5f4:	0002b909 	andeq	fp, r2, r9, lsl #18
     5f8:	264b0100 	strbcs	r0, [fp], -r0, lsl #2
     5fc:	00000066 	andeq	r0, r0, r6, rrx
     600:	0a649102 	beq	1924a10 <SYS_MODE+0x19249f1>
     604:	01007378 	tsteq	r0, r8, ror r3
     608:	0170084d 	cmneq	r0, sp, asr #16
     60c:	91020000 	mrsls	r0, (UNDEF: 2)
     610:	01070074 	tsteq	r7, r4, ror r0
     614:	000002bf 			; <UNDEFINED> instruction: 0x000002bf
     618:	01083a01 	tsteq	r8, r1, lsl #20
     61c:	00000066 	andeq	r0, r0, r6, rrx
     620:	c20009e4 	andgt	r0, r0, #228, 18	; 0x390000
     624:	c2000a38 	andgt	r0, r0, #56, 20	; 0x38000
     628:	00000480 	andeq	r0, r0, r0, lsl #9
     62c:	00027d01 	andeq	r7, r2, r1, lsl #26
     630:	00730800 	rsbseq	r0, r3, r0, lsl #16
     634:	7d1c3a01 	vldrvc	s6, [ip, #-4]
     638:	02000002 	andeq	r0, r0, #2
     63c:	730a6c91 	movwvc	r6, #44177	; 0xac91
     640:	3c010063 	stccc	0, cr0, [r1], {99}	; 0x63
     644:	00027d0e 	andeq	r7, r2, lr, lsl #26
     648:	74910200 	ldrvc	r0, [r1], #512	; 0x200
     64c:	7d040b00 	vstrvc	d0, [r4, #-0]
     650:	07000001 	streq	r0, [r0, -r1]
     654:	00032901 	andeq	r2, r3, r1, lsl #18
     658:	052a0100 	streq	r0, [sl, #-256]!	; 0xffffff00
     65c:	00007b01 	andeq	r7, r0, r1, lsl #22
	...
     668:	0004c400 	andeq	ip, r4, r0, lsl #8
     66c:	02cd0100 	sbceq	r0, sp, #0, 2
     670:	63080000 	movwvs	r0, #32768	; 0x8000
     674:	2a010073 	bcs	40848 <SYS_MODE+0x40829>
     678:	00027d18 	andeq	r7, r2, r8, lsl sp
     67c:	74910200 	ldrvc	r0, [r1], #512	; 0x200
     680:	00746308 	rsbseq	r6, r4, r8, lsl #6
     684:	7d282a01 	vstmdbvc	r8!, {s4}
     688:	02000002 	andeq	r0, r0, #2
     68c:	370d7091 			; <UNDEFINED> instruction: 0x370d7091
     690:	01000003 	tsteq	r0, r3
     694:	0029172c 	eoreq	r1, r9, ip, lsr #14
     698:	54010000 	strpl	r0, [r1], #-0
     69c:	d2010700 	andle	r0, r1, #0, 14
     6a0:	01000002 	tsteq	r0, r2
     6a4:	7001071b 	andvc	r0, r1, fp, lsl r7
     6a8:	00000001 	andeq	r0, r0, r1
     6ac:	00000000 	andeq	r0, r0, r0
     6b0:	08000000 	stmdaeq	r0, {}	; <UNPREDICTABLE>
     6b4:	01000005 	tsteq	r0, r5
     6b8:	00000329 	andeq	r0, r0, r9, lsr #6
     6bc:	0002c609 	andeq	ip, r2, r9, lsl #12
     6c0:	151b0100 	ldrne	r0, [fp, #-256]	; 0xffffff00
     6c4:	00000170 	andeq	r0, r0, r0, ror r1
     6c8:	086c9102 	stmdaeq	ip!, {r1, r8, ip, pc}^
     6cc:	00637273 	rsbeq	r7, r3, r3, ror r2
     6d0:	7d271b01 	fstmdbxvc	r7!, {d1-d0}	;@ Deprecated
     6d4:	02000002 	andeq	r0, r0, #2
     6d8:	b9096891 	stmdblt	r9, {r0, r4, r7, fp, sp, lr}
     6dc:	01000002 	tsteq	r0, r2
     6e0:	0066331b 	rsbeq	r3, r6, fp, lsl r3
     6e4:	91020000 	mrsls	r0, (UNDEF: 2)
     6e8:	6d740a64 	vldmdbvs	r4!, {s1-s100}
     6ec:	1d010070 	stcne	0, cr0, [r1, #-448]	; 0xfffffe40
     6f0:	00017008 	andeq	r7, r1, r8
     6f4:	74910200 	ldrvc	r0, [r1], #512	; 0x200
     6f8:	cb010e00 	blgt	43f00 <SYS_MODE+0x43ee1>
     6fc:	01000002 	tsteq	r0, r2
     700:	70010708 	andvc	r0, r1, r8, lsl #14
     704:	00000001 	andeq	r0, r0, r1
     708:	00000000 	andeq	r0, r0, r0
     70c:	4c000000 	stcmi	0, cr0, [r0], {-0}
     710:	01000005 	tsteq	r0, r5
     714:	0002c609 	andeq	ip, r2, r9, lsl #12
     718:	14080100 	strne	r0, [r8], #-256	; 0xffffff00
     71c:	00000170 	andeq	r0, r0, r0, ror r1
     720:	086c9102 	stmdaeq	ip!, {r1, r8, ip, pc}^
     724:	00637273 	rsbeq	r7, r3, r3, ror r2
     728:	7d260801 	stcvc	8, cr0, [r6, #-4]!
     72c:	02000002 	andeq	r0, r0, #2
     730:	740a6891 	strvc	r6, [sl], #-2193	; 0xfffff76f
     734:	0100706d 	tsteq	r0, sp, rrx
     738:	0170080a 	cmneq	r0, sl, lsl #16
     73c:	91020000 	mrsls	r0, (UNDEF: 2)
     740:	2a000074 	bcs	918 <SYS_MODE+0x8f9>
     744:	0200000e 	andeq	r0, r0, #14
     748:	0001e900 	andeq	lr, r1, r0, lsl #18
     74c:	18010400 	stmdane	r1, {sl}
     750:	0c000000 	stceq	0, cr0, [r0], {-0}
     754:	000003d1 	ldrdeq	r0, [r0], -r1
     758:	0000026a 	andeq	r0, r0, sl, ror #4
     75c:	000000c0 	andeq	r0, r0, r0, asr #1
	...
     768:	000004f3 	strdeq	r0, [r0], -r3
     76c:	86060102 	strhi	r0, [r6], -r2, lsl #2
     770:	02000001 	andeq	r0, r0, #1
     774:	023d0502 	eorseq	r0, sp, #8388608	; 0x800000
     778:	04020000 	streq	r0, [r2], #-0
     77c:	00021105 	andeq	r1, r2, r5, lsl #2
     780:	00370300 	eorseq	r0, r7, r0, lsl #6
     784:	08020000 	stmdaeq	r2, {}	; <UNPREDICTABLE>
     788:	00020c05 	andeq	r0, r2, r5, lsl #24
     78c:	00430300 	subeq	r0, r3, r0, lsl #6
     790:	01020000 	mrseq	r0, (UNDEF: 2)
     794:	00018408 	andeq	r8, r1, r8, lsl #8
     798:	07020200 	streq	r0, [r2, -r0, lsl #4]
     79c:	00000162 	andeq	r0, r0, r2, ror #2
     7a0:	d9070402 	stmdble	r7, {r1, sl}
     7a4:	04000001 	streq	r0, [r0], #-1
     7a8:	00000366 	andeq	r0, r0, r6, ror #6
     7ac:	701d2202 	andsvc	r2, sp, r2, lsl #4
     7b0:	02000000 	andeq	r0, r0, #0
     7b4:	01d40708 	bicseq	r0, r4, r8, lsl #14
     7b8:	ab040000 	blge	1007c0 <SYS_MODE+0x1007a1>
     7bc:	02000002 	andeq	r0, r0, #2
     7c0:	00881d25 	addeq	r1, r8, r5, lsr #26
     7c4:	77030000 	strvc	r0, [r3, -r0]
     7c8:	02000000 	andeq	r0, r0, #0
     7cc:	01de0704 	bicseq	r0, lr, r4, lsl #14
     7d0:	88030000 	stmdahi	r3, {}	; <UNPREDICTABLE>
     7d4:	04000000 	streq	r0, [r0], #-0
     7d8:	0000041b 	andeq	r0, r0, fp, lsl r4
     7dc:	a01d2902 	andsge	r2, sp, r2, lsl #18
     7e0:	05000000 	streq	r0, [r0, #-0]
     7e4:	00000419 	andeq	r0, r0, r9, lsl r4
     7e8:	ba000304 	blt	1400 <SYS_MODE+0x13e1>
     7ec:	06000000 	streq	r0, [r0], -r0
     7f0:	00000493 	muleq	r0, r3, r4
     7f4:	000000ba 	strheq	r0, [r0], -sl
     7f8:	01002302 	tsteq	r0, r2, lsl #6
     7fc:	08040700 	stmdaeq	r4, {r8, r9, sl}
     800:	6e690504 	cdpvs	5, 6, cr0, cr9, cr4, {0}
     804:	bc030074 	stclt	0, cr0, [r3], {116}	; 0x74
     808:	04000000 	streq	r0, [r0], #-0
     80c:	000003aa 	andeq	r0, r0, sl, lsr #7
     810:	881d4002 	ldmdahi	sp, {r1, lr}
     814:	04000000 	streq	r0, [r0], #-0
     818:	00000452 	andeq	r0, r0, r2, asr r4
     81c:	e0107501 	ands	r7, r0, r1, lsl #10
     820:	09000000 	stmdbeq	r0, {}	; <UNPREDICTABLE>
     824:	0000e604 	andeq	lr, r0, r4, lsl #12
     828:	01010a00 	tsteq	r1, r0, lsl #20
     82c:	0b000001 	bleq	838 <SYS_MODE+0x819>
     830:	00000101 	andeq	r0, r0, r1, lsl #2
     834:	0000ba0b 	andeq	fp, r0, fp, lsl #20
     838:	00770b00 	rsbseq	r0, r7, r0, lsl #22
     83c:	770b0000 	strvc	r0, [fp, -r0]
     840:	00000000 	andeq	r0, r0, r0
     844:	8d080102 	stfhis	f0, [r8, #-8]
     848:	03000001 	movweq	r0, #1
     84c:	00000101 	andeq	r0, r0, r1, lsl #2
     850:	7901080c 	stmdbvc	r1, {r2, r3, fp}
     854:	00013509 	andeq	r3, r1, r9, lsl #10
     858:	63660d00 	cmnvs	r6, #0, 26
     85c:	7a010074 	bvc	40a34 <SYS_MODE+0x40a15>
     860:	0001460b 	andeq	r4, r1, fp, lsl #12
     864:	00230200 	eoreq	r0, r3, r0, lsl #4
     868:	6772610d 	ldrbvs	r6, [r2, -sp, lsl #2]!
     86c:	097b0100 	ldmdbeq	fp!, {r8}^
     870:	000000ba 	strheq	r0, [r0], -sl
     874:	00042302 	andeq	r2, r4, r2, lsl #6
     878:	0146010a 	cmpeq	r6, sl, lsl #2
     87c:	010b0000 	mrseq	r0, (UNDEF: 11)
     880:	0b000001 	bleq	88c <SYS_MODE+0x86d>
     884:	000000ba 	strheq	r0, [r0], -sl
     888:	35040900 	strcc	r0, [r4, #-2304]	; 0xfffff700
     88c:	04000001 	streq	r0, [r0], #-1
     890:	000004ca 	andeq	r0, r0, sl, asr #9
     894:	0d037c01 	stceq	12, cr7, [r3, #-4]
     898:	03000001 	movweq	r0, #1
     89c:	0000014c 	andeq	r0, r0, ip, asr #2
     8a0:	03be010e 			; <UNDEFINED> instruction: 0x03be010e
     8a4:	85010000 	strhi	r0, [r1, #-0]
     8a8:	bc010503 	cfstr32lt	mvfx0, [r1], {3}
	...
     8b4:	90000000 	andls	r0, r0, r0
     8b8:	01000005 	tsteq	r0, r5
     8bc:	000001de 	ldrdeq	r0, [r0], -lr
     8c0:	74756f0f 	ldrbtvc	r6, [r5], #-3855	; 0xfffff0f1
     8c4:	03850100 	orreq	r0, r5, #0, 2
     8c8:	00014616 	andeq	r4, r1, r6, lsl r6
     8cc:	5c910200 	lfmpl	f0, 4, [r1], {0}
     8d0:	6772610f 	ldrbvs	r6, [r2, -pc, lsl #2]!
     8d4:	03850100 	orreq	r0, r5, #0, 2
     8d8:	0000ba3d 	andeq	fp, r0, sp, lsr sl
     8dc:	58910200 	ldmpl	r1, {r9}
     8e0:	00042910 	andeq	r2, r4, r0, lsl r9
     8e4:	03850100 	orreq	r0, r5, #0, 2
     8e8:	0001de4e 	andeq	sp, r1, lr, asr #28
     8ec:	78910200 	ldmvc	r1, {r9}
     8f0:	61761211 	cmnvs	r6, r1, lsl r2
     8f4:	03870100 	orreq	r0, r7, #0, 2
     8f8:	0000940b 	andeq	r9, r0, fp, lsl #8
     8fc:	68910200 	ldmvs	r1, {r9}
     900:	00034813 	andeq	r4, r3, r3, lsl r8
     904:	03890100 	orreq	r0, r9, #0, 2
     908:	0001581b 	andeq	r5, r1, fp, lsl r8
     90c:	60910200 	addsvs	r0, r1, r0, lsl #4
     910:	74657212 	strbtvc	r7, [r5], #-530	; 0xfffffdee
     914:	038a0100 	orreq	r0, sl, #0, 2
     918:	0000c30d 	andeq	ip, r0, sp, lsl #6
     91c:	6c910200 	lfmvs	f0, 4, [r1], {0}
     920:	08040900 	stmdaeq	r4, {r8, fp}
     924:	0e000001 	cdpeq	0, 0, cr0, cr0, cr1, {0}
     928:	00047001 	andeq	r7, r4, r1
     92c:	037f0100 	cmneq	pc, #0, 2
     930:	00bc0105 	adcseq	r0, ip, r5, lsl #2
	...
     93c:	05ec0000 	strbeq	r0, [ip, #0]!
     940:	44010000 	strmi	r0, [r1], #-0
     944:	10000002 	andne	r0, r0, r2
     948:	0000035f 	andeq	r0, r0, pc, asr r3
     94c:	16037f01 	strne	r7, [r3], -r1, lsl #30
     950:	00000244 	andeq	r0, r0, r4, asr #4
     954:	10749102 	rsbsne	r9, r4, r2, lsl #2
     958:	000002b9 			; <UNDEFINED> instruction: 0x000002b9
     95c:	25037f01 	strcs	r7, [r3, #-3841]	; 0xfffff0ff
     960:	00000077 	andeq	r0, r0, r7, ror r0
     964:	10709102 	rsbsne	r9, r0, r2, lsl #2
     968:	00000429 	andeq	r0, r0, r9, lsr #8
     96c:	38037f01 	stmdacc	r3, {r0, r8, r9, sl, fp, ip, sp, lr}
     970:	000001de 	ldrdeq	r0, [r0], -lr
     974:	0f6c9102 	svceq	0x006c9102
     978:	01006176 	tsteq	r0, r6, ror r1
     97c:	9448037f 	strbls	r0, [r8], #-895	; 0xfffffc81
     980:	02000000 	andeq	r0, r0, #0
     984:	09006891 	stmdbeq	r0, {r0, r4, r7, fp, sp, lr}
     988:	00010104 	andeq	r0, r1, r4, lsl #2
     98c:	08010e00 	stmdaeq	r1, {r9, sl, fp}
     990:	01000005 	tsteq	r0, r5
     994:	01050378 	tsteq	r5, r8, ror r3
     998:	000000bc 	strheq	r0, [r0], -ip
	...
     9a4:	00000624 	andeq	r0, r0, r4, lsr #12
     9a8:	00029a01 	andeq	r9, r2, r1, lsl #20
     9ac:	04291000 	strteq	r1, [r9], #-0
     9b0:	78010000 	stmdavc	r1, {}	; <UNPREDICTABLE>
     9b4:	01de1a03 	bicseq	r1, lr, r3, lsl #20
     9b8:	91020000 	mrsls	r0, (UNDEF: 2)
     9bc:	61760f6c 	cmnvs	r6, ip, ror #30
     9c0:	03780100 	cmneq	r8, #0, 2
     9c4:	0000942a 	andeq	r9, r0, sl, lsr #8
     9c8:	68910200 	ldmvs	r1, {r9}
     9cc:	00035f13 	andeq	r5, r3, r3, lsl pc
     9d0:	037a0100 	cmneq	sl, #0, 2
     9d4:	00029a08 	andeq	r9, r2, r8, lsl #20
     9d8:	74910200 	ldrvc	r0, [r1], #512	; 0x200
     9dc:	01011400 	tsteq	r1, r0, lsl #8
     9e0:	02aa0000 	adceq	r0, sl, #0
     9e4:	88150000 	ldmdahi	r5, {}	; <UNPREDICTABLE>
     9e8:	00000000 	andeq	r0, r0, r0
     9ec:	71010e00 	tstvc	r1, r0, lsl #28
     9f0:	01000004 	tsteq	r0, r4
     9f4:	0105036e 	tsteq	r5, lr, ror #6
     9f8:	000000bc 	strheq	r0, [r0], -ip
	...
     a04:	0000065c 	andeq	r0, r0, ip, asr r6
     a08:	00031b01 	andeq	r1, r3, r1, lsl #22
     a0c:	035f1000 	cmpeq	pc, #0
     a10:	6e010000 	cdpvs	0, 0, cr0, cr1, cr0, {0}
     a14:	02441503 	subeq	r1, r4, #12582912	; 0xc00000
     a18:	91020000 	mrsls	r0, (UNDEF: 2)
     a1c:	02b91064 	adcseq	r1, r9, #100	; 0x64
     a20:	6e010000 	cdpvs	0, 0, cr0, cr1, cr0, {0}
     a24:	00772403 	rsbseq	r2, r7, r3, lsl #8
     a28:	91020000 	mrsls	r0, (UNDEF: 2)
     a2c:	04291060 	strteq	r1, [r9], #-96	; 0xffffffa0
     a30:	6e010000 	cdpvs	0, 0, cr0, cr1, cr0, {0}
     a34:	01de3703 	bicseq	r3, lr, r3, lsl #14
     a38:	91020000 	mrsls	r0, (UNDEF: 2)
     a3c:	76121178 			; <UNDEFINED> instruction: 0x76121178
     a40:	70010061 	andvc	r0, r1, r1, rrx
     a44:	00940b03 	addseq	r0, r4, r3, lsl #22
     a48:	91020000 	mrsls	r0, (UNDEF: 2)
     a4c:	65721268 	ldrbvs	r1, [r2, #-616]!	; 0xfffffd98
     a50:	72010074 	andvc	r0, r1, #116	; 0x74
     a54:	00c30d03 	sbceq	r0, r3, r3, lsl #26
     a58:	91020000 	mrsls	r0, (UNDEF: 2)
     a5c:	010e006c 	tsteq	lr, ip, rrx
     a60:	00000498 	muleq	r0, r8, r4
     a64:	05036401 	streq	r6, [r3, #-1025]	; 0xfffffbff
     a68:	0000bc01 	andeq	fp, r0, r1, lsl #24
	...
     a74:	0006b800 	andeq	fp, r6, r0, lsl #16
     a78:	037c0100 	cmneq	ip, #0, 2
     a7c:	5f100000 	svcpl	0x00100000
     a80:	01000003 	tsteq	r0, r3
     a84:	44140364 	ldrmi	r0, [r4], #-868	; 0xfffffc9c
     a88:	02000002 	andeq	r0, r0, #2
     a8c:	29105c91 	ldmdbcs	r0, {r0, r4, r7, sl, fp, ip, lr}
     a90:	01000004 	tsteq	r0, r4
     a94:	de280364 	cdple	3, 2, cr0, cr8, cr4, {3}
     a98:	02000001 	andeq	r0, r0, #1
     a9c:	12117491 	andsne	r7, r1, #-1862270976	; 0x91000000
     aa0:	01006176 	tsteq	r0, r6, ror r1
     aa4:	940b0366 	strls	r0, [fp], #-870	; 0xfffffc9a
     aa8:	02000000 	andeq	r0, r0, #0
     aac:	72126091 	andsvc	r6, r2, #145	; 0x91
     ab0:	01007465 	tsteq	r0, r5, ror #8
     ab4:	c30d0368 	movwgt	r0, #54120	; 0xd368
     ab8:	02000000 	andeq	r0, r0, #0
     abc:	0e006491 	mcreq	4, 0, r6, cr0, cr1, {4}
     ac0:	00047301 	andeq	r7, r4, r1, lsl #6
     ac4:	03590100 	cmpeq	r9, #0, 2
     ac8:	00bc0105 	adcseq	r0, ip, r5, lsl #2
     acc:	2ff40000 	svccs	0x00f40000
     ad0:	3048c200 	subcc	ip, r8, r0, lsl #4
     ad4:	0714c200 	ldreq	ip, [r4, -r0, lsl #4]
     ad8:	dd010000 	stcle	0, cr0, [r1, #-0]
     adc:	10000003 	andne	r0, r0, r3
     ae0:	00000429 	andeq	r0, r0, r9, lsr #8
     ae4:	19035901 	stmdbne	r3, {r0, r8, fp, ip, lr}
     ae8:	000001de 	ldrdeq	r0, [r0], -lr
     aec:	11709102 	cmnne	r0, r2, lsl #2
     af0:	00617612 	rsbeq	r7, r1, r2, lsl r6
     af4:	0b035b01 	bleq	d7700 <SYS_MODE+0xd76e1>
     af8:	00000094 	muleq	r0, r4, r0
     afc:	13609102 	cmnne	r0, #-2147483648	; 0x80000000
     b00:	0000035f 	andeq	r0, r0, pc, asr r3
     b04:	08035d01 	stmdaeq	r3, {r0, r8, sl, fp, ip, lr}
     b08:	0000029a 	muleq	r0, sl, r2
     b0c:	125c9102 	subsne	r9, ip, #-2147483648	; 0x80000000
     b10:	00746572 	rsbseq	r6, r4, r2, ror r5
     b14:	0d035e01 	stceq	14, cr5, [r3, #-4]
     b18:	000000c3 	andeq	r0, r0, r3, asr #1
     b1c:	00649102 	rsbeq	r9, r4, r2, lsl #2
     b20:	00043616 	andeq	r3, r4, r6, lsl r6
     b24:	023c0100 	eorseq	r0, ip, #0, 2
     b28:	00bc010c 	adcseq	r0, ip, ip, lsl #2
     b2c:	20640000 	rsbcs	r0, r4, r0
     b30:	2ff4c200 	svccs	0x00f4c200
     b34:	0770c200 	ldrbeq	ip, [r0, -r0, lsl #4]!
     b38:	d2010000 	andle	r0, r1, #0
     b3c:	0f000005 	svceq	0x00000005
     b40:	0074756f 	rsbseq	r7, r4, pc, ror #10
     b44:	24023c01 	strcs	r3, [r2], #-3073	; 0xfffff3ff
     b48:	000000d4 	ldrdeq	r0, [r0], -r4
     b4c:	7f949103 	svcvc	0x00949103
     b50:	00035f10 	andeq	r5, r3, r0, lsl pc
     b54:	023c0100 	eorseq	r0, ip, #0, 2
     b58:	0002442f 	andeq	r4, r2, pc, lsr #8
     b5c:	90910300 	addsls	r0, r1, r0, lsl #6
     b60:	047b107f 	ldrbteq	r1, [fp], #-127	; 0xffffff81
     b64:	3c010000 	stccc	0, cr0, [r1], {-0}
     b68:	00834402 	addeq	r4, r3, r2, lsl #8
     b6c:	91030000 	mrsls	r0, (UNDEF: 3)
     b70:	29107f8c 	ldmdbcs	r0, {r2, r3, r7, r8, r9, sl, fp, ip, sp, lr}
     b74:	01000004 	tsteq	r0, r4
     b78:	de58023c 	mrcle	2, 2, r0, cr8, cr12, {1}
     b7c:	03000001 	movweq	r0, #1
     b80:	0f7f8891 	svceq	0x007f8891
     b84:	01006176 	tsteq	r0, r6, ror r1
     b88:	9468023c 	strbtls	r0, [r8], #-572	; 0xfffffdc4
     b8c:	02000000 	andeq	r0, r0, #0
     b90:	6a130091 	bvs	4c0ddc <SYS_MODE+0x4c0dbd>
     b94:	01000004 	tsteq	r0, r4
     b98:	8810023e 	ldmdahi	r0, {r1, r2, r3, r4, r5, r9}
     b9c:	02000000 	andeq	r0, r0, #0
     ba0:	e2135c91 	ands	r5, r3, #37120	; 0x9100
     ba4:	01000004 	tsteq	r0, r4
     ba8:	8817023e 	ldmdahi	r7, {r1, r2, r3, r4, r5, r9}
     bac:	02000000 	andeq	r0, r0, #0
     bb0:	fe135891 	vfmsl.f16	d5, s7, s2[0]
     bb4:	01000004 	tsteq	r0, r4
     bb8:	881e023e 	ldmdahi	lr, {r1, r2, r3, r4, r5, r9}
     bbc:	02000000 	andeq	r0, r0, #0
     bc0:	6e125491 	cfcmpsvs	r5, mvf2, mvf1
     bc4:	023e0100 	eorseq	r0, lr, #0, 2
     bc8:	00008829 	andeq	r8, r0, r9, lsr #16
     bcc:	50910200 	addspl	r0, r1, r0, lsl #4
     bd0:	78646912 	stmdavc	r4!, {r1, r4, r8, fp, sp, lr}^
     bd4:	023f0100 	eorseq	r0, pc, #0, 2
     bd8:	0000770a 	andeq	r7, r0, sl, lsl #14
     bdc:	4c910200 	lfmmi	f0, 4, [r1], {0}
     be0:	00226c17 	eoreq	r6, r2, r7, lsl ip
     be4:	0022bcc2 	eoreq	fp, r2, r2, asr #25
     be8:	0004bac2 	andeq	fp, r4, r2, asr #21
     bec:	00771200 	rsbseq	r1, r7, r0, lsl #4
     bf0:	11026701 	tstne	r2, r1, lsl #14
     bf4:	000000c3 	andeq	r0, r0, r3, asr #1
     bf8:	7fb89103 	svcvc	0x00b89103
     bfc:	232c1700 			; <UNDEFINED> instruction: 0x232c1700
     c00:	2358c200 	cmpcs	r8, #0, 4
     c04:	04d9c200 	ldrbeq	ip, [r9], #512	; 0x200
     c08:	dc130000 	ldcle	0, cr0, [r3], {-0}
     c0c:	01000004 	tsteq	r0, r4
     c10:	c313027b 	tstgt	r3, #-1342177273	; 0xb0000007
     c14:	03000000 	movweq	r0, #0
     c18:	007fb491 			; <UNDEFINED> instruction: 0x007fb491
     c1c:	00261417 	eoreq	r1, r6, r7, lsl r4
     c20:	002ac0c2 	eoreq	ip, sl, r2, asr #1
     c24:	00056fc2 	andeq	r6, r5, r2, asr #31
     c28:	0bdb1300 	bleq	ff6c5830 <_stack_end+0x3d69f630>
     c2c:	af010000 	svcge	0x00010000
     c30:	00881602 	addeq	r1, r8, r2, lsl #12
     c34:	91020000 	mrsls	r0, (UNDEF: 2)
     c38:	27201748 	strcs	r1, [r0, -r8, asr #14]!
     c3c:	27d0c200 	ldrbcs	ip, [r0, r0, lsl #4]
     c40:	0515c200 	ldreq	ip, [r5, #-512]	; 0xfffffe00
     c44:	9b130000 	blls	4c0c4c <SYS_MODE+0x4c0c2d>
     c48:	01000003 	tsteq	r0, r3
     c4c:	4a1d02d1 	bmi	741798 <SYS_MODE+0x741779>
     c50:	03000000 	movweq	r0, #0
     c54:	007f9891 			; <UNDEFINED> instruction: 0x007f9891
     c58:	0027e417 	eoreq	lr, r7, r7, lsl r4
     c5c:	002854c2 	eoreq	r5, r8, r2, asr #9
     c60:	000534c2 	andeq	r3, r5, r2, asr #9
     c64:	039b1300 	orrseq	r1, fp, #0, 6
     c68:	d6010000 	strle	r0, [r1], -r0
     c6c:	003e1802 	eorseq	r1, lr, r2, lsl #16
     c70:	91030000 	mrsls	r0, (UNDEF: 3)
     c74:	17007fa4 	strne	r7, [r0, -r4, lsr #31]
     c78:	c2002858 	andgt	r2, r0, #88, 16	; 0x580000
     c7c:	c2002918 	andgt	r2, r0, #24, 18	; 0x60000
     c80:	00000553 	andeq	r0, r0, r3, asr r5
     c84:	00039b13 	andeq	r9, r3, r3, lsl fp
     c88:	02da0100 	sbcseq	r0, sl, #0, 2
     c8c:	0000c317 	andeq	ip, r0, r7, lsl r3
     c90:	a8910300 	ldmge	r1, {r8, r9}
     c94:	0418007f 	ldreq	r0, [r8], #-127	; 0xffffff81
     c98:	b0c2002a 	sbclt	r0, r2, sl, lsr #32
     c9c:	13c2002a 	bicne	r0, r2, #42	; 0x2a
     ca0:	0000039b 	muleq	r0, fp, r3
     ca4:	2002e901 	andcs	lr, r2, r1, lsl #18
     ca8:	0000008f 	andeq	r0, r0, pc, lsl #1
     cac:	7fac9103 	svcvc	0x00ac9103
     cb0:	ec170000 	ldc	0, cr0, [r7], {-0}
     cb4:	ccc2002b 	stclgt	0, cr0, [r2], {43}	; 0x2b
     cb8:	8bc2002c 	blhi	ff080d70 <_stack_end+0x3d05ab70>
     cbc:	12000005 	andne	r0, r0, #5
     cc0:	0401006c 	streq	r0, [r1], #-108	; 0xffffff94
     cc4:	00881603 	addeq	r1, r8, r3, lsl #12
     cc8:	91020000 	mrsls	r0, (UNDEF: 2)
     ccc:	cc170044 	ldcgt	0, cr0, [r7], {68}	; 0x44
     cd0:	3cc2002c 	stclcc	0, cr0, [r2], {44}	; 0x2c
     cd4:	b6c2002e 	strblt	r0, [r2], lr, lsr #32
     cd8:	12000005 	andne	r0, r0, #5
     cdc:	18010070 	stmdane	r1, {r4, r5, r6}
     ce0:	01de1503 	bicseq	r1, lr, r3, lsl #10
     ce4:	91020000 	mrsls	r0, (UNDEF: 2)
     ce8:	006c1240 	rsbeq	r1, ip, r0, asr #4
     cec:	16031901 	strne	r1, [r3], -r1, lsl #18
     cf0:	00000088 	andeq	r0, r0, r8, lsl #1
     cf4:	7fbc9103 	svcvc	0x00bc9103
     cf8:	2e3c1800 	cdpcs	8, 3, cr1, cr12, cr0, {0}
     cfc:	2f3cc200 	svccs	0x003cc200
     d00:	f813c200 			; <UNDEFINED> instruction: 0xf813c200
     d04:	01000004 	tsteq	r0, r4
     d08:	d9140335 	ldmdble	r4, {r0, r2, r4, r5, r8, r9}
     d0c:	03000005 	movweq	r0, #5
     d10:	007fb391 			; <UNDEFINED> instruction: 0x007fb391
     d14:	02010200 	andeq	r0, r1, #0, 4
     d18:	0000025f 	andeq	r0, r0, pc, asr r2
     d1c:	0005d203 	andeq	sp, r5, r3, lsl #4
     d20:	03781600 	cmneq	r8, #0, 12
     d24:	ce010000 	cdpgt	0, 0, cr0, cr1, cr0, {0}
     d28:	77010f01 	strvc	r0, [r1, -r1, lsl #30]
     d2c:	e8000000 	stmda	r0, {}	; <UNPREDICTABLE>
     d30:	64c2001a 	strbvs	r0, [r2], #26
     d34:	a8c20020 	stmiage	r2, {r5}^
     d38:	01000007 	tsteq	r0, r7
     d3c:	00000734 	andeq	r0, r0, r4, lsr r7
     d40:	74756f0f 	ldrbtvc	r6, [r5], #-3855	; 0xfffff0f1
     d44:	01ce0100 	biceq	r0, lr, r0, lsl #2
     d48:	0000d422 	andeq	sp, r0, r2, lsr #8
     d4c:	a4910300 	ldrge	r0, [r1], #768	; 0x300
     d50:	035f107f 	cmpeq	pc, #127	; 0x7f
     d54:	ce010000 	cdpgt	0, 0, cr0, cr1, cr0, {0}
     d58:	02442d01 	subeq	r2, r4, #1, 26	; 0x40
     d5c:	91030000 	mrsls	r0, (UNDEF: 3)
     d60:	690f7fa0 	stmdbvs	pc, {r5, r7, r8, r9, sl, fp, ip, sp, lr}	; <UNPREDICTABLE>
     d64:	01007864 	tsteq	r0, r4, ror #16
     d68:	773c01ce 	ldrvc	r0, [ip, -lr, asr #3]!
     d6c:	03000000 	movweq	r0, #0
     d70:	107f9c91 			; <UNDEFINED> instruction: 0x107f9c91
     d74:	0000047b 	andeq	r0, r0, fp, ror r4
     d78:	4801ce01 	stmdami	r1, {r0, r9, sl, fp, lr, pc}
     d7c:	00000077 	andeq	r0, r0, r7, ror r0
     d80:	7f989103 	svcvc	0x00989103
     d84:	00039b10 	andeq	r9, r3, r0, lsl fp
     d88:	01ce0100 	biceq	r0, lr, r0, lsl #2
     d8c:	00073457 	andeq	r3, r7, r7, asr r4
     d90:	90910300 	addsls	r0, r1, r0, lsl #6
     d94:	04dc107f 	ldrbeq	r1, [ip], #127	; 0x7f
     d98:	ce010000 	cdpgt	0, 0, cr0, cr1, cr0, {0}
     d9c:	00886b01 	addeq	r6, r8, r1, lsl #22
     da0:	91020000 	mrsls	r0, (UNDEF: 2)
     da4:	04e21000 	strbteq	r1, [r2], #0
     da8:	ce010000 	cdpgt	0, 0, cr0, cr1, cr0, {0}
     dac:	00887e01 	addeq	r7, r8, r1, lsl #28
     db0:	91020000 	mrsls	r0, (UNDEF: 2)
     db4:	046a1004 	strbteq	r1, [sl], #-4
     db8:	ce010000 	cdpgt	0, 0, cr0, cr1, cr0, {0}
     dbc:	00889201 	addeq	r9, r8, r1, lsl #4
     dc0:	91020000 	mrsls	r0, (UNDEF: 2)
     dc4:	03c81308 	biceq	r1, r8, #8, 6	; 0x20000000
     dc8:	d6010000 	strle	r0, [r1], -r0
     dcc:	05d90e01 	ldrbeq	r0, [r9, #3585]	; 0xe01
     dd0:	91020000 	mrsls	r0, (UNDEF: 2)
     dd4:	01081953 	tsteq	r8, r3, asr r9
     dd8:	b30301e2 	movwlt	r0, #12770	; 0x31e2
     ddc:	1a000006 	bne	dfc <SYS_MODE+0xddd>
     de0:	e3010055 	movw	r0, #4181	; 0x1055
     de4:	00640e01 	rsbeq	r0, r4, r1, lsl #28
     de8:	461a0000 	ldrmi	r0, [sl], -r0
     dec:	01e40100 	mvneq	r0, r0, lsl #2
     df0:	0007340e 	andeq	r3, r7, lr, lsl #8
     df4:	ab130000 	blge	4c0dfc <SYS_MODE+0x4c0ddd>
     df8:	01000004 	tsteq	r0, r4
     dfc:	920501e5 	andls	r0, r5, #1073741881	; 0x40000039
     e00:	03000006 	movweq	r0, #6
     e04:	137fa891 	cmnne	pc, #9502720	; 0x910000
     e08:	00000343 	andeq	r0, r0, r3, asr #6
     e0c:	0701e801 	streq	lr, [r1, -r1, lsl #16]
     e10:	000000bc 	strheq	r0, [r0], -ip
     e14:	134c9102 	movtne	r9, #49410	; 0xc102
     e18:	0000044b 	andeq	r0, r0, fp, asr #8
     e1c:	0701eb01 	streq	lr, [r1, -r1, lsl #22]
     e20:	000000bc 	strheq	r0, [r0], -ip
     e24:	125c9102 	subsne	r9, ip, #-2147483648	; 0x80000000
     e28:	ee01007a 	mcr	0, 0, r0, cr1, cr10, {3}
     e2c:	073b1001 	ldreq	r1, [fp, -r1]!
     e30:	91020000 	mrsls	r0, (UNDEF: 2)
     e34:	327a1240 	rsbscc	r1, sl, #64, 4
     e38:	01ef0100 	mvneq	r0, r0, lsl #2
     e3c:	00073b10 	andeq	r3, r7, r0, lsl fp
     e40:	b8910300 	ldmlt	r1, {r8, r9}
     e44:	036f137f 	cmneq	pc, #-67108863	; 0xfc000001
     e48:	fa010000 	blx	40e50 <SYS_MODE+0x40e31>
     e4c:	00881001 	addeq	r1, r8, r1
     e50:	91020000 	mrsls	r0, (UNDEF: 2)
     e54:	04e11358 	strbteq	r1, [r1], #856	; 0x358
     e58:	14010000 	strne	r0, [r1], #-0
     e5c:	00881002 	addeq	r1, r8, r2
     e60:	91020000 	mrsls	r0, (UNDEF: 2)
     e64:	03b41354 			; <UNDEFINED> instruction: 0x03b41354
     e68:	27010000 	strcs	r0, [r1, -r0]
     e6c:	00831002 	addeq	r1, r3, r2
     e70:	91030000 	mrsls	r0, (UNDEF: 3)
     e74:	02007fb4 	andeq	r7, r0, #180, 30	; 0x2d0
     e78:	04b00408 	ldrteq	r0, [r0], #1032	; 0x408
     e7c:	34030000 	strcc	r0, [r3], #-0
     e80:	16000007 	strne	r0, [r0], -r7
     e84:	00000430 	andeq	r0, r0, r0, lsr r4
     e88:	0f014e01 	svceq	0x00014e01
     e8c:	00007701 	andeq	r7, r0, r1, lsl #14
     e90:	0013e000 	andseq	lr, r3, r0
     e94:	001ae4c2 	andseq	lr, sl, r2, asr #9
     e98:	0007e0c2 	andeq	lr, r7, r2, asr #1
     e9c:	08830100 	stmeq	r3, {r8}
     ea0:	6f0f0000 	svcvs	0x000f0000
     ea4:	01007475 	tsteq	r0, r5, ror r4
     ea8:	d422014e 	strtle	r0, [r2], #-334	; 0xfffffeb2
     eac:	03000000 	movweq	r0, #0
     eb0:	107fac91 			; <UNDEFINED> instruction: 0x107fac91
     eb4:	0000035f 	andeq	r0, r0, pc, asr r3
     eb8:	2d014e01 	stccs	14, cr4, [r1, #-4]
     ebc:	00000244 	andeq	r0, r0, r4, asr #4
     ec0:	7fa89103 	svcvc	0x00a89103
     ec4:	7864690f 	stmdavc	r4!, {r0, r1, r2, r3, r8, fp, sp, lr}^
     ec8:	014e0100 	mrseq	r0, (UNDEF: 94)
     ecc:	0000773c 	andeq	r7, r0, ip, lsr r7
     ed0:	a4910300 	ldrge	r0, [r1], #768	; 0x300
     ed4:	047b107f 	ldrbteq	r1, [fp], #-127	; 0xffffff81
     ed8:	4e010000 	cdpmi	0, 0, cr0, cr1, cr0, {0}
     edc:	00774801 	rsbseq	r4, r7, r1, lsl #16
     ee0:	91030000 	mrsls	r0, (UNDEF: 3)
     ee4:	9b107fa0 	blls	420d6c <SYS_MODE+0x420d4d>
     ee8:	01000003 	tsteq	r0, r3
     eec:	3457014e 	ldrbcc	r0, [r7], #-334	; 0xfffffeb2
     ef0:	03000007 	movweq	r0, #7
     ef4:	107f9891 			; <UNDEFINED> instruction: 0x107f9891
     ef8:	000004dc 	ldrdeq	r0, [r0], -ip
     efc:	6b014e01 	blvs	54708 <SYS_MODE+0x546e9>
     f00:	00000088 	andeq	r0, r0, r8, lsl #1
     f04:	10009102 	andne	r9, r0, r2, lsl #2
     f08:	000004e2 	andeq	r0, r0, r2, ror #9
     f0c:	7e014e01 	cdpvc	14, 0, cr4, cr1, cr1, {0}
     f10:	00000088 	andeq	r0, r0, r8, lsl #1
     f14:	10049102 	andne	r9, r4, r2, lsl #2
     f18:	0000046a 	andeq	r0, r0, sl, ror #8
     f1c:	92014e01 	andls	r4, r1, #1, 28
     f20:	00000088 	andeq	r0, r0, r8, lsl #1
     f24:	12089102 	andne	r9, r8, #-2147483648	; 0x80000000
     f28:	00667562 	rsbeq	r7, r6, r2, ror #10
     f2c:	08015001 	stmdaeq	r1, {r0, ip, lr}
     f30:	00000883 	andeq	r0, r0, r3, lsl #17
     f34:	7fb09103 	svcvc	0x00b09103
     f38:	6e656c12 	mcrvs	12, 3, r6, cr5, cr2, {0}
     f3c:	01510100 	cmpeq	r1, r0, lsl #2
     f40:	0000770a 	andeq	r7, r0, sl, lsl #14
     f44:	74910200 	ldrvc	r0, [r1], #512	; 0x200
     f48:	00035513 	andeq	r5, r3, r3, lsl r5
     f4c:	01520100 	cmpeq	r2, r0, lsl #2
     f50:	0007340a 	andeq	r3, r7, sl, lsl #8
     f54:	58910200 	ldmpl	r1, {r9}
     f58:	00033d13 	andeq	r3, r3, r3, lsl sp
     f5c:	01550100 	cmpeq	r5, r0, lsl #2
     f60:	0008a317 	andeq	sl, r8, r7, lsl r3
     f64:	18030500 	stmdane	r3, {r8, sl}
     f68:	13c20051 	bicne	r0, r2, #81	; 0x51
     f6c:	000003c8 	andeq	r0, r0, r8, asr #7
     f70:	08016a01 	stmdaeq	r1, {r0, r9, fp, sp, lr}
     f74:	000005d2 	ldrdeq	r0, [r0], -r2
     f78:	13739102 	cmnne	r3, #-2147483648	; 0x80000000
     f7c:	00000390 	muleq	r0, r0, r3
     f80:	07017a01 	streq	r7, [r1, -r1, lsl #20]
     f84:	000000bc 	strheq	r0, [r0], -ip
     f88:	126c9102 	rsbne	r9, ip, #-2147483648	; 0x80000000
     f8c:	00706d74 	rsbseq	r6, r0, r4, ror sp
     f90:	0a017b01 	beq	5fb9c <SYS_MODE+0x5fb7d>
     f94:	00000734 	andeq	r0, r0, r4, lsr r7
     f98:	13509102 	cmpne	r0, #-2147483648	; 0x80000000
     f9c:	00000396 	muleq	r0, r6, r3
     fa0:	11017c01 	tstne	r1, r1, lsl #24
     fa4:	0000005d 	andeq	r0, r0, sp, asr r0
     fa8:	18689102 	stmdane	r8!, {r1, r8, ip, pc}^
     fac:	c20017c4 	andgt	r1, r0, #196, 14	; 0x3100000
     fb0:	c20018ec 	andgt	r1, r0, #236, 16	; 0xec0000
     fb4:	0002b913 	andeq	fp, r2, r3, lsl r9
     fb8:	01970100 	orrseq	r0, r7, r0, lsl #2
     fbc:	00008812 	andeq	r8, r0, r2, lsl r8
     fc0:	64910200 	ldrvs	r0, [r1], #512	; 0x200
     fc4:	01140000 	tsteq	r4, r0
     fc8:	93000001 	movwls	r0, #1
     fcc:	15000008 	strne	r0, [r0, #-8]
     fd0:	00000088 	andeq	r0, r0, r8, lsl #1
     fd4:	3b14001f 	blcc	501058 <SYS_MODE+0x501039>
     fd8:	a3000007 	movwge	r0, #7
     fdc:	15000008 	strne	r0, [r0, #-8]
     fe0:	00000088 	andeq	r0, r0, r8, lsl #1
     fe4:	93030009 	movwls	r0, #12297	; 0x3009
     fe8:	16000008 	strne	r0, [r0], -r8
     fec:	000004e8 	andeq	r0, r0, r8, ror #9
     ff0:	0f012d01 	svceq	0x00012d01
     ff4:	00007701 	andeq	r7, r0, r1, lsl #14
     ff8:	00128000 	andseq	r8, r2, r0
     ffc:	0013dcc2 	andseq	sp, r3, r2, asr #25
    1000:	000818c2 	andeq	r1, r8, r2, asr #17
    1004:	09a20100 	stmibeq	r2!, {r8}
    1008:	6f0f0000 	svcvs	0x000f0000
    100c:	01007475 	tsteq	r0, r5, ror r4
    1010:	d42c012d 	strtle	r0, [ip], #-301	; 0xfffffed3
    1014:	02000000 	andeq	r0, r0, #0
    1018:	5f104c91 	svcpl	0x00104c91
    101c:	01000003 	tsteq	r0, r3
    1020:	4437012d 	ldrtmi	r0, [r7], #-301	; 0xfffffed3
    1024:	02000002 	andeq	r0, r0, #2
    1028:	690f4891 	stmdbvs	pc, {r0, r4, r7, fp, lr}	; <UNPREDICTABLE>
    102c:	01007864 	tsteq	r0, r4, ror #16
    1030:	7746012d 	strbvc	r0, [r6, -sp, lsr #2]
    1034:	02000000 	andeq	r0, r0, #0
    1038:	7b104491 	blvc	412284 <SYS_MODE+0x412265>
    103c:	01000004 	tsteq	r0, r4
    1040:	7752012d 	ldrbvc	r0, [r2, -sp, lsr #2]
    1044:	02000000 	andeq	r0, r0, #0
    1048:	9b104091 	blls	411294 <SYS_MODE+0x411275>
    104c:	01000003 	tsteq	r0, r3
    1050:	706d012d 	rsbvc	r0, sp, sp, lsr #2
    1054:	02000000 	andeq	r0, r0, #0
    1058:	c8100091 	ldmdagt	r0, {r0, r4, r7}
    105c:	01000003 	tsteq	r0, r3
    1060:	d279012d 	rsbsle	r0, r9, #1073741835	; 0x4000000b
    1064:	02000005 	andeq	r0, r0, #5
    1068:	db100891 	blle	4032b4 <SYS_MODE+0x403295>
    106c:	0100000b 	tsteq	r0, fp
    1070:	7096012d 	addsvc	r0, r6, sp, lsr #2
    1074:	02000000 	andeq	r0, r0, #0
    1078:	dc101091 	ldcle	0, cr1, [r0], {145}	; 0x91
    107c:	01000004 	tsteq	r0, r4
    1080:	88a9012d 	stmiahi	r9!, {r0, r2, r3, r5, r8}
    1084:	02000000 	andeq	r0, r0, #0
    1088:	e2101891 	ands	r1, r0, #9502720	; 0x910000
    108c:	01000004 	tsteq	r0, r4
    1090:	88bc012d 	ldmhi	ip!, {r0, r2, r3, r5, r8}
    1094:	02000000 	andeq	r0, r0, #0
    1098:	6a101c91 	bvs	4082e4 <SYS_MODE+0x4082c5>
    109c:	01000004 	tsteq	r0, r4
    10a0:	88d0012d 	ldmhi	r0, {r0, r2, r3, r5, r8}^
    10a4:	02000000 	andeq	r0, r0, #0
    10a8:	62122091 	andsvs	r2, r2, #145	; 0x91
    10ac:	01006675 	tsteq	r0, r5, ror r6
    10b0:	8308012f 	movwhi	r0, #33071	; 0x812f
    10b4:	02000008 	andeq	r0, r0, #8
    10b8:	6c125091 	ldcvs	0, cr5, [r2], {145}	; 0x91
    10bc:	01006e65 	tsteq	r0, r5, ror #28
    10c0:	770a0130 	smladxvc	sl, r0, r1, r0
    10c4:	02000000 	andeq	r0, r0, #0
    10c8:	d8187491 	ldmdale	r8, {r0, r4, r7, sl, ip, sp, lr}
    10cc:	68c20012 	stmiavs	r2, {r1, r4}^
    10d0:	13c20013 	bicne	r0, r2, #19
    10d4:	000004a5 	andeq	r0, r0, r5, lsr #9
    10d8:	12013a01 	andne	r3, r1, #4096	; 0x1000
    10dc:	00000108 	andeq	r0, r0, r8, lsl #2
    10e0:	00739102 	rsbseq	r9, r3, r2, lsl #2
    10e4:	045f1600 	ldrbeq	r1, [pc], #-1536	; 10ec <SYS_MODE+0x10cd>
    10e8:	14010000 	strne	r0, [r1], #-0
    10ec:	77010f01 	strvc	r0, [r1, -r1, lsl #30]
    10f0:	24000000 	strcs	r0, [r0], #-0
    10f4:	80c20011 	sbchi	r0, r2, r1, lsl r0
    10f8:	50c20012 	sbcpl	r0, r2, r2, lsl r0
    10fc:	01000008 	tsteq	r0, r8
    1100:	00000a9c 	muleq	r0, ip, sl
    1104:	74756f0f 	ldrbtvc	r6, [r5], #-3855	; 0xfffff0f1
    1108:	01140100 	tsteq	r4, r0, lsl #2
    110c:	0000d427 	andeq	sp, r0, r7, lsr #8
    1110:	4c910200 	lfmmi	f0, 4, [r1], {0}
    1114:	00035f10 	andeq	r5, r3, r0, lsl pc
    1118:	01140100 	tsteq	r4, r0, lsl #2
    111c:	00024432 	andeq	r4, r2, r2, lsr r4
    1120:	48910200 	ldmmi	r1, {r9}
    1124:	7864690f 	stmdavc	r4!, {r0, r1, r2, r3, r8, fp, sp, lr}^
    1128:	01140100 	tsteq	r4, r0, lsl #2
    112c:	00007741 	andeq	r7, r0, r1, asr #14
    1130:	44910200 	ldrmi	r0, [r1], #512	; 0x200
    1134:	00047b10 	andeq	r7, r4, r0, lsl fp
    1138:	01140100 	tsteq	r4, r0, lsl #2
    113c:	0000774d 	andeq	r7, r0, sp, asr #14
    1140:	40910200 	addsmi	r0, r1, r0, lsl #4
    1144:	00039b10 	andeq	r9, r3, r0, lsl fp
    1148:	01140100 	tsteq	r4, r0, lsl #2
    114c:	00005d63 	andeq	r5, r0, r3, ror #26
    1150:	00910200 	addseq	r0, r1, r0, lsl #4
    1154:	0003c810 	andeq	ip, r3, r0, lsl r8
    1158:	01140100 	tsteq	r4, r0, lsl #2
    115c:	0005d26f 	andeq	sp, r5, pc, ror #4
    1160:	04910200 	ldreq	r0, [r1], #512	; 0x200
    1164:	000bdb10 	andeq	sp, fp, r0, lsl fp
    1168:	01140100 	tsteq	r4, r0, lsl #2
    116c:	00005d87 	andeq	r5, r0, r7, lsl #27
    1170:	08910200 	ldmeq	r1, {r9}
    1174:	0004dc10 	andeq	sp, r4, r0, lsl ip
    1178:	01140100 	tsteq	r4, r0, lsl #2
    117c:	0000889a 	muleq	r0, sl, r8
    1180:	0c910200 	lfmeq	f0, 4, [r1], {0}
    1184:	0004e210 	andeq	lr, r4, r0, lsl r2
    1188:	01140100 	tsteq	r4, r0, lsl #2
    118c:	000088ad 	andeq	r8, r0, sp, lsr #17
    1190:	10910200 	addsne	r0, r1, r0, lsl #4
    1194:	00046a10 	andeq	r6, r4, r0, lsl sl
    1198:	01140100 	tsteq	r4, r0, lsl #2
    119c:	000088c1 	andeq	r8, r0, r1, asr #17
    11a0:	14910200 	ldrne	r0, [r1], #512	; 0x200
    11a4:	66756212 			; <UNDEFINED> instruction: 0x66756212
    11a8:	01160100 	tsteq	r6, r0, lsl #2
    11ac:	00088308 	andeq	r8, r8, r8, lsl #6
    11b0:	50910200 	addspl	r0, r1, r0, lsl #4
    11b4:	6e656c12 	mcrvs	12, 3, r6, cr5, cr2, {0}
    11b8:	01170100 	tsteq	r7, r0, lsl #2
    11bc:	0000770a 	andeq	r7, r0, sl, lsl #14
    11c0:	74910200 	ldrvc	r0, [r1], #512	; 0x200
    11c4:	00117c18 	andseq	r7, r1, r8, lsl ip
    11c8:	00120cc2 	andseq	r0, r2, r2, asr #25
    11cc:	04a513c2 	strteq	r1, [r5], #962	; 0x3c2
    11d0:	21010000 	mrscs	r0, (UNDEF: 1)
    11d4:	01081201 	tsteq	r8, r1, lsl #4
    11d8:	91020000 	mrsls	r0, (UNDEF: 2)
    11dc:	1b000073 	blne	13b0 <SYS_MODE+0x1391>
    11e0:	00000423 	andeq	r0, r0, r3, lsr #8
    11e4:	010fde01 	tsteq	pc, r1, lsl #28
    11e8:	00000077 	andeq	r0, r0, r7, ror r0
    11ec:	c2000dec 	andgt	r0, r0, #236, 26	; 0x3b00
    11f0:	c2001124 	andgt	r1, r0, #36, 2
    11f4:	00000888 	andeq	r0, r0, r8, lsl #17
    11f8:	000b6001 	andeq	r6, fp, r1
    11fc:	756f1c00 	strbvc	r1, [pc, #-3072]!	; 604 <SYS_MODE+0x5e5>
    1200:	de010074 	mcrle	0, 0, r0, cr1, cr4, {3}
    1204:	0000d429 	andeq	sp, r0, r9, lsr #8
    1208:	74910200 	ldrvc	r0, [r1], #512	; 0x200
    120c:	00035f1d 	andeq	r5, r3, sp, lsl pc
    1210:	34de0100 	ldrbcc	r0, [lr], #256	; 0x100
    1214:	00000244 	andeq	r0, r0, r4, asr #4
    1218:	1c709102 	ldfnep	f1, [r0], #-8
    121c:	00786469 	rsbseq	r6, r8, r9, ror #8
    1220:	7743de01 	strbvc	sp, [r3, -r1, lsl #28]
    1224:	02000000 	andeq	r0, r0, #0
    1228:	7b1d6c91 	blvc	75c474 <SYS_MODE+0x75c455>
    122c:	01000004 	tsteq	r0, r4
    1230:	00774fde 	ldrsbteq	r4, [r7], #-254	; 0xffffff02
    1234:	91020000 	mrsls	r0, (UNDEF: 2)
    1238:	75621c68 	strbvc	r1, [r2, #-3176]!	; 0xfffff398
    123c:	de010066 	cdple	0, 0, cr0, cr1, cr6, {3}
    1240:	0002445d 	andeq	r4, r2, sp, asr r4
    1244:	00910200 	addseq	r0, r1, r0, lsl #4
    1248:	6e656c1c 	mcrvs	12, 3, r6, cr5, cr12, {0}
    124c:	69de0100 	ldmibvs	lr, {r8}^
    1250:	00000077 	andeq	r0, r0, r7, ror r0
    1254:	1d049102 	stfned	f1, [r4, #-8]
    1258:	000003c8 	andeq	r0, r0, r8, asr #7
    125c:	d273de01 	rsbsle	sp, r3, #1, 28
    1260:	02000005 	andeq	r0, r0, #5
    1264:	db1d0891 	blle	7434b0 <SYS_MODE+0x743491>
    1268:	0100000b 	tsteq	r0, fp
    126c:	00888ade 	ldrdeq	r8, [r8], lr
    1270:	91020000 	mrsls	r0, (UNDEF: 2)
    1274:	04dc1d0c 	ldrbeq	r1, [ip], #3340	; 0xd0c
    1278:	de010000 	cdple	0, 0, cr0, cr1, cr0, {0}
    127c:	0000889d 	muleq	r0, sp, r8
    1280:	10910200 	addsne	r0, r1, r0, lsl #4
    1284:	0004e21d 	andeq	lr, r4, sp, lsl r2
    1288:	b0de0100 	sbcslt	r0, lr, r0, lsl #2
    128c:	00000088 	andeq	r0, r0, r8, lsl #1
    1290:	1d149102 	ldfned	f1, [r4, #-8]
    1294:	0000046a 	andeq	r0, r0, sl, ror #8
    1298:	88c4de01 	stmiahi	r4, {r0, r9, sl, fp, ip, lr, pc}^
    129c:	02000000 	andeq	r0, r0, #0
    12a0:	1b001891 	blne	74ec <SYS_MODE+0x74cd>
    12a4:	000004c1 	andeq	r0, r0, r1, asr #9
    12a8:	010fc201 	tsteq	pc, r1, lsl #4
    12ac:	00000077 	andeq	r0, r0, r7, ror r0
    12b0:	c2000cbc 	andgt	r0, r0, #188, 24	; 0xbc00
    12b4:	c2000dec 	andgt	r0, r0, #236, 26	; 0x3b00
    12b8:	000008c0 	andeq	r0, r0, r0, asr #17
    12bc:	000c1d01 	andeq	r1, ip, r1, lsl #26
    12c0:	756f1c00 	strbvc	r1, [pc, #-3072]!	; 6c8 <SYS_MODE+0x6a9>
    12c4:	c2010074 	andgt	r0, r1, #116	; 0x74
    12c8:	0000d425 	andeq	sp, r0, r5, lsr #8
    12cc:	64910200 	ldrvs	r0, [r1], #512	; 0x200
    12d0:	00035f1d 	andeq	r5, r3, sp, lsl pc
    12d4:	30c20100 	sbccc	r0, r2, r0, lsl #2
    12d8:	00000244 	andeq	r0, r0, r4, asr #4
    12dc:	1c609102 	stfnep	f1, [r0], #-8
    12e0:	00786469 	rsbseq	r6, r8, r9, ror #8
    12e4:	773fc201 	ldrvc	ip, [pc, -r1, lsl #4]!
    12e8:	02000000 	andeq	r0, r0, #0
    12ec:	7b1d5c91 	blvc	758538 <SYS_MODE+0x758519>
    12f0:	01000004 	tsteq	r0, r4
    12f4:	00774bc2 	rsbseq	r4, r7, r2, asr #23
    12f8:	91020000 	mrsls	r0, (UNDEF: 2)
    12fc:	75621c58 	strbvc	r1, [r2, #-3160]!	; 0xfffff3a8
    1300:	c2010066 	andgt	r0, r1, #102	; 0x66
    1304:	0001de5f 	andeq	sp, r1, pc, asr lr
    1308:	00910200 	addseq	r0, r1, r0, lsl #4
    130c:	6e656c1c 	mcrvs	12, 3, r6, cr5, cr12, {0}
    1310:	6bc20100 	blvs	ff081718 <_stack_end+0x3d05b518>
    1314:	00000077 	andeq	r0, r0, r7, ror r0
    1318:	1d049102 	stfned	f1, [r4, #-8]
    131c:	000004e2 	andeq	r0, r0, r2, ror #9
    1320:	887dc201 	ldmdahi	sp!, {r0, r9, lr, pc}^
    1324:	02000000 	andeq	r0, r0, #0
    1328:	6a1d0891 	bvs	743574 <SYS_MODE+0x743555>
    132c:	01000004 	tsteq	r0, r4
    1330:	008891c2 	addeq	r9, r8, r2, asr #3
    1334:	91020000 	mrsls	r0, (UNDEF: 2)
    1338:	03b41e0c 			; <UNDEFINED> instruction: 0x03b41e0c
    133c:	c4010000 	strgt	r0, [r1], #-0
    1340:	00008310 	andeq	r8, r0, r0, lsl r3
    1344:	68910200 	ldmvs	r1, {r9}
    1348:	000d0018 	andeq	r0, sp, r8, lsl r0
    134c:	000d48c2 	andeq	r4, sp, r2, asr #17
    1350:	00691fc2 	rsbeq	r1, r9, r2, asr #31
    1354:	7711c801 	ldrvc	ip, [r1, -r1, lsl #16]
    1358:	02000000 	andeq	r0, r0, #0
    135c:	00006c91 	muleq	r0, r1, ip
    1360:	0004821b 	andeq	r8, r4, fp, lsl r2
    1364:	15b70100 	ldrne	r0, [r7, #256]!	; 0x100
    1368:	00008801 	andeq	r8, r0, r1, lsl #16
    136c:	000c4000 	andeq	r4, ip, r0
    1370:	000cbcc2 	andeq	fp, ip, r2, asr #25
    1374:	0008f8c2 	andeq	pc, r8, r2, asr #17
    1378:	0c580100 	ldfeqe	f0, [r8], {-0}
    137c:	731c0000 	tstvc	ip, #0
    1380:	01007274 	tsteq	r0, r4, ror r2
    1384:	0c5828b7 	mrrceq	8, 11, r2, r8, cr7
    1388:	91020000 	mrsls	r0, (UNDEF: 2)
    138c:	00691f6c 	rsbeq	r1, r9, ip, ror #30
    1390:	8810b901 	ldmdahi	r0, {r0, r8, fp, ip, sp, pc}
    1394:	02000000 	andeq	r0, r0, #0
    1398:	09007491 	stmdbeq	r0, {r0, r4, r7, sl, ip, sp, lr}
    139c:	0001de04 	andeq	sp, r1, r4, lsl #28
    13a0:	04a12000 	strteq	r2, [r1], #0
    13a4:	b0010000 	andlt	r0, r1, r0
    13a8:	05d20114 	ldrbeq	r0, [r2, #276]	; 0x114
    13ac:	0bf00000 	bleq	ffc013b4 <_stack_end+0x3dbdb1b4>
    13b0:	0c40c200 	sfmeq	f4, 3, [r0], {-0}
    13b4:	0930c200 	ldmdbeq	r0!, {r9, lr, pc}
    13b8:	8b010000 	blhi	413c0 <SYS_MODE+0x413a1>
    13bc:	1c00000c 	stcne	0, cr0, [r0], {12}
    13c0:	01006863 	tsteq	r0, r3, ror #16
    13c4:	010123b0 			; <UNDEFINED> instruction: 0x010123b0
    13c8:	91020000 	mrsls	r0, (UNDEF: 2)
    13cc:	88200077 	stmdahi	r0!, {r0, r1, r2, r4, r5, r6}
    13d0:	01000004 	tsteq	r0, r4
    13d4:	88011ca6 	stmdahi	r1, {r1, r2, r5, r7, sl, fp, ip}
    13d8:	84000000 	strhi	r0, [r0], #-0
    13dc:	f0c2000b 			; <UNDEFINED> instruction: 0xf0c2000b
    13e0:	74c2000b 	strbvc	r0, [r2], #11
    13e4:	01000009 	tsteq	r0, r9
    13e8:	00000cd5 	ldrdeq	r0, [r0], -r5
    13ec:	7274731c 	rsbsvc	r7, r4, #28, 6	; 0x70000000
    13f0:	33a60100 			; <UNDEFINED> instruction: 0x33a60100
    13f4:	000001de 	ldrdeq	r0, [r0], -lr
    13f8:	1d6c9102 	stfnep	f1, [ip, #-8]!
    13fc:	00000388 	andeq	r0, r0, r8, lsl #7
    1400:	773fa601 	ldrvc	sl, [pc, -r1, lsl #12]!
    1404:	02000000 	andeq	r0, r0, #0
    1408:	731f6891 	tstvc	pc, #9502720	; 0x910000
    140c:	0fa80100 	svceq	0x00a80100
    1410:	000001de 	ldrdeq	r0, [r0], -lr
    1414:	00749102 	rsbseq	r9, r4, r2, lsl #2
    1418:	0003a121 	andeq	sl, r3, r1, lsr #2
    141c:	149a0100 	ldrne	r0, [sl], #256	; 0x100
    1420:	00000001 	andeq	r0, r0, r1
    1424:	00000000 	andeq	r0, r0, r0
    1428:	0009b800 	andeq	fp, r9, r0, lsl #16
    142c:	0d2c0100 	stfeqs	f0, [ip, #-0]
    1430:	b71d0000 	ldrlt	r0, [sp, -r0]
    1434:	01000004 	tsteq	r0, r4
    1438:	0101229a 			; <UNDEFINED> instruction: 0x0101229a
    143c:	91020000 	mrsls	r0, (UNDEF: 2)
    1440:	035f1d77 	cmpeq	pc, #7616	; 0x1dc0
    1444:	9a010000 	bls	4144c <SYS_MODE+0x4142d>
    1448:	0000ba33 	andeq	fp, r0, r3, lsr sl
    144c:	70910200 	addsvc	r0, r1, r0, lsl #4
    1450:	7864691c 	stmdavc	r4!, {r2, r3, r4, r8, fp, sp, lr}^
    1454:	429a0100 	addsmi	r0, sl, #0, 2
    1458:	00000077 	andeq	r0, r0, r7, ror r0
    145c:	1d6c9102 	stfnep	f1, [ip, #-8]!
    1460:	0000047b 	andeq	r0, r0, fp, ror r4
    1464:	774e9a01 	strbvc	r9, [lr, -r1, lsl #20]
    1468:	02000000 	andeq	r0, r0, #0
    146c:	21006891 			; <UNDEFINED> instruction: 0x21006891
    1470:	0000037e 	andeq	r0, r0, lr, ror r3
    1474:	01149001 	tsteq	r4, r1
    1478:	c2000b40 	andgt	r0, r0, #64, 22	; 0x10000
    147c:	c2000b84 	andgt	r0, r0, #132, 22	; 0x21000
    1480:	000009f0 	strdeq	r0, [r0], -r0	; <UNPREDICTABLE>
    1484:	000d8301 	andeq	r8, sp, r1, lsl #6
    1488:	04b71d00 	ldrteq	r1, [r7], #3328	; 0xd00
    148c:	90010000 	andls	r0, r1, r0
    1490:	00010123 	andeq	r0, r1, r3, lsr #2
    1494:	77910200 	ldrvc	r0, [r1, r0, lsl #4]
    1498:	00035f1d 	andeq	r5, r3, sp, lsl pc
    149c:	34900100 	ldrcc	r0, [r0], #256	; 0x100
    14a0:	000000ba 	strheq	r0, [r0], -sl
    14a4:	1c709102 	ldfnep	f1, [r0], #-8
    14a8:	00786469 	rsbseq	r6, r8, r9, ror #8
    14ac:	77439001 	strbvc	r9, [r3, -r1]
    14b0:	02000000 	andeq	r0, r0, #0
    14b4:	7b1d6c91 	blvc	75c700 <SYS_MODE+0x75c6e1>
    14b8:	01000004 	tsteq	r0, r4
    14bc:	00774f90 			; <UNDEFINED> instruction: 0x00774f90
    14c0:	91020000 	mrsls	r0, (UNDEF: 2)
    14c4:	41220068 			; <UNDEFINED> instruction: 0x41220068
    14c8:	01000004 	tsteq	r0, r4
    14cc:	10011489 	andne	r1, r1, r9, lsl #9
    14d0:	40c2000b 	sbcmi	r0, r2, fp
    14d4:	28c2000b 	stmiacs	r2, {r0, r1, r3}^
    14d8:	0100000a 	tsteq	r0, sl
    14dc:	00000dda 	ldrdeq	r0, [r0], -sl
    14e0:	0004b71d 	andeq	fp, r4, sp, lsl r7
    14e4:	23890100 	orrcs	r0, r9, #0, 2
    14e8:	00000101 	andeq	r0, r0, r1, lsl #2
    14ec:	1d779102 	ldfnep	f1, [r7, #-8]!
    14f0:	0000035f 	andeq	r0, r0, pc, asr r3
    14f4:	ba348901 	blt	d23900 <SYS_MODE+0xd238e1>
    14f8:	02000000 	andeq	r0, r0, #0
    14fc:	691c7091 	ldmdbvs	ip, {r0, r4, r7, ip, sp, lr}
    1500:	01007864 	tsteq	r0, r4, ror #16
    1504:	00774389 	rsbseq	r4, r7, r9, lsl #7
    1508:	91020000 	mrsls	r0, (UNDEF: 2)
    150c:	047b1d6c 	ldrbteq	r1, [fp], #-3436	; 0xfffff294
    1510:	89010000 	stmdbhi	r1, {}	; <UNPREDICTABLE>
    1514:	0000774f 	andeq	r7, r0, pc, asr #14
    1518:	68910200 	ldmvs	r1, {r9}
    151c:	035a2300 	cmpeq	sl, #0, 6
    1520:	80010000 	andhi	r0, r1, r0
    1524:	00000114 	andeq	r0, r0, r4, lsl r1
    1528:	00000000 	andeq	r0, r0, r0
    152c:	0a6c0000 	beq	1b01534 <SYS_MODE+0x1b01515>
    1530:	1d010000 	stcne	0, cr0, [r1, #-0]
    1534:	000004b7 			; <UNDEFINED> instruction: 0x000004b7
    1538:	01258001 			; <UNDEFINED> instruction: 0x01258001
    153c:	02000001 	andeq	r0, r0, #1
    1540:	5f1d7791 	svcpl	0x001d7791
    1544:	01000003 	tsteq	r0, r3
    1548:	00ba3680 	adcseq	r3, sl, r0, lsl #13
    154c:	91020000 	mrsls	r0, (UNDEF: 2)
    1550:	64691c70 	strbtvs	r1, [r9], #-3184	; 0xfffff390
    1554:	80010078 	andhi	r0, r1, r8, ror r0
    1558:	00007745 	andeq	r7, r0, r5, asr #14
    155c:	6c910200 	lfmvs	f0, 4, [r1], {0}
    1560:	00047b1d 	andeq	r7, r4, sp, lsl fp
    1564:	51800100 	orrpl	r0, r0, r0, lsl #2
    1568:	00000077 	andeq	r0, r0, r7, ror r0
    156c:	00689102 	rsbeq	r9, r8, r2, lsl #2
    1570:	00002200 	andeq	r2, r0, r0, lsl #4
    1574:	16000200 	strne	r0, [r0], -r0, lsl #4
    1578:	04000004 	streq	r0, [r0], #-4
    157c:	00117401 	andseq	r7, r1, r1, lsl #8
    1580:	0000f400 	andeq	pc, r0, r0, lsl #8
    1584:	00016cc2 	andeq	r6, r1, r2, asr #25
    1588:	000511c2 	andeq	r1, r5, r2, asr #3
    158c:	00026a00 	andeq	r6, r2, r0, lsl #20
    1590:	00056b00 	andeq	r6, r5, r0, lsl #22
    1594:	22800100 	addcs	r0, r0, #0, 2
    1598:	02000000 	andeq	r0, r0, #0
    159c:	00042a00 	andeq	r2, r4, r0, lsl #20
    15a0:	1a010400 	bne	425a8 <SYS_MODE+0x42589>
    15a4:	6c000012 	stcvs	0, cr0, [r0], {18}
    15a8:	a0c20001 	sbcge	r0, r2, r1
    15ac:	79c20004 	stmibvc	r2, {r2}^
    15b0:	6a000005 	bvs	15cc <SYS_MODE+0x15ad>
    15b4:	6b000002 	blvs	15c4 <SYS_MODE+0x15a5>
    15b8:	01000005 	tsteq	r0, r5
    15bc:	00002280 	andeq	r2, r0, r0, lsl #5
    15c0:	3e000200 	cdpcc	2, 0, cr0, cr0, cr0, {0}
    15c4:	04000004 	streq	r0, [r0], #-4
    15c8:	00136701 	andseq	r6, r3, r1, lsl #14
    15cc:	0004a000 	andeq	sl, r4, r0
    15d0:	0005dcc2 	andeq	sp, r5, r2, asr #25
    15d4:	0005c8c2 	andeq	ip, r5, r2, asr #17
    15d8:	00026a00 	andeq	r6, r2, r0, lsl #20
    15dc:	00056b00 	andeq	r6, r5, r0, lsl #22
    15e0:	1b800100 	blne	fe0019e8 <_stack_end+0x3bfdb7e8>
    15e4:	02000001 	andeq	r0, r0, #1
    15e8:	00045200 	andeq	r5, r4, r0, lsl #4
    15ec:	18010400 	stmdane	r1, {sl}
    15f0:	0c000000 	stceq	0, cr0, [r0], {-0}
    15f4:	00000659 	andeq	r0, r0, r9, asr r6
    15f8:	0000026a 	andeq	r0, r0, sl, ror #4
    15fc:	00000168 	andeq	r0, r0, r8, ror #2
	...
    1608:	00001439 	andeq	r1, r0, r9, lsr r4
    160c:	86060102 	strhi	r0, [r6], -r2, lsl #2
    1610:	02000001 	andeq	r0, r0, #1
    1614:	023d0502 	eorseq	r0, sp, #8388608	; 0x800000
    1618:	04020000 	streq	r0, [r2], #-0
    161c:	00021105 	andeq	r1, r2, r5, lsl #2
    1620:	05080200 	streq	r0, [r8, #-512]	; 0xfffffe00
    1624:	0000020c 	andeq	r0, r0, ip, lsl #4
    1628:	84080102 	strhi	r0, [r8], #-258	; 0xfffffefe
    162c:	02000001 	andeq	r0, r0, #1
    1630:	01620702 	cmneq	r2, r2, lsl #14
    1634:	b6030000 	strlt	r0, [r3], -r0
    1638:	02000006 	andeq	r0, r0, #6
    163c:	00641d1f 	rsbeq	r1, r4, pc, lsl sp
    1640:	53040000 	movwpl	r0, #16384	; 0x4000
    1644:	02000000 	andeq	r0, r0, #0
    1648:	01d90704 	bicseq	r0, r9, r4, lsl #14
    164c:	08020000 	stmdaeq	r2, {}	; <UNPREDICTABLE>
    1650:	0001d407 	andeq	sp, r1, r7, lsl #8
    1654:	07040200 	streq	r0, [r4, -r0, lsl #4]
    1658:	000001de 	ldrdeq	r0, [r0], -lr
    165c:	69050405 	stmdbvs	r5, {r0, r2, sl}
    1660:	0600746e 	streq	r7, [r0], -lr, ror #8
    1664:	0006a601 	andeq	sl, r6, r1, lsl #12
    1668:	06200100 	strteq	r0, [r0], -r0, lsl #2
    166c:	00000001 	andeq	r0, r0, r1
    1670:	00000000 	andeq	r0, r0, r0
    1674:	000ab000 	andeq	fp, sl, r0
    1678:	00d80100 	sbcseq	r0, r8, r0, lsl #2
    167c:	ed070000 	stc	0, cr0, [r7, #-0]
    1680:	0100000f 	tsteq	r0, pc
    1684:	00531f20 	subseq	r1, r3, r0, lsr #30
    1688:	91020000 	mrsls	r0, (UNDEF: 2)
    168c:	06190864 	ldreq	r0, [r9], -r4, ror #16
    1690:	22010000 	andcs	r0, r1, #0
    1694:	00005f17 	andeq	r5, r0, r7, lsl pc
    1698:	74910200 	ldrvc	r0, [r1], #512	; 0x200
    169c:	00063c08 	andeq	r3, r6, r8, lsl #24
    16a0:	23220100 			; <UNDEFINED> instruction: 0x23220100
    16a4:	0000005f 	andeq	r0, r0, pc, asr r0
    16a8:	08709102 	ldmdaeq	r0!, {r1, r8, ip, pc}^
    16ac:	000006bf 			; <UNDEFINED> instruction: 0x000006bf
    16b0:	5f322201 	svcpl	0x00322201
    16b4:	02000000 	andeq	r0, r0, #0
    16b8:	09006c91 	stmdbeq	r0, {r0, r4, r7, sl, fp, sp, lr}
    16bc:	00064601 	andeq	r4, r6, r1, lsl #12
    16c0:	0a150100 	beq	541ac8 <SYS_MODE+0x541aa9>
    16c4:	00005301 	andeq	r5, r0, r1, lsl #6
	...
    16d0:	000ae800 	andeq	lr, sl, r0, lsl #16
    16d4:	01070100 	mrseq	r0, (UNDEF: 23)
    16d8:	53080000 	movwpl	r0, #32768	; 0x8000
    16dc:	01000006 	tsteq	r0, r6
    16e0:	00530e17 	subseq	r0, r3, r7, lsl lr
    16e4:	91020000 	mrsls	r0, (UNDEF: 2)
    16e8:	010a0074 	tsteq	sl, r4, ror r0
    16ec:	00000620 	andeq	r0, r0, r0, lsr #12
    16f0:	01060701 	tsteq	r6, r1, lsl #14
    16f4:	c2003048 	andgt	r3, r0, #72	; 0x48
    16f8:	c200306c 	andgt	r3, r0, #108	; 0x6c
    16fc:	00000b2c 	andeq	r0, r0, ip, lsr #22
    1700:	00220001 	eoreq	r0, r2, r1
    1704:	00020000 	andeq	r0, r2, r0
    1708:	0000050a 	andeq	r0, r0, sl, lsl #10
    170c:	15b50104 	ldrne	r0, [r5, #260]!	; 0x104
    1710:	05dc0000 	ldrbeq	r0, [ip]
    1714:	05f4c200 	ldrbeq	ip, [r4, #512]!	; 0x200
    1718:	06cbc200 	strbeq	ip, [fp], r0, lsl #4
    171c:	026a0000 	rsbeq	r0, sl, #0
    1720:	056b0000 	strbeq	r0, [fp, #-0]!
    1724:	80010000 	andhi	r0, r1, r0
    1728:	00000022 	andeq	r0, r0, r2, lsr #32
    172c:	051e0002 	ldreq	r0, [lr, #-2]
    1730:	01040000 	mrseq	r0, (UNDEF: 4)
    1734:	0000163c 	andeq	r1, r0, ip, lsr r6
    1738:	c20005f4 	andgt	r0, r0, #244, 10	; 0x3d000000
    173c:	c2000638 	andgt	r0, r0, #56, 12	; 0x3800000
    1740:	0000071e 	andeq	r0, r0, lr, lsl r7
    1744:	0000026a 	andeq	r0, r0, sl, ror #4
    1748:	0000056b 	andeq	r0, r0, fp, ror #10
    174c:	00b18001 	adcseq	r8, r1, r1
    1750:	00020000 	andeq	r0, r2, r0
    1754:	00000532 	andeq	r0, r0, r2, lsr r5
    1758:	00180104 	andseq	r0, r8, r4, lsl #2
    175c:	880c0000 	stmdahi	ip, {}	; <UNPREDICTABLE>
    1760:	6a000007 	bvs	1784 <SYS_MODE+0x1765>
    1764:	88000002 	stmdahi	r0, {r1}
    1768:	00000001 	andeq	r0, r0, r1
    176c:	00000000 	andeq	r0, r0, r0
    1770:	c8000000 	stmdagt	r0, {}	; <UNPREDICTABLE>
    1774:	02000016 	andeq	r0, r0, #22
    1778:	01860601 	orreq	r0, r6, r1, lsl #12
    177c:	02020000 	andeq	r0, r2, #0
    1780:	00023d05 	andeq	r3, r2, r5, lsl #26
    1784:	05040200 	streq	r0, [r4, #-512]	; 0xfffffe00
    1788:	00000211 	andeq	r0, r0, r1, lsl r2
    178c:	0c050802 	stceq	8, cr0, [r5], {2}
    1790:	02000002 	andeq	r0, r0, #2
    1794:	01840801 	orreq	r0, r4, r1, lsl #16
    1798:	02020000 	andeq	r0, r2, #0
    179c:	00016207 	andeq	r6, r1, r7, lsl #4
    17a0:	07040200 	streq	r0, [r4, -r0, lsl #4]
    17a4:	000001d9 	ldrdeq	r0, [r0], -r9
    17a8:	d4070802 	strle	r0, [r7], #-2050	; 0xfffff7fe
    17ac:	02000001 	andeq	r0, r0, #1
    17b0:	01de0704 	bicseq	r0, lr, r4, lsl #14
    17b4:	04030000 	streq	r0, [r3], #-0
    17b8:	746e6905 	strbtvc	r6, [lr], #-2309	; 0xfffff6fb
    17bc:	007a0400 	rsbseq	r0, sl, r0, lsl #8
    17c0:	007a0000 	rsbseq	r0, sl, r0
    17c4:	00050000 	andeq	r0, r5, r0
    17c8:	8d080102 	stfhis	f0, [r8, #-8]
    17cc:	06000001 	streq	r0, [r0], -r1
    17d0:	0000076b 	andeq	r0, r0, fp, ror #14
    17d4:	6f0d0f01 	svcvs	0x000d0f01
    17d8:	01000000 	mrseq	r0, (UNDEF: 0)
    17dc:	07d60601 	ldrbeq	r0, [r6, r1, lsl #12]
    17e0:	0f010000 	svceq	0x00010000
    17e4:	00006f1c 	andeq	r6, r0, ip, lsl pc
    17e8:	07010100 	streq	r0, [r1, -r0, lsl #2]
    17ec:	00077701 	andeq	r7, r7, r1, lsl #14
    17f0:	06140100 	ldreq	r0, [r4], -r0, lsl #2
    17f4:	00306c01 	eorseq	r6, r0, r1, lsl #24
    17f8:	0030ecc2 	eorseq	lr, r0, r2, asr #25
    17fc:	000b70c2 	andeq	r7, fp, r2, asr #1
    1800:	ed000100 	stfs	f0, [r0, #-0]
    1804:	02000001 	andeq	r0, r0, #1
    1808:	00059900 	andeq	r9, r5, r0, lsl #18
    180c:	18010400 	stmdane	r1, {sl}
    1810:	0c000000 	stceq	0, cr0, [r0], {-0}
    1814:	00000818 	andeq	r0, r0, r8, lsl r8
    1818:	0000026a 	andeq	r0, r0, sl, ror #4
    181c:	00000198 	muleq	r0, r8, r1
	...
    1828:	00001767 	andeq	r1, r0, r7, ror #14
    182c:	86060102 	strhi	r0, [r6], -r2, lsl #2
    1830:	02000001 	andeq	r0, r0, #1
    1834:	023d0502 	eorseq	r0, sp, #8388608	; 0x800000
    1838:	04020000 	streq	r0, [r2], #-0
    183c:	00021105 	andeq	r1, r2, r5, lsl #2
    1840:	05080200 	streq	r0, [r8, #-512]	; 0xfffffe00
    1844:	0000020c 	andeq	r0, r0, ip, lsl #4
    1848:	84080102 	strhi	r0, [r8], #-258	; 0xfffffefe
    184c:	02000001 	andeq	r0, r0, #1
    1850:	01620702 	cmneq	r2, r2, lsl #14
    1854:	b6030000 	strlt	r0, [r3], -r0
    1858:	02000006 	andeq	r0, r0, #6
    185c:	005f1d1f 	subseq	r1, pc, pc, lsl sp	; <UNPREDICTABLE>
    1860:	04020000 	streq	r0, [r2], #-0
    1864:	0001d907 	andeq	sp, r1, r7, lsl #18
    1868:	07080200 	streq	r0, [r8, -r0, lsl #4]
    186c:	000001d4 	ldrdeq	r0, [r0], -r4
    1870:	de070402 	cdple	4, 0, cr0, cr7, cr2, {0}
    1874:	04000001 	streq	r0, [r0], #-1
    1878:	05040504 	streq	r0, [r4, #-1284]	; 0xfffffafc
    187c:	00746e69 	rsbseq	r6, r4, r9, ror #28
    1880:	00086a03 	andeq	r6, r8, r3, lsl #20
    1884:	100b0300 	andne	r0, fp, r0, lsl #6
    1888:	00000089 	andeq	r0, r0, r9, lsl #1
    188c:	008f0406 	addeq	r0, pc, r6, lsl #8
    1890:	01070000 	mrseq	r0, (UNDEF: 7)
    1894:	0000009b 	muleq	r0, fp, r0
    1898:	00007408 	andeq	r7, r0, r8, lsl #8
    189c:	65090000 	strvs	r0, [r9, #-0]
    18a0:	08000008 	stmdaeq	r0, {r3}
    18a4:	c7080801 	strgt	r0, [r8, -r1, lsl #16]
    18a8:	0a000000 	beq	18b0 <SYS_MODE+0x1891>
    18ac:	00000ef8 	strdeq	r0, [r0], -r8
    18b0:	7d160a01 	vldrvc	s0, [r6, #-4]
    18b4:	02000000 	andeq	r0, r0, #0
    18b8:	8f0a0023 	svchi	0x000a0023
    18bc:	01000008 	tsteq	r0, r8
    18c0:	00740b0b 	rsbseq	r0, r4, fp, lsl #22
    18c4:	23020000 	movwcs	r0, #8192	; 0x2000
    18c8:	9b0b0004 	blls	2c18e0 <SYS_MODE+0x2c18c1>
    18cc:	d7000000 	strle	r0, [r0, -r0]
    18d0:	0c000000 	stceq	0, cr0, [r0], {-0}
    18d4:	0000006d 	andeq	r0, r0, sp, rrx
    18d8:	940d007f 	strls	r0, [sp], #-127	; 0xffffff81
    18dc:	01000008 	tsteq	r0, r8
    18e0:	00c72511 	sbceq	r2, r7, r1, lsl r5
    18e4:	03050000 	movweq	r0, #20480	; 0x5000
    18e8:	c2005400 	andgt	r5, r0, #0, 8
    18ec:	087b010e 	ldmdaeq	fp!, {r1, r2, r3, r8}^
    18f0:	50010000 	andpl	r0, r1, r0
    18f4:	00000106 	andeq	r0, r0, r6, lsl #2
    18f8:	00000000 	andeq	r0, r0, r0
    18fc:	0b9c0000 	bleq	fe701904 <_stack_end+0x3c6db704>
    1900:	14010000 	strne	r0, [r1], #-0
    1904:	0f000001 	svceq	0x00000001
    1908:	00717269 	rsbseq	r7, r1, r9, ror #4
    190c:	53235001 			; <UNDEFINED> instruction: 0x53235001
    1910:	02000000 	andeq	r0, r0, #0
    1914:	0e007491 	mcreq	4, 0, r7, cr0, cr1, {4}
    1918:	0008ab01 	andeq	sl, r8, r1, lsl #22
    191c:	063a0100 	ldrteq	r0, [sl], -r0, lsl #2
    1920:	0031d401 	eorseq	sp, r1, r1, lsl #8
    1924:	003264c2 	eorseq	r6, r2, r2, asr #9
    1928:	000bd4c2 	andeq	sp, fp, r2, asr #9
    192c:	016c0100 	cmneq	ip, r0, lsl #2
    1930:	690f0000 	stmdbvs	pc, {}	; <UNPREDICTABLE>
    1934:	01007172 	tsteq	r0, r2, ror r1
    1938:	0053213a 	subseq	r2, r3, sl, lsr r1
    193c:	91020000 	mrsls	r0, (UNDEF: 2)
    1940:	118d1074 	orrne	r1, sp, r4, ror r0
    1944:	3a010000 	bcc	4194c <SYS_MODE+0x4192d>
    1948:	0000532f 	andeq	r5, r0, pc, lsr #6
    194c:	70910200 	addsvc	r0, r1, r0, lsl #4
    1950:	00088f10 	andeq	r8, r8, r0, lsl pc
    1954:	3f3a0100 	svccc	0x003a0100
    1958:	00000074 	andeq	r0, r0, r4, ror r0
    195c:	106c9102 	rsbne	r9, ip, r2, lsl #2
    1960:	00000ef8 	strdeq	r0, [r0], -r8
    1964:	7d563a01 	vldrvc	s7, [r6, #-4]
    1968:	02000000 	andeq	r0, r0, #0
    196c:	0e006891 	mcreq	8, 0, r6, cr0, cr1, {4}
    1970:	0007f901 	andeq	pc, r7, r1, lsl #18
    1974:	062a0100 	strteq	r0, [sl], -r0, lsl #2
    1978:	00316001 	eorseq	r6, r1, r1
    197c:	0031d4c2 	eorseq	sp, r1, r2, asr #9
    1980:	000c0cc2 	andeq	r0, ip, r2, asr #25
    1984:	019f0100 	orrseq	r0, pc, r0, lsl #2
    1988:	6c110000 	ldcvs	0, cr0, [r1], {-0}
    198c:	c4c20031 	strbgt	r0, [r2], #49	; 0x31
    1990:	12c20031 	sbcne	r0, r2, #49	; 0x31
    1994:	2d010069 	stccs	0, cr0, [r1, #-420]	; 0xfffffe5c
    1998:	00005313 	andeq	r5, r0, r3, lsl r3
    199c:	74910200 	ldrvc	r0, [r1], #512	; 0x200
    19a0:	010e0000 	mrseq	r0, (UNDEF: 14)
    19a4:	00000807 	andeq	r0, r0, r7, lsl #16
    19a8:	01061e01 	tsteq	r6, r1, lsl #28
    19ac:	c200310c 	andgt	r3, r0, #12, 2
    19b0:	c2003160 	andgt	r3, r0, #96, 2
    19b4:	00000c44 	andeq	r0, r0, r4, asr #24
    19b8:	0001ca01 	andeq	ip, r1, r1, lsl #20
    19bc:	72690f00 	rsbvc	r0, r9, #0, 30
    19c0:	1e010071 	mcrne	0, 0, r0, cr1, cr1, {3}
    19c4:	00005320 	andeq	r5, r0, r0, lsr #6
    19c8:	74910200 	ldrvc	r0, [r1], #512	; 0x200
    19cc:	07e01300 	strbeq	r1, [r0, r0, lsl #6]!
    19d0:	16010000 	strne	r0, [r1], -r0
    19d4:	30ec010d 	rsccc	r0, ip, sp, lsl #2
    19d8:	310cc200 	mrscc	ip, R12_fiq
    19dc:	0c7cc200 	lfmeq	f4, 3, [ip], #-0
    19e0:	10010000 	andne	r0, r1, r0
    19e4:	0000088f 	andeq	r0, r0, pc, lsl #17
    19e8:	742c1601 	strtvc	r1, [ip], #-1537	; 0xfffff9ff
    19ec:	02000000 	andeq	r0, r0, #0
    19f0:	00007491 	muleq	r0, r1, r4
    19f4:	00000022 	andeq	r0, r0, r2, lsr #32
    19f8:	06a90002 	strteq	r0, [r9], r2
    19fc:	01040000 	mrseq	r0, (UNDEF: 4)
    1a00:	000018e5 	andeq	r1, r0, r5, ror #17
    1a04:	c2000638 	andgt	r0, r0, #56, 12	; 0x3800000
    1a08:	c2000680 	andgt	r0, r0, #128, 12	; 0x8000000
    1a0c:	000008bd 			; <UNDEFINED> instruction: 0x000008bd
    1a10:	0000026a 	andeq	r0, r0, sl, ror #4
    1a14:	0000056b 	andeq	r0, r0, fp, ror #10
    1a18:	00228001 	eoreq	r8, r2, r1
    1a1c:	00020000 	andeq	r0, r2, r0
    1a20:	000006bd 			; <UNDEFINED> instruction: 0x000006bd
    1a24:	19710104 	ldmdbne	r1!, {r2, r8}^
    1a28:	06800000 	streq	r0, [r0], r0
    1a2c:	06d0c200 	ldrbeq	ip, [r0], r0, lsl #4
    1a30:	090ac200 	stmdbeq	sl, {r9, lr, pc}
    1a34:	026a0000 	rsbeq	r0, sl, #0
    1a38:	056b0000 	strbeq	r0, [fp, #-0]!
    1a3c:	80010000 	andhi	r0, r1, r0
    1a40:	00000022 	andeq	r0, r0, r2, lsr #32
    1a44:	06d10002 	ldrbeq	r0, [r1], r2
    1a48:	01040000 	mrseq	r0, (UNDEF: 4)
    1a4c:	00001a00 	andeq	r1, r0, r0, lsl #20
    1a50:	c20006d0 	andgt	r0, r0, #208, 12	; 0xd000000
    1a54:	c200081c 	andgt	r0, r0, #28, 16	; 0x1c0000
    1a58:	00000957 	andeq	r0, r0, r7, asr r9
    1a5c:	0000026a 	andeq	r0, r0, sl, ror #4
    1a60:	0000056b 	andeq	r0, r0, fp, ror #10
    1a64:	00228001 	eoreq	r8, r2, r1
    1a68:	00020000 	andeq	r0, r2, r0
    1a6c:	000006e5 	andeq	r0, r0, r5, ror #13
    1a70:	1ad20104 	bne	ff481e88 <_stack_end+0x3d45bc88>
    1a74:	005c0000 	subseq	r0, ip, r0
    1a78:	00f4c200 	rscseq	ip, r4, r0, lsl #4
    1a7c:	09a4c200 	stmibeq	r4!, {r9, lr, pc}
    1a80:	026a0000 	rsbeq	r0, sl, #0
    1a84:	056b0000 	strbeq	r0, [fp, #-0]!
    1a88:	80010000 	andhi	r0, r1, r0
    1a8c:	00000022 	andeq	r0, r0, r2, lsr #32
    1a90:	06f90002 	ldrbteq	r0, [r9], r2
    1a94:	01040000 	mrseq	r0, (UNDEF: 4)
    1a98:	00001b7b 	andeq	r1, r0, fp, ror fp
    1a9c:	c2000000 	andgt	r0, r0, #0
    1aa0:	c200005c 	andgt	r0, r0, #92	; 0x5c
    1aa4:	000009f5 	strdeq	r0, [r0], -r5
    1aa8:	0000026a 	andeq	r0, r0, sl, ror #4
    1aac:	0000056b 	andeq	r0, r0, fp, ror #10
    1ab0:	03828001 	orreq	r8, r2, #1
    1ab4:	00020000 	andeq	r0, r2, r0
    1ab8:	0000070d 	andeq	r0, r0, sp, lsl #14
    1abc:	00180104 	andseq	r0, r8, r4, lsl #2
    1ac0:	720c0000 	andvc	r0, ip, #0
    1ac4:	6a00000d 	bvs	1b00 <SYS_MODE+0x1ae1>
    1ac8:	c8000002 	stmdagt	r0, {r1}
    1acc:	00000001 	andeq	r0, r0, r1
    1ad0:	00000000 	andeq	r0, r0, r0
    1ad4:	0c000000 	stceq	0, cr0, [r0], {-0}
    1ad8:	0200001c 	andeq	r0, r0, #28
    1adc:	01860601 	orreq	r0, r6, r1, lsl #12
    1ae0:	02020000 	andeq	r0, r2, #0
    1ae4:	00023d05 	andeq	r3, r2, r5, lsl #26
    1ae8:	05040200 	streq	r0, [r4, #-512]	; 0xfffffe00
    1aec:	00000211 	andeq	r0, r0, r1, lsl r2
    1af0:	0c050802 	stceq	8, cr0, [r5], {2}
    1af4:	02000002 	andeq	r0, r0, #2
    1af8:	01840801 	orreq	r0, r4, r1, lsl #16
    1afc:	02020000 	andeq	r0, r2, #0
    1b00:	00016207 	andeq	r6, r1, r7, lsl #4
    1b04:	06b60300 	ldrteq	r0, [r6], r0, lsl #6
    1b08:	1f020000 	svcne	0x00020000
    1b0c:	00005f1d 	andeq	r5, r0, sp, lsl pc
    1b10:	07040200 	streq	r0, [r4, -r0, lsl #4]
    1b14:	000001d9 	ldrdeq	r0, [r0], -r9
    1b18:	d4070802 	strle	r0, [r7], #-2050	; 0xfffff7fe
    1b1c:	02000001 	andeq	r0, r0, #1
    1b20:	01de0704 	bicseq	r0, lr, r4, lsl #14
    1b24:	04040000 	streq	r0, [r4], #-0
    1b28:	746e6905 	strbtvc	r6, [lr], #-2309	; 0xfffff6fb
    1b2c:	01070500 	tsteq	r7, r0, lsl #10
    1b30:	00000045 	andeq	r0, r0, r5, asr #32
    1b34:	a20e7b03 	andge	r7, lr, #3072	; 0xc00
    1b38:	06000000 	streq	r0, [r0], -r0
    1b3c:	00000a6a 	andeq	r0, r0, sl, ror #20
    1b40:	0c0e0600 	stceq	6, cr0, [lr], {-0}
    1b44:	06010000 	streq	r0, [r1], -r0
    1b48:	00000b9c 	muleq	r0, ip, fp
    1b4c:	0d380602 	ldceq	6, cr0, [r8, #-8]!
    1b50:	00030000 	andeq	r0, r3, r0
    1b54:	000b0703 	andeq	r0, fp, r3, lsl #14
    1b58:	03800300 	orreq	r0, r0, #0, 6
    1b5c:	0000007b 	andeq	r0, r0, fp, ror r0
    1b60:	45010705 	strmi	r0, [r1, #-1797]	; 0xfffff8fb
    1b64:	03000000 	movweq	r0, #0
    1b68:	00d50e85 	sbcseq	r0, r5, r5, lsl #29
    1b6c:	49060000 	stmdbmi	r6, {}	; <UNPREDICTABLE>
    1b70:	0000000b 	andeq	r0, r0, fp
    1b74:	000c7706 	andeq	r7, ip, r6, lsl #14
    1b78:	fd060100 	stc2	1, cr0, [r6, #-0]
    1b7c:	0200000c 	andeq	r0, r0, #12
    1b80:	000af006 	andeq	pc, sl, r6
    1b84:	03000300 	movweq	r0, #768	; 0x300
    1b88:	00000ab4 			; <UNDEFINED> instruction: 0x00000ab4
    1b8c:	ae038a03 	vmlage.f32	s16, s6, s6
    1b90:	05000000 	streq	r0, [r0, #-0]
    1b94:	00450107 	subeq	r0, r5, r7, lsl #2
    1b98:	8f030000 	svchi	0x00030000
    1b9c:	0001020e 	andeq	r0, r1, lr, lsl #4
    1ba0:	0b210600 	bleq	8433a8 <SYS_MODE+0x843389>
    1ba4:	06000000 	streq	r0, [r0], -r0
    1ba8:	00000b6d 	andeq	r0, r0, sp, ror #22
    1bac:	0ace0601 	beq	ff3833b8 <_stack_end+0x3d35d1b8>
    1bb0:	00020000 	andeq	r0, r2, r0
    1bb4:	000bf603 	andeq	pc, fp, r3, lsl #12
    1bb8:	03930300 	orrseq	r0, r3, #0, 6
    1bbc:	000000e1 	andeq	r0, r0, r1, ror #1
    1bc0:	45010705 	strmi	r0, [r1, #-1797]	; 0xfffff8fb
    1bc4:	03000000 	movweq	r0, #0
    1bc8:	012f0e98 			; <UNDEFINED> instruction: 0x012f0e98
    1bcc:	1d060000 	stcne	0, cr0, [r6, #-0]
    1bd0:	0000000d 	andeq	r0, r0, sp
    1bd4:	000c4506 	andeq	r4, ip, r6, lsl #10
    1bd8:	ca060100 	bgt	181fe0 <SYS_MODE+0x181fc1>
    1bdc:	0200000c 	andeq	r0, r0, #12
    1be0:	0c210300 	stceq	3, cr0, [r1], #-0
    1be4:	9c030000 	stcls	0, cr0, [r3], {-0}
    1be8:	00010e03 	andeq	r0, r1, r3, lsl #28
    1bec:	03100700 	tsteq	r0, #0, 14
    1bf0:	01bd09a1 			; <UNDEFINED> instruction: 0x01bd09a1
    1bf4:	e5080000 	str	r0, [r8, #-0]
    1bf8:	0300000a 	movweq	r0, #10
    1bfc:	01bd0aa2 			; <UNDEFINED> instruction: 0x01bd0aa2
    1c00:	23020000 	movwcs	r0, #8192	; 0x2000
    1c04:	0cac0800 	stceq	8, cr0, [ip]
    1c08:	a3030000 	movwge	r0, #12288	; 0x3000
    1c0c:	0001bd0a 	andeq	fp, r1, sl, lsl #26
    1c10:	01230200 			; <UNDEFINED> instruction: 0x01230200
    1c14:	000cb808 	andeq	fp, ip, r8, lsl #16
    1c18:	0ea40300 	cdpeq	3, 10, cr0, cr4, cr0, {0}
    1c1c:	00000053 	andeq	r0, r0, r3, asr r0
    1c20:	08042302 	stmdaeq	r4, {r1, r8, r9, sp}
    1c24:	00000c37 	andeq	r0, r0, r7, lsr ip
    1c28:	a21fa503 	andsge	sl, pc, #12582912	; 0xc00000
    1c2c:	02000000 	andeq	r0, r0, #0
    1c30:	5c080823 	stcpl	8, cr0, [r8], {35}	; 0x23
    1c34:	0300000a 	movweq	r0, #10
    1c38:	00a21fa6 	adceq	r1, r2, r6, lsr #31
    1c3c:	23020000 	movwcs	r0, #8192	; 0x2000
    1c40:	0d4b0809 	stcleq	8, cr0, [fp, #-36]	; 0xffffffdc
    1c44:	a7030000 	strge	r0, [r3, -r0]
    1c48:	00012f1b 	andeq	r2, r1, fp, lsl pc
    1c4c:	0a230200 	beq	8c2454 <SYS_MODE+0x8c2435>
    1c50:	000cc108 	andeq	ip, ip, r8, lsl #2
    1c54:	1da80300 	stcne	3, cr0, [r8]
    1c58:	00000102 	andeq	r0, r0, r2, lsl #2
    1c5c:	080b2302 	stmdaeq	fp, {r1, r8, r9, sp}
    1c60:	00000a46 	andeq	r0, r0, r6, asr #20
    1c64:	d51fa903 	ldrle	sl, [pc, #-2307]	; 1369 <SYS_MODE+0x134a>
    1c68:	02000000 	andeq	r0, r0, #0
    1c6c:	02000c23 	andeq	r0, r0, #8960	; 0x2300
    1c70:	025f0201 	subseq	r0, pc, #268435456	; 0x10000000
    1c74:	e0030000 	and	r0, r3, r0
    1c78:	0300000b 	movweq	r0, #11
    1c7c:	013b03aa 	teqeq	fp, sl, lsr #7
    1c80:	c4090000 	strgt	r0, [r9], #-0
    1c84:	0a000001 	beq	1c90 <SYS_MODE+0x1c71>
    1c88:	00000ce4 	andeq	r0, r0, r4, ror #25
    1c8c:	00450107 	subeq	r0, r5, r7, lsl #2
    1c90:	28040000 	stmdacs	r4, {}	; <UNPREDICTABLE>
    1c94:	0001fa06 	andeq	pc, r1, r6, lsl #20
    1c98:	0d520600 	ldcleq	6, cr0, [r2, #-0]
    1c9c:	06000000 	streq	r0, [r0], -r0
    1ca0:	00000bc0 	andeq	r0, r0, r0, asr #23
    1ca4:	0a920601 	beq	fe4834b0 <_stack_end+0x3c45d2b0>
    1ca8:	00020000 	andeq	r0, r2, r0
    1cac:	000a7c0a 	andeq	r7, sl, sl, lsl #24
    1cb0:	45010700 	strmi	r0, [r1, #-1792]	; 0xfffff900
    1cb4:	04000000 	streq	r0, [r0], #-0
    1cb8:	021f0631 	andseq	r0, pc, #51380224	; 0x3100000
    1cbc:	98060000 	stmdals	r6, {}	; <UNPREDICTABLE>
    1cc0:	0000000c 	andeq	r0, r0, ip
    1cc4:	000b8806 	andeq	r8, fp, r6, lsl #16
    1cc8:	62060100 	andvs	r0, r6, #0, 2
    1ccc:	0200000c 	andeq	r0, r0, #12
    1cd0:	0c550b00 	mrrceq	11, 0, r0, r5, cr0
    1cd4:	13010000 	movwne	r0, #4096	; 0x1000
    1cd8:	0001d01d 	andeq	sp, r1, sp, lsl r0
    1cdc:	03050100 	movweq	r0, #20736	; 0x5100
    1ce0:	c2005168 	andgt	r5, r0, #104, 2
    1ce4:	0a51010c 	beq	144211c <SYS_MODE+0x14420fd>
    1ce8:	99010000 	stmdbls	r1, {}	; <UNPREDICTABLE>
    1cec:	35b80106 	ldrcc	r0, [r8, #262]!	; 0x106
    1cf0:	35e8c200 	strbcc	ip, [r8, #512]!	; 0x200
    1cf4:	0cc0c200 	sfmeq	f4, 3, [r0], {0}
    1cf8:	0d010000 	stceq	0, cr0, [r1, #-0]
    1cfc:	000aa401 	andeq	sl, sl, r1, lsl #8
    1d00:	067b0100 	ldrbteq	r0, [fp], -r0, lsl #2
    1d04:	00353401 	eorseq	r3, r5, r1, lsl #8
    1d08:	0035b8c2 	eorseq	fp, r5, r2, asr #17
    1d0c:	000cecc2 	andeq	lr, ip, r2, asr #25
    1d10:	02740100 	rsbseq	r0, r4, #0, 2
    1d14:	db0e0000 	blle	381d1c <SYS_MODE+0x381cfd>
    1d18:	0100000b 	tsteq	r0, fp
    1d1c:	00531f7b 	subseq	r1, r3, fp, ror pc
    1d20:	91020000 	mrsls	r0, (UNDEF: 2)
    1d24:	010c0074 	tsteq	ip, r4, ror r0
    1d28:	00000b38 	andeq	r0, r0, r8, lsr fp
    1d2c:	01067201 	tsteq	r6, r1, lsl #4
    1d30:	c2003520 	andgt	r3, r0, #32, 10	; 0x8000000
    1d34:	c2003534 	andgt	r3, r0, #52, 10	; 0xd000000
    1d38:	00000d24 	andeq	r0, r0, r4, lsr #26
    1d3c:	0baf0f01 	bleq	febc5948 <_stack_end+0x3cb9f748>
    1d40:	21010000 	mrscs	r0, (UNDEF: 1)
    1d44:	3298010d 	addscc	r0, r8, #1073741827	; 0x40000003
    1d48:	3520c200 	strcc	ip, [r0, #-512]!	; 0xfffffe00
    1d4c:	0d50c200 	lfmeq	f4, 3, [r0, #-0]
    1d50:	4d010000 	stcmi	0, cr0, [r1, #-0]
    1d54:	10000003 	andne	r0, r0, r3
    1d58:	00000c8e 	andeq	r0, r0, lr, lsl #25
    1d5c:	530f2901 	movwpl	r2, #63745	; 0xf901
    1d60:	02000000 	andeq	r0, r0, #0
    1d64:	2c107491 	cfldrscs	mvf7, [r0], {145}	; 0x91
    1d68:	0100000d 	tsteq	r0, sp
    1d6c:	00530f2a 	subseq	r0, r3, sl, lsr #30
    1d70:	91020000 	mrsls	r0, (UNDEF: 2)
    1d74:	0d671070 	stcleq	0, cr1, [r7, #-448]!	; 0xfffffe40
    1d78:	2b010000 	blcs	41d80 <SYS_MODE+0x41d61>
    1d7c:	00034d0f 	andeq	r4, r3, pc, lsl #26
    1d80:	58910200 	ldmpl	r1, {r9}
    1d84:	000b6010 	andeq	r6, fp, r0, lsl r0
    1d88:	0e440100 	dvfeqs	f0, f4, f0
    1d8c:	00000053 	andeq	r0, r0, r3, asr r0
    1d90:	10689102 	rsbne	r9, r8, r2, lsl #2
    1d94:	00000bd6 	ldrdeq	r0, [r0], -r6
    1d98:	4d0f5701 	stcmi	7, cr5, [pc, #-4]	; 1d9c <SYS_MODE+0x1d7d>
    1d9c:	02000003 	andeq	r0, r0, #3
    1da0:	14105491 	ldrne	r5, [r0], #-1169	; 0xfffffb6f
    1da4:	0100000d 	tsteq	r0, sp
    1da8:	00530f58 	subseq	r0, r3, r8, asr pc
    1dac:	91020000 	mrsls	r0, (UNDEF: 2)
    1db0:	32d81160 	sbcscc	r1, r8, #96, 2
    1db4:	33a4c200 			; <UNDEFINED> instruction: 0x33a4c200
    1db8:	031ac200 	tsteq	sl, #0, 4
    1dbc:	69120000 	ldmdbvs	r2, {}	; <UNPREDICTABLE>
    1dc0:	132c0100 			; <UNDEFINED> instruction: 0x132c0100
    1dc4:	00000053 	andeq	r0, r0, r3, asr r0
    1dc8:	006c9102 	rsbeq	r9, ip, r2, lsl #2
    1dcc:	0033c411 	eorseq	ip, r3, r1, lsl r4
    1dd0:	00346cc2 	eorseq	r6, r4, r2, asr #25
    1dd4:	000335c2 	andeq	r3, r3, r2, asr #11
    1dd8:	00691200 	rsbeq	r1, r9, r0, lsl #4
    1ddc:	53134501 	tstpl	r3, #4194304	; 0x400000
    1de0:	02000000 	andeq	r0, r0, #0
    1de4:	13006491 	movwne	r6, #1169	; 0x491
    1de8:	c2003480 	andgt	r3, r0, #128, 8	; 0x80000000
    1dec:	c2003510 	andgt	r3, r0, #16, 10	; 0x4000000
    1df0:	01006912 	tsteq	r0, r2, lsl r9
    1df4:	00531359 	subseq	r1, r3, r9, asr r3
    1df8:	91020000 	mrsls	r0, (UNDEF: 2)
    1dfc:	1400005c 	strne	r0, [r0], #-92	; 0xffffffa4
    1e00:	00005304 	andeq	r5, r0, r4, lsl #6
    1e04:	db010d00 	blle	4520c <SYS_MODE+0x451ed>
    1e08:	0100000c 	tsteq	r0, ip
    1e0c:	6401060e 	strvs	r0, [r1], #-1550	; 0xfffff9f2
    1e10:	98c20032 	stmials	r2, {r1, r4, r5}^
    1e14:	88c20032 	stmiahi	r2, {r1, r4, r5}^
    1e18:	0100000d 	tsteq	r0, sp
    1e1c:	0000037e 	andeq	r0, r0, lr, ror r3
    1e20:	0004b70e 	andeq	fp, r4, lr, lsl #14
    1e24:	140e0100 	strne	r0, [lr], #-256	; 0xffffff00
    1e28:	0000037e 	andeq	r0, r0, lr, ror r3
    1e2c:	00779102 	rsbseq	r9, r7, r2, lsl #2
    1e30:	8d080102 	stfhis	f0, [r8, #-8]
    1e34:	00000001 	andeq	r0, r0, r1
    1e38:	000004d1 	ldrdeq	r0, [r0], -r1
    1e3c:	08530002 	ldmdaeq	r3, {r1}^
    1e40:	01040000 	mrseq	r0, (UNDEF: 4)
    1e44:	00000018 	andeq	r0, r0, r8, lsl r0
    1e48:	0010260c 	andseq	r2, r0, ip, lsl #12
    1e4c:	00026a00 	andeq	r6, r2, r0, lsl #20
    1e50:	0001f800 	andeq	pc, r1, r0, lsl #16
	...
    1e5c:	001e9900 	andseq	r9, lr, r0, lsl #18
    1e60:	06010200 	streq	r0, [r1], -r0, lsl #4
    1e64:	00000186 	andeq	r0, r0, r6, lsl #3
    1e68:	3d050202 	sfmcc	f0, 4, [r5, #-8]
    1e6c:	02000002 	andeq	r0, r0, #2
    1e70:	02110504 	andseq	r0, r1, #4, 10	; 0x1000000
    1e74:	08020000 	stmdaeq	r2, {}	; <UNPREDICTABLE>
    1e78:	00020c05 	andeq	r0, r2, r5, lsl #24
    1e7c:	0e300300 	cdpeq	3, 3, cr0, cr0, cr0, {0}
    1e80:	19020000 	stmdbne	r2, {}	; <UNPREDICTABLE>
    1e84:	0000511d 	andeq	r5, r0, sp, lsl r1
    1e88:	08010200 	stmdaeq	r1, {r9}
    1e8c:	00000184 	andeq	r0, r0, r4, lsl #3
    1e90:	62070202 	andvs	r0, r7, #536870912	; 0x20000000
    1e94:	03000001 	movweq	r0, #1
    1e98:	000006b6 			; <UNDEFINED> instruction: 0x000006b6
    1e9c:	6b1d1f02 	blvs	749aac <SYS_MODE+0x749a8d>
    1ea0:	02000000 	andeq	r0, r0, #0
    1ea4:	01d90704 	bicseq	r0, r9, r4, lsl #14
    1ea8:	66030000 	strvs	r0, [r3], -r0
    1eac:	02000003 	andeq	r0, r0, #3
    1eb0:	007e1d22 	rsbseq	r1, lr, r2, lsr #26
    1eb4:	08020000 	stmdaeq	r2, {}	; <UNPREDICTABLE>
    1eb8:	0001d407 	andeq	sp, r1, r7, lsl #8
    1ebc:	07040200 	streq	r0, [r4, -r0, lsl #4]
    1ec0:	000001de 	ldrdeq	r0, [r0], -lr
    1ec4:	04050404 	streq	r0, [r5], #-1028	; 0xfffffbfc
    1ec8:	746e6905 	strbtvc	r6, [lr], #-2309	; 0xfffff6fb
    1ecc:	0a7c0600 	beq	1f036d4 <SYS_MODE+0x1f036b5>
    1ed0:	01070000 	mrseq	r0, (UNDEF: 7)
    1ed4:	00000051 	andeq	r0, r0, r1, asr r0
    1ed8:	ba063105 	blt	18e2f4 <SYS_MODE+0x18e2d5>
    1edc:	07000000 	streq	r0, [r0, -r0]
    1ee0:	00000c98 	muleq	r0, r8, ip
    1ee4:	0b880700 	bleq	fe203aec <_stack_end+0x3c1dd8ec>
    1ee8:	07010000 	streq	r0, [r1, -r0]
    1eec:	00000c62 	andeq	r0, r0, r2, ror #24
    1ef0:	fd080002 	stc2	0, cr0, [r8, #-8]
    1ef4:	08000001 	stmdaeq	r0, {r0}
    1ef8:	e6080603 	str	r0, [r8], -r3, lsl #12
    1efc:	09000000 	stmdbeq	r0, {}	; <UNPREDICTABLE>
    1f00:	00000265 	andeq	r0, r0, r5, ror #4
    1f04:	e61c0803 	ldr	r0, [ip], -r3, lsl #16
    1f08:	02000000 	andeq	r0, r0, #0
    1f0c:	00090023 	andeq	r0, r9, r3, lsr #32
    1f10:	03000000 	movweq	r0, #0
    1f14:	00e61c09 	rsceq	r1, r6, r9, lsl #24
    1f18:	23020000 	movwcs	r0, #8192	; 0x2000
    1f1c:	040a0004 	streq	r0, [sl], #-4
    1f20:	000000ba 	strheq	r0, [r0], -sl
    1f24:	000f8303 	andeq	r8, pc, r3, lsl #6
    1f28:	100a0400 	andne	r0, sl, r0, lsl #8
    1f2c:	000000f8 	strdeq	r0, [r0], -r8
    1f30:	00fe040a 	rscseq	r0, lr, sl, lsl #8
    1f34:	010b0000 	mrseq	r0, (UNDEF: 11)
    1f38:	0000010a 	andeq	r0, r0, sl, lsl #2
    1f3c:	00008c0c 	andeq	r8, r0, ip, lsl #24
    1f40:	eb060000 	bl	181f48 <SYS_MODE+0x181f29>
    1f44:	0700000d 	streq	r0, [r0, -sp]
    1f48:	00005101 	andeq	r5, r0, r1, lsl #2
    1f4c:	060f0400 	streq	r0, [pc], -r0, lsl #8
    1f50:	00000141 	andeq	r0, r0, r1, asr #2
    1f54:	000e1a07 	andeq	r1, lr, r7, lsl #20
    1f58:	fc070000 	stc2	0, cr0, [r7], {-0}
    1f5c:	0100000f 	tsteq	r0, pc
    1f60:	00108e07 	andseq	r8, r0, r7, lsl #28
    1f64:	d9070200 	stmdble	r7, {r9}
    1f68:	03000010 	movweq	r0, #16
    1f6c:	00101107 	andseq	r1, r0, r7, lsl #2
    1f70:	1e070400 	cfcpysne	mvf0, mvf7
    1f74:	05000011 	streq	r0, [r0, #-17]	; 0xffffffef
    1f78:	0e880d00 	cdpeq	13, 8, cr0, cr8, cr0, {0}
    1f7c:	01480000 	mrseq	r0, (UNDEF: 72)
    1f80:	2e081b04 	vmlacs.f64	d1, d8, d4
    1f84:	09000002 	stmdbeq	r0, {r1}
    1f88:	0000088f 	andeq	r0, r0, pc, lsl #17
    1f8c:	8c0b1d04 	stchi	13, cr1, [fp], {4}
    1f90:	02000000 	andeq	r0, r0, #0
    1f94:	05090023 	streq	r0, [r9, #-35]	; 0xffffffdd
    1f98:	0400000f 	streq	r0, [r0], #-15
    1f9c:	022e0a1e 	eoreq	r0, lr, #122880	; 0x1e000
    1fa0:	23020000 	movwcs	r0, #8192	; 0x2000
    1fa4:	118d0904 	orrne	r0, sp, r4, lsl #18
    1fa8:	1f040000 	svcne	0x00040000
    1fac:	0000450d 	andeq	r4, r0, sp, lsl #10
    1fb0:	84230300 	strthi	r0, [r3], #-768	; 0xfffffd00
    1fb4:	0e490902 	vmlaeq.f16	s1, s18, s4	; <UNPREDICTABLE>
    1fb8:	20040000 	andcs	r0, r4, r0
    1fbc:	0000ec13 	andeq	lr, r0, r3, lsl ip
    1fc0:	88230300 	stmdahi	r3!, {r8, r9}
    1fc4:	0faa0902 	svceq	0x00aa0902
    1fc8:	23040000 	movwcs	r0, #16384	; 0x4000
    1fcc:	0000720e 	andeq	r7, r0, lr, lsl #4
    1fd0:	90230300 	eorls	r0, r3, r0, lsl #6
    1fd4:	0de00902 			; <UNDEFINED> instruction: 0x0de00902
    1fd8:	24040000 	strcs	r0, [r4], #-0
    1fdc:	0000720e 	andeq	r7, r0, lr, lsl #4
    1fe0:	98230300 	stmdals	r3!, {r8, r9}
    1fe4:	0fe50902 	svceq	0x00e50902
    1fe8:	25040000 	strcs	r0, [r4, #-0]
    1fec:	0000720e 	andeq	r7, r0, lr, lsl #4
    1ff0:	a0230300 	eorge	r0, r3, r0, lsl #6
    1ff4:	10bc0902 	adcsne	r0, ip, r2, lsl #18
    1ff8:	26040000 	strcs	r0, [r4], -r0
    1ffc:	0000450e 	andeq	r4, r0, lr, lsl #10
    2000:	a8230300 	stmdage	r3!, {r8, r9}
    2004:	0dfe0902 			; <UNDEFINED> instruction: 0x0dfe0902
    2008:	27040000 	strcs	r0, [r4, -r0]
    200c:	00010a1d 	andeq	r0, r1, sp, lsl sl
    2010:	a9230300 	stmdbge	r3!, {r8, r9}
    2014:	0f000902 	svceq	0x00000902
    2018:	28040000 	stmdacs	r4, {}	; <UNPREDICTABLE>
    201c:	0000ba1b 	andeq	fp, r0, fp, lsl sl
    2020:	ac230300 	stcge	3, cr0, [r3], #-0
    2024:	10cf0902 	sbcne	r0, pc, r2, lsl #18
    2028:	2b040000 	blcs	102030 <SYS_MODE+0x102011>
    202c:	0002450f 	andeq	r4, r2, pc, lsl #10
    2030:	b4230300 	strtlt	r0, [r3], #-768	; 0xfffffd00
    2034:	0e670902 	vmuleq.f16	s1, s14, s4	; <UNPREDICTABLE>
    2038:	2c040000 	stccs	0, cr0, [r4], {-0}
    203c:	0002450f 	andeq	r4, r2, pc, lsl #10
    2040:	b8230300 	stmdalt	r3!, {r8, r9}
    2044:	0e040902 	vmlaeq.f16	s0, s8, s4	; <UNPREDICTABLE>
    2048:	2d040000 	stccs	0, cr0, [r4, #-0]
    204c:	00005f0f 	andeq	r5, r0, pc, lsl #30
    2050:	bc230300 	stclt	3, cr0, [r3], #-0
    2054:	0ff20902 	svceq	0x00f20902
    2058:	2e040000 	cdpcs	0, 0, cr0, cr4, cr0, {0}
    205c:	0002450f 	andeq	r4, r2, pc, lsl #10
    2060:	c0230300 	eorgt	r0, r3, r0, lsl #6
    2064:	3e0e0002 	cdpcc	0, 0, cr0, cr14, cr2, {0}
    2068:	3e000002 	cdpcc	0, 0, cr0, cr0, cr2, {0}
    206c:	0f000002 	svceq	0x00000002
    2070:	00000085 	andeq	r0, r0, r5, lsl #1
    2074:	010200ff 	strdeq	r0, [r2, -pc]
    2078:	00018d08 	andeq	r8, r1, r8, lsl #26
    207c:	5f040a00 	svcpl	0x00040a00
    2080:	02000000 	andeq	r0, r0, #0
    2084:	025f0201 	subseq	r0, pc, #268435456	; 0x10000000
    2088:	e7100000 	ldr	r0, [r0, -r0]
    208c:	0100000e 	tsteq	r0, lr
    2090:	01412328 	cmpeq	r1, r8, lsr #6
    2094:	03050000 	movweq	r0, #20480	; 0x5000
    2098:	c2005800 	andgt	r5, r0, #0, 16
    209c:	000f0a10 	andeq	r0, pc, r0, lsl sl	; <UNPREDICTABLE>
    20a0:	23290100 			; <UNDEFINED> instruction: 0x23290100
    20a4:	00000141 	andeq	r0, r0, r1, asr #2
    20a8:	59480305 	stmdbpl	r8, {r0, r2, r8, r9}^
    20ac:	3a10c200 	bcc	4328b4 <SYS_MODE+0x432895>
    20b0:	0100000f 	tsteq	r0, pc
    20b4:	0141232a 	cmpeq	r1, sl, lsr #6
    20b8:	03050000 	movweq	r0, #20480	; 0x5000
    20bc:	c2005a90 	andgt	r5, r0, #144, 20	; 0x90000
    20c0:	000f5310 	andeq	r5, pc, r0, lsl r3	; <UNPREDICTABLE>
    20c4:	232b0100 			; <UNDEFINED> instruction: 0x232b0100
    20c8:	00000141 	andeq	r0, r0, r1, asr #2
    20cc:	5bd80305 	blpl	ff602ce8 <_stack_end+0x3d5dcae8>
    20d0:	9110c200 	tstls	r0, r0, lsl #4
    20d4:	0100000f 	tsteq	r0, pc
    20d8:	0141232c 	cmpeq	r1, ip, lsr #6
    20dc:	03050000 	movweq	r0, #20480	; 0x5000
    20e0:	c2005d20 	andgt	r5, r0, #32, 26	; 0x800
    20e4:	000fb510 	andeq	fp, pc, r0, lsl r5	; <UNPREDICTABLE>
    20e8:	232d0100 			; <UNDEFINED> instruction: 0x232d0100
    20ec:	00000141 	andeq	r0, r0, r1, asr #2
    20f0:	5e680305 	cdppl	3, 6, cr0, cr8, cr5, {0}
    20f4:	5f0ec200 	svcpl	0x000ec200
    20f8:	cf000000 	svcgt	0x00000000
    20fc:	11000002 	tstne	r0, r2
    2100:	00000085 	andeq	r0, r0, r5, lsl #1
    2104:	10000fff 	strdne	r0, [r0], -pc	; <UNPREDICTABLE>
    2108:	000010a5 	andeq	r1, r0, r5, lsr #1
    210c:	be112e01 	cdplt	14, 1, cr2, cr1, cr1, {0}
    2110:	05000002 	streq	r0, [r0, #-2]
    2114:	005fb003 	subseq	fp, pc, r3
    2118:	0e9c10c2 	cdpeq	0, 9, cr1, cr12, cr2, {6}
    211c:	2f010000 	svccs	0x00010000
    2120:	0002be11 	andeq	fp, r2, r1, lsl lr
    2124:	b0030500 	andlt	r0, r3, r0, lsl #10
    2128:	10c2009f 	smullne	r0, r2, pc, r0	; <UNPREDICTABLE>
    212c:	000010f0 	strdeq	r1, [r0], -r0
    2130:	be113001 	cdplt	0, 1, cr3, cr1, cr1, {0}
    2134:	05000002 	streq	r0, [r0, #-2]
    2138:	00dfb003 	sbcseq	fp, pc, r3
    213c:	0f2310c2 	svceq	0x002310c2
    2140:	31010000 	mrscc	r0, (UNDEF: 1)
    2144:	0002be11 	andeq	fp, r2, r1, lsl lr
    2148:	b0030500 	andlt	r0, r3, r0, lsl #10
    214c:	10c2011f 	sbcne	r0, r2, pc, lsl r1
    2150:	00000dc9 	andeq	r0, r0, r9, asr #27
    2154:	be113201 	cdplt	2, 1, cr3, cr1, cr1, {0}
    2158:	05000002 	streq	r0, [r0, #-2]
    215c:	015fb003 	cmpeq	pc, r3
    2160:	0f6c10c2 	svceq	0x006c10c2
    2164:	33010000 	movwcc	r0, #4096	; 0x1000
    2168:	0002be11 	andeq	fp, r2, r1, lsl lr
    216c:	b0030500 	andlt	r0, r3, r0, lsl #10
    2170:	12c2019f 	sbcne	r0, r2, #-1073741785	; 0xc0000027
    2174:	000e1501 	andeq	r1, lr, r1, lsl #10
    2178:	05740100 	ldrbeq	r0, [r4, #-256]!	; 0xffffff00
    217c:	00008e01 	andeq	r8, r0, r1, lsl #28
    2180:	00370000 	eorseq	r0, r7, r0
    2184:	00388cc2 	eorseq	r8, r8, r2, asr #25
    2188:	000dc0c2 	andeq	ip, sp, r2, asr #1
    218c:	01130100 	tsteq	r3, r0, lsl #2
    2190:	00001107 	andeq	r1, r0, r7, lsl #2
    2194:	01066701 	tsteq	r6, r1, lsl #14
    2198:	c20036e0 	andgt	r3, r0, #224, 12	; 0xe000000
    219c:	c2003700 	andgt	r3, r0, #0, 14
    21a0:	00000df8 	strdeq	r0, [r0], -r8
    21a4:	00038101 	andeq	r8, r3, r1, lsl #2
    21a8:	088f1400 	stmeq	pc, {sl, ip}	; <UNPREDICTABLE>
    21ac:	67010000 	strvs	r0, [r1, -r0]
    21b0:	00008c23 	andeq	r8, r0, r3, lsr #24
    21b4:	74910200 	ldrvc	r0, [r1], #512	; 0x200
    21b8:	d0011300 	andle	r1, r1, r0, lsl #6
    21bc:	0100000e 	tsteq	r0, lr
    21c0:	c001065d 	andgt	r0, r1, sp, asr r6
    21c4:	e0c20036 	sbc	r0, r2, r6, lsr r0
    21c8:	24c20036 	strbcs	r0, [r2], #54	; 0x36
    21cc:	0100000e 	tsteq	r0, lr
    21d0:	000003ac 	andeq	r0, r0, ip, lsr #7
    21d4:	00088f14 	andeq	r8, r8, r4, lsl pc
    21d8:	235d0100 	cmpcs	sp, #0, 2
    21dc:	0000008c 	andeq	r0, r0, ip, lsl #1
    21e0:	00749102 	rsbseq	r9, r4, r2, lsl #2
    21e4:	0fce0113 	svceq	0x00ce0113
    21e8:	53010000 	movwpl	r0, #4096	; 0x1000
    21ec:	36a00106 	strtcc	r0, [r0], r6, lsl #2
    21f0:	36c0c200 	strbcc	ip, [r0], r0, lsl #4
    21f4:	0e50c200 	cdpeq	2, 5, cr12, cr0, cr0, {0}
    21f8:	d7010000 	strle	r0, [r1, -r0]
    21fc:	14000003 	strne	r0, [r0], #-3
    2200:	0000088f 	andeq	r0, r0, pc, lsl #17
    2204:	8c235301 	stchi	3, cr5, [r3], #-4
    2208:	02000000 	andeq	r0, r0, #0
    220c:	13007491 	movwne	r7, #1169	; 0x491
    2210:	000e7101 	andeq	r7, lr, r1, lsl #2
    2214:	06490100 	strbeq	r0, [r9], -r0, lsl #2
    2218:	00368001 	eorseq	r8, r6, r1
    221c:	0036a0c2 	eorseq	sl, r6, r2, asr #1
    2220:	000e7cc2 	andeq	r7, lr, r2, asr #25
    2224:	04020100 	streq	r0, [r2], #-256	; 0xffffff00
    2228:	8f140000 	svchi	0x00140000
    222c:	01000008 	tsteq	r0, r8
    2230:	008c2349 	addeq	r2, ip, r9, asr #6
    2234:	91020000 	mrsls	r0, (UNDEF: 2)
    2238:	01130074 	tsteq	r3, r4, ror r0
    223c:	00001077 	andeq	r1, r0, r7, ror r0
    2240:	01063f01 	tsteq	r6, r1, lsl #30
    2244:	c2003660 	andgt	r3, r0, #96, 12	; 0x6000000
    2248:	c2003680 	andgt	r3, r0, #128, 12	; 0x8000000
    224c:	00000ea8 	andeq	r0, r0, r8, lsr #29
    2250:	00042d01 	andeq	r2, r4, r1, lsl #26
    2254:	088f1400 	stmeq	pc, {sl, ip}	; <UNPREDICTABLE>
    2258:	3f010000 	svccc	0x00010000
    225c:	00008c23 	andeq	r8, r0, r3, lsr #24
    2260:	74910200 	ldrvc	r0, [r1], #512	; 0x200
    2264:	38011300 	stmdacc	r1, {r8, r9, ip}
    2268:	0100000e 	tsteq	r0, lr
    226c:	40010635 	andmi	r0, r1, r5, lsr r6
    2270:	60c20036 	sbcvs	r0, r2, r6, lsr r0
    2274:	d4c20036 	strble	r0, [r2], #54	; 0x36
    2278:	0100000e 	tsteq	r0, lr
    227c:	00000458 	andeq	r0, r0, r8, asr r4
    2280:	00088f14 	andeq	r8, r8, r4, lsl pc
    2284:	23350100 	teqcs	r5, #0, 2
    2288:	0000008c 	andeq	r0, r0, ip, lsl #1
    228c:	00749102 	rsbseq	r9, r4, r2, lsl #2
    2290:	0eb30113 	mrceq	1, 5, r0, cr3, cr3, {0}
    2294:	20010000 	andcs	r0, r1, r0
    2298:	36180106 	ldrcc	r0, [r8], -r6, lsl #2
    229c:	3640c200 	strbcc	ip, [r0], -r0, lsl #4
    22a0:	0f00c200 	svceq	0x0000c200
    22a4:	83010000 	movwhi	r0, #4096	; 0x1000
    22a8:	14000004 	strne	r0, [r0], #-4
    22ac:	0000088f 	andeq	r0, r0, pc, lsl #17
    22b0:	8c292001 	stchi	0, cr2, [r9], #-4
    22b4:	02000000 	andeq	r0, r0, #0
    22b8:	13007491 	movwne	r7, #1169	; 0x491
    22bc:	000e4f01 	andeq	r4, lr, r1, lsl #30
    22c0:	06160100 	ldreq	r0, [r6], -r0, lsl #2
    22c4:	0035e801 	eorseq	lr, r5, r1, lsl #16
    22c8:	003618c2 	eorseq	r1, r6, r2, asr #17
    22cc:	000f38c2 	andeq	r3, pc, r2, asr #17
    22d0:	04ae0100 	strteq	r0, [lr], #256	; 0x100
    22d4:	8f140000 	svchi	0x00140000
    22d8:	01000008 	tsteq	r0, r8
    22dc:	008c2416 	addeq	r2, ip, r6, lsl r4
    22e0:	91020000 	mrsls	r0, (UNDEF: 2)
    22e4:	01150074 	tsteq	r5, r4, ror r0
    22e8:	00000e0e 	andeq	r0, r0, lr, lsl #28
    22ec:	01060e01 	tsteq	r6, r1, lsl #28
	...
    22f8:	00000f70 	andeq	r0, r0, r0, ror pc
    22fc:	73751601 	cmnvc	r5, #1048576	; 0x100000
    2300:	160e0100 	strne	r0, [lr], -r0, lsl #2
    2304:	0000005f 	andeq	r0, r0, pc, asr r0
    2308:	00749102 	rsbseq	r9, r4, r2, lsl #2
    230c:	00020c00 	andeq	r0, r2, r0, lsl #24
    2310:	9f000200 	svcls	0x00000200
    2314:	04000009 	streq	r0, [r0], #-9
    2318:	00001801 	andeq	r1, r0, r1, lsl #16
    231c:	11a00c00 	lslne	r0, r0, #24
    2320:	026a0000 	rsbeq	r0, sl, #0
    2324:	02500000 	subseq	r0, r0, #0
	...
    2330:	21560000 	cmpcs	r6, r0
    2334:	01020000 	mrseq	r0, (UNDEF: 2)
    2338:	00018606 	andeq	r8, r1, r6, lsl #12
    233c:	05020200 	streq	r0, [r2, #-512]	; 0xfffffe00
    2340:	0000023d 	andeq	r0, r0, sp, lsr r2
    2344:	11050402 	tstne	r5, r2, lsl #8
    2348:	02000002 	andeq	r0, r0, #2
    234c:	020c0508 	andeq	r0, ip, #8, 10	; 0x2000000
    2350:	01020000 	mrseq	r0, (UNDEF: 2)
    2354:	00018408 	andeq	r8, r1, r8, lsl #8
    2358:	07020200 	streq	r0, [r2, -r0, lsl #4]
    235c:	00000162 	andeq	r0, r0, r2, ror #2
    2360:	0006b603 	andeq	fp, r6, r3, lsl #12
    2364:	1d1f0200 	lfmne	f0, 4, [pc, #-0]	; 236c <SYS_MODE+0x234d>
    2368:	0000005f 	andeq	r0, r0, pc, asr r0
    236c:	d9070402 	stmdble	r7, {r1, sl}
    2370:	02000001 	andeq	r0, r0, #1
    2374:	01d40708 	bicseq	r0, r4, r8, lsl #14
    2378:	04020000 	streq	r0, [r2], #-0
    237c:	0001de07 	andeq	sp, r1, r7, lsl #28
    2380:	05040400 	streq	r0, [r4, #-1024]	; 0xfffffc00
    2384:	00746e69 	rsbseq	r6, r4, r9, ror #28
    2388:	11f10105 	mvnsne	r0, r5, lsl #2
    238c:	57010000 	strpl	r0, [r1, -r0]
    2390:	00000106 	andeq	r0, r0, r6, lsl #2
    2394:	00000000 	andeq	r0, r0, r0
    2398:	0fa80000 	svceq	0x00a80000
    239c:	c4010000 	strgt	r0, [r1], #-0
    23a0:	06000000 	streq	r0, [r0], -r0
    23a4:	00717269 	rsbseq	r7, r1, r9, ror #4
    23a8:	53205701 			; <UNDEFINED> instruction: 0x53205701
    23ac:	02000000 	andeq	r0, r0, #0
    23b0:	43076c91 	movwmi	r6, #31889	; 0x7c91
    23b4:	01000011 	tsteq	r0, r1, lsl r0
    23b8:	006d1259 	rsbeq	r1, sp, r9, asr r2
    23bc:	91020000 	mrsls	r0, (UNDEF: 2)
    23c0:	69620874 	stmdbvs	r2!, {r2, r4, r5, r6, fp}^
    23c4:	5a010074 	bpl	4259c <SYS_MODE+0x4257d>
    23c8:	00006d12 	andeq	r6, r0, r2, lsl sp
    23cc:	70910200 	addsvc	r0, r1, r0, lsl #4
    23d0:	5a010500 	bpl	437d8 <SYS_MODE+0x437b9>
    23d4:	01000011 	tsteq	r0, r1, lsl r0
    23d8:	e8010646 	stmda	r1, {r1, r2, r6, r9, sl}
    23dc:	68c20039 	stmiavs	r2, {r0, r3, r4, r5}^
    23e0:	ecc2003a 	stcl	0, cr0, [r2], {58}	; 0x3a
    23e4:	0100000f 	tsteq	r0, pc
    23e8:	0000010d 	andeq	r0, r0, sp, lsl #2
    23ec:	71726906 	cmnvc	r2, r6, lsl #18
    23f0:	25460100 	strbcs	r0, [r6, #-256]	; 0xffffff00
    23f4:	00000053 	andeq	r0, r0, r3, asr r0
    23f8:	076c9102 	strbeq	r9, [ip, -r2, lsl #2]!
    23fc:	00001143 	andeq	r1, r0, r3, asr #2
    2400:	6d124801 	ldcvs	8, cr4, [r2, #-4]
    2404:	02000000 	andeq	r0, r0, #0
    2408:	62087491 	andvs	r7, r8, #-1862270976	; 0x91000000
    240c:	01007469 	tsteq	r0, r9, ror #8
    2410:	006d1249 	rsbeq	r1, sp, r9, asr #4
    2414:	91020000 	mrsls	r0, (UNDEF: 2)
    2418:	01050070 	tsteq	r5, r0, ror r0
    241c:	00001149 	andeq	r1, r0, r9, asr #2
    2420:	01063501 	tsteq	r6, r1, lsl #10
	...
    242c:	00001030 	andeq	r1, r0, r0, lsr r0
    2430:	00015601 	andeq	r5, r1, r1, lsl #12
    2434:	72690600 	rsbvc	r0, r9, #0, 12
    2438:	35010071 	strcc	r0, [r1, #-113]	; 0xffffff8f
    243c:	00005320 	andeq	r5, r0, r0, lsr #6
    2440:	6c910200 	lfmvs	f0, 4, [r1], {0}
    2444:	00114307 	andseq	r4, r1, r7, lsl #6
    2448:	12370100 	eorsne	r0, r7, #0, 2
    244c:	0000006d 	andeq	r0, r0, sp, rrx
    2450:	08749102 	ldmdaeq	r4!, {r1, r8, ip, pc}^
    2454:	00746962 	rsbseq	r6, r4, r2, ror #18
    2458:	6d123801 	ldcvs	8, cr3, [r2, #-4]
    245c:	02000000 	andeq	r0, r0, #0
    2460:	05007091 	streq	r7, [r0, #-145]	; 0xffffff6f
    2464:	00117001 	andseq	r7, r1, r1
    2468:	06240100 	strteq	r0, [r4], -r0, lsl #2
    246c:	00396801 	eorseq	r6, r9, r1, lsl #16
    2470:	0039e8c2 	eorseq	lr, r9, r2, asr #17
    2474:	001074c2 	andseq	r7, r0, r2, asr #9
    2478:	019f0100 	orrseq	r0, pc, r0, lsl #2
    247c:	69060000 	stmdbvs	r6, {}	; <UNPREDICTABLE>
    2480:	01007172 	tsteq	r0, r2, ror r1
    2484:	00531f24 	subseq	r1, r3, r4, lsr #30
    2488:	91020000 	mrsls	r0, (UNDEF: 2)
    248c:	1143076c 	cmpne	r3, ip, ror #14
    2490:	26010000 	strcs	r0, [r1], -r0
    2494:	00006d12 	andeq	r6, r0, r2, lsl sp
    2498:	74910200 	ldrvc	r0, [r1], #512	; 0x200
    249c:	74696208 	strbtvc	r6, [r9], #-520	; 0xfffffdf8
    24a0:	12270100 	eorne	r0, r7, #0, 2
    24a4:	0000006d 	andeq	r0, r0, sp, rrx
    24a8:	00709102 	rsbseq	r9, r0, r2, lsl #2
    24ac:	11800105 	orrne	r0, r0, r5, lsl #2
    24b0:	19010000 	stmdbne	r1, {}	; <UNPREDICTABLE>
    24b4:	390c0106 	stmdbcc	ip, {r1, r2, r8}
    24b8:	3968c200 	stmdbcc	r8!, {r9, lr, pc}^
    24bc:	10b8c200 	adcsne	ip, r8, r0, lsl #4
    24c0:	d9010000 	stmdble	r1, {}	; <UNPREDICTABLE>
    24c4:	06000001 	streq	r0, [r0], -r1
    24c8:	00717269 	rsbseq	r7, r1, r9, ror #4
    24cc:	53251901 			; <UNDEFINED> instruction: 0x53251901
    24d0:	02000000 	andeq	r0, r0, #0
    24d4:	8d097491 	cfstrshi	mvf7, [r9, #-580]	; 0xfffffdbc
    24d8:	01000011 	tsteq	r0, r1, lsl r0
    24dc:	00533319 	subseq	r3, r3, r9, lsl r3
    24e0:	91020000 	mrsls	r0, (UNDEF: 2)
    24e4:	010a0070 	tsteq	sl, r0, ror r0
    24e8:	00001135 	andeq	r1, r0, r5, lsr r1
    24ec:	01060601 	tsteq	r6, r1, lsl #12
    24f0:	c200388c 	andgt	r3, r0, #140, 16	; 0x8c0000
    24f4:	c200390c 	andgt	r3, r0, #12, 18	; 0x30000
    24f8:	000010fc 	strdeq	r1, [r0], -ip
    24fc:	11960701 	orrsne	r0, r6, r1, lsl #14
    2500:	08010000 	stmdaeq	r1, {}	; <UNPREDICTABLE>
    2504:	0000530e 	andeq	r5, r0, lr, lsl #6
    2508:	70910200 	addsvc	r0, r1, r0, lsl #4
    250c:	0013dd07 	andseq	sp, r3, r7, lsl #26
    2510:	0e090100 	adfeqe	f0, f1, f0
    2514:	00000053 	andeq	r0, r0, r3, asr r0
    2518:	00749102 	rsbseq	r9, r4, r2, lsl #2
    251c:	00002200 	andeq	r2, r0, r0, lsl #4
    2520:	54000200 	strpl	r0, [r0], #-512	; 0xfffffe00
    2524:	0400000a 	streq	r0, [r0], #-10
    2528:	00230801 	eoreq	r0, r3, r1, lsl #16
    252c:	003a6800 	eorseq	r6, sl, r0, lsl #16
    2530:	003ad8c2 	eorseq	sp, sl, r2, asr #17
    2534:	001202c2 	andseq	r0, r2, r2, asr #5
    2538:	00026a00 	andeq	r6, r2, r0, lsl #20
    253c:	00056b00 	andeq	r6, r5, r0, lsl #22
    2540:	85800100 	strhi	r0, [r0, #256]	; 0x100
    2544:	02000004 	andeq	r0, r0, #4
    2548:	000a6800 	andeq	r6, sl, r0, lsl #16
    254c:	18010400 	stmdane	r1, {sl}
    2550:	0c000000 	stceq	0, cr0, [r0], {-0}
    2554:	000012d3 	ldrdeq	r1, [r0], -r3
    2558:	0000026a 	andeq	r0, r0, sl, ror #4
    255c:	00000288 	andeq	r0, r0, r8, lsl #5
	...
    2568:	000023a5 	andeq	r2, r0, r5, lsr #7
    256c:	86060102 	strhi	r0, [r6], -r2, lsl #2
    2570:	02000001 	andeq	r0, r0, #1
    2574:	023d0502 	eorseq	r0, sp, #8388608	; 0x800000
    2578:	04020000 	streq	r0, [r2], #-0
    257c:	00021105 	andeq	r1, r2, r5, lsl #2
    2580:	05080200 	streq	r0, [r8, #-512]	; 0xfffffe00
    2584:	0000020c 	andeq	r0, r0, ip, lsl #4
    2588:	84080102 	strhi	r0, [r8], #-258	; 0xfffffefe
    258c:	02000001 	andeq	r0, r0, #1
    2590:	01620702 	cmneq	r2, r2, lsl #14
    2594:	b6030000 	strlt	r0, [r3], -r0
    2598:	02000006 	andeq	r0, r0, #6
    259c:	00641d1f 	rsbeq	r1, r4, pc, lsl sp
    25a0:	53040000 	movwpl	r0, #16384	; 0x4000
    25a4:	02000000 	andeq	r0, r0, #0
    25a8:	01d90704 	bicseq	r0, r9, r4, lsl #14
    25ac:	08020000 	stmdaeq	r2, {}	; <UNPREDICTABLE>
    25b0:	0001d407 	andeq	sp, r1, r7, lsl #8
    25b4:	07040200 	streq	r0, [r4, -r0, lsl #4]
    25b8:	000001de 	ldrdeq	r0, [r0], -lr
    25bc:	69050405 	stmdbvs	r5, {r0, r2, sl}
    25c0:	0400746e 	streq	r7, [r0], #-1134	; 0xfffffb92
    25c4:	00000079 	andeq	r0, r0, r9, ror r0
    25c8:	45010706 	strmi	r0, [r1, #-1798]	; 0xfffff8fa
    25cc:	03000000 	movweq	r0, #0
    25d0:	00ac0e7b 	adceq	r0, ip, fp, ror lr
    25d4:	6a070000 	bvs	1c25dc <SYS_MODE+0x1c25bd>
    25d8:	0000000a 	andeq	r0, r0, sl
    25dc:	000c0e07 	andeq	r0, ip, r7, lsl #28
    25e0:	9c070100 	stflss	f0, [r7], {-0}
    25e4:	0200000b 	andeq	r0, r0, #11
    25e8:	000d3807 	andeq	r3, sp, r7, lsl #16
    25ec:	03000300 	movweq	r0, #768	; 0x300
    25f0:	00000b07 	andeq	r0, r0, r7, lsl #22
    25f4:	85038003 	strhi	r8, [r3, #-3]
    25f8:	06000000 	streq	r0, [r0], -r0
    25fc:	00450107 	subeq	r0, r5, r7, lsl #2
    2600:	85030000 	strhi	r0, [r3, #-0]
    2604:	0000df0e 	andeq	sp, r0, lr, lsl #30
    2608:	0b490700 	bleq	1244210 <SYS_MODE+0x12441f1>
    260c:	07000000 	streq	r0, [r0, -r0]
    2610:	00000c77 	andeq	r0, r0, r7, ror ip
    2614:	0cfd0701 	ldcleq	7, cr0, [sp], #4
    2618:	07020000 	streq	r0, [r2, -r0]
    261c:	00000af0 	strdeq	r0, [r0], -r0	; <UNPREDICTABLE>
    2620:	b4030003 	strlt	r0, [r3], #-3
    2624:	0300000a 	movweq	r0, #10
    2628:	00b8038a 	adcseq	r0, r8, sl, lsl #7
    262c:	07060000 	streq	r0, [r6, -r0]
    2630:	00004501 	andeq	r4, r0, r1, lsl #10
    2634:	0e8f0300 	cdpeq	3, 8, cr0, cr15, cr0, {0}
    2638:	0000010c 	andeq	r0, r0, ip, lsl #2
    263c:	000b2107 	andeq	r2, fp, r7, lsl #2
    2640:	6d070000 	stcvs	0, cr0, [r7, #-0]
    2644:	0100000b 	tsteq	r0, fp
    2648:	000ace07 	andeq	ip, sl, r7, lsl #28
    264c:	03000200 	movweq	r0, #512	; 0x200
    2650:	00000bf6 	strdeq	r0, [r0], -r6
    2654:	eb039303 	bl	e7268 <SYS_MODE+0xe7249>
    2658:	06000000 	streq	r0, [r0], -r0
    265c:	00450107 	subeq	r0, r5, r7, lsl #2
    2660:	98030000 	stmdals	r3, {}	; <UNPREDICTABLE>
    2664:	0001390e 	andeq	r3, r1, lr, lsl #18
    2668:	0d1d0700 	ldceq	7, cr0, [sp, #-0]
    266c:	07000000 	streq	r0, [r0, -r0]
    2670:	00000c45 	andeq	r0, r0, r5, asr #24
    2674:	0cca0701 	stcleq	7, cr0, [sl], {1}
    2678:	00020000 	andeq	r0, r2, r0
    267c:	000c2103 	andeq	r2, ip, r3, lsl #2
    2680:	039c0300 	orrseq	r0, ip, #0, 6
    2684:	00000118 	andeq	r0, r0, r8, lsl r1
    2688:	a1031008 	tstge	r3, r8
    268c:	0001c709 	andeq	ip, r1, r9, lsl #14
    2690:	0ae50900 	beq	ff944a98 <_stack_end+0x3d91e898>
    2694:	a2030000 	andge	r0, r3, #0
    2698:	0001c70a 	andeq	ip, r1, sl, lsl #14
    269c:	00230200 	eoreq	r0, r3, r0, lsl #4
    26a0:	000cac09 	andeq	sl, ip, r9, lsl #24
    26a4:	0aa30300 	beq	fe8c32ac <_stack_end+0x3c89d0ac>
    26a8:	000001c7 	andeq	r0, r0, r7, asr #3
    26ac:	09012302 	stmdbeq	r1, {r1, r8, r9, sp}
    26b0:	00000cb8 			; <UNDEFINED> instruction: 0x00000cb8
    26b4:	530ea403 	movwpl	sl, #58371	; 0xe403
    26b8:	02000000 	andeq	r0, r0, #0
    26bc:	37090423 	strcc	r0, [r9, -r3, lsr #8]
    26c0:	0300000c 	movweq	r0, #12
    26c4:	00ac1fa5 	adceq	r1, ip, r5, lsr #31
    26c8:	23020000 	movwcs	r0, #8192	; 0x2000
    26cc:	0a5c0908 	beq	1704af4 <SYS_MODE+0x1704ad5>
    26d0:	a6030000 	strge	r0, [r3], -r0
    26d4:	0000ac1f 	andeq	sl, r0, pc, lsl ip
    26d8:	09230200 	stmdbeq	r3!, {r9}
    26dc:	000d4b09 	andeq	r4, sp, r9, lsl #22
    26e0:	1ba70300 	blne	fe9c32e8 <_stack_end+0x3c99d0e8>
    26e4:	00000139 	andeq	r0, r0, r9, lsr r1
    26e8:	090a2302 	stmdbeq	sl, {r1, r8, r9, sp}
    26ec:	00000cc1 	andeq	r0, r0, r1, asr #25
    26f0:	0c1da803 	ldceq	8, cr10, [sp], {3}
    26f4:	02000001 	andeq	r0, r0, #1
    26f8:	46090b23 	strmi	r0, [r9], -r3, lsr #22
    26fc:	0300000a 	movweq	r0, #10
    2700:	00df1fa9 	sbcseq	r1, pc, r9, lsr #31
    2704:	23020000 	movwcs	r0, #8192	; 0x2000
    2708:	0102000c 	tsteq	r2, ip
    270c:	00025f02 	andeq	r5, r2, r2, lsl #30
    2710:	0be00300 	bleq	ff803318 <_stack_end+0x3d7dd118>
    2714:	aa030000 	bge	c271c <SYS_MODE+0xc26fd>
    2718:	00014503 	andeq	r4, r1, r3, lsl #10
    271c:	01ce0400 	biceq	r0, lr, r0, lsl #8
    2720:	0c080000 	stceq	0, cr0, [r8], {-0}
    2724:	16090601 	strne	r0, [r9], -r1, lsl #12
    2728:	09000002 	stmdbeq	r0, {r1}
    272c:	00001371 	andeq	r1, r0, r1, ror r3
    2730:	530e0701 	movwpl	r0, #59137	; 0xe701
    2734:	02000000 	andeq	r0, r0, #0
    2738:	640a0023 	strvs	r0, [sl], #-35	; 0xffffffdd
    273c:	0100686c 	tsteq	r0, ip, ror #16
    2740:	00530e08 	subseq	r0, r3, r8, lsl #28
    2744:	23020000 	movwcs	r0, #8192	; 0x2000
    2748:	6c640a04 			; <UNDEFINED> instruction: 0x6c640a04
    274c:	0901006c 	stmdbeq	r1, {r2, r3, r5, r6}
    2750:	0000530e 	andeq	r5, r0, lr, lsl #6
    2754:	08230200 	stmdaeq	r3!, {r9}
    2758:	13220300 			; <UNDEFINED> instruction: 0x13220300
    275c:	0a010000 	beq	42764 <SYS_MODE+0x42745>
    2760:	0001df03 	andeq	sp, r1, r3, lsl #30
    2764:	02160400 	andseq	r0, r6, #0, 8
    2768:	220b0000 	andcs	r0, fp, #0
    276c:	37000002 	strcc	r0, [r0, -r2]
    2770:	0c000002 	stceq	0, cr0, [r0], {2}
    2774:	00000072 	andeq	r0, r0, r2, ror r0
    2778:	2704000b 	strcs	r0, [r4, -fp]
    277c:	0d000002 	stceq	0, cr0, [r0, #-8]
    2780:	0000129b 	muleq	r0, fp, r2
    2784:	37260c01 	strcc	r0, [r6, -r1, lsl #24]!
    2788:	05000002 	streq	r0, [r0, #-2]
    278c:	0052b003 	subseq	fp, r2, r3
    2790:	b7010ec2 	strlt	r0, [r1, -r2, asr #29]
    2794:	01000012 	tsteq	r0, r2, lsl r0
    2798:	01060118 	tsteq	r6, r8, lsl r1
    279c:	c2004224 	andgt	r4, r0, #36, 4	; 0x40000002
    27a0:	c2004288 	andgt	r4, r0, #136, 4	; 0x80000008
    27a4:	00001140 	andeq	r1, r0, r0, asr #2
    27a8:	00029b01 	andeq	r9, r2, r1, lsl #22
    27ac:	12c60f00 	sbcne	r0, r6, #0, 30
    27b0:	18010000 	stmdane	r1, {}	; <UNPREDICTABLE>
    27b4:	005f2401 	subseq	r2, pc, r1, lsl #8
    27b8:	91020000 	mrsls	r0, (UNDEF: 2)
    27bc:	12870f6c 	addne	r0, r7, #108, 30	; 0x1b0
    27c0:	18010000 	stmdane	r1, {}	; <UNPREDICTABLE>
    27c4:	00803c01 	addeq	r3, r0, r1, lsl #24
    27c8:	91020000 	mrsls	r0, (UNDEF: 2)
    27cc:	039b1068 	orrseq	r1, fp, #104	; 0x68
    27d0:	1a010000 	bne	427d8 <SYS_MODE+0x427b9>
    27d4:	00530e01 	subseq	r0, r3, r1, lsl #28
    27d8:	91020000 	mrsls	r0, (UNDEF: 2)
    27dc:	01110074 	tsteq	r1, r4, ror r0
    27e0:	00001253 	andeq	r1, r0, r3, asr r2
    27e4:	06010e01 	streq	r0, [r1], -r1, lsl #28
    27e8:	0041d401 	subeq	sp, r1, r1, lsl #8
    27ec:	004224c2 	subeq	r2, r2, r2, asr #9
    27f0:	001184c2 	andseq	r8, r1, r2, asr #9
    27f4:	02d80100 	sbcseq	r0, r8, #0, 2
    27f8:	c60f0000 	strgt	r0, [pc], -r0
    27fc:	01000012 	tsteq	r0, r2, lsl r0
    2800:	5f24010e 	svcpl	0x0024010e
    2804:	02000000 	andeq	r0, r0, #0
    2808:	b90f7491 	stmdblt	pc, {r0, r4, r7, sl, ip, sp, lr}	; <UNPREDICTABLE>
    280c:	0100000b 	tsteq	r0, fp
    2810:	d84f010e 	stmdale	pc, {r1, r2, r3, r8}^	; <UNPREDICTABLE>
    2814:	02000002 	andeq	r0, r0, #2
    2818:	12007091 	andne	r7, r0, #145	; 0x91
    281c:	0001da04 	andeq	sp, r1, r4, lsl #20
    2820:	126a1300 	rsbne	r1, sl, #0, 6
    2824:	a2010000 	andge	r0, r1, #0
    2828:	3ee0010d 	cdpcc	1, 14, cr0, cr0, cr13, {0}
    282c:	41d4c200 	bicsmi	ip, r4, r0, lsl #4
    2830:	11bcc200 			; <UNDEFINED> instruction: 0x11bcc200
    2834:	53010000 	movwpl	r0, #4096	; 0x1000
    2838:	14000003 	strne	r0, [r0], #-3
    283c:	000012c6 	andeq	r1, r0, r6, asr #5
    2840:	5f39a201 	svcpl	0x0039a201
    2844:	02000000 	andeq	r0, r0, #0
    2848:	b9146491 	ldmdblt	r4, {r0, r4, r7, sl, sp, lr}
    284c:	0100000b 	tsteq	r0, fp
    2850:	02d864a2 	sbcseq	r6, r8, #-1577058304	; 0xa2000000
    2854:	91020000 	mrsls	r0, (UNDEF: 2)
    2858:	039b0d60 	orrseq	r0, fp, #96, 26	; 0x1800
    285c:	a4010000 	strge	r0, [r1], #-0
    2860:	0000530e 	andeq	r5, r0, lr, lsl #6
    2864:	74910200 	ldrvc	r0, [r1], #512	; 0x200
    2868:	0012930d 	andseq	r9, r2, sp, lsl #6
    286c:	1ca40100 	stfnes	f0, [r4]
    2870:	00000053 	andeq	r0, r0, r3, asr r0
    2874:	15709102 	ldrbne	r9, [r0, #-258]!	; 0xfffffefe
    2878:	00686c64 	rsbeq	r6, r8, r4, ror #24
    287c:	532ca401 			; <UNDEFINED> instruction: 0x532ca401
    2880:	02000000 	andeq	r0, r0, #0
    2884:	64156c91 	ldrvs	r6, [r5], #-3217	; 0xfffff36f
    2888:	01006c6c 	tsteq	r0, ip, ror #24
    288c:	005338a4 	subseq	r3, r3, r4, lsr #17
    2890:	91020000 	mrsls	r0, (UNDEF: 2)
    2894:	3a160068 	bcc	582a3c <SYS_MODE+0x582a1d>
    2898:	01000013 	tsteq	r0, r3, lsl r0
    289c:	5c010d52 	stcpl	13, cr0, [r1], {82}	; 0x52
    28a0:	e0c2003c 	sbc	r0, r2, ip, lsr r0
    28a4:	f4c2003e 	vst1.8			; <UNDEFINED> instruction: 0xf4c2003e
    28a8:	01000011 	tsteq	r0, r1, lsl r0
    28ac:	000003c8 	andeq	r0, r0, r8, asr #7
    28b0:	0012c614 	andseq	ip, r2, r4, lsl r6
    28b4:	3d520100 	ldfcce	f0, [r2, #-0]
    28b8:	0000005f 	andeq	r0, r0, pc, asr r0
    28bc:	14649102 	strbtne	r9, [r4], #-258	; 0xfffffefe
    28c0:	00000bb9 			; <UNDEFINED> instruction: 0x00000bb9
    28c4:	d8685201 	stmdale	r8!, {r0, r9, ip, lr}^
    28c8:	02000002 	andeq	r0, r0, #2
    28cc:	9b0d6091 	blls	35ab18 <SYS_MODE+0x35aaf9>
    28d0:	01000003 	tsteq	r0, r3
    28d4:	00530e54 	subseq	r0, r3, r4, asr lr
    28d8:	91020000 	mrsls	r0, (UNDEF: 2)
    28dc:	12620d74 	rsbne	r0, r2, #116, 26	; 0x1d00
    28e0:	54010000 	strpl	r0, [r1], #-0
    28e4:	0000531c 	andeq	r5, r0, ip, lsl r3
    28e8:	70910200 	addsvc	r0, r1, r0, lsl #4
    28ec:	0012930d 	andseq	r9, r2, sp, lsl #6
    28f0:	2c540100 	ldfcse	f0, [r4], {-0}
    28f4:	00000053 	andeq	r0, r0, r3, asr r0
    28f8:	0d6c9102 	stfeqp	f1, [ip, #-8]!
    28fc:	000012af 	andeq	r1, r0, pc, lsr #5
    2900:	533c5401 	teqpl	ip, #16777216	; 0x1000000
    2904:	02000000 	andeq	r0, r0, #0
    2908:	16006891 			; <UNDEFINED> instruction: 0x16006891
    290c:	00001376 	andeq	r1, r0, r6, ror r3
    2910:	010d3a01 	tsteq	sp, r1, lsl #20
    2914:	c2003bd4 	andgt	r3, r0, #212, 22	; 0x35000
    2918:	c2003c5c 	andgt	r3, r0, #92, 24	; 0x5c00
    291c:	00001238 	andeq	r1, r0, r8, lsr r2
    2920:	00041001 	andeq	r1, r4, r1
    2924:	12c61400 	sbcne	r1, r6, #0, 8
    2928:	3a010000 	bcc	42930 <SYS_MODE+0x42911>
    292c:	00005f2c 	andeq	r5, r0, ip, lsr #30
    2930:	6c910200 	lfmvs	f0, 4, [r1], {0}
    2934:	00039b0d 	andeq	r9, r3, sp, lsl #22
    2938:	0e3c0100 	rsfeqe	f0, f4, f0
    293c:	00000053 	andeq	r0, r0, r3, asr r0
    2940:	0d709102 	ldfeqp	f1, [r0, #-8]!
    2944:	0000128c 	andeq	r1, r0, ip, lsl #5
    2948:	531c3c01 	tstpl	ip, #256	; 0x100
    294c:	02000000 	andeq	r0, r0, #0
    2950:	17007491 			; <UNDEFINED> instruction: 0x17007491
    2954:	00001362 	andeq	r1, r0, r2, ror #6
    2958:	010d2201 	tsteq	sp, r1, lsl #4
    295c:	000001c7 	andeq	r0, r0, r7, asr #3
    2960:	c2003ad8 	andgt	r3, r0, #216, 20	; 0xd8000
    2964:	c2003bd4 	andgt	r3, r0, #212, 22	; 0x35000
    2968:	0000127c 	andeq	r1, r0, ip, ror r2
    296c:	00048201 	andeq	r8, r4, r1, lsl #4
    2970:	0cb81400 	cfldrseq	mvf1, [r8]
    2974:	22010000 	andcs	r0, r1, #0
    2978:	00005f30 	andeq	r5, r0, r0, lsr pc
    297c:	6c910200 	lfmvs	f0, 4, [r1], {0}
    2980:	686c6418 	stmdavs	ip!, {r3, r4, sl, sp, lr}^
    2984:	44220100 	strtmi	r0, [r2], #-256	; 0xffffff00
    2988:	00000482 	andeq	r0, r0, r2, lsl #9
    298c:	18689102 	stmdane	r8!, {r1, r8, ip, pc}^
    2990:	006c6c64 	rsbeq	r6, ip, r4, ror #24
    2994:	82532201 	subshi	r2, r3, #268435456	; 0x10000000
    2998:	02000004 	andeq	r0, r0, #4
    299c:	5b0d6491 	blpl	35bbe8 <SYS_MODE+0x35bbc9>
    29a0:	01000013 	tsteq	r0, r3, lsl r0
    29a4:	00530e27 	subseq	r0, r3, r7, lsr #28
    29a8:	91020000 	mrsls	r0, (UNDEF: 2)
    29ac:	3b181970 	blcc	608f74 <SYS_MODE+0x608f55>
    29b0:	3bc0c200 	blcc	ff0331b8 <_stack_end+0x3d00cfb8>
    29b4:	6915c200 	ldmdbvs	r5, {r9, lr, pc}
    29b8:	13290100 			; <UNDEFINED> instruction: 0x13290100
    29bc:	00000053 	andeq	r0, r0, r3, asr r0
    29c0:	00749102 	rsbseq	r9, r4, r2, lsl #2
    29c4:	53041200 	movwpl	r1, #16896	; 0x4200
    29c8:	00000000 	andeq	r0, r0, r0
    29cc:	00000455 	andeq	r0, r0, r5, asr r4
    29d0:	0c090002 	stceq	0, cr0, [r9], {2}
    29d4:	01040000 	mrseq	r0, (UNDEF: 4)
    29d8:	00000018 	andeq	r0, r0, r8, lsl r0
    29dc:	00153d0c 	andseq	r3, r5, ip, lsl #26
    29e0:	00026a00 	andeq	r6, r2, r0, lsl #20
    29e4:	0002c000 	andeq	ip, r2, r0
	...
    29f0:	0026f100 	eoreq	pc, r6, r0, lsl #2
    29f4:	06010200 	streq	r0, [r1], -r0, lsl #4
    29f8:	00000186 	andeq	r0, r0, r6, lsl #3
    29fc:	3d050202 	sfmcc	f0, 4, [r5, #-8]
    2a00:	02000002 	andeq	r0, r0, #2
    2a04:	02110504 	andseq	r0, r1, #4, 10	; 0x1000000
    2a08:	08020000 	stmdaeq	r2, {}	; <UNPREDICTABLE>
    2a0c:	00020c05 	andeq	r0, r2, r5, lsl #24
    2a10:	08010200 	stmdaeq	r1, {r9}
    2a14:	00000184 	andeq	r0, r0, r4, lsl #3
    2a18:	62070202 	andvs	r0, r7, #536870912	; 0x20000000
    2a1c:	03000001 	movweq	r0, #1
    2a20:	000006b6 			; <UNDEFINED> instruction: 0x000006b6
    2a24:	641d1f01 	ldrvs	r1, [sp], #-3841	; 0xfffff0ff
    2a28:	04000000 	streq	r0, [r0], #-0
    2a2c:	00000053 	andeq	r0, r0, r3, asr r0
    2a30:	d9070402 	stmdble	r7, {r1, sl}
    2a34:	02000001 	andeq	r0, r0, #1
    2a38:	01d40708 	bicseq	r0, r4, r8, lsl #14
    2a3c:	04020000 	streq	r0, [r2], #-0
    2a40:	0001de07 	andeq	sp, r1, r7, lsl #28
    2a44:	05040500 	streq	r0, [r4, #-1280]	; 0xfffffb00
    2a48:	00746e69 	rsbseq	r6, r4, r9, ror #28
    2a4c:	0013cc06 	andseq	ip, r3, r6, lsl #24
    2a50:	45010700 	strmi	r0, [r1, #-1792]	; 0xfffff900
    2a54:	03000000 	movweq	r0, #0
    2a58:	00b1061d 	adcseq	r0, r1, sp, lsl r6
    2a5c:	18070000 	stmdane	r7, {}	; <UNPREDICTABLE>
    2a60:	00000014 	andeq	r0, r0, r4, lsl r0
    2a64:	00146c07 	andseq	r6, r4, r7, lsl #24
    2a68:	e4070100 	str	r0, [r7], #-256	; 0xffffff00
    2a6c:	02000013 	andeq	r0, r0, #19
    2a70:	00149207 	andseq	r9, r4, r7, lsl #4
    2a74:	4a070300 	bmi	1c367c <SYS_MODE+0x1c365d>
    2a78:	04000014 	streq	r0, [r0], #-20	; 0xffffffec
    2a7c:	00800400 	addeq	r0, r0, r0, lsl #8
    2a80:	e4060000 	str	r0, [r6], #-0
    2a84:	0700000c 	streq	r0, [r0, -ip]
    2a88:	00004501 	andeq	r4, r0, r1, lsl #10
    2a8c:	06280300 	strteq	r0, [r8], -r0, lsl #6
    2a90:	000000db 	ldrdeq	r0, [r0], -fp
    2a94:	000d5207 	andeq	r5, sp, r7, lsl #4
    2a98:	c0070000 	andgt	r0, r7, r0
    2a9c:	0100000b 	tsteq	r0, fp
    2aa0:	000a9207 	andeq	r9, sl, r7, lsl #4
    2aa4:	06000200 	streq	r0, [r0], -r0, lsl #4
    2aa8:	00000a7c 	andeq	r0, r0, ip, ror sl
    2aac:	00450107 	subeq	r0, r5, r7, lsl #2
    2ab0:	31030000 	mrscc	r0, (UNDEF: 3)
    2ab4:	00010006 	andeq	r0, r1, r6
    2ab8:	0c980700 	ldceq	7, cr0, [r8], {0}
    2abc:	07000000 	streq	r0, [r0, -r0]
    2ac0:	00000b88 	andeq	r0, r0, r8, lsl #23
    2ac4:	0c620701 	stcleq	7, cr0, [r2], #-4
    2ac8:	00020000 	andeq	r0, r2, r0
    2acc:	0000db04 	andeq	sp, r0, r4, lsl #22
    2ad0:	ab010800 	blge	44ad8 <SYS_MODE+0x44ab9>
    2ad4:	02000014 	andeq	r0, r0, #20
    2ad8:	00010688 	andeq	r0, r1, r8, lsl #13
    2adc:	00000000 	andeq	r0, r0, r0
    2ae0:	c0000000 	andgt	r0, r0, r0
    2ae4:	01000012 	tsteq	r0, r2, lsl r0
    2ae8:	0000013f 	andeq	r0, r0, pc, lsr r1
    2aec:	000bdb09 	andeq	sp, fp, r9, lsl #22
    2af0:	2d880200 	sfmcs	f0, 4, [r8]
    2af4:	0000005f 	andeq	r0, r0, pc, asr r0
    2af8:	0a749102 	beq	1d26f08 <SYS_MODE+0x1d26ee9>
    2afc:	00746962 	rsbseq	r6, r4, r2, ror #18
    2b00:	00548802 	subseq	r8, r4, r2, lsl #16
    2b04:	02000001 	andeq	r0, r0, #1
    2b08:	08007391 	stmdaeq	r0, {r0, r4, r7, r8, r9, ip, sp, lr}
    2b0c:	00139d01 	andseq	r9, r3, r1, lsl #26
    2b10:	06820200 	streq	r0, [r2], r0, lsl #4
    2b14:	00460001 	subeq	r0, r6, r1
    2b18:	00463cc2 	subeq	r3, r6, r2, asr #25
    2b1c:	0012f8c2 	andseq	pc, r2, r2, asr #17
    2b20:	01790100 	cmneq	r9, r0, lsl #2
    2b24:	db090000 	blle	242b2c <SYS_MODE+0x242b0d>
    2b28:	0200000b 	andeq	r0, r0, #11
    2b2c:	005f2c82 	subseq	r2, pc, r2, lsl #25
    2b30:	91020000 	mrsls	r0, (UNDEF: 2)
    2b34:	69620a74 	stmdbvs	r2!, {r2, r4, r5, r6, r9, fp}^
    2b38:	82020074 	andhi	r0, r2, #116	; 0x74
    2b3c:	00010053 	andeq	r0, r1, r3, asr r0
    2b40:	73910200 	orrsvc	r0, r1, #0, 4
    2b44:	f6010800 			; <UNDEFINED> instruction: 0xf6010800
    2b48:	02000013 	andeq	r0, r0, #19
    2b4c:	b801067b 	stmdalt	r1, {r0, r1, r3, r4, r5, r6, r9, sl}
    2b50:	00c20045 	sbceq	r0, r2, r5, asr #32
    2b54:	30c20046 	sbccc	r0, r2, r6, asr #32
    2b58:	01000013 	tsteq	r0, r3, lsl r0
    2b5c:	000001b3 			; <UNDEFINED> instruction: 0x000001b3
    2b60:	000bdb09 	andeq	sp, fp, r9, lsl #22
    2b64:	327b0200 	rsbscc	r0, fp, #0, 4
    2b68:	0000005f 	andeq	r0, r0, pc, asr r0
    2b6c:	0a749102 	beq	1d26f7c <SYS_MODE+0x1d26f5d>
    2b70:	00746962 	rsbseq	r6, r4, r2, ror #18
    2b74:	00597b02 	subseq	r7, r9, r2, lsl #22
    2b78:	02000001 	andeq	r0, r0, #1
    2b7c:	08007391 	stmdaeq	r0, {r0, r4, r7, r8, r9, ip, sp, lr}
    2b80:	0013b401 	andseq	fp, r3, r1, lsl #8
    2b84:	06720200 	ldrbteq	r0, [r2], -r0, lsl #4
    2b88:	00000001 	andeq	r0, r0, r1
    2b8c:	00000000 	andeq	r0, r0, r0
    2b90:	00136800 	andseq	r6, r3, r0, lsl #16
    2b94:	01ed0100 	mvneq	r0, r0, lsl #2
    2b98:	db090000 	blle	242ba0 <SYS_MODE+0x242b81>
    2b9c:	0200000b 	andeq	r0, r0, #11
    2ba0:	005f2d72 	subseq	r2, pc, r2, ror sp	; <UNPREDICTABLE>
    2ba4:	91020000 	mrsls	r0, (UNDEF: 2)
    2ba8:	158d0974 	strne	r0, [sp, #2420]	; 0x974
    2bac:	72020000 	andvc	r0, r2, #0
    2bb0:	00005f42 	andeq	r5, r0, r2, asr #30
    2bb4:	70910200 	addsvc	r0, r1, r0, lsl #4
    2bb8:	a8010800 	stmdage	r1, {fp}
    2bbc:	02000015 	andeq	r0, r0, #21
    2bc0:	78010669 	stmdavc	r1, {r0, r3, r5, r6, r9, sl}
    2bc4:	b8c20045 	stmialt	r2, {r0, r2, r6}^
    2bc8:	a0c20045 	sbcge	r0, r2, r5, asr #32
    2bcc:	01000013 	tsteq	r0, r3, lsl r0
    2bd0:	00000227 	andeq	r0, r0, r7, lsr #4
    2bd4:	000bdb09 	andeq	sp, fp, r9, lsl #22
    2bd8:	2c690200 	sfmcs	f0, 2, [r9], #-0
    2bdc:	0000005f 	andeq	r0, r0, pc, asr r0
    2be0:	09749102 	ldmdbeq	r4!, {r1, r8, ip, pc}^
    2be4:	0000145c 	andeq	r1, r0, ip, asr r4
    2be8:	5f416902 	svcpl	0x00416902
    2bec:	02000000 	andeq	r0, r0, #0
    2bf0:	08007091 	stmdaeq	r0, {r0, r4, r7, ip, sp, lr}
    2bf4:	00143201 	andseq	r3, r4, r1, lsl #4
    2bf8:	06600200 	strbteq	r0, [r0], -r0, lsl #4
    2bfc:	00453801 	subeq	r3, r5, r1, lsl #16
    2c00:	004578c2 	subeq	r7, r5, r2, asr #17
    2c04:	0013d8c2 	andseq	sp, r3, r2, asr #17
    2c08:	02610100 	rsbeq	r0, r1, #0, 2
    2c0c:	db090000 	blle	242c14 <SYS_MODE+0x242bf5>
    2c10:	0200000b 	andeq	r0, r0, #11
    2c14:	005f2d60 	subseq	r2, pc, r0, ror #26
    2c18:	91020000 	mrsls	r0, (UNDEF: 2)
    2c1c:	142a0974 	strtne	r0, [sl], #-2420	; 0xfffff68c
    2c20:	60020000 	andvs	r0, r2, r0
    2c24:	00005f42 	andeq	r5, r0, r2, asr #30
    2c28:	70910200 	addsvc	r0, r1, r0, lsl #4
    2c2c:	c3010800 	movwgt	r0, #6144	; 0x1800
    2c30:	02000014 	andeq	r0, r0, #20
    2c34:	00010657 	andeq	r0, r1, r7, asr r6
    2c38:	00000000 	andeq	r0, r0, r0
    2c3c:	10000000 	andne	r0, r0, r0
    2c40:	01000014 	tsteq	r0, r4, lsl r0
    2c44:	0000028c 	andeq	r0, r0, ip, lsl #5
    2c48:	000bdb09 	andeq	sp, fp, r9, lsl #22
    2c4c:	37570200 	ldrbcc	r0, [r7, -r0, lsl #4]
    2c50:	0000005f 	andeq	r0, r0, pc, asr r0
    2c54:	00749102 	rsbseq	r9, r4, r2, lsl #2
    2c58:	14e50108 	strbtne	r0, [r5], #264	; 0x108
    2c5c:	41020000 	mrsmi	r0, (UNDEF: 2)
    2c60:	00000106 	andeq	r0, r0, r6, lsl #2
    2c64:	00000000 	andeq	r0, r0, r0
    2c68:	14480000 	strbne	r0, [r8], #-0
    2c6c:	d5010000 	strle	r0, [r1, #-0]
    2c70:	09000002 	stmdbeq	r0, {r1}
    2c74:	00000bdb 	ldrdeq	r0, [r0], -fp
    2c78:	5f364102 	svcpl	0x00364102
    2c7c:	02000000 	andeq	r0, r0, #0
    2c80:	700a6c91 	mulvc	sl, r1, ip
    2c84:	02007674 	andeq	r7, r0, #116, 12	; 0x7400000
    2c88:	005f4b41 	subseq	r4, pc, r1, asr #22
    2c8c:	91020000 	mrsls	r0, (UNDEF: 2)
    2c90:	039b0b68 	orrseq	r0, fp, #104, 22	; 0x1a000
    2c94:	43020000 	movwmi	r0, #8192	; 0x2000
    2c98:	0000530e 	andeq	r5, r0, lr, lsl #6
    2c9c:	74910200 	ldrvc	r0, [r1], #512	; 0x200
    2ca0:	06010800 	streq	r0, [r1], -r0, lsl #16
    2ca4:	02000015 	andeq	r0, r0, #21
    2ca8:	48010623 	stmdami	r1, {r0, r1, r5, r9, sl}
    2cac:	38c20044 	stmiacc	r2, {r2, r6}^
    2cb0:	80c20045 	sbchi	r0, r2, r5, asr #32
    2cb4:	01000014 	tsteq	r0, r4, lsl r0
    2cb8:	0000031e 	andeq	r0, r0, lr, lsl r3
    2cbc:	000bdb09 	andeq	sp, fp, r9, lsl #22
    2cc0:	30230200 	eorcc	r0, r3, r0, lsl #4
    2cc4:	0000005f 	andeq	r0, r0, pc, asr r0
    2cc8:	096c9102 	stmdbeq	ip!, {r1, r8, ip, pc}^
    2ccc:	00000cf8 	strdeq	r0, [r0], -r8
    2cd0:	5f452302 	svcpl	0x00452302
    2cd4:	02000000 	andeq	r0, r0, #0
    2cd8:	9b0b6891 	blls	2dcf24 <SYS_MODE+0x2dcf05>
    2cdc:	02000003 	andeq	r0, r0, #3
    2ce0:	00530e25 	subseq	r0, r3, r5, lsr #28
    2ce4:	91020000 	mrsls	r0, (UNDEF: 2)
    2ce8:	01080074 	tsteq	r8, r4, ror r0
    2cec:	0000147e 	andeq	r1, r0, lr, ror r4
    2cf0:	01061d02 	tsteq	r6, r2, lsl #26
	...
    2cfc:	000014b8 			; <UNDEFINED> instruction: 0x000014b8
    2d00:	00034901 	andeq	r4, r3, r1, lsl #18
    2d04:	0bdb0900 	bleq	ff6c510c <_stack_end+0x3d69ef0c>
    2d08:	1d020000 	stcne	0, cr0, [r2, #-0]
    2d0c:	00005f29 	andeq	r5, r0, r9, lsr #30
    2d10:	74910200 	ldrvc	r0, [r1], #512	; 0x200
    2d14:	95010800 	strls	r0, [r1, #-2048]	; 0xfffff800
    2d18:	02000015 	andeq	r0, r0, #21
    2d1c:	08010617 	stmdaeq	r1, {r0, r1, r2, r4, r9, sl}
    2d20:	48c20044 	stmiami	r2, {r2, r6}^
    2d24:	f0c20044 			; <UNDEFINED> instruction: 0xf0c20044
    2d28:	01000014 	tsteq	r0, r4, lsl r0
    2d2c:	00000374 	andeq	r0, r0, r4, ror r3
    2d30:	000bdb09 	andeq	sp, fp, r9, lsl #22
    2d34:	28170200 	ldmdacs	r7, {r9}
    2d38:	0000005f 	andeq	r0, r0, pc, asr r0
    2d3c:	00749102 	rsbseq	r9, r4, r2, lsl #2
    2d40:	13860108 	orrne	r0, r6, #8, 2
    2d44:	0e020000 	cdpeq	0, 0, cr0, cr2, cr0, {0}
    2d48:	43a40106 			; <UNDEFINED> instruction: 0x43a40106
    2d4c:	4408c200 	strmi	ip, [r8], #-512	; 0xfffffe00
    2d50:	1528c200 	strne	ip, [r8, #-512]!	; 0xfffffe00
    2d54:	ae010000 	cdpge	0, 0, cr0, cr1, cr0, {0}
    2d58:	09000003 	stmdbeq	r0, {r0, r1}
    2d5c:	00000bdb 	ldrdeq	r0, [r0], -fp
    2d60:	5f2c0e02 	svcpl	0x002c0e02
    2d64:	02000000 	andeq	r0, r0, #0
    2d68:	9b0b6c91 	blls	2ddfb4 <SYS_MODE+0x2ddf95>
    2d6c:	02000003 	andeq	r0, r0, #3
    2d70:	00530e10 	subseq	r0, r3, r0, lsl lr
    2d74:	91020000 	mrsls	r0, (UNDEF: 2)
    2d78:	210c0074 	tstcs	ip, r4, ror r0
    2d7c:	02000015 	andeq	r0, r0, #21
    2d80:	28010d03 	stmdacs	r1, {r0, r1, r8, sl, fp}
    2d84:	a4c20043 	strbge	r0, [r2], #67	; 0x43
    2d88:	60c20043 	sbcvs	r0, r2, r3, asr #32
    2d8c:	01000015 	tsteq	r0, r5, lsl r0
    2d90:	000003f6 	strdeq	r0, [r0], -r6
    2d94:	000bdb09 	andeq	sp, fp, r9, lsl #22
    2d98:	38030200 	stmdacc	r3, {r9}
    2d9c:	0000005f 	andeq	r0, r0, pc, asr r0
    2da0:	0a6c9102 	beq	1b271b0 <SYS_MODE+0x1b27191>
    2da4:	00746962 	rsbseq	r6, r4, r2, ror #18
    2da8:	b1610302 	cmnlt	r1, r2, lsl #6
    2dac:	02000000 	andeq	r0, r0, #0
    2db0:	9b0b6b91 	blls	2ddbfc <SYS_MODE+0x2ddbdd>
    2db4:	02000003 	andeq	r0, r0, #3
    2db8:	00530e05 	subseq	r0, r3, r5, lsl #28
    2dbc:	91020000 	mrsls	r0, (UNDEF: 2)
    2dc0:	a40d0074 	strge	r0, [sp], #-116	; 0xffffff8c
    2dc4:	01000014 	tsteq	r0, r4, lsl r0
    2dc8:	88011452 	stmdahi	r1, {r1, r4, r6, sl, ip}
    2dcc:	28c20042 	stmiacs	r2, {r1, r6}^
    2dd0:	a4c20043 	strbge	r0, [r2], #67	; 0x43
    2dd4:	01000015 	tsteq	r0, r5, lsl r0
    2dd8:	00141309 	andseq	r1, r4, r9, lsl #6
    2ddc:	2a520100 	bcs	14831e4 <SYS_MODE+0x14831c5>
    2de0:	0000005f 	andeq	r0, r0, pc, asr r0
    2de4:	096c9102 	stmdbeq	ip!, {r1, r8, ip, pc}^
    2de8:	00001463 	andeq	r1, r0, r3, ror #8
    2dec:	5f3f5201 	svcpl	0x003f5201
    2df0:	02000000 	andeq	r0, r0, #0
    2df4:	e2096891 	and	r6, r9, #9502720	; 0x910000
    2df8:	01000004 	tsteq	r0, r4
    2dfc:	005f5852 	subseq	r5, pc, r2, asr r8	; <UNPREDICTABLE>
    2e00:	91020000 	mrsls	r0, (UNDEF: 2)
    2e04:	61760a64 	cmnvs	r6, r4, ror #20
    2e08:	5201006c 	andpl	r0, r1, #108	; 0x6c
    2e0c:	00005f6e 	andeq	r5, r0, lr, ror #30
    2e10:	60910200 	addsvs	r0, r1, r0, lsl #4
    2e14:	00039b0b 	andeq	r9, r3, fp, lsl #22
    2e18:	0e540100 	rdfeqs	f0, f4, f0
    2e1c:	00000053 	andeq	r0, r0, r3, asr r0
    2e20:	00749102 	rsbseq	r9, r4, r2, lsl #2
    2e24:	00010e00 	andeq	r0, r1, r0, lsl #28
    2e28:	ea000200 	b	3630 <SYS_MODE+0x3611>
    2e2c:	0400000c 	streq	r0, [r0], #-12
    2e30:	00001801 	andeq	r1, r0, r1, lsl #16
    2e34:	16080c00 	strne	r0, [r8], -r0, lsl #24
    2e38:	026a0000 	rsbeq	r0, sl, #0
    2e3c:	03380000 	teqeq	r8, #0
	...
    2e48:	2a130000 	bcs	4c2e50 <SYS_MODE+0x4c2e31>
    2e4c:	01020000 	mrseq	r0, (UNDEF: 2)
    2e50:	00018606 	andeq	r8, r1, r6, lsl #12
    2e54:	05020200 	streq	r0, [r2, #-512]	; 0xfffffe00
    2e58:	0000023d 	andeq	r0, r0, sp, lsr r2
    2e5c:	11050402 	tstne	r5, r2, lsl #8
    2e60:	02000002 	andeq	r0, r0, #2
    2e64:	020c0508 	andeq	r0, ip, #8, 10	; 0x2000000
    2e68:	01020000 	mrseq	r0, (UNDEF: 2)
    2e6c:	00018408 	andeq	r8, r1, r8, lsl #8
    2e70:	07020200 	streq	r0, [r2, -r0, lsl #4]
    2e74:	00000162 	andeq	r0, r0, r2, ror #2
    2e78:	d9070402 	stmdble	r7, {r1, sl}
    2e7c:	03000001 	movweq	r0, #1
    2e80:	00000366 	andeq	r0, r0, r6, ror #6
    2e84:	661d2202 	ldrvs	r2, [sp], -r2, lsl #4
    2e88:	02000000 	andeq	r0, r0, #0
    2e8c:	01d40708 	bicseq	r0, r4, r8, lsl #14
    2e90:	04020000 	streq	r0, [r2], #-0
    2e94:	0001de07 	andeq	sp, r1, r7, lsl #28
    2e98:	05040400 	streq	r0, [r4, #-1024]	; 0xfffffc00
    2e9c:	00746e69 	rsbseq	r6, r4, r9, ror #28
    2ea0:	8d080102 	stfhis	f0, [r8, #-8]
    2ea4:	02000001 	andeq	r0, r0, #1
    2ea8:	025f0201 	subseq	r0, pc, #268435456	; 0x10000000
    2eac:	f4050000 	vst4.8	{d0-d3}, [r5], r0
    2eb0:	03000015 	movweq	r0, #21
    2eb4:	005a1109 	subseq	r1, sl, r9, lsl #2
    2eb8:	01010000 	mrseq	r0, (UNDEF: 1)
    2ebc:	00008906 	andeq	r8, r0, r6, lsl #18
    2ec0:	0a070100 	beq	1c32c8 <SYS_MODE+0x1c32a9>
    2ec4:	dfb00305 	svcle	0x00b00305
    2ec8:	0107c201 	tsteq	r7, r1, lsl #4
    2ecc:	000015d0 	ldrdeq	r1, [r0], -r0
    2ed0:	01062501 	tsteq	r6, r1, lsl #10
	...
    2edc:	000015e8 	andeq	r1, r0, r8, ror #11
    2ee0:	bf010701 	svclt	0x00010701
    2ee4:	01000015 	tsteq	r0, r5, lsl r0
    2ee8:	3c01061d 	stccc	6, cr0, [r1], {29}
    2eec:	74c20046 	strbvc	r0, [r2], #70	; 0x46
    2ef0:	2cc20046 	stclcs	0, cr0, [r2], {70}	; 0x46
    2ef4:	01000016 	tsteq	r0, r6, lsl r0
    2ef8:	15e10107 	strbne	r0, [r1, #263]!	; 0x107
    2efc:	15010000 	strne	r0, [r1, #-0]
    2f00:	00000106 	andeq	r0, r0, r6, lsl #2
    2f04:	00000000 	andeq	r0, r0, r0
    2f08:	16700000 	ldrbtne	r0, [r0], -r0
    2f0c:	08010000 	stmdaeq	r1, {}	; <UNPREDICTABLE>
    2f10:	00165b01 	andseq	r5, r6, r1, lsl #22
    2f14:	060d0100 	streq	r0, [sp], -r0, lsl #2
    2f18:	00000001 	andeq	r0, r0, r1
    2f1c:	00000000 	andeq	r0, r0, r0
    2f20:	0016b400 	andseq	fp, r6, r0, lsl #8
    2f24:	9b090100 	blls	24332c <SYS_MODE+0x24330d>
    2f28:	01000003 	tsteq	r0, r3
    2f2c:	005a200d 	subseq	r2, sl, sp
    2f30:	91020000 	mrsls	r0, (UNDEF: 2)
    2f34:	2c000070 	stccs	0, cr0, [r0], {112}	; 0x70
    2f38:	02000005 	andeq	r0, r0, #5
    2f3c:	000d8c00 	andeq	r8, sp, r0, lsl #24
    2f40:	18010400 	stmdane	r1, {sl}
    2f44:	0c000000 	stceq	0, cr0, [r0], {-0}
    2f48:	00001686 	andeq	r1, r0, r6, lsl #13
    2f4c:	0000026a 	andeq	r0, r0, sl, ror #4
    2f50:	00000360 	andeq	r0, r0, r0, ror #6
	...
    2f5c:	00002b8d 	andeq	r2, r0, sp, lsl #23
    2f60:	86060102 	strhi	r0, [r6], -r2, lsl #2
    2f64:	02000001 	andeq	r0, r0, #1
    2f68:	023d0502 	eorseq	r0, sp, #8388608	; 0x800000
    2f6c:	04020000 	streq	r0, [r2], #-0
    2f70:	00021105 	andeq	r1, r2, r5, lsl #2
    2f74:	05080200 	streq	r0, [r8, #-512]	; 0xfffffe00
    2f78:	0000020c 	andeq	r0, r0, ip, lsl #4
    2f7c:	000e3003 	andeq	r3, lr, r3
    2f80:	1d190200 	lfmne	f0, 4, [r9, #-0]
    2f84:	00000051 	andeq	r0, r0, r1, asr r0
    2f88:	84080102 	strhi	r0, [r8], #-258	; 0xfffffefe
    2f8c:	02000001 	andeq	r0, r0, #1
    2f90:	01620702 	cmneq	r2, r2, lsl #14
    2f94:	b6030000 	strlt	r0, [r3], -r0
    2f98:	02000006 	andeq	r0, r0, #6
    2f9c:	006b1d1f 	rsbeq	r1, fp, pc, lsl sp
    2fa0:	04020000 	streq	r0, [r2], #-0
    2fa4:	0001d907 	andeq	sp, r1, r7, lsl #18
    2fa8:	03660300 	cmneq	r6, #0, 6
    2fac:	22020000 	andcs	r0, r2, #0
    2fb0:	00007e1d 	andeq	r7, r0, sp, lsl lr
    2fb4:	07080200 	streq	r0, [r8, -r0, lsl #4]
    2fb8:	000001d4 	ldrdeq	r0, [r0], -r4
    2fbc:	de070402 	cdple	4, 0, cr0, cr7, cr2, {0}
    2fc0:	04000001 	streq	r0, [r0], #-1
    2fc4:	05040504 	streq	r0, [r4, #-1284]	; 0xfffffafc
    2fc8:	00746e69 	rsbseq	r6, r4, r9, ror #28
    2fcc:	0001fd06 	andeq	pc, r1, r6, lsl #26
    2fd0:	06030800 	streq	r0, [r3], -r0, lsl #16
    2fd4:	0000c108 	andeq	ip, r0, r8, lsl #2
    2fd8:	02650700 	rsbeq	r0, r5, #0, 14
    2fdc:	08030000 	stmdaeq	r3, {}	; <UNPREDICTABLE>
    2fe0:	0000c11c 	andeq	ip, r0, ip, lsl r1
    2fe4:	00230200 	eoreq	r0, r3, r0, lsl #4
    2fe8:	00000007 	andeq	r0, r0, r7
    2fec:	1c090300 	stcne	3, cr0, [r9], {-0}
    2ff0:	000000c1 	andeq	r0, r0, r1, asr #1
    2ff4:	00042302 	andeq	r2, r4, r2, lsl #6
    2ff8:	00950408 	addseq	r0, r5, r8, lsl #8
    2ffc:	83030000 	movwhi	r0, #12288	; 0x3000
    3000:	0400000f 	streq	r0, [r0], #-15
    3004:	00d3100a 	sbcseq	r1, r3, sl
    3008:	04080000 	streq	r0, [r8], #-0
    300c:	000000d9 	ldrdeq	r0, [r0], -r9
    3010:	00e50109 	rsceq	r0, r5, r9, lsl #2
    3014:	8c0a0000 	stchi	0, cr0, [sl], {-0}
    3018:	00000000 	andeq	r0, r0, r0
    301c:	000deb0b 	andeq	lr, sp, fp, lsl #22
    3020:	51010700 	tstpl	r1, r0, lsl #14
    3024:	04000000 	streq	r0, [r0], #-0
    3028:	011c060f 	tsteq	ip, pc, lsl #12
    302c:	1a0c0000 	bne	303034 <SYS_MODE+0x303015>
    3030:	0000000e 	andeq	r0, r0, lr
    3034:	000ffc0c 	andeq	pc, pc, ip, lsl #24
    3038:	8e0c0100 	adfhie	f0, f4, f0
    303c:	02000010 	andeq	r0, r0, #16
    3040:	0010d90c 	andseq	sp, r0, ip, lsl #18
    3044:	110c0300 	mrsne	r0, LR_mon
    3048:	04000010 	streq	r0, [r0], #-16
    304c:	00111e0c 	andseq	r1, r1, ip, lsl #28
    3050:	0d000500 	cfstr32eq	mvfx0, [r0, #-0]
    3054:	00000e88 	andeq	r0, r0, r8, lsl #29
    3058:	1b040148 	blne	103580 <SYS_MODE+0x103561>
    305c:	00020908 	andeq	r0, r2, r8, lsl #18
    3060:	088f0700 	stmeq	pc, {r8, r9, sl}	; <UNPREDICTABLE>
    3064:	1d040000 	stcne	0, cr0, [r4, #-0]
    3068:	00008c0b 	andeq	r8, r0, fp, lsl #24
    306c:	00230200 	eoreq	r0, r3, r0, lsl #4
    3070:	000f0507 	andeq	r0, pc, r7, lsl #10
    3074:	0a1e0400 	beq	78407c <SYS_MODE+0x78405d>
    3078:	00000209 	andeq	r0, r0, r9, lsl #4
    307c:	07042302 	streq	r2, [r4, -r2, lsl #6]
    3080:	0000118d 	andeq	r1, r0, sp, lsl #3
    3084:	450d1f04 	strmi	r1, [sp, #-3844]	; 0xfffff0fc
    3088:	03000000 	movweq	r0, #0
    308c:	07028423 	streq	r8, [r2, -r3, lsr #8]
    3090:	00000e49 	andeq	r0, r0, r9, asr #28
    3094:	c7132004 	ldrgt	r2, [r3, -r4]
    3098:	03000000 	movweq	r0, #0
    309c:	07028823 	streq	r8, [r2, -r3, lsr #16]
    30a0:	00000faa 	andeq	r0, r0, sl, lsr #31
    30a4:	720e2304 	andvc	r2, lr, #4, 6	; 0x10000000
    30a8:	03000000 	movweq	r0, #0
    30ac:	07029023 	streq	r9, [r2, -r3, lsr #32]
    30b0:	00000de0 	andeq	r0, r0, r0, ror #27
    30b4:	720e2404 	andvc	r2, lr, #4, 8	; 0x4000000
    30b8:	03000000 	movweq	r0, #0
    30bc:	07029823 	streq	r9, [r2, -r3, lsr #16]
    30c0:	00000fe5 	andeq	r0, r0, r5, ror #31
    30c4:	720e2504 	andvc	r2, lr, #4, 10	; 0x1000000
    30c8:	03000000 	movweq	r0, #0
    30cc:	0702a023 	streq	sl, [r2, -r3, lsr #32]
    30d0:	000010bc 	strheq	r1, [r0], -ip
    30d4:	450e2604 	strmi	r2, [lr, #-1540]	; 0xfffff9fc
    30d8:	03000000 	movweq	r0, #0
    30dc:	0702a823 	streq	sl, [r2, -r3, lsr #16]
    30e0:	00000dfe 	strdeq	r0, [r0], -lr
    30e4:	e51d2704 	ldr	r2, [sp, #-1796]	; 0xfffff8fc
    30e8:	03000000 	movweq	r0, #0
    30ec:	0702a923 	streq	sl, [r2, -r3, lsr #18]
    30f0:	00000f00 	andeq	r0, r0, r0, lsl #30
    30f4:	951b2804 	ldrls	r2, [fp, #-2052]	; 0xfffff7fc
    30f8:	03000000 	movweq	r0, #0
    30fc:	0702ac23 	streq	sl, [r2, -r3, lsr #24]
    3100:	000010cf 	andeq	r1, r0, pc, asr #1
    3104:	200f2b04 	andcs	r2, pc, r4, lsl #22
    3108:	03000002 	movweq	r0, #2
    310c:	0702b423 	streq	fp, [r2, -r3, lsr #8]
    3110:	00000e67 	andeq	r0, r0, r7, ror #28
    3114:	200f2c04 	andcs	r2, pc, r4, lsl #24
    3118:	03000002 	movweq	r0, #2
    311c:	0702b823 	streq	fp, [r2, -r3, lsr #16]
    3120:	00000e04 	andeq	r0, r0, r4, lsl #28
    3124:	5f0f2d04 	svcpl	0x000f2d04
    3128:	03000000 	movweq	r0, #0
    312c:	0702bc23 	streq	fp, [r2, -r3, lsr #24]
    3130:	00000ff2 	strdeq	r0, [r0], -r2
    3134:	200f2e04 	andcs	r2, pc, r4, lsl #28
    3138:	03000002 	movweq	r0, #2
    313c:	0002c023 	andeq	ip, r2, r3, lsr #32
    3140:	0002190e 	andeq	r1, r2, lr, lsl #18
    3144:	00021900 	andeq	r1, r2, r0, lsl #18
    3148:	00850f00 	addeq	r0, r5, r0, lsl #30
    314c:	00ff0000 	rscseq	r0, pc, r0
    3150:	8d080102 	stfhis	f0, [r8, #-8]
    3154:	08000001 	stmdaeq	r0, {r0}
    3158:	00005f04 	andeq	r5, r0, r4, lsl #30
    315c:	177c1000 	ldrbne	r1, [ip, -r0]!
    3160:	0a050000 	beq	143168 <SYS_MODE+0x143149>
    3164:	00023424 	andeq	r3, r2, r4, lsr #8
    3168:	08010100 	stmdaeq	r1, {r8}
    316c:	00011c04 	andeq	r1, r1, r4, lsl #24
    3170:	17e41000 	strbne	r1, [r4, r0]!
    3174:	0f050000 	svceq	0x00050000
    3178:	00024f16 	andeq	r4, r2, r6, lsl pc
    317c:	02010100 	andeq	r0, r1, #0, 2
    3180:	025f0201 	subseq	r0, pc, #268435456	; 0x10000000
    3184:	48110000 	ldmdami	r1, {}	; <UNPREDICTABLE>
    3188:	12000002 	andne	r0, r0, #2
    318c:	00000226 	andeq	r0, r0, r6, lsr #4
    3190:	051d0801 	ldreq	r0, [sp, #-2049]	; 0xfffff7ff
    3194:	01dfb803 	bicseq	fp, pc, r3, lsl #16
    3198:	023a12c2 	eorseq	r1, sl, #536870924	; 0x2000000c
    319c:	0d010000 	stceq	0, cr0, [r1, #-0]
    31a0:	bc03050f 	cfstr32lt	mvfx0, [r3], {15}
    31a4:	0ec201df 	mcreq	1, 6, r0, cr2, cr15, {6}
    31a8:	00000095 	muleq	r0, r5, r0
    31ac:	00000280 	andeq	r0, r0, r0, lsl #5
    31b0:	0000850f 	andeq	r8, r0, pc, lsl #10
    31b4:	13000f00 	movwne	r0, #3840	; 0xf00
    31b8:	00001728 	andeq	r1, r0, r8, lsr #14
    31bc:	701e1201 	andsvc	r1, lr, r1, lsl #4
    31c0:	05000002 	streq	r0, [r0, #-2]
    31c4:	01dfc003 	bicseq	ip, pc, r3
    31c8:	176913c2 	strbne	r1, [r9, -r2, asr #7]!
    31cc:	16010000 	strne	r0, [r1], -r0
    31d0:	0000951e 	andeq	r9, r0, lr, lsl r5
    31d4:	40030500 	andmi	r0, r3, r0, lsl #10
    31d8:	14c201e0 	strbne	r0, [r2], #480	; 0x1e0
    31dc:	0017a401 	andseq	sl, r7, r1, lsl #8
    31e0:	06f70100 	ldrbteq	r0, [r7], r0, lsl #2
    31e4:	004a1001 	subeq	r1, sl, r1
    31e8:	004bb0c2 	subeq	fp, fp, r2, asr #1
    31ec:	0016f8c2 	andseq	pc, r6, r2, asr #17
    31f0:	02f80100 	rscseq	r0, r8, #0, 2
    31f4:	00130000 	andseq	r0, r3, r0
    31f8:	0100000f 	tsteq	r0, pc
    31fc:	00c11cf9 	strdeq	r1, [r1], #201	; 0xc9
    3200:	91020000 	mrsls	r0, (UNDEF: 2)
    3204:	171a135c 			; <UNDEFINED> instruction: 0x171a135c
    3208:	fa010000 	blx	43210 <SYS_MODE+0x431f1>
    320c:	00023421 	andeq	r3, r2, r1, lsr #8
    3210:	58910200 	ldmpl	r1, {r9}
    3214:	004ae015 	subeq	lr, sl, r5, lsl r0
    3218:	004af0c2 	subeq	pc, sl, r2, asr #1
    321c:	172116c2 	strne	r1, [r1, -r2, asr #13]!
    3220:	0f010000 	svceq	0x00010000
    3224:	00c11201 	sbceq	r1, r1, r1, lsl #4
    3228:	91020000 	mrsls	r0, (UNDEF: 2)
    322c:	17000054 	smlsdne	r0, r4, r0, r0
    3230:	0016fe01 	andseq	pc, r6, r1, lsl #28
    3234:	06ec0100 	strbteq	r0, [ip], r0, lsl #2
    3238:	00000001 	andeq	r0, r0, r1
    323c:	00000000 	andeq	r0, r0, r0
    3240:	00173000 	andseq	r3, r7, r0
    3244:	01140100 	tsteq	r4, r0, lsl #2
    3248:	000017b9 			; <UNDEFINED> instruction: 0x000017b9
    324c:	0106c001 	tsteq	r6, r1
    3250:	c20048bc 	andgt	r4, r0, #188, 16	; 0xbc0000
    3254:	c2004a10 	andgt	r4, r0, #16, 20	; 0x10000
    3258:	00001774 	andeq	r1, r0, r4, ror r7
    325c:	00034901 	andeq	r4, r3, r1, lsl #18
    3260:	171a1800 	ldrne	r1, [sl, -r0, lsl #16]
    3264:	c0010000 	andgt	r0, r1, r0
    3268:	00023438 	andeq	r3, r2, r8, lsr r4
    326c:	6c910200 	lfmvs	f0, 4, [r1], {0}
    3270:	0016f113 	andseq	pc, r6, r3, lsl r1	; <UNPREDICTABLE>
    3274:	21c20100 	biccs	r0, r2, r0, lsl #2
    3278:	00000234 	andeq	r0, r0, r4, lsr r2
    327c:	00749102 	rsbseq	r9, r4, r2, lsl #2
    3280:	173c0119 			; <UNDEFINED> instruction: 0x173c0119
    3284:	b7010000 	strlt	r0, [r1, -r0]
    3288:	00000106 	andeq	r0, r0, r6, lsl #2
    328c:	00000000 	andeq	r0, r0, r0
    3290:	17ac0000 	strne	r0, [ip, r0]!
    3294:	74010000 	strvc	r0, [r1], #-0
    3298:	18000003 	stmdane	r0, {r0, r1}
    329c:	0000171a 	andeq	r1, r0, sl, lsl r7
    32a0:	3438b701 	ldrtcc	fp, [r8], #-1793	; 0xfffff8ff
    32a4:	02000002 	andeq	r0, r0, #2
    32a8:	19007491 	stmdbne	r0, {r0, r4, r7, sl, ip, sp, lr}
    32ac:	00181401 	andseq	r1, r8, r1, lsl #8
    32b0:	06ae0100 	strteq	r0, [lr], r0, lsl #2
    32b4:	00000001 	andeq	r0, r0, r1
    32b8:	00000000 	andeq	r0, r0, r0
    32bc:	0017f000 	andseq	pc, r7, r0
    32c0:	039f0100 	orrseq	r0, pc, #0, 2
    32c4:	1a180000 	bne	6032cc <SYS_MODE+0x6032ad>
    32c8:	01000017 	tsteq	r0, r7, lsl r0
    32cc:	023436ae 	eorseq	r3, r4, #182452224	; 0xae00000
    32d0:	91020000 	mrsls	r0, (UNDEF: 2)
    32d4:	01140074 	tsteq	r4, r4, ror r0
    32d8:	000017cf 	andeq	r1, r0, pc, asr #15
    32dc:	01069801 	tsteq	r6, r1, lsl #16
	...
    32e8:	00001834 	andeq	r1, r0, r4, lsr r8
    32ec:	0003d801 	andeq	sp, r3, r1, lsl #16
    32f0:	171a1800 	ldrne	r1, [sl, -r0, lsl #16]
    32f4:	98010000 	stmdals	r1, {}	; <UNPREDICTABLE>
    32f8:	00023437 	andeq	r3, r2, r7, lsr r4
    32fc:	74910200 	ldrvc	r0, [r1], #512	; 0x200
    3300:	00736d1a 	rsbseq	r6, r3, sl, lsl sp
    3304:	5f489801 	svcpl	0x00489801
    3308:	02000000 	andeq	r0, r0, #0
    330c:	14007091 	strne	r7, [r0], #-145	; 0xffffff6f
    3310:	00179001 	andseq	r9, r7, r1
    3314:	06860100 	streq	r0, [r6], r0, lsl #2
    3318:	00484801 	subeq	r4, r8, r1, lsl #16
    331c:	0048bcc2 	subeq	fp, r8, r2, asr #25
    3320:	00186cc2 	andseq	r6, r8, r2, asr #25
    3324:	040b0100 	streq	r0, [fp], #-256	; 0xffffff00
    3328:	54150000 	ldrpl	r0, [r5], #-0
    332c:	94c20048 	strbls	r0, [r2], #72	; 0x48
    3330:	1bc20048 	blne	ff083458 <_stack_end+0x3d05d258>
    3334:	89010069 	stmdbhi	r1, {r0, r3, r5, r6}
    3338:	00005f13 	andeq	r5, r0, r3, lsl pc
    333c:	74910200 	ldrvc	r0, [r1], #512	; 0x200
    3340:	01140000 	tsteq	r4, r0
    3344:	00001752 	andeq	r1, r0, r2, asr r7
    3348:	01067701 	tsteq	r6, r1, lsl #14
	...
    3354:	000018a4 	andeq	r1, r0, r4, lsr #17
    3358:	00043601 	andeq	r3, r4, r1, lsl #12
    335c:	171a1800 	ldrne	r1, [sl, -r0, lsl #16]
    3360:	77010000 	strvc	r0, [r1, -r0]
    3364:	00023439 	andeq	r3, r2, r9, lsr r4
    3368:	74910200 	ldrvc	r0, [r1], #512	; 0x200
    336c:	db011400 	blle	48374 <SYS_MODE+0x48355>
    3370:	01000016 	tsteq	r0, r6, lsl r0
    3374:	c8010643 	stmdagt	r1, {r0, r1, r6, r9, sl}
    3378:	48c20046 	stmiami	r2, {r1, r2, r6}^
    337c:	dcc20048 	stclle	0, cr0, [r2], {72}	; 0x48
    3380:	01000018 	tsteq	r0, r8, lsl r0
    3384:	000004bb 			; <UNDEFINED> instruction: 0x000004bb
    3388:	00171a18 	andseq	r1, r7, r8, lsl sl
    338c:	38430100 	stmdacc	r3, {r8}^
    3390:	00000234 	andeq	r0, r0, r4, lsr r2
    3394:	186c9102 	stmdane	ip!, {r1, r8, ip, pc}^
    3398:	00000f05 	andeq	r0, r0, r5, lsl #30
    339c:	bb224401 	bllt	8943a8 <SYS_MODE+0x894389>
    33a0:	02000004 	andeq	r0, r0, #4
    33a4:	8d186891 	ldchi	8, cr6, [r8, #-580]	; 0xfffffdbc
    33a8:	01000011 	tsteq	r0, r1, lsl r0
    33ac:	00452445 	subeq	r2, r5, r5, asr #8
    33b0:	91020000 	mrsls	r0, (UNDEF: 2)
    33b4:	088f1867 	stmeq	pc, {r0, r1, r2, r5, r6, fp, ip}	; <UNPREDICTABLE>
    33b8:	46010000 	strmi	r0, [r1], -r0
    33bc:	00008c22 	andeq	r8, r0, r2, lsr #24
    33c0:	60910200 	addsvs	r0, r1, r0, lsl #4
    33c4:	000e4918 	andeq	r4, lr, r8, lsl r9
    33c8:	2a470100 	bcs	11c37d0 <SYS_MODE+0x11c37b1>
    33cc:	000000c7 	andeq	r0, r0, r7, asr #1
    33d0:	18009102 	stmdane	r0, {r1, r8, ip, pc}
    33d4:	00000e67 	andeq	r0, r0, r7, ror #28
    33d8:	20264801 	eorcs	r4, r6, r1, lsl #16
    33dc:	02000002 	andeq	r0, r0, #2
    33e0:	04180491 	ldreq	r0, [r8], #-1169	; 0xfffffb6f
    33e4:	0100000e 	tsteq	r0, lr
    33e8:	005f2549 	subseq	r2, pc, r9, asr #10
    33ec:	91020000 	mrsls	r0, (UNDEF: 2)
    33f0:	04080008 	streq	r0, [r8], #-8
    33f4:	00000219 	andeq	r0, r0, r9, lsl r2
    33f8:	00166c1c 	andseq	r6, r6, ip, lsl ip
    33fc:	0d2d0100 	stfeqs	f0, [sp, #-0]
    3400:	00000001 	andeq	r0, r0, r1
    3404:	00000000 	andeq	r0, r0, r0
    3408:	00191400 	andseq	r1, r9, r0, lsl #8
    340c:	04fa0100 	ldrbteq	r0, [sl], #256	; 0x100
    3410:	00180000 	andseq	r0, r8, r0
    3414:	0100000f 	tsteq	r0, pc
    3418:	00c13e2d 	sbceq	r3, r1, sp, lsr #28
    341c:	91020000 	mrsls	r0, (UNDEF: 2)
    3420:	118d1874 	orrne	r1, sp, r4, ror r8
    3424:	2d010000 	stccs	0, cr0, [r1, #-0]
    3428:	0000454c 	andeq	r4, r0, ip, asr #10
    342c:	73910200 	orrsvc	r0, r1, #0, 4
    3430:	17fc1d00 	ldrbne	r1, [ip, r0, lsl #26]!
    3434:	1e010000 	cdpne	0, 0, cr0, cr1, cr0, {0}
    3438:	4674010d 	ldrbtmi	r0, [r4], -sp, lsl #2
    343c:	46c8c200 	strbmi	ip, [r8], r0, lsl #4
    3440:	194cc200 	stmdbne	ip, {r9, lr, pc}^
    3444:	18010000 	stmdane	r1, {}	; <UNPREDICTABLE>
    3448:	00000f00 	andeq	r0, r0, r0, lsl #30
    344c:	c13c1e01 	teqgt	ip, r1, lsl #28
    3450:	02000000 	andeq	r0, r0, #0
    3454:	8d187491 	cfldrshi	mvf7, [r8, #-580]	; 0xfffffdbc
    3458:	01000011 	tsteq	r0, r1, lsl r0
    345c:	00454a1e 	subeq	r4, r5, lr, lsl sl
    3460:	91020000 	mrsls	r0, (UNDEF: 2)
    3464:	ea000073 	b	3638 <SYS_MODE+0x3619>
    3468:	02000002 	andeq	r0, r0, #2
    346c:	000f5500 	andeq	r5, pc, r0, lsl #10
    3470:	18010400 	stmdane	r1, {sl}
    3474:	0c000000 	stceq	0, cr0, [r0], {-0}
    3478:	00001845 	andeq	r1, r0, r5, asr #16
    347c:	0000026a 	andeq	r0, r0, sl, ror #4
    3480:	000003c0 	andeq	r0, r0, r0, asr #7
	...
    348c:	00002f3f 	andeq	r2, r0, pc, lsr pc
    3490:	86060102 	strhi	r0, [r6], -r2, lsl #2
    3494:	02000001 	andeq	r0, r0, #1
    3498:	023d0502 	eorseq	r0, sp, #8388608	; 0x800000
    349c:	04020000 	streq	r0, [r2], #-0
    34a0:	00021105 	andeq	r1, r2, r5, lsl #2
    34a4:	05080200 	streq	r0, [r8, #-512]	; 0xfffffe00
    34a8:	0000020c 	andeq	r0, r0, ip, lsl #4
    34ac:	000e3003 	andeq	r3, lr, r3
    34b0:	1d190200 	lfmne	f0, 4, [r9, #-0]
    34b4:	00000051 	andeq	r0, r0, r1, asr r0
    34b8:	84080102 	strhi	r0, [r8], #-258	; 0xfffffefe
    34bc:	02000001 	andeq	r0, r0, #1
    34c0:	01620702 	cmneq	r2, r2, lsl #14
    34c4:	b6030000 	strlt	r0, [r3], -r0
    34c8:	02000006 	andeq	r0, r0, #6
    34cc:	006b1d1f 	rsbeq	r1, fp, pc, lsl sp
    34d0:	04020000 	streq	r0, [r2], #-0
    34d4:	0001d907 	andeq	sp, r1, r7, lsl #18
    34d8:	03660300 	cmneq	r6, #0, 6
    34dc:	22020000 	andcs	r0, r2, #0
    34e0:	00007e1d 	andeq	r7, r0, sp, lsl lr
    34e4:	07080200 	streq	r0, [r8, -r0, lsl #4]
    34e8:	000001d4 	ldrdeq	r0, [r0], -r4
    34ec:	de070402 	cdple	4, 0, cr0, cr7, cr2, {0}
    34f0:	04000001 	streq	r0, [r0], #-1
    34f4:	05040504 	streq	r0, [r4, #-1284]	; 0xfffffafc
    34f8:	00746e69 	rsbseq	r6, r4, r9, ror #28
    34fc:	0001fd06 	andeq	pc, r1, r6, lsl #26
    3500:	06030800 	streq	r0, [r3], -r0, lsl #16
    3504:	0000c108 	andeq	ip, r0, r8, lsl #2
    3508:	02650700 	rsbeq	r0, r5, #0, 14
    350c:	08030000 	stmdaeq	r3, {}	; <UNPREDICTABLE>
    3510:	0000c11c 	andeq	ip, r0, ip, lsl r1
    3514:	00230200 	eoreq	r0, r3, r0, lsl #4
    3518:	00000007 	andeq	r0, r0, r7
    351c:	1c090300 	stcne	3, cr0, [r9], {-0}
    3520:	000000c1 	andeq	r0, r0, r1, asr #1
    3524:	00042302 	andeq	r2, r4, r2, lsl #6
    3528:	00950408 	addseq	r0, r5, r8, lsl #8
    352c:	83030000 	movwhi	r0, #12288	; 0x3000
    3530:	0400000f 	streq	r0, [r0], #-15
    3534:	00d3100a 	sbcseq	r1, r3, sl
    3538:	04080000 	streq	r0, [r8], #-0
    353c:	000000d9 	ldrdeq	r0, [r0], -r9
    3540:	00e50109 	rsceq	r0, r5, r9, lsl #2
    3544:	8c0a0000 	stchi	0, cr0, [sl], {-0}
    3548:	00000000 	andeq	r0, r0, r0
    354c:	000deb0b 	andeq	lr, sp, fp, lsl #22
    3550:	51010700 	tstpl	r1, r0, lsl #14
    3554:	04000000 	streq	r0, [r0], #-0
    3558:	011c060f 	tsteq	ip, pc, lsl #12
    355c:	1a0c0000 	bne	303564 <SYS_MODE+0x303545>
    3560:	0000000e 	andeq	r0, r0, lr
    3564:	000ffc0c 	andeq	pc, pc, ip, lsl #24
    3568:	8e0c0100 	adfhie	f0, f4, f0
    356c:	02000010 	andeq	r0, r0, #16
    3570:	0010d90c 	andseq	sp, r0, ip, lsl #18
    3574:	110c0300 	mrsne	r0, LR_mon
    3578:	04000010 	streq	r0, [r0], #-16
    357c:	00111e0c 	andseq	r1, r1, ip, lsl #28
    3580:	0d000500 	cfstr32eq	mvfx0, [r0, #-0]
    3584:	00000e88 	andeq	r0, r0, r8, lsl #29
    3588:	1b040148 	blne	103ab0 <SYS_MODE+0x103a91>
    358c:	00020908 	andeq	r0, r2, r8, lsl #18
    3590:	088f0700 	stmeq	pc, {r8, r9, sl}	; <UNPREDICTABLE>
    3594:	1d040000 	stcne	0, cr0, [r4, #-0]
    3598:	00008c0b 	andeq	r8, r0, fp, lsl #24
    359c:	00230200 	eoreq	r0, r3, r0, lsl #4
    35a0:	000f0507 	andeq	r0, pc, r7, lsl #10
    35a4:	0a1e0400 	beq	7845ac <SYS_MODE+0x78458d>
    35a8:	00000209 	andeq	r0, r0, r9, lsl #4
    35ac:	07042302 	streq	r2, [r4, -r2, lsl #6]
    35b0:	0000118d 	andeq	r1, r0, sp, lsl #3
    35b4:	450d1f04 	strmi	r1, [sp, #-3844]	; 0xfffff0fc
    35b8:	03000000 	movweq	r0, #0
    35bc:	07028423 	streq	r8, [r2, -r3, lsr #8]
    35c0:	00000e49 	andeq	r0, r0, r9, asr #28
    35c4:	c7132004 	ldrgt	r2, [r3, -r4]
    35c8:	03000000 	movweq	r0, #0
    35cc:	07028823 	streq	r8, [r2, -r3, lsr #16]
    35d0:	00000faa 	andeq	r0, r0, sl, lsr #31
    35d4:	720e2304 	andvc	r2, lr, #4, 6	; 0x10000000
    35d8:	03000000 	movweq	r0, #0
    35dc:	07029023 	streq	r9, [r2, -r3, lsr #32]
    35e0:	00000de0 	andeq	r0, r0, r0, ror #27
    35e4:	720e2404 	andvc	r2, lr, #4, 8	; 0x4000000
    35e8:	03000000 	movweq	r0, #0
    35ec:	07029823 	streq	r9, [r2, -r3, lsr #16]
    35f0:	00000fe5 	andeq	r0, r0, r5, ror #31
    35f4:	720e2504 	andvc	r2, lr, #4, 10	; 0x1000000
    35f8:	03000000 	movweq	r0, #0
    35fc:	0702a023 	streq	sl, [r2, -r3, lsr #32]
    3600:	000010bc 	strheq	r1, [r0], -ip
    3604:	450e2604 	strmi	r2, [lr, #-1540]	; 0xfffff9fc
    3608:	03000000 	movweq	r0, #0
    360c:	0702a823 	streq	sl, [r2, -r3, lsr #16]
    3610:	00000dfe 	strdeq	r0, [r0], -lr
    3614:	e51d2704 	ldr	r2, [sp, #-1796]	; 0xfffff8fc
    3618:	03000000 	movweq	r0, #0
    361c:	0702a923 	streq	sl, [r2, -r3, lsr #18]
    3620:	00000f00 	andeq	r0, r0, r0, lsl #30
    3624:	951b2804 	ldrls	r2, [fp, #-2052]	; 0xfffff7fc
    3628:	03000000 	movweq	r0, #0
    362c:	0702ac23 	streq	sl, [r2, -r3, lsr #24]
    3630:	000010cf 	andeq	r1, r0, pc, asr #1
    3634:	200f2b04 	andcs	r2, pc, r4, lsl #22
    3638:	03000002 	movweq	r0, #2
    363c:	0702b423 	streq	fp, [r2, -r3, lsr #8]
    3640:	00000e67 	andeq	r0, r0, r7, ror #28
    3644:	200f2c04 	andcs	r2, pc, r4, lsl #24
    3648:	03000002 	movweq	r0, #2
    364c:	0702b823 	streq	fp, [r2, -r3, lsr #16]
    3650:	00000e04 	andeq	r0, r0, r4, lsl #28
    3654:	5f0f2d04 	svcpl	0x000f2d04
    3658:	03000000 	movweq	r0, #0
    365c:	0702bc23 	streq	fp, [r2, -r3, lsr #24]
    3660:	00000ff2 	strdeq	r0, [r0], -r2
    3664:	200f2e04 	andcs	r2, pc, r4, lsl #28
    3668:	03000002 	movweq	r0, #2
    366c:	0002c023 	andeq	ip, r2, r3, lsr #32
    3670:	0002190e 	andeq	r1, r2, lr, lsl #18
    3674:	00021900 	andeq	r1, r2, r0, lsl #18
    3678:	00850f00 	addeq	r0, r5, r0, lsl #30
    367c:	00ff0000 	rscseq	r0, pc, r0
    3680:	8d080102 	stfhis	f0, [r8, #-8]
    3684:	08000001 	stmdaeq	r0, {r0}
    3688:	00005f04 	andeq	r5, r0, r4, lsl #30
    368c:	02010200 	andeq	r0, r1, #0, 4
    3690:	0000025f 	andeq	r0, r0, pc, asr r2
    3694:	0015f410 	andseq	pc, r5, r0, lsl r4	; <UNPREDICTABLE>
    3698:	11090500 	tstne	r9, r0, lsl #10
    369c:	00000072 	andeq	r0, r0, r2, ror r0
    36a0:	9a110101 	bls	443aac <SYS_MODE+0x443a8d>
    36a4:	01000018 	tsteq	r0, r8, lsl r0
    36a8:	011c2309 	tsteq	ip, r9, lsl #6
    36ac:	03050000 	movweq	r0, #20480	; 0x5000
    36b0:	c201e048 	andgt	lr, r1, #72	; 0x48
    36b4:	00005f0e 	andeq	r5, r0, lr, lsl #30
    36b8:	00025e00 	andeq	r5, r2, r0, lsl #28
    36bc:	00851200 	addeq	r1, r5, r0, lsl #4
    36c0:	0fff0000 	svceq	0x00ff0000
    36c4:	18c21100 	stmiane	r2, {r8, ip}^
    36c8:	0e010000 	cdpeq	0, 0, cr0, cr1, cr0, {0}
    36cc:	00024d11 	andeq	r4, r2, r1, lsl sp
    36d0:	90030500 	andls	r0, r3, r0, lsl #10
    36d4:	13c201e1 	bicne	r0, r2, #1073741880	; 0x40000038
    36d8:	0018df01 	andseq	sp, r8, r1, lsl #30
    36dc:	062f0100 	strteq	r0, [pc], -r0, lsl #2
    36e0:	004c3c01 	subeq	r3, ip, r1, lsl #24
    36e4:	004c9cc2 	subeq	r9, ip, r2, asr #25
    36e8:	001984c2 	andseq	r8, r9, r2, asr #9
    36ec:	01130100 	tsteq	r3, r0, lsl #2
    36f0:	00001828 	andeq	r1, r0, r8, lsr #16
    36f4:	01062701 	tsteq	r6, r1, lsl #14
    36f8:	c2004c28 	andgt	r4, r0, #40, 24	; 0x2800
    36fc:	c2004c3c 	andgt	r4, r0, #60, 24	; 0x3c00
    3700:	000019bc 			; <UNDEFINED> instruction: 0x000019bc
    3704:	af011401 	svcge	0x00011401
    3708:	01000018 	tsteq	r0, r8, lsl r0
    370c:	b0010613 	andlt	r0, r1, r3, lsl r6
    3710:	28c2004b 	stmiacs	r2, {r0, r1, r3, r6}^
    3714:	e8c2004c 	stmia	r2, {r2, r3, r6}^
    3718:	01000019 	tsteq	r0, r9, lsl r0
    371c:	00088f15 	andeq	r8, r8, r5, lsl pc
    3720:	1f130100 	svcne	0x00130100
    3724:	0000008c 	andeq	r0, r0, ip, lsl #1
    3728:	165c9102 	ldrbne	r9, [ip], -r2, lsl #2
    372c:	c2004bc8 	andgt	r4, r0, #200, 22	; 0x32000
    3730:	c2004c24 	andgt	r4, r0, #36, 24	; 0x2400
    3734:	0018d511 	andseq	sp, r8, r1, lsl r5
    3738:	121d0100 	andsne	r0, sp, #0, 2
    373c:	00000072 	andeq	r0, r0, r2, ror r0
    3740:	11689102 	cmnne	r8, r2, lsl #2
    3744:	0000183c 	andeq	r1, r0, ip, lsr r8
    3748:	5f121e01 	svcpl	0x00121e01
    374c:	02000000 	andeq	r0, r0, #0
    3750:	00006491 	muleq	r0, r1, r4
	...

Disassembly of section .debug_abbrev:

00000000 <.debug_abbrev>:
       0:	25011101 	strcs	r1, [r1, #-257]	; 0xfffffeff
       4:	030b130e 	movweq	r1, #45838	; 0xb30e
       8:	550e1b0e 	strpl	r1, [lr, #-2830]	; 0xfffff4f2
       c:	52011106 	andpl	r1, r1, #-2147483647	; 0x80000001
      10:	00061001 	andeq	r1, r6, r1
      14:	00240200 	eoreq	r0, r4, r0, lsl #4
      18:	0b3e0b0b 	bleq	f82c4c <SYS_MODE+0xf82c2d>
      1c:	00000e03 	andeq	r0, r0, r3, lsl #28
      20:	0b002403 	bleq	9034 <SYS_MODE+0x9015>
      24:	030b3e0b 	movweq	r3, #48651	; 0xbe0b
      28:	04000008 	streq	r0, [r0], #-8
      2c:	0e030113 	mcreq	1, 0, r0, cr3, cr3, {0}
      30:	0b3a0b0b 	bleq	e82c64 <SYS_MODE+0xe82c45>
      34:	0b390b3b 	bleq	e42d28 <SYS_MODE+0xe42d09>
      38:	00001301 	andeq	r1, r0, r1, lsl #6
      3c:	03000d05 	movweq	r0, #3333	; 0xd05
      40:	3b0b3a0e 	blcc	2ce880 <SYS_MODE+0x2ce861>
      44:	490b390b 	stmdbmi	fp, {r0, r1, r3, r8, fp, ip, sp}
      48:	000a3813 	andeq	r3, sl, r3, lsl r8
      4c:	000f0600 	andeq	r0, pc, r0, lsl #12
      50:	13490b0b 	movtne	r0, #39691	; 0x9b0b
      54:	2e070000 	cdpcs	0, 0, cr0, cr7, cr0, {0}
      58:	030c3f01 	movweq	r3, #52993	; 0xcf01
      5c:	3b0b3a0e 	blcc	2ce89c <SYS_MODE+0x2ce87d>
      60:	270b390b 	strcs	r3, [fp, -fp, lsl #18]
      64:	1113490c 	tstne	r3, ip, lsl #18
      68:	40011201 	andmi	r1, r1, r1, lsl #4
      6c:	0c429706 	mcrreq	7, 0, r9, r2, cr6
      70:	00001301 	andeq	r1, r0, r1, lsl #6
      74:	03000508 	movweq	r0, #1288	; 0x508
      78:	3b0b3a0e 	blcc	2ce8b8 <SYS_MODE+0x2ce899>
      7c:	490b390b 	stmdbmi	fp, {r0, r1, r3, r8, fp, ip, sp}
      80:	000a0213 	andeq	r0, sl, r3, lsl r2
      84:	012e0900 			; <UNDEFINED> instruction: 0x012e0900
      88:	0e030c3f 	mcreq	12, 0, r0, cr3, cr15, {1}
      8c:	0b3b0b3a 	bleq	ec2d7c <SYS_MODE+0xec2d5d>
      90:	0c270b39 			; <UNDEFINED> instruction: 0x0c270b39
      94:	01120111 	tsteq	r2, r1, lsl r1
      98:	42960640 	addsmi	r0, r6, #64, 12	; 0x4000000
      9c:	0013010c 	andseq	r0, r3, ip, lsl #2
      a0:	00340a00 	eorseq	r0, r4, r0, lsl #20
      a4:	0b3a0803 	bleq	e820b8 <SYS_MODE+0xe82099>
      a8:	0b390b3b 	bleq	e42d9c <SYS_MODE+0xe42d7d>
      ac:	0a021349 	beq	84dd8 <SYS_MODE+0x84db9>
      b0:	2e0b0000 	cdpcs	0, 0, cr0, cr11, cr0, {0}
      b4:	030c3f01 	movweq	r3, #52993	; 0xcf01
      b8:	3b0b3a0e 	blcc	2ce8f8 <SYS_MODE+0x2ce8d9>
      bc:	270b390b 	strcs	r3, [fp, -fp, lsl #18]
      c0:	1201110c 	andne	r1, r1, #12, 2
      c4:	97064001 	strls	r4, [r6, -r1]
      c8:	13010c42 	movwne	r0, #7234	; 0x1c42
      cc:	050c0000 	streq	r0, [ip, #-0]
      d0:	3a080300 	bcc	200cd8 <SYS_MODE+0x200cb9>
      d4:	390b3b0b 	stmdbcc	fp, {r0, r1, r3, r8, r9, fp, ip, sp}
      d8:	0213490b 	andseq	r4, r3, #180224	; 0x2c000
      dc:	0d00000a 	stceq	0, cr0, [r0, #-40]	; 0xffffffd8
      e0:	0e03012e 	adfeqsp	f0, f3, #0.5
      e4:	0b3b0b3a 	bleq	ec2dd4 <SYS_MODE+0xec2db5>
      e8:	0c270b39 			; <UNDEFINED> instruction: 0x0c270b39
      ec:	01120111 	tsteq	r2, r1, lsl r1
      f0:	42970640 	addsmi	r0, r7, #64, 12	; 0x4000000
      f4:	0013010c 	andseq	r0, r3, ip, lsl #2
      f8:	012e0e00 			; <UNDEFINED> instruction: 0x012e0e00
      fc:	0e030c3f 	mcreq	12, 0, r0, cr3, cr15, {1}
     100:	0b3b0b3a 	bleq	ec2df0 <SYS_MODE+0xec2dd1>
     104:	0c270b39 			; <UNDEFINED> instruction: 0x0c270b39
     108:	01120111 	tsteq	r2, r1, lsl r1
     10c:	42970640 	addsmi	r0, r7, #64, 12	; 0x4000000
     110:	0000000c 	andeq	r0, r0, ip
     114:	25011101 	strcs	r1, [r1, #-257]	; 0xfffffeff
     118:	030b130e 	movweq	r1, #45838	; 0xb30e
     11c:	550e1b0e 	strpl	r1, [lr, #-2830]	; 0xfffff4f2
     120:	52011106 	andpl	r1, r1, #-2147483647	; 0x80000001
     124:	00061001 	andeq	r1, r6, r1
     128:	00240200 	eoreq	r0, r4, r0, lsl #4
     12c:	0b3e0b0b 	bleq	f82d60 <SYS_MODE+0xf82d41>
     130:	00000e03 	andeq	r0, r0, r3, lsl #28
     134:	49002603 	stmdbmi	r0, {r0, r1, r9, sl, sp}
     138:	04000013 	streq	r0, [r0], #-19	; 0xffffffed
     13c:	0e030016 	mcreq	0, 0, r0, cr3, cr6, {0}
     140:	0b3b0b3a 	bleq	ec2e30 <SYS_MODE+0xec2e11>
     144:	13490b39 	movtne	r0, #39737	; 0x9b39
     148:	0f050000 	svceq	0x00050000
     14c:	000b0b00 	andeq	r0, fp, r0, lsl #22
     150:	00240600 	eoreq	r0, r4, r0, lsl #12
     154:	0b3e0b0b 	bleq	f82d88 <SYS_MODE+0xf82d69>
     158:	00000803 	andeq	r0, r0, r3, lsl #16
     15c:	3f012e07 	svccc	0x00012e07
     160:	3a0e030c 	bcc	380d98 <SYS_MODE+0x380d79>
     164:	390b3b0b 	stmdbcc	fp, {r0, r1, r3, r8, r9, fp, ip, sp}
     168:	490c270b 	stmdbmi	ip, {r0, r1, r3, r8, r9, sl, sp}
     16c:	12011113 	andne	r1, r1, #-1073741820	; 0xc0000004
     170:	97064001 	strls	r4, [r6, -r1]
     174:	13010c42 	movwne	r0, #7234	; 0x1c42
     178:	05080000 	streq	r0, [r8, #-0]
     17c:	3a080300 	bcc	200d84 <SYS_MODE+0x200d65>
     180:	390b3b0b 	stmdbcc	fp, {r0, r1, r3, r8, r9, fp, ip, sp}
     184:	0213490b 	andseq	r4, r3, #180224	; 0x2c000
     188:	0900000a 	stmdbeq	r0, {r1, r3}
     18c:	0e030005 	cdpeq	0, 0, cr0, cr3, cr5, {0}
     190:	0b3b0b3a 	bleq	ec2e80 <SYS_MODE+0xec2e61>
     194:	13490b39 	movtne	r0, #39737	; 0x9b39
     198:	00000a02 	andeq	r0, r0, r2, lsl #20
     19c:	0300340a 	movweq	r3, #1034	; 0x40a
     1a0:	3b0b3a08 	blcc	2ce9c8 <SYS_MODE+0x2ce9a9>
     1a4:	490b390b 	stmdbmi	fp, {r0, r1, r3, r8, fp, ip, sp}
     1a8:	000a0213 	andeq	r0, sl, r3, lsl r2
     1ac:	000f0b00 	andeq	r0, pc, r0, lsl #22
     1b0:	13490b0b 	movtne	r0, #39691	; 0x9b0b
     1b4:	260c0000 	strcs	r0, [ip], -r0
     1b8:	0d000000 	stceq	0, cr0, [r0, #-0]
     1bc:	0e030034 	mcreq	0, 0, r0, cr3, cr4, {1}
     1c0:	0b3b0b3a 	bleq	ec2eb0 <SYS_MODE+0xec2e91>
     1c4:	13490b39 	movtne	r0, #39737	; 0x9b39
     1c8:	00000a02 	andeq	r0, r0, r2, lsl #20
     1cc:	3f012e0e 	svccc	0x00012e0e
     1d0:	3a0e030c 	bcc	380e08 <SYS_MODE+0x380de9>
     1d4:	390b3b0b 	stmdbcc	fp, {r0, r1, r3, r8, r9, fp, ip, sp}
     1d8:	490c270b 	stmdbmi	ip, {r0, r1, r3, r8, r9, sl, sp}
     1dc:	12011113 	andne	r1, r1, #-1073741820	; 0xc0000004
     1e0:	97064001 	strls	r4, [r6, -r1]
     1e4:	00000c42 	andeq	r0, r0, r2, asr #24
     1e8:	01110100 	tsteq	r1, r0, lsl #2
     1ec:	0b130e25 	bleq	4c3a88 <SYS_MODE+0x4c3a69>
     1f0:	0e1b0e03 	cdpeq	14, 1, cr0, cr11, cr3, {0}
     1f4:	01110655 	tsteq	r1, r5, asr r6
     1f8:	06100152 			; <UNDEFINED> instruction: 0x06100152
     1fc:	24020000 	strcs	r0, [r2], #-0
     200:	3e0b0b00 	vmlacc.f64	d0, d11, d0
     204:	000e030b 	andeq	r0, lr, fp, lsl #6
     208:	00260300 	eoreq	r0, r6, r0, lsl #6
     20c:	00001349 	andeq	r1, r0, r9, asr #6
     210:	03001604 	movweq	r1, #1540	; 0x604
     214:	3b0b3a0e 	blcc	2cea54 <SYS_MODE+0x2cea35>
     218:	490b390b 	stmdbmi	fp, {r0, r1, r3, r8, fp, ip, sp}
     21c:	05000013 	streq	r0, [r0, #-19]	; 0xffffffed
     220:	0e030113 	mcreq	1, 0, r0, cr3, cr3, {0}
     224:	0b3a0b0b 	bleq	e82e58 <SYS_MODE+0xe82e39>
     228:	13010b3b 	movwne	r0, #6971	; 0x1b3b
     22c:	0d060000 	stceq	0, cr0, [r6, #-0]
     230:	490e0300 	stmdbmi	lr, {r8, r9}
     234:	340a3813 	strcc	r3, [sl], #-2067	; 0xfffff7ed
     238:	0700000c 	streq	r0, [r0, -ip]
     23c:	0b0b000f 	bleq	2c0280 <SYS_MODE+0x2c0261>
     240:	24080000 	strcs	r0, [r8], #-0
     244:	3e0b0b00 	vmlacc.f64	d0, d11, d0
     248:	0008030b 	andeq	r0, r8, fp, lsl #6
     24c:	000f0900 	andeq	r0, pc, r0, lsl #18
     250:	13490b0b 	movtne	r0, #39691	; 0x9b0b
     254:	150a0000 	strne	r0, [sl, #-0]
     258:	010c2701 	tsteq	ip, r1, lsl #14
     25c:	0b000013 	bleq	2b0 <SYS_MODE+0x291>
     260:	13490005 	movtne	r0, #36869	; 0x9005
     264:	130c0000 	movwne	r0, #49152	; 0xc000
     268:	3a0b0b01 	bcc	2c2e74 <SYS_MODE+0x2c2e55>
     26c:	390b3b0b 	stmdbcc	fp, {r0, r1, r3, r8, r9, fp, ip, sp}
     270:	0013010b 	andseq	r0, r3, fp, lsl #2
     274:	000d0d00 	andeq	r0, sp, r0, lsl #26
     278:	0b3a0803 	bleq	e8228c <SYS_MODE+0xe8226d>
     27c:	0b390b3b 	bleq	e42f70 <SYS_MODE+0xe42f51>
     280:	0a381349 	beq	e04fac <SYS_MODE+0xe04f8d>
     284:	2e0e0000 	cdpcs	0, 0, cr0, cr14, cr0, {0}
     288:	030c3f01 	movweq	r3, #52993	; 0xcf01
     28c:	3b0b3a0e 	blcc	2ceacc <SYS_MODE+0x2ceaad>
     290:	270b3905 	strcs	r3, [fp, -r5, lsl #18]
     294:	1113490c 	tstne	r3, ip, lsl #18
     298:	40011201 	andmi	r1, r1, r1, lsl #4
     29c:	0c429606 	mcrreq	6, 0, r9, r2, cr6
     2a0:	00001301 	andeq	r1, r0, r1, lsl #6
     2a4:	0300050f 	movweq	r0, #1295	; 0x50f
     2a8:	3b0b3a08 	blcc	2cead0 <SYS_MODE+0x2ceab1>
     2ac:	490b3905 	stmdbmi	fp, {r0, r2, r8, fp, ip, sp}
     2b0:	000a0213 	andeq	r0, sl, r3, lsl r2
     2b4:	00051000 	andeq	r1, r5, r0
     2b8:	0b3a0e03 	bleq	e83acc <SYS_MODE+0xe83aad>
     2bc:	0b39053b 	bleq	e417b0 <SYS_MODE+0xe41791>
     2c0:	0a021349 	beq	84fec <SYS_MODE+0x84fcd>
     2c4:	18110000 	ldmdane	r1, {}	; <UNPREDICTABLE>
     2c8:	12000000 	andne	r0, r0, #0
     2cc:	08030034 	stmdaeq	r3, {r2, r4, r5}
     2d0:	053b0b3a 	ldreq	r0, [fp, #-2874]!	; 0xfffff4c6
     2d4:	13490b39 	movtne	r0, #39737	; 0x9b39
     2d8:	00000a02 	andeq	r0, r0, r2, lsl #20
     2dc:	03003413 	movweq	r3, #1043	; 0x413
     2e0:	3b0b3a0e 	blcc	2ceb20 <SYS_MODE+0x2ceb01>
     2e4:	490b3905 	stmdbmi	fp, {r0, r2, r8, fp, ip, sp}
     2e8:	000a0213 	andeq	r0, sl, r3, lsl r2
     2ec:	01011400 	tsteq	r1, r0, lsl #8
     2f0:	13011349 	movwne	r1, #4937	; 0x1349
     2f4:	21150000 	tstcs	r5, r0
     2f8:	2f134900 	svccs	0x00134900
     2fc:	1600000b 	strne	r0, [r0], -fp
     300:	0e03012e 	adfeqsp	f0, f3, #0.5
     304:	053b0b3a 	ldreq	r0, [fp, #-2874]!	; 0xfffff4c6
     308:	0c270b39 			; <UNDEFINED> instruction: 0x0c270b39
     30c:	01111349 	tsteq	r1, r9, asr #6
     310:	06400112 			; <UNDEFINED> instruction: 0x06400112
     314:	010c4296 			; <UNDEFINED> instruction: 0x010c4296
     318:	17000013 	smladne	r0, r3, r0, r0
     31c:	0111010b 	tsteq	r1, fp, lsl #2
     320:	13010112 	movwne	r0, #4370	; 0x1112
     324:	0b180000 	bleq	60032c <SYS_MODE+0x60030d>
     328:	12011101 	andne	r1, r1, #1073741824	; 0x40000000
     32c:	19000001 	stmdbne	r0, {r0}
     330:	0b0b0117 	bleq	2c0794 <SYS_MODE+0x2c0775>
     334:	053b0b3a 	ldreq	r0, [fp, #-2874]!	; 0xfffff4c6
     338:	13010b39 	movwne	r0, #6969	; 0x1b39
     33c:	0d1a0000 	ldceq	0, cr0, [sl, #-0]
     340:	3a080300 	bcc	200f48 <SYS_MODE+0x200f29>
     344:	39053b0b 	stmdbcc	r5, {r0, r1, r3, r8, r9, fp, ip, sp}
     348:	0013490b 	andseq	r4, r3, fp, lsl #18
     34c:	012e1b00 			; <UNDEFINED> instruction: 0x012e1b00
     350:	0b3a0e03 	bleq	e83b64 <SYS_MODE+0xe83b45>
     354:	0b390b3b 	bleq	e43048 <SYS_MODE+0xe43029>
     358:	13490c27 	movtne	r0, #39975	; 0x9c27
     35c:	01120111 	tsteq	r2, r1, lsl r1
     360:	42960640 	addsmi	r0, r6, #64, 12	; 0x4000000
     364:	0013010c 	andseq	r0, r3, ip, lsl #2
     368:	00051c00 	andeq	r1, r5, r0, lsl #24
     36c:	0b3a0803 	bleq	e82380 <SYS_MODE+0xe82361>
     370:	0b390b3b 	bleq	e43064 <SYS_MODE+0xe43045>
     374:	0a021349 	beq	850a0 <SYS_MODE+0x85081>
     378:	051d0000 	ldreq	r0, [sp, #-0]
     37c:	3a0e0300 	bcc	380f84 <SYS_MODE+0x380f65>
     380:	390b3b0b 	stmdbcc	fp, {r0, r1, r3, r8, r9, fp, ip, sp}
     384:	0213490b 	andseq	r4, r3, #180224	; 0x2c000
     388:	1e00000a 	cdpne	0, 0, cr0, cr0, cr10, {0}
     38c:	0e030034 	mcreq	0, 0, r0, cr3, cr4, {1}
     390:	0b3b0b3a 	bleq	ec3080 <SYS_MODE+0xec3061>
     394:	13490b39 	movtne	r0, #39737	; 0x9b39
     398:	00000a02 	andeq	r0, r0, r2, lsl #20
     39c:	0300341f 	movweq	r3, #1055	; 0x41f
     3a0:	3b0b3a08 	blcc	2cebc8 <SYS_MODE+0x2ceba9>
     3a4:	490b390b 	stmdbmi	fp, {r0, r1, r3, r8, fp, ip, sp}
     3a8:	000a0213 	andeq	r0, sl, r3, lsl r2
     3ac:	012e2000 			; <UNDEFINED> instruction: 0x012e2000
     3b0:	0b3a0e03 	bleq	e83bc4 <SYS_MODE+0xe83ba5>
     3b4:	0b390b3b 	bleq	e430a8 <SYS_MODE+0xe43089>
     3b8:	13490c27 	movtne	r0, #39975	; 0x9c27
     3bc:	01120111 	tsteq	r2, r1, lsl r1
     3c0:	42970640 	addsmi	r0, r7, #64, 12	; 0x4000000
     3c4:	0013010c 	andseq	r0, r3, ip, lsl #2
     3c8:	012e2100 			; <UNDEFINED> instruction: 0x012e2100
     3cc:	0b3a0e03 	bleq	e83be0 <SYS_MODE+0xe83bc1>
     3d0:	0b390b3b 	bleq	e430c4 <SYS_MODE+0xe430a5>
     3d4:	01110c27 	tsteq	r1, r7, lsr #24
     3d8:	06400112 			; <UNDEFINED> instruction: 0x06400112
     3dc:	010c4296 			; <UNDEFINED> instruction: 0x010c4296
     3e0:	22000013 	andcs	r0, r0, #19
     3e4:	0e03012e 	adfeqsp	f0, f3, #0.5
     3e8:	0b3b0b3a 	bleq	ec30d8 <SYS_MODE+0xec30b9>
     3ec:	0c270b39 			; <UNDEFINED> instruction: 0x0c270b39
     3f0:	01120111 	tsteq	r2, r1, lsl r1
     3f4:	42970640 	addsmi	r0, r7, #64, 12	; 0x4000000
     3f8:	0013010c 	andseq	r0, r3, ip, lsl #2
     3fc:	012e2300 			; <UNDEFINED> instruction: 0x012e2300
     400:	0b3a0e03 	bleq	e83c14 <SYS_MODE+0xe83bf5>
     404:	0b390b3b 	bleq	e430f8 <SYS_MODE+0xe430d9>
     408:	01110c27 	tsteq	r1, r7, lsr #24
     40c:	06400112 			; <UNDEFINED> instruction: 0x06400112
     410:	000c4297 	muleq	ip, r7, r2
     414:	11010000 	mrsne	r0, (UNDEF: 1)
     418:	11061000 	mrsne	r1, (UNDEF: 6)
     41c:	03011201 	movweq	r1, #4609	; 0x1201
     420:	250e1b0e 	strcs	r1, [lr, #-2830]	; 0xfffff4f2
     424:	0005130e 	andeq	r1, r5, lr, lsl #6
     428:	11010000 	mrsne	r0, (UNDEF: 1)
     42c:	11061000 	mrsne	r1, (UNDEF: 6)
     430:	03011201 	movweq	r1, #4609	; 0x1201
     434:	250e1b0e 	strcs	r1, [lr, #-2830]	; 0xfffff4f2
     438:	0005130e 	andeq	r1, r5, lr, lsl #6
     43c:	11010000 	mrsne	r0, (UNDEF: 1)
     440:	11061000 	mrsne	r1, (UNDEF: 6)
     444:	03011201 	movweq	r1, #4609	; 0x1201
     448:	250e1b0e 	strcs	r1, [lr, #-2830]	; 0xfffff4f2
     44c:	0005130e 	andeq	r1, r5, lr, lsl #6
     450:	11010000 	mrsne	r0, (UNDEF: 1)
     454:	130e2501 	movwne	r2, #58625	; 0xe501
     458:	1b0e030b 	blne	38108c <SYS_MODE+0x38106d>
     45c:	1106550e 	tstne	r6, lr, lsl #10
     460:	10015201 	andne	r5, r1, r1, lsl #4
     464:	02000006 	andeq	r0, r0, #6
     468:	0b0b0024 	bleq	2c0500 <SYS_MODE+0x2c04e1>
     46c:	0e030b3e 	vmoveq.16	d3[0], r0
     470:	16030000 	strne	r0, [r3], -r0
     474:	3a0e0300 	bcc	38107c <SYS_MODE+0x38105d>
     478:	390b3b0b 	stmdbcc	fp, {r0, r1, r3, r8, r9, fp, ip, sp}
     47c:	0013490b 	andseq	r4, r3, fp, lsl #18
     480:	00350400 	eorseq	r0, r5, r0, lsl #8
     484:	00001349 	andeq	r1, r0, r9, asr #6
     488:	0b002405 	bleq	94a4 <SYS_MODE+0x9485>
     48c:	030b3e0b 	movweq	r3, #48651	; 0xbe0b
     490:	06000008 	streq	r0, [r0], -r8
     494:	0c3f012e 	ldfeqs	f0, [pc], #-184	; 3e4 <SYS_MODE+0x3c5>
     498:	0b3a0e03 	bleq	e83cac <SYS_MODE+0xe83c8d>
     49c:	0b390b3b 	bleq	e43190 <SYS_MODE+0xe43171>
     4a0:	01110c27 	tsteq	r1, r7, lsr #24
     4a4:	06400112 			; <UNDEFINED> instruction: 0x06400112
     4a8:	010c4296 			; <UNDEFINED> instruction: 0x010c4296
     4ac:	07000013 	smladeq	r0, r3, r0, r0
     4b0:	0e030005 	cdpeq	0, 0, cr0, cr3, cr5, {0}
     4b4:	0b3b0b3a 	bleq	ec31a4 <SYS_MODE+0xec3185>
     4b8:	13490b39 	movtne	r0, #39737	; 0x9b39
     4bc:	00000a02 	andeq	r0, r0, r2, lsl #20
     4c0:	03003408 	movweq	r3, #1032	; 0x408
     4c4:	3b0b3a0e 	blcc	2ced04 <SYS_MODE+0x2cece5>
     4c8:	490b390b 	stmdbmi	fp, {r0, r1, r3, r8, fp, ip, sp}
     4cc:	000a0213 	andeq	r0, sl, r3, lsl r2
     4d0:	012e0900 			; <UNDEFINED> instruction: 0x012e0900
     4d4:	0e030c3f 	mcreq	12, 0, r0, cr3, cr15, {1}
     4d8:	0b3b0b3a 	bleq	ec31c8 <SYS_MODE+0xec31a9>
     4dc:	0c270b39 			; <UNDEFINED> instruction: 0x0c270b39
     4e0:	01111349 	tsteq	r1, r9, asr #6
     4e4:	06400112 			; <UNDEFINED> instruction: 0x06400112
     4e8:	010c4297 			; <UNDEFINED> instruction: 0x010c4297
     4ec:	0a000013 	beq	540 <SYS_MODE+0x521>
     4f0:	0c3f002e 	ldceq	0, cr0, [pc], #-184	; 440 <SYS_MODE+0x421>
     4f4:	0b3a0e03 	bleq	e83d08 <SYS_MODE+0xe83ce9>
     4f8:	0b390b3b 	bleq	e431ec <SYS_MODE+0xe431cd>
     4fc:	01110c27 	tsteq	r1, r7, lsr #24
     500:	06400112 			; <UNDEFINED> instruction: 0x06400112
     504:	000c4297 	muleq	ip, r7, r2
     508:	11010000 	mrsne	r0, (UNDEF: 1)
     50c:	11061000 	mrsne	r1, (UNDEF: 6)
     510:	03011201 	movweq	r1, #4609	; 0x1201
     514:	250e1b0e 	strcs	r1, [lr, #-2830]	; 0xfffff4f2
     518:	0005130e 	andeq	r1, r5, lr, lsl #6
     51c:	11010000 	mrsne	r0, (UNDEF: 1)
     520:	11061000 	mrsne	r1, (UNDEF: 6)
     524:	03011201 	movweq	r1, #4609	; 0x1201
     528:	250e1b0e 	strcs	r1, [lr, #-2830]	; 0xfffff4f2
     52c:	0005130e 	andeq	r1, r5, lr, lsl #6
     530:	11010000 	mrsne	r0, (UNDEF: 1)
     534:	130e2501 	movwne	r2, #58625	; 0xe501
     538:	1b0e030b 	blne	38116c <SYS_MODE+0x38114d>
     53c:	1106550e 	tstne	r6, lr, lsl #10
     540:	10015201 	andne	r5, r1, r1, lsl #4
     544:	02000006 	andeq	r0, r0, #6
     548:	0b0b0024 	bleq	2c05e0 <SYS_MODE+0x2c05c1>
     54c:	0e030b3e 	vmoveq.16	d3[0], r0
     550:	24030000 	strcs	r0, [r3], #-0
     554:	3e0b0b00 	vmlacc.f64	d0, d11, d0
     558:	0008030b 	andeq	r0, r8, fp, lsl #6
     55c:	01010400 	tsteq	r1, r0, lsl #8
     560:	13011349 	movwne	r1, #4937	; 0x1349
     564:	21050000 	mrscs	r0, (UNDEF: 5)
     568:	06000000 	streq	r0, [r0], -r0
     56c:	0e030034 	mcreq	0, 0, r0, cr3, cr4, {1}
     570:	0b3b0b3a 	bleq	ec3260 <SYS_MODE+0xec3241>
     574:	13490b39 	movtne	r0, #39737	; 0x9b39
     578:	0c3c0c3f 	ldceq	12, cr0, [ip], #-252	; 0xffffff04
     57c:	2e070000 	cdpcs	0, 0, cr0, cr7, cr0, {0}
     580:	030c3f00 	movweq	r3, #52992	; 0xcf00
     584:	3b0b3a0e 	blcc	2cedc4 <SYS_MODE+0x2ceda5>
     588:	270b390b 	strcs	r3, [fp, -fp, lsl #18]
     58c:	1201110c 	andne	r1, r1, #12, 2
     590:	96064001 	strls	r4, [r6], -r1
     594:	00000c42 	andeq	r0, r0, r2, asr #24
     598:	01110100 	tsteq	r1, r0, lsl #2
     59c:	0b130e25 	bleq	4c3e38 <SYS_MODE+0x4c3e19>
     5a0:	0e1b0e03 	cdpeq	14, 1, cr0, cr11, cr3, {0}
     5a4:	01110655 	tsteq	r1, r5, asr r6
     5a8:	06100152 			; <UNDEFINED> instruction: 0x06100152
     5ac:	24020000 	strcs	r0, [r2], #-0
     5b0:	3e0b0b00 	vmlacc.f64	d0, d11, d0
     5b4:	000e030b 	andeq	r0, lr, fp, lsl #6
     5b8:	00160300 	andseq	r0, r6, r0, lsl #6
     5bc:	0b3a0e03 	bleq	e83dd0 <SYS_MODE+0xe83db1>
     5c0:	0b390b3b 	bleq	e432b4 <SYS_MODE+0xe43295>
     5c4:	00001349 	andeq	r1, r0, r9, asr #6
     5c8:	0b000f04 	bleq	41e0 <SYS_MODE+0x41c1>
     5cc:	0500000b 	streq	r0, [r0, #-11]
     5d0:	0b0b0024 	bleq	2c0668 <SYS_MODE+0x2c0649>
     5d4:	08030b3e 	stmdaeq	r3, {r1, r2, r3, r4, r5, r8, r9, fp}
     5d8:	0f060000 	svceq	0x00060000
     5dc:	490b0b00 	stmdbmi	fp, {r8, r9, fp}
     5e0:	07000013 	smladeq	r0, r3, r0, r0
     5e4:	0c270115 	stfeqs	f0, [r7], #-84	; 0xffffffac
     5e8:	00001301 	andeq	r1, r0, r1, lsl #6
     5ec:	49000508 	stmdbmi	r0, {r3, r8, sl}
     5f0:	09000013 	stmdbeq	r0, {r0, r1, r4}
     5f4:	0e030113 	mcreq	1, 0, r0, cr3, cr3, {0}
     5f8:	0b3a0b0b 	bleq	e8322c <SYS_MODE+0xe8320d>
     5fc:	0b390b3b 	bleq	e432f0 <SYS_MODE+0xe432d1>
     600:	00001301 	andeq	r1, r0, r1, lsl #6
     604:	03000d0a 	movweq	r0, #3338	; 0xd0a
     608:	3b0b3a0e 	blcc	2cee48 <SYS_MODE+0x2cee29>
     60c:	490b390b 	stmdbmi	fp, {r0, r1, r3, r8, fp, ip, sp}
     610:	000a3813 	andeq	r3, sl, r3, lsl r8
     614:	01010b00 	tsteq	r1, r0, lsl #22
     618:	13011349 	movwne	r1, #4937	; 0x1349
     61c:	210c0000 	mrscs	r0, (UNDEF: 12)
     620:	2f134900 	svccs	0x00134900
     624:	0d00000b 	stceq	0, cr0, [r0, #-44]	; 0xffffffd4
     628:	0e030034 	mcreq	0, 0, r0, cr3, cr4, {1}
     62c:	0b3b0b3a 	bleq	ec331c <SYS_MODE+0xec32fd>
     630:	13490b39 	movtne	r0, #39737	; 0x9b39
     634:	00000a02 	andeq	r0, r0, r2, lsl #20
     638:	3f012e0e 	svccc	0x00012e0e
     63c:	3a0e030c 	bcc	381274 <SYS_MODE+0x381255>
     640:	390b3b0b 	stmdbcc	fp, {r0, r1, r3, r8, r9, fp, ip, sp}
     644:	110c270b 	tstne	ip, fp, lsl #14
     648:	40011201 	andmi	r1, r1, r1, lsl #4
     64c:	0c429606 	mcrreq	6, 0, r9, r2, cr6
     650:	00001301 	andeq	r1, r0, r1, lsl #6
     654:	0300050f 	movweq	r0, #1295	; 0x50f
     658:	3b0b3a08 	blcc	2cee80 <SYS_MODE+0x2cee61>
     65c:	490b390b 	stmdbmi	fp, {r0, r1, r3, r8, fp, ip, sp}
     660:	000a0213 	andeq	r0, sl, r3, lsl r2
     664:	00051000 	andeq	r1, r5, r0
     668:	0b3a0e03 	bleq	e83e7c <SYS_MODE+0xe83e5d>
     66c:	0b390b3b 	bleq	e43360 <SYS_MODE+0xe43341>
     670:	0a021349 	beq	8539c <SYS_MODE+0x8537d>
     674:	0b110000 	bleq	44067c <SYS_MODE+0x44065d>
     678:	12011101 	andne	r1, r1, #1073741824	; 0x40000000
     67c:	12000001 	andne	r0, r0, #1
     680:	08030034 	stmdaeq	r3, {r2, r4, r5}
     684:	0b3b0b3a 	bleq	ec3374 <SYS_MODE+0xec3355>
     688:	13490b39 	movtne	r0, #39737	; 0x9b39
     68c:	00000a02 	andeq	r0, r0, r2, lsl #20
     690:	03012e13 	movweq	r2, #7699	; 0x1e13
     694:	3b0b3a0e 	blcc	2ceed4 <SYS_MODE+0x2ceeb5>
     698:	270b390b 	strcs	r3, [fp, -fp, lsl #18]
     69c:	1201110c 	andne	r1, r1, #12, 2
     6a0:	97064001 	strls	r4, [r6, -r1]
     6a4:	00000c42 	andeq	r0, r0, r2, asr #24
     6a8:	00110100 	andseq	r0, r1, r0, lsl #2
     6ac:	01110610 	tsteq	r1, r0, lsl r6
     6b0:	0e030112 	mcreq	1, 0, r0, cr3, cr2, {0}
     6b4:	0e250e1b 	mcreq	14, 1, r0, cr5, cr11, {0}
     6b8:	00000513 	andeq	r0, r0, r3, lsl r5
     6bc:	00110100 	andseq	r0, r1, r0, lsl #2
     6c0:	01110610 	tsteq	r1, r0, lsl r6
     6c4:	0e030112 	mcreq	1, 0, r0, cr3, cr2, {0}
     6c8:	0e250e1b 	mcreq	14, 1, r0, cr5, cr11, {0}
     6cc:	00000513 	andeq	r0, r0, r3, lsl r5
     6d0:	00110100 	andseq	r0, r1, r0, lsl #2
     6d4:	01110610 	tsteq	r1, r0, lsl r6
     6d8:	0e030112 	mcreq	1, 0, r0, cr3, cr2, {0}
     6dc:	0e250e1b 	mcreq	14, 1, r0, cr5, cr11, {0}
     6e0:	00000513 	andeq	r0, r0, r3, lsl r5
     6e4:	00110100 	andseq	r0, r1, r0, lsl #2
     6e8:	01110610 	tsteq	r1, r0, lsl r6
     6ec:	0e030112 	mcreq	1, 0, r0, cr3, cr2, {0}
     6f0:	0e250e1b 	mcreq	14, 1, r0, cr5, cr11, {0}
     6f4:	00000513 	andeq	r0, r0, r3, lsl r5
     6f8:	00110100 	andseq	r0, r1, r0, lsl #2
     6fc:	01110610 	tsteq	r1, r0, lsl r6
     700:	0e030112 	mcreq	1, 0, r0, cr3, cr2, {0}
     704:	0e250e1b 	mcreq	14, 1, r0, cr5, cr11, {0}
     708:	00000513 	andeq	r0, r0, r3, lsl r5
     70c:	01110100 	tsteq	r1, r0, lsl #2
     710:	0b130e25 	bleq	4c3fac <SYS_MODE+0x4c3f8d>
     714:	0e1b0e03 	cdpeq	14, 1, cr0, cr11, cr3, {0}
     718:	01110655 	tsteq	r1, r5, asr r6
     71c:	06100152 			; <UNDEFINED> instruction: 0x06100152
     720:	24020000 	strcs	r0, [r2], #-0
     724:	3e0b0b00 	vmlacc.f64	d0, d11, d0
     728:	000e030b 	andeq	r0, lr, fp, lsl #6
     72c:	00160300 	andseq	r0, r6, r0, lsl #6
     730:	0b3a0e03 	bleq	e83f44 <SYS_MODE+0xe83f25>
     734:	0b390b3b 	bleq	e43428 <SYS_MODE+0xe43409>
     738:	00001349 	andeq	r1, r0, r9, asr #6
     73c:	0b002404 	bleq	9754 <SYS_MODE+0x9735>
     740:	030b3e0b 	movweq	r3, #48651	; 0xbe0b
     744:	05000008 	streq	r0, [r0, #-8]
     748:	0b3e0104 	bleq	f80b60 <SYS_MODE+0xf80b41>
     74c:	13490b0b 	movtne	r0, #39691	; 0x9b0b
     750:	0b3b0b3a 	bleq	ec3440 <SYS_MODE+0xec3421>
     754:	13010b39 	movwne	r0, #6969	; 0x1b39
     758:	28060000 	stmdacs	r6, {}	; <UNPREDICTABLE>
     75c:	1c0e0300 	stcne	3, cr0, [lr], {-0}
     760:	0700000b 	streq	r0, [r0, -fp]
     764:	0b0b0113 	bleq	2c0bb8 <SYS_MODE+0x2c0b99>
     768:	0b3b0b3a 	bleq	ec3458 <SYS_MODE+0xec3439>
     76c:	13010b39 	movwne	r0, #6969	; 0x1b39
     770:	0d080000 	stceq	0, cr0, [r8, #-0]
     774:	3a0e0300 	bcc	38137c <SYS_MODE+0x38135d>
     778:	390b3b0b 	stmdbcc	fp, {r0, r1, r3, r8, r9, fp, ip, sp}
     77c:	3813490b 	ldmdacc	r3, {r0, r1, r3, r8, fp, lr}
     780:	0900000a 	stmdbeq	r0, {r1, r3}
     784:	13490026 	movtne	r0, #36902	; 0x9026
     788:	040a0000 	streq	r0, [sl], #-0
     78c:	3e0e0301 	cdpcc	3, 0, cr0, cr14, cr1, {0}
     790:	490b0b0b 	stmdbmi	fp, {r0, r1, r3, r8, r9, fp}
     794:	3b0b3a13 	blcc	2cefe8 <SYS_MODE+0x2cefc9>
     798:	010b390b 	tsteq	fp, fp, lsl #18
     79c:	0b000013 	bleq	7f0 <SYS_MODE+0x7d1>
     7a0:	0e030034 	mcreq	0, 0, r0, cr3, cr4, {1}
     7a4:	0b3b0b3a 	bleq	ec3494 <SYS_MODE+0xec3475>
     7a8:	13490b39 	movtne	r0, #39737	; 0x9b39
     7ac:	0a020c3f 	beq	838b0 <SYS_MODE+0x83891>
     7b0:	2e0c0000 	cdpcs	0, 0, cr0, cr12, cr0, {0}
     7b4:	030c3f00 	movweq	r3, #52992	; 0xcf00
     7b8:	3b0b3a0e 	blcc	2ceff8 <SYS_MODE+0x2cefd9>
     7bc:	270b390b 	strcs	r3, [fp, -fp, lsl #18]
     7c0:	1201110c 	andne	r1, r1, #12, 2
     7c4:	96064001 	strls	r4, [r6], -r1
     7c8:	00000c42 	andeq	r0, r0, r2, asr #24
     7cc:	3f012e0d 	svccc	0x00012e0d
     7d0:	3a0e030c 	bcc	381408 <SYS_MODE+0x3813e9>
     7d4:	390b3b0b 	stmdbcc	fp, {r0, r1, r3, r8, r9, fp, ip, sp}
     7d8:	110c270b 	tstne	ip, fp, lsl #14
     7dc:	40011201 	andmi	r1, r1, r1, lsl #4
     7e0:	0c429606 	mcrreq	6, 0, r9, r2, cr6
     7e4:	00001301 	andeq	r1, r0, r1, lsl #6
     7e8:	0300050e 	movweq	r0, #1294	; 0x50e
     7ec:	3b0b3a0e 	blcc	2cf02c <SYS_MODE+0x2cf00d>
     7f0:	490b390b 	stmdbmi	fp, {r0, r1, r3, r8, fp, ip, sp}
     7f4:	000a0213 	andeq	r0, sl, r3, lsl r2
     7f8:	012e0f00 			; <UNDEFINED> instruction: 0x012e0f00
     7fc:	0b3a0e03 	bleq	e84010 <SYS_MODE+0xe83ff1>
     800:	0b390b3b 	bleq	e434f4 <SYS_MODE+0xe434d5>
     804:	01110c27 	tsteq	r1, r7, lsr #24
     808:	06400112 			; <UNDEFINED> instruction: 0x06400112
     80c:	010c4296 			; <UNDEFINED> instruction: 0x010c4296
     810:	10000013 	andne	r0, r0, r3, lsl r0
     814:	0e030034 	mcreq	0, 0, r0, cr3, cr4, {1}
     818:	0b3b0b3a 	bleq	ec3508 <SYS_MODE+0xec34e9>
     81c:	13490b39 	movtne	r0, #39737	; 0x9b39
     820:	00000a02 	andeq	r0, r0, r2, lsl #20
     824:	11010b11 	tstne	r1, r1, lsl fp
     828:	01011201 	tsteq	r1, r1, lsl #4
     82c:	12000013 	andne	r0, r0, #19
     830:	08030034 	stmdaeq	r3, {r2, r4, r5}
     834:	0b3b0b3a 	bleq	ec3524 <SYS_MODE+0xec3505>
     838:	13490b39 	movtne	r0, #39737	; 0x9b39
     83c:	00000a02 	andeq	r0, r0, r2, lsl #20
     840:	11010b13 	tstne	r1, r3, lsl fp
     844:	00011201 	andeq	r1, r1, r1, lsl #4
     848:	000f1400 	andeq	r1, pc, r0, lsl #8
     84c:	13490b0b 	movtne	r0, #39691	; 0x9b0b
     850:	01000000 	mrseq	r0, (UNDEF: 0)
     854:	0e250111 	mcreq	1, 1, r0, cr5, cr1, {0}
     858:	0e030b13 	vmoveq.32	d3[0], r0
     85c:	06550e1b 			; <UNDEFINED> instruction: 0x06550e1b
     860:	01520111 	cmpeq	r2, r1, lsl r1
     864:	00000610 	andeq	r0, r0, r0, lsl r6
     868:	0b002402 	bleq	9878 <SYS_MODE+0x9859>
     86c:	030b3e0b 	movweq	r3, #48651	; 0xbe0b
     870:	0300000e 	movweq	r0, #14
     874:	0e030016 	mcreq	0, 0, r0, cr3, cr6, {0}
     878:	0b3b0b3a 	bleq	ec3568 <SYS_MODE+0xec3549>
     87c:	13490b39 	movtne	r0, #39737	; 0x9b39
     880:	0f040000 	svceq	0x00040000
     884:	000b0b00 	andeq	r0, fp, r0, lsl #22
     888:	00240500 	eoreq	r0, r4, r0, lsl #10
     88c:	0b3e0b0b 	bleq	f834c0 <SYS_MODE+0xf834a1>
     890:	00000803 	andeq	r0, r0, r3, lsl #16
     894:	03010406 	movweq	r0, #5126	; 0x1406
     898:	0b0b3e0e 	bleq	2d00d8 <SYS_MODE+0x2d00b9>
     89c:	3a13490b 	bcc	4d2cd0 <SYS_MODE+0x4d2cb1>
     8a0:	390b3b0b 	stmdbcc	fp, {r0, r1, r3, r8, r9, fp, ip, sp}
     8a4:	0013010b 	andseq	r0, r3, fp, lsl #2
     8a8:	00280700 	eoreq	r0, r8, r0, lsl #14
     8ac:	0b1c0e03 	bleq	7040c0 <SYS_MODE+0x7040a1>
     8b0:	13080000 	movwne	r0, #32768	; 0x8000
     8b4:	0b0e0301 	bleq	3814c0 <SYS_MODE+0x3814a1>
     8b8:	3b0b3a0b 	blcc	2cf0ec <SYS_MODE+0x2cf0cd>
     8bc:	010b390b 	tsteq	fp, fp, lsl #18
     8c0:	09000013 	stmdbeq	r0, {r0, r1, r4}
     8c4:	0e03000d 	cdpeq	0, 0, cr0, cr3, cr13, {0}
     8c8:	0b3b0b3a 	bleq	ec35b8 <SYS_MODE+0xec3599>
     8cc:	13490b39 	movtne	r0, #39737	; 0x9b39
     8d0:	00000a38 	andeq	r0, r0, r8, lsr sl
     8d4:	0b000f0a 	bleq	4504 <SYS_MODE+0x44e5>
     8d8:	0013490b 	andseq	r4, r3, fp, lsl #18
     8dc:	01150b00 	tsteq	r5, r0, lsl #22
     8e0:	13010c27 	movwne	r0, #7207	; 0x1c27
     8e4:	050c0000 	streq	r0, [ip, #-0]
     8e8:	00134900 	andseq	r4, r3, r0, lsl #18
     8ec:	01130d00 	tsteq	r3, r0, lsl #26
     8f0:	050b0e03 	streq	r0, [fp, #-3587]	; 0xfffff1fd
     8f4:	0b3b0b3a 	bleq	ec35e4 <SYS_MODE+0xec35c5>
     8f8:	13010b39 	movwne	r0, #6969	; 0x1b39
     8fc:	010e0000 	mrseq	r0, (UNDEF: 14)
     900:	01134901 	tsteq	r3, r1, lsl #18
     904:	0f000013 	svceq	0x00000013
     908:	13490021 	movtne	r0, #36897	; 0x9021
     90c:	00000b2f 	andeq	r0, r0, pc, lsr #22
     910:	03003410 	movweq	r3, #1040	; 0x410
     914:	3b0b3a0e 	blcc	2cf154 <SYS_MODE+0x2cf135>
     918:	490b390b 	stmdbmi	fp, {r0, r1, r3, r8, fp, ip, sp}
     91c:	000a0213 	andeq	r0, sl, r3, lsl r2
     920:	00211100 	eoreq	r1, r1, r0, lsl #2
     924:	052f1349 	streq	r1, [pc, #-841]!	; 5e3 <SYS_MODE+0x5c4>
     928:	2e120000 	cdpcs	0, 1, cr0, cr2, cr0, {0}
     92c:	030c3f00 	movweq	r3, #52992	; 0xcf00
     930:	3b0b3a0e 	blcc	2cf170 <SYS_MODE+0x2cf151>
     934:	270b390b 	strcs	r3, [fp, -fp, lsl #18]
     938:	1113490c 	tstne	r3, ip, lsl #18
     93c:	40011201 	andmi	r1, r1, r1, lsl #4
     940:	0c429606 	mcrreq	6, 0, r9, r2, cr6
     944:	2e130000 	cdpcs	0, 1, cr0, cr3, cr0, {0}
     948:	030c3f01 	movweq	r3, #52993	; 0xcf01
     94c:	3b0b3a0e 	blcc	2cf18c <SYS_MODE+0x2cf16d>
     950:	270b390b 	strcs	r3, [fp, -fp, lsl #18]
     954:	1201110c 	andne	r1, r1, #12, 2
     958:	96064001 	strls	r4, [r6], -r1
     95c:	13010c42 	movwne	r0, #7234	; 0x1c42
     960:	05140000 	ldreq	r0, [r4, #-0]
     964:	3a0e0300 	bcc	38156c <SYS_MODE+0x38154d>
     968:	390b3b0b 	stmdbcc	fp, {r0, r1, r3, r8, r9, fp, ip, sp}
     96c:	0213490b 	andseq	r4, r3, #180224	; 0x2c000
     970:	1500000a 	strne	r0, [r0, #-10]
     974:	0c3f012e 	ldfeqs	f0, [pc], #-184	; 8c4 <SYS_MODE+0x8a5>
     978:	0b3a0e03 	bleq	e8418c <SYS_MODE+0xe8416d>
     97c:	0b390b3b 	bleq	e43670 <SYS_MODE+0xe43651>
     980:	01110c27 	tsteq	r1, r7, lsr #24
     984:	06400112 			; <UNDEFINED> instruction: 0x06400112
     988:	000c4296 	muleq	ip, r6, r2
     98c:	00051600 	andeq	r1, r5, r0, lsl #12
     990:	0b3a0803 	bleq	e829a4 <SYS_MODE+0xe82985>
     994:	0b390b3b 	bleq	e43688 <SYS_MODE+0xe43669>
     998:	0a021349 	beq	856c4 <SYS_MODE+0x856a5>
     99c:	01000000 	mrseq	r0, (UNDEF: 0)
     9a0:	0e250111 	mcreq	1, 1, r0, cr5, cr1, {0}
     9a4:	0e030b13 	vmoveq.32	d3[0], r0
     9a8:	06550e1b 			; <UNDEFINED> instruction: 0x06550e1b
     9ac:	01520111 	cmpeq	r2, r1, lsl r1
     9b0:	00000610 	andeq	r0, r0, r0, lsl r6
     9b4:	0b002402 	bleq	99c4 <SYS_MODE+0x99a5>
     9b8:	030b3e0b 	movweq	r3, #48651	; 0xbe0b
     9bc:	0300000e 	movweq	r0, #14
     9c0:	0e030016 	mcreq	0, 0, r0, cr3, cr6, {0}
     9c4:	0b3b0b3a 	bleq	ec36b4 <SYS_MODE+0xec3695>
     9c8:	13490b39 	movtne	r0, #39737	; 0x9b39
     9cc:	24040000 	strcs	r0, [r4], #-0
     9d0:	3e0b0b00 	vmlacc.f64	d0, d11, d0
     9d4:	0008030b 	andeq	r0, r8, fp, lsl #6
     9d8:	012e0500 			; <UNDEFINED> instruction: 0x012e0500
     9dc:	0e030c3f 	mcreq	12, 0, r0, cr3, cr15, {1}
     9e0:	0b3b0b3a 	bleq	ec36d0 <SYS_MODE+0xec36b1>
     9e4:	0c270b39 			; <UNDEFINED> instruction: 0x0c270b39
     9e8:	01120111 	tsteq	r2, r1, lsl r1
     9ec:	42970640 	addsmi	r0, r7, #64, 12	; 0x4000000
     9f0:	0013010c 	andseq	r0, r3, ip, lsl #2
     9f4:	00050600 	andeq	r0, r5, r0, lsl #12
     9f8:	0b3a0803 	bleq	e82a0c <SYS_MODE+0xe829ed>
     9fc:	0b390b3b 	bleq	e436f0 <SYS_MODE+0xe436d1>
     a00:	0a021349 	beq	8572c <SYS_MODE+0x8570d>
     a04:	34070000 	strcc	r0, [r7], #-0
     a08:	3a0e0300 	bcc	381610 <SYS_MODE+0x3815f1>
     a0c:	390b3b0b 	stmdbcc	fp, {r0, r1, r3, r8, r9, fp, ip, sp}
     a10:	0213490b 	andseq	r4, r3, #180224	; 0x2c000
     a14:	0800000a 	stmdaeq	r0, {r1, r3}
     a18:	08030034 	stmdaeq	r3, {r2, r4, r5}
     a1c:	0b3b0b3a 	bleq	ec370c <SYS_MODE+0xec36ed>
     a20:	13490b39 	movtne	r0, #39737	; 0x9b39
     a24:	00000a02 	andeq	r0, r0, r2, lsl #20
     a28:	03000509 	movweq	r0, #1289	; 0x509
     a2c:	3b0b3a0e 	blcc	2cf26c <SYS_MODE+0x2cf24d>
     a30:	490b390b 	stmdbmi	fp, {r0, r1, r3, r8, fp, ip, sp}
     a34:	000a0213 	andeq	r0, sl, r3, lsl r2
     a38:	012e0a00 			; <UNDEFINED> instruction: 0x012e0a00
     a3c:	0e030c3f 	mcreq	12, 0, r0, cr3, cr15, {1}
     a40:	0b3b0b3a 	bleq	ec3730 <SYS_MODE+0xec3711>
     a44:	0c270b39 			; <UNDEFINED> instruction: 0x0c270b39
     a48:	01120111 	tsteq	r2, r1, lsl r1
     a4c:	42970640 	addsmi	r0, r7, #64, 12	; 0x4000000
     a50:	0000000c 	andeq	r0, r0, ip
     a54:	10001101 	andne	r1, r0, r1, lsl #2
     a58:	12011106 	andne	r1, r1, #-2147483647	; 0x80000001
     a5c:	1b0e0301 	blne	381668 <SYS_MODE+0x381649>
     a60:	130e250e 	movwne	r2, #58638	; 0xe50e
     a64:	00000005 	andeq	r0, r0, r5
     a68:	25011101 	strcs	r1, [r1, #-257]	; 0xfffffeff
     a6c:	030b130e 	movweq	r1, #45838	; 0xb30e
     a70:	550e1b0e 	strpl	r1, [lr, #-2830]	; 0xfffff4f2
     a74:	52011106 	andpl	r1, r1, #-2147483647	; 0x80000001
     a78:	00061001 	andeq	r1, r6, r1
     a7c:	00240200 	eoreq	r0, r4, r0, lsl #4
     a80:	0b3e0b0b 	bleq	f836b4 <SYS_MODE+0xf83695>
     a84:	00000e03 	andeq	r0, r0, r3, lsl #28
     a88:	03001603 	movweq	r1, #1539	; 0x603
     a8c:	3b0b3a0e 	blcc	2cf2cc <SYS_MODE+0x2cf2ad>
     a90:	490b390b 	stmdbmi	fp, {r0, r1, r3, r8, fp, ip, sp}
     a94:	04000013 	streq	r0, [r0], #-19	; 0xffffffed
     a98:	13490026 	movtne	r0, #36902	; 0x9026
     a9c:	24050000 	strcs	r0, [r5], #-0
     aa0:	3e0b0b00 	vmlacc.f64	d0, d11, d0
     aa4:	0008030b 	andeq	r0, r8, fp, lsl #6
     aa8:	01040600 	tsteq	r4, r0, lsl #12
     aac:	0b0b0b3e 	bleq	2c37ac <SYS_MODE+0x2c378d>
     ab0:	0b3a1349 	bleq	e857dc <SYS_MODE+0xe857bd>
     ab4:	0b390b3b 	bleq	e437a8 <SYS_MODE+0xe43789>
     ab8:	00001301 	andeq	r1, r0, r1, lsl #6
     abc:	03002807 	movweq	r2, #2055	; 0x807
     ac0:	000b1c0e 	andeq	r1, fp, lr, lsl #24
     ac4:	01130800 	tsteq	r3, r0, lsl #16
     ac8:	0b3a0b0b 	bleq	e836fc <SYS_MODE+0xe836dd>
     acc:	0b390b3b 	bleq	e437c0 <SYS_MODE+0xe437a1>
     ad0:	00001301 	andeq	r1, r0, r1, lsl #6
     ad4:	03000d09 	movweq	r0, #3337	; 0xd09
     ad8:	3b0b3a0e 	blcc	2cf318 <SYS_MODE+0x2cf2f9>
     adc:	490b390b 	stmdbmi	fp, {r0, r1, r3, r8, fp, ip, sp}
     ae0:	000a3813 	andeq	r3, sl, r3, lsl r8
     ae4:	000d0a00 	andeq	r0, sp, r0, lsl #20
     ae8:	0b3a0803 	bleq	e82afc <SYS_MODE+0xe82add>
     aec:	0b390b3b 	bleq	e437e0 <SYS_MODE+0xe437c1>
     af0:	0a381349 	beq	e0581c <SYS_MODE+0xe057fd>
     af4:	010b0000 	mrseq	r0, (UNDEF: 11)
     af8:	01134901 	tsteq	r3, r1, lsl #18
     afc:	0c000013 	stceq	0, cr0, [r0], {19}
     b00:	13490021 	movtne	r0, #36897	; 0x9021
     b04:	00000b2f 	andeq	r0, r0, pc, lsr #22
     b08:	0300340d 	movweq	r3, #1037	; 0x40d
     b0c:	3b0b3a0e 	blcc	2cf34c <SYS_MODE+0x2cf32d>
     b10:	490b390b 	stmdbmi	fp, {r0, r1, r3, r8, fp, ip, sp}
     b14:	000a0213 	andeq	r0, sl, r3, lsl r2
     b18:	012e0e00 			; <UNDEFINED> instruction: 0x012e0e00
     b1c:	0e030c3f 	mcreq	12, 0, r0, cr3, cr15, {1}
     b20:	053b0b3a 	ldreq	r0, [fp, #-2874]!	; 0xfffff4c6
     b24:	0c270b39 			; <UNDEFINED> instruction: 0x0c270b39
     b28:	01120111 	tsteq	r2, r1, lsl r1
     b2c:	42970640 	addsmi	r0, r7, #64, 12	; 0x4000000
     b30:	0013010c 	andseq	r0, r3, ip, lsl #2
     b34:	00050f00 	andeq	r0, r5, r0, lsl #30
     b38:	0b3a0e03 	bleq	e8434c <SYS_MODE+0xe8432d>
     b3c:	0b39053b 	bleq	e42030 <SYS_MODE+0xe42011>
     b40:	0a021349 	beq	8586c <SYS_MODE+0x8584d>
     b44:	34100000 	ldrcc	r0, [r0], #-0
     b48:	3a0e0300 	bcc	381750 <SYS_MODE+0x381731>
     b4c:	39053b0b 	stmdbcc	r5, {r0, r1, r3, r8, r9, fp, ip, sp}
     b50:	0213490b 	andseq	r4, r3, #180224	; 0x2c000
     b54:	1100000a 	tstne	r0, sl
     b58:	0c3f012e 	ldfeqs	f0, [pc], #-184	; aa8 <SYS_MODE+0xa89>
     b5c:	0b3a0e03 	bleq	e84370 <SYS_MODE+0xe84351>
     b60:	0b39053b 	bleq	e42054 <SYS_MODE+0xe42035>
     b64:	01110c27 	tsteq	r1, r7, lsr #24
     b68:	06400112 			; <UNDEFINED> instruction: 0x06400112
     b6c:	010c4296 			; <UNDEFINED> instruction: 0x010c4296
     b70:	12000013 	andne	r0, r0, #19
     b74:	0b0b000f 	bleq	2c0bb8 <SYS_MODE+0x2c0b99>
     b78:	00001349 	andeq	r1, r0, r9, asr #6
     b7c:	03012e13 	movweq	r2, #7699	; 0x1e13
     b80:	3b0b3a0e 	blcc	2cf3c0 <SYS_MODE+0x2cf3a1>
     b84:	270b390b 	strcs	r3, [fp, -fp, lsl #18]
     b88:	1201110c 	andne	r1, r1, #12, 2
     b8c:	96064001 	strls	r4, [r6], -r1
     b90:	13010c42 	movwne	r0, #7234	; 0x1c42
     b94:	05140000 	ldreq	r0, [r4, #-0]
     b98:	3a0e0300 	bcc	3817a0 <SYS_MODE+0x381781>
     b9c:	390b3b0b 	stmdbcc	fp, {r0, r1, r3, r8, r9, fp, ip, sp}
     ba0:	0213490b 	andseq	r4, r3, #180224	; 0x2c000
     ba4:	1500000a 	strne	r0, [r0, #-10]
     ba8:	08030034 	stmdaeq	r3, {r2, r4, r5}
     bac:	0b3b0b3a 	bleq	ec389c <SYS_MODE+0xec387d>
     bb0:	13490b39 	movtne	r0, #39737	; 0x9b39
     bb4:	00000a02 	andeq	r0, r0, r2, lsl #20
     bb8:	03012e16 	movweq	r2, #7702	; 0x1e16
     bbc:	3b0b3a0e 	blcc	2cf3fc <SYS_MODE+0x2cf3dd>
     bc0:	270b390b 	strcs	r3, [fp, -fp, lsl #18]
     bc4:	1201110c 	andne	r1, r1, #12, 2
     bc8:	97064001 	strls	r4, [r6, -r1]
     bcc:	13010c42 	movwne	r0, #7234	; 0x1c42
     bd0:	2e170000 	cdpcs	0, 1, cr0, cr7, cr0, {0}
     bd4:	3a0e0301 	bcc	3817e0 <SYS_MODE+0x3817c1>
     bd8:	390b3b0b 	stmdbcc	fp, {r0, r1, r3, r8, r9, fp, ip, sp}
     bdc:	490c270b 	stmdbmi	ip, {r0, r1, r3, r8, r9, sl, sp}
     be0:	12011113 	andne	r1, r1, #-1073741820	; 0xc0000004
     be4:	97064001 	strls	r4, [r6, -r1]
     be8:	13010c42 	movwne	r0, #7234	; 0x1c42
     bec:	05180000 	ldreq	r0, [r8, #-0]
     bf0:	3a080300 	bcc	2017f8 <SYS_MODE+0x2017d9>
     bf4:	390b3b0b 	stmdbcc	fp, {r0, r1, r3, r8, r9, fp, ip, sp}
     bf8:	0213490b 	andseq	r4, r3, #180224	; 0x2c000
     bfc:	1900000a 	stmdbne	r0, {r1, r3}
     c00:	0111010b 	tsteq	r1, fp, lsl #2
     c04:	00000112 	andeq	r0, r0, r2, lsl r1
     c08:	01110100 	tsteq	r1, r0, lsl #2
     c0c:	0b130e25 	bleq	4c44a8 <SYS_MODE+0x4c4489>
     c10:	0e1b0e03 	cdpeq	14, 1, cr0, cr11, cr3, {0}
     c14:	01110655 	tsteq	r1, r5, asr r6
     c18:	06100152 			; <UNDEFINED> instruction: 0x06100152
     c1c:	24020000 	strcs	r0, [r2], #-0
     c20:	3e0b0b00 	vmlacc.f64	d0, d11, d0
     c24:	000e030b 	andeq	r0, lr, fp, lsl #6
     c28:	00160300 	andseq	r0, r6, r0, lsl #6
     c2c:	0b3a0e03 	bleq	e84440 <SYS_MODE+0xe84421>
     c30:	0b390b3b 	bleq	e43924 <SYS_MODE+0xe43905>
     c34:	00001349 	andeq	r1, r0, r9, asr #6
     c38:	49002604 	stmdbmi	r0, {r2, r9, sl, sp}
     c3c:	05000013 	streq	r0, [r0, #-19]	; 0xffffffed
     c40:	0b0b0024 	bleq	2c0cd8 <SYS_MODE+0x2c0cb9>
     c44:	08030b3e 	stmdaeq	r3, {r1, r2, r3, r4, r5, r8, r9, fp}
     c48:	04060000 	streq	r0, [r6], #-0
     c4c:	3e0e0301 	cdpcc	3, 0, cr0, cr14, cr1, {0}
     c50:	490b0b0b 	stmdbmi	fp, {r0, r1, r3, r8, r9, fp}
     c54:	3b0b3a13 	blcc	2cf4a8 <SYS_MODE+0x2cf489>
     c58:	010b390b 	tsteq	fp, fp, lsl #18
     c5c:	07000013 	smladeq	r0, r3, r0, r0
     c60:	0e030028 	cdpeq	0, 0, cr0, cr3, cr8, {1}
     c64:	00000b1c 	andeq	r0, r0, ip, lsl fp
     c68:	3f012e08 	svccc	0x00012e08
     c6c:	3a0e030c 	bcc	3818a4 <SYS_MODE+0x381885>
     c70:	390b3b0b 	stmdbcc	fp, {r0, r1, r3, r8, r9, fp, ip, sp}
     c74:	110c270b 	tstne	ip, fp, lsl #14
     c78:	40011201 	andmi	r1, r1, r1, lsl #4
     c7c:	0c429606 	mcrreq	6, 0, r9, r2, cr6
     c80:	00001301 	andeq	r1, r0, r1, lsl #6
     c84:	03000509 	movweq	r0, #1289	; 0x509
     c88:	3b0b3a0e 	blcc	2cf4c8 <SYS_MODE+0x2cf4a9>
     c8c:	490b390b 	stmdbmi	fp, {r0, r1, r3, r8, fp, ip, sp}
     c90:	000a0213 	andeq	r0, sl, r3, lsl r2
     c94:	00050a00 	andeq	r0, r5, r0, lsl #20
     c98:	0b3a0803 	bleq	e82cac <SYS_MODE+0xe82c8d>
     c9c:	0b390b3b 	bleq	e43990 <SYS_MODE+0xe43971>
     ca0:	0a021349 	beq	859cc <SYS_MODE+0x859ad>
     ca4:	340b0000 	strcc	r0, [fp], #-0
     ca8:	3a0e0300 	bcc	3818b0 <SYS_MODE+0x381891>
     cac:	390b3b0b 	stmdbcc	fp, {r0, r1, r3, r8, r9, fp, ip, sp}
     cb0:	0213490b 	andseq	r4, r3, #180224	; 0x2c000
     cb4:	0c00000a 	stceq	0, cr0, [r0], {10}
     cb8:	0e03012e 	adfeqsp	f0, f3, #0.5
     cbc:	0b3b0b3a 	bleq	ec39ac <SYS_MODE+0xec398d>
     cc0:	0c270b39 			; <UNDEFINED> instruction: 0x0c270b39
     cc4:	01120111 	tsteq	r2, r1, lsl r1
     cc8:	42970640 	addsmi	r0, r7, #64, 12	; 0x4000000
     ccc:	0013010c 	andseq	r0, r3, ip, lsl #2
     cd0:	012e0d00 			; <UNDEFINED> instruction: 0x012e0d00
     cd4:	0b3a0e03 	bleq	e844e8 <SYS_MODE+0xe844c9>
     cd8:	0b390b3b 	bleq	e439cc <SYS_MODE+0xe439ad>
     cdc:	01110c27 	tsteq	r1, r7, lsr #24
     ce0:	06400112 			; <UNDEFINED> instruction: 0x06400112
     ce4:	000c4297 	muleq	ip, r7, r2
     ce8:	11010000 	mrsne	r0, (UNDEF: 1)
     cec:	130e2501 	movwne	r2, #58625	; 0xe501
     cf0:	1b0e030b 	blne	381924 <SYS_MODE+0x381905>
     cf4:	1106550e 	tstne	r6, lr, lsl #10
     cf8:	10015201 	andne	r5, r1, r1, lsl #4
     cfc:	02000006 	andeq	r0, r0, #6
     d00:	0b0b0024 	bleq	2c0d98 <SYS_MODE+0x2c0d79>
     d04:	0e030b3e 	vmoveq.16	d3[0], r0
     d08:	16030000 	strne	r0, [r3], -r0
     d0c:	3a0e0300 	bcc	381914 <SYS_MODE+0x3818f5>
     d10:	390b3b0b 	stmdbcc	fp, {r0, r1, r3, r8, r9, fp, ip, sp}
     d14:	0013490b 	andseq	r4, r3, fp, lsl #18
     d18:	00240400 	eoreq	r0, r4, r0, lsl #8
     d1c:	0b3e0b0b 	bleq	f83950 <SYS_MODE+0xf83931>
     d20:	00000803 	andeq	r0, r0, r3, lsl #16
     d24:	03003405 	movweq	r3, #1029	; 0x405
     d28:	3b0b3a0e 	blcc	2cf568 <SYS_MODE+0x2cf549>
     d2c:	490b390b 	stmdbmi	fp, {r0, r1, r3, r8, fp, ip, sp}
     d30:	3c0c3f13 	stccc	15, cr3, [ip], {19}
     d34:	0600000c 	streq	r0, [r0], -ip
     d38:	13470034 	movtne	r0, #28724	; 0x7034
     d3c:	0b3b0b3a 	bleq	ec3a2c <SYS_MODE+0xec3a0d>
     d40:	0a020b39 	beq	83a2c <SYS_MODE+0x83a0d>
     d44:	2e070000 	cdpcs	0, 0, cr0, cr7, cr0, {0}
     d48:	030c3f00 	movweq	r3, #52992	; 0xcf00
     d4c:	3b0b3a0e 	blcc	2cf58c <SYS_MODE+0x2cf56d>
     d50:	270b390b 	strcs	r3, [fp, -fp, lsl #18]
     d54:	1201110c 	andne	r1, r1, #12, 2
     d58:	97064001 	strls	r4, [r6, -r1]
     d5c:	00000c42 	andeq	r0, r0, r2, asr #24
     d60:	3f012e08 	svccc	0x00012e08
     d64:	3a0e030c 	bcc	38199c <SYS_MODE+0x38197d>
     d68:	390b3b0b 	stmdbcc	fp, {r0, r1, r3, r8, r9, fp, ip, sp}
     d6c:	110c270b 	tstne	ip, fp, lsl #14
     d70:	40011201 	andmi	r1, r1, r1, lsl #4
     d74:	0c429706 	mcrreq	7, 0, r9, r2, cr6
     d78:	05090000 	streq	r0, [r9, #-0]
     d7c:	3a0e0300 	bcc	381984 <SYS_MODE+0x381965>
     d80:	390b3b0b 	stmdbcc	fp, {r0, r1, r3, r8, r9, fp, ip, sp}
     d84:	0213490b 	andseq	r4, r3, #180224	; 0x2c000
     d88:	0000000a 	andeq	r0, r0, sl
     d8c:	25011101 	strcs	r1, [r1, #-257]	; 0xfffffeff
     d90:	030b130e 	movweq	r1, #45838	; 0xb30e
     d94:	550e1b0e 	strpl	r1, [lr, #-2830]	; 0xfffff4f2
     d98:	52011106 	andpl	r1, r1, #-2147483647	; 0x80000001
     d9c:	00061001 	andeq	r1, r6, r1
     da0:	00240200 	eoreq	r0, r4, r0, lsl #4
     da4:	0b3e0b0b 	bleq	f839d8 <SYS_MODE+0xf839b9>
     da8:	00000e03 	andeq	r0, r0, r3, lsl #28
     dac:	03001603 	movweq	r1, #1539	; 0x603
     db0:	3b0b3a0e 	blcc	2cf5f0 <SYS_MODE+0x2cf5d1>
     db4:	490b390b 	stmdbmi	fp, {r0, r1, r3, r8, fp, ip, sp}
     db8:	04000013 	streq	r0, [r0], #-19	; 0xffffffed
     dbc:	0b0b000f 	bleq	2c0e00 <SYS_MODE+0x2c0de1>
     dc0:	24050000 	strcs	r0, [r5], #-0
     dc4:	3e0b0b00 	vmlacc.f64	d0, d11, d0
     dc8:	0008030b 	andeq	r0, r8, fp, lsl #6
     dcc:	01130600 	tsteq	r3, r0, lsl #12
     dd0:	0b0b0e03 	bleq	2c45e4 <SYS_MODE+0x2c45c5>
     dd4:	0b3b0b3a 	bleq	ec3ac4 <SYS_MODE+0xec3aa5>
     dd8:	13010b39 	movwne	r0, #6969	; 0x1b39
     ddc:	0d070000 	stceq	0, cr0, [r7, #-0]
     de0:	3a0e0300 	bcc	3819e8 <SYS_MODE+0x3819c9>
     de4:	390b3b0b 	stmdbcc	fp, {r0, r1, r3, r8, r9, fp, ip, sp}
     de8:	3813490b 	ldmdacc	r3, {r0, r1, r3, r8, fp, lr}
     dec:	0800000a 	stmdaeq	r0, {r1, r3}
     df0:	0b0b000f 	bleq	2c0e34 <SYS_MODE+0x2c0e15>
     df4:	00001349 	andeq	r1, r0, r9, asr #6
     df8:	27011509 	strcs	r1, [r1, -r9, lsl #10]
     dfc:	0013010c 	andseq	r0, r3, ip, lsl #2
     e00:	00050a00 	andeq	r0, r5, r0, lsl #20
     e04:	00001349 	andeq	r1, r0, r9, asr #6
     e08:	0301040b 	movweq	r0, #5131	; 0x140b
     e0c:	0b0b3e0e 	bleq	2d064c <SYS_MODE+0x2d062d>
     e10:	3a13490b 	bcc	4d3244 <SYS_MODE+0x4d3225>
     e14:	390b3b0b 	stmdbcc	fp, {r0, r1, r3, r8, r9, fp, ip, sp}
     e18:	0013010b 	andseq	r0, r3, fp, lsl #2
     e1c:	00280c00 	eoreq	r0, r8, r0, lsl #24
     e20:	0b1c0e03 	bleq	704634 <SYS_MODE+0x704615>
     e24:	130d0000 	movwne	r0, #53248	; 0xd000
     e28:	0b0e0301 	bleq	381a34 <SYS_MODE+0x381a15>
     e2c:	3b0b3a05 	blcc	2cf648 <SYS_MODE+0x2cf629>
     e30:	010b390b 	tsteq	fp, fp, lsl #18
     e34:	0e000013 	mcreq	0, 0, r0, cr0, cr3, {0}
     e38:	13490101 	movtne	r0, #37121	; 0x9101
     e3c:	00001301 	andeq	r1, r0, r1, lsl #6
     e40:	4900210f 	stmdbmi	r0, {r0, r1, r2, r3, r8, sp}
     e44:	000b2f13 	andeq	r2, fp, r3, lsl pc
     e48:	00341000 	eorseq	r1, r4, r0
     e4c:	0b3a0e03 	bleq	e84660 <SYS_MODE+0xe84641>
     e50:	0b390b3b 	bleq	e43b44 <SYS_MODE+0xe43b25>
     e54:	0c3f1349 	ldceq	3, cr1, [pc], #-292	; d38 <SYS_MODE+0xd19>
     e58:	00000c3c 	andeq	r0, r0, ip, lsr ip
     e5c:	49003511 	stmdbmi	r0, {r0, r4, r8, sl, ip, sp}
     e60:	12000013 	andne	r0, r0, #19
     e64:	13470034 	movtne	r0, #28724	; 0x7034
     e68:	0b3b0b3a 	bleq	ec3b58 <SYS_MODE+0xec3b39>
     e6c:	0a020b39 	beq	83b58 <SYS_MODE+0x83b39>
     e70:	34130000 	ldrcc	r0, [r3], #-0
     e74:	3a0e0300 	bcc	381a7c <SYS_MODE+0x381a5d>
     e78:	390b3b0b 	stmdbcc	fp, {r0, r1, r3, r8, r9, fp, ip, sp}
     e7c:	0213490b 	andseq	r4, r3, #180224	; 0x2c000
     e80:	1400000a 	strne	r0, [r0], #-10
     e84:	0c3f012e 	ldfeqs	f0, [pc], #-184	; dd4 <SYS_MODE+0xdb5>
     e88:	0b3a0e03 	bleq	e8469c <SYS_MODE+0xe8467d>
     e8c:	0b390b3b 	bleq	e43b80 <SYS_MODE+0xe43b61>
     e90:	01110c27 	tsteq	r1, r7, lsr #24
     e94:	06400112 			; <UNDEFINED> instruction: 0x06400112
     e98:	010c4296 			; <UNDEFINED> instruction: 0x010c4296
     e9c:	15000013 	strne	r0, [r0, #-19]	; 0xffffffed
     ea0:	0111010b 	tsteq	r1, fp, lsl #2
     ea4:	00000112 	andeq	r0, r0, r2, lsl r1
     ea8:	03003416 	movweq	r3, #1046	; 0x416
     eac:	3b0b3a0e 	blcc	2cf6ec <SYS_MODE+0x2cf6cd>
     eb0:	490b3905 	stmdbmi	fp, {r0, r2, r8, fp, ip, sp}
     eb4:	000a0213 	andeq	r0, sl, r3, lsl r2
     eb8:	002e1700 	eoreq	r1, lr, r0, lsl #14
     ebc:	0e030c3f 	mcreq	12, 0, r0, cr3, cr15, {1}
     ec0:	0b3b0b3a 	bleq	ec3bb0 <SYS_MODE+0xec3b91>
     ec4:	0c270b39 			; <UNDEFINED> instruction: 0x0c270b39
     ec8:	01120111 	tsteq	r2, r1, lsl r1
     ecc:	42970640 	addsmi	r0, r7, #64, 12	; 0x4000000
     ed0:	1800000c 	stmdane	r0, {r2, r3}
     ed4:	0e030005 	cdpeq	0, 0, cr0, cr3, cr5, {0}
     ed8:	0b3b0b3a 	bleq	ec3bc8 <SYS_MODE+0xec3ba9>
     edc:	13490b39 	movtne	r0, #39737	; 0x9b39
     ee0:	00000a02 	andeq	r0, r0, r2, lsl #20
     ee4:	3f012e19 	svccc	0x00012e19
     ee8:	3a0e030c 	bcc	381b20 <SYS_MODE+0x381b01>
     eec:	390b3b0b 	stmdbcc	fp, {r0, r1, r3, r8, r9, fp, ip, sp}
     ef0:	110c270b 	tstne	ip, fp, lsl #14
     ef4:	40011201 	andmi	r1, r1, r1, lsl #4
     ef8:	0c429706 	mcrreq	7, 0, r9, r2, cr6
     efc:	00001301 	andeq	r1, r0, r1, lsl #6
     f00:	0300051a 	movweq	r0, #1306	; 0x51a
     f04:	3b0b3a08 	blcc	2cf72c <SYS_MODE+0x2cf70d>
     f08:	490b390b 	stmdbmi	fp, {r0, r1, r3, r8, fp, ip, sp}
     f0c:	000a0213 	andeq	r0, sl, r3, lsl r2
     f10:	00341b00 	eorseq	r1, r4, r0, lsl #22
     f14:	0b3a0803 	bleq	e82f28 <SYS_MODE+0xe82f09>
     f18:	0b390b3b 	bleq	e43c0c <SYS_MODE+0xe43bed>
     f1c:	0a021349 	beq	85c48 <SYS_MODE+0x85c29>
     f20:	2e1c0000 	cdpcs	0, 1, cr0, cr12, cr0, {0}
     f24:	3a0e0301 	bcc	381b30 <SYS_MODE+0x381b11>
     f28:	390b3b0b 	stmdbcc	fp, {r0, r1, r3, r8, r9, fp, ip, sp}
     f2c:	110c270b 	tstne	ip, fp, lsl #14
     f30:	40011201 	andmi	r1, r1, r1, lsl #4
     f34:	0c429606 	mcrreq	6, 0, r9, r2, cr6
     f38:	00001301 	andeq	r1, r0, r1, lsl #6
     f3c:	03012e1d 	movweq	r2, #7709	; 0x1e1d
     f40:	3b0b3a0e 	blcc	2cf780 <SYS_MODE+0x2cf761>
     f44:	270b390b 	strcs	r3, [fp, -fp, lsl #18]
     f48:	1201110c 	andne	r1, r1, #12, 2
     f4c:	96064001 	strls	r4, [r6], -r1
     f50:	00000c42 	andeq	r0, r0, r2, asr #24
     f54:	01110100 	tsteq	r1, r0, lsl #2
     f58:	0b130e25 	bleq	4c47f4 <SYS_MODE+0x4c47d5>
     f5c:	0e1b0e03 	cdpeq	14, 1, cr0, cr11, cr3, {0}
     f60:	01110655 	tsteq	r1, r5, asr r6
     f64:	06100152 			; <UNDEFINED> instruction: 0x06100152
     f68:	24020000 	strcs	r0, [r2], #-0
     f6c:	3e0b0b00 	vmlacc.f64	d0, d11, d0
     f70:	000e030b 	andeq	r0, lr, fp, lsl #6
     f74:	00160300 	andseq	r0, r6, r0, lsl #6
     f78:	0b3a0e03 	bleq	e8478c <SYS_MODE+0xe8476d>
     f7c:	0b390b3b 	bleq	e43c70 <SYS_MODE+0xe43c51>
     f80:	00001349 	andeq	r1, r0, r9, asr #6
     f84:	0b000f04 	bleq	4b9c <SYS_MODE+0x4b7d>
     f88:	0500000b 	streq	r0, [r0, #-11]
     f8c:	0b0b0024 	bleq	2c1024 <SYS_MODE+0x2c1005>
     f90:	08030b3e 	stmdaeq	r3, {r1, r2, r3, r4, r5, r8, r9, fp}
     f94:	13060000 	movwne	r0, #24576	; 0x6000
     f98:	0b0e0301 	bleq	381ba4 <SYS_MODE+0x381b85>
     f9c:	3b0b3a0b 	blcc	2cf7d0 <SYS_MODE+0x2cf7b1>
     fa0:	010b390b 	tsteq	fp, fp, lsl #18
     fa4:	07000013 	smladeq	r0, r3, r0, r0
     fa8:	0e03000d 	cdpeq	0, 0, cr0, cr3, cr13, {0}
     fac:	0b3b0b3a 	bleq	ec3c9c <SYS_MODE+0xec3c7d>
     fb0:	13490b39 	movtne	r0, #39737	; 0x9b39
     fb4:	00000a38 	andeq	r0, r0, r8, lsr sl
     fb8:	0b000f08 	bleq	4be0 <SYS_MODE+0x4bc1>
     fbc:	0013490b 	andseq	r4, r3, fp, lsl #18
     fc0:	01150900 	tsteq	r5, r0, lsl #18
     fc4:	13010c27 	movwne	r0, #7207	; 0x1c27
     fc8:	050a0000 	streq	r0, [sl, #-0]
     fcc:	00134900 	andseq	r4, r3, r0, lsl #18
     fd0:	01040b00 	tsteq	r4, r0, lsl #22
     fd4:	0b3e0e03 	bleq	f847e8 <SYS_MODE+0xf847c9>
     fd8:	13490b0b 	movtne	r0, #39691	; 0x9b0b
     fdc:	0b3b0b3a 	bleq	ec3ccc <SYS_MODE+0xec3cad>
     fe0:	13010b39 	movwne	r0, #6969	; 0x1b39
     fe4:	280c0000 	stmdacs	ip, {}	; <UNPREDICTABLE>
     fe8:	1c0e0300 	stcne	3, cr0, [lr], {-0}
     fec:	0d00000b 	stceq	0, cr0, [r0, #-44]	; 0xffffffd4
     ff0:	0e030113 	mcreq	1, 0, r0, cr3, cr3, {0}
     ff4:	0b3a050b 	bleq	e82428 <SYS_MODE+0xe82409>
     ff8:	0b390b3b 	bleq	e43cec <SYS_MODE+0xe43ccd>
     ffc:	00001301 	andeq	r1, r0, r1, lsl #6
    1000:	4901010e 	stmdbmi	r1, {r1, r2, r3, r8}
    1004:	00130113 	andseq	r0, r3, r3, lsl r1
    1008:	00210f00 	eoreq	r0, r1, r0, lsl #30
    100c:	0b2f1349 	bleq	bc5d38 <SYS_MODE+0xbc5d19>
    1010:	34100000 	ldrcc	r0, [r0], #-0
    1014:	3a0e0300 	bcc	381c1c <SYS_MODE+0x381bfd>
    1018:	390b3b0b 	stmdbcc	fp, {r0, r1, r3, r8, r9, fp, ip, sp}
    101c:	3f13490b 	svccc	0x0013490b
    1020:	000c3c0c 	andeq	r3, ip, ip, lsl #24
    1024:	00341100 	eorseq	r1, r4, r0, lsl #2
    1028:	0b3a0e03 	bleq	e8483c <SYS_MODE+0xe8481d>
    102c:	0b390b3b 	bleq	e43d20 <SYS_MODE+0xe43d01>
    1030:	0a021349 	beq	85d5c <SYS_MODE+0x85d3d>
    1034:	21120000 	tstcs	r2, r0
    1038:	2f134900 	svccs	0x00134900
    103c:	13000005 	movwne	r0, #5
    1040:	0c3f002e 	ldceq	0, cr0, [pc], #-184	; f90 <SYS_MODE+0xf71>
    1044:	0b3a0e03 	bleq	e84858 <SYS_MODE+0xe84839>
    1048:	0b390b3b 	bleq	e43d3c <SYS_MODE+0xe43d1d>
    104c:	01110c27 	tsteq	r1, r7, lsr #24
    1050:	06400112 			; <UNDEFINED> instruction: 0x06400112
    1054:	000c4296 	muleq	ip, r6, r2
    1058:	012e1400 			; <UNDEFINED> instruction: 0x012e1400
    105c:	0e030c3f 	mcreq	12, 0, r0, cr3, cr15, {1}
    1060:	0b3b0b3a 	bleq	ec3d50 <SYS_MODE+0xec3d31>
    1064:	0c270b39 			; <UNDEFINED> instruction: 0x0c270b39
    1068:	01120111 	tsteq	r2, r1, lsl r1
    106c:	42960640 	addsmi	r0, r6, #64, 12	; 0x4000000
    1070:	1500000c 	strne	r0, [r0, #-12]
    1074:	0e030005 	cdpeq	0, 0, cr0, cr3, cr5, {0}
    1078:	0b3b0b3a 	bleq	ec3d68 <SYS_MODE+0xec3d49>
    107c:	13490b39 	movtne	r0, #39737	; 0x9b39
    1080:	00000a02 	andeq	r0, r0, r2, lsl #20
    1084:	11010b16 	tstne	r1, r6, lsl fp
    1088:	00011201 	andeq	r1, r1, r1, lsl #4
	...

Disassembly of section .debug_loc:

00000000 <.debug_loc>:
       0:	c20009a8 	andgt	r0, r0, #168, 18	; 0x2a0000
       4:	c20009ac 	andgt	r0, r0, #172, 18	; 0x2b0000
       8:	007d0002 	rsbseq	r0, sp, r2
       c:	c20009ac 	andgt	r0, r0, #172, 18	; 0x2b0000
      10:	c20009b0 	andgt	r0, r0, #176, 18	; 0x2c0000
      14:	047d0002 	ldrbteq	r0, [sp], #-2
      18:	c20009b0 	andgt	r0, r0, #176, 18	; 0x2c0000
      1c:	c20009dc 	andgt	r0, r0, #220, 18	; 0x370000
      20:	047b0002 	ldrbteq	r0, [fp], #-2
      24:	c20009dc 	andgt	r0, r0, #220, 18	; 0x370000
      28:	c20009e0 	andgt	r0, r0, #224, 18	; 0x380000
      2c:	047d0002 	ldrbteq	r0, [sp], #-2
      30:	c20009e0 	andgt	r0, r0, #224, 18	; 0x380000
      34:	c20009e4 	andgt	r0, r0, #228, 18	; 0x390000
      38:	007d0002 	rsbseq	r0, sp, r2
	...
      44:	c200096c 	andgt	r0, r0, #108, 18	; 0x1b0000
      48:	c2000970 	andgt	r0, r0, #112, 18	; 0x1c0000
      4c:	007d0002 	rsbseq	r0, sp, r2
      50:	c2000970 	andgt	r0, r0, #112, 18	; 0x1c0000
      54:	c2000974 	andgt	r0, r0, #116, 18	; 0x1d0000
      58:	047d0002 	ldrbteq	r0, [sp], #-2
      5c:	c2000974 	andgt	r0, r0, #116, 18	; 0x1d0000
      60:	c20009a0 	andgt	r0, r0, #160, 18	; 0x280000
      64:	047b0002 	ldrbteq	r0, [fp], #-2
      68:	c20009a0 	andgt	r0, r0, #160, 18	; 0x280000
      6c:	c20009a4 	andgt	r0, r0, #164, 18	; 0x290000
      70:	047d0002 	ldrbteq	r0, [sp], #-2
      74:	c20009a4 	andgt	r0, r0, #164, 18	; 0x290000
      78:	c20009a8 	andgt	r0, r0, #168, 18	; 0x2a0000
      7c:	007d0002 	rsbseq	r0, sp, r2
	...
      90:	007d0002 	rsbseq	r0, sp, r2
	...
      9c:	047d0002 	ldrbteq	r0, [sp], #-2
	...
      a8:	047b0002 	ldrbteq	r0, [fp], #-2
	...
      b4:	047d0002 	ldrbteq	r0, [sp], #-2
	...
      c0:	007d0002 	rsbseq	r0, sp, r2
	...
      d4:	007d0002 	rsbseq	r0, sp, r2
	...
      e0:	047d0002 	ldrbteq	r0, [sp], #-2
	...
      ec:	047b0002 	ldrbteq	r0, [fp], #-2
	...
      f8:	047d0002 	ldrbteq	r0, [sp], #-2
	...
     104:	007d0002 	rsbseq	r0, sp, r2
	...
     118:	007d0002 	rsbseq	r0, sp, r2
	...
     124:	087d0002 	ldmdaeq	sp!, {r1}^
	...
     130:	047b0002 	ldrbteq	r0, [fp], #-2
	...
     13c:	087d0002 	ldmdaeq	sp!, {r1}^
	...
     148:	c2000924 	andgt	r0, r0, #36, 18	; 0x90000
     14c:	c2000928 	andgt	r0, r0, #40, 18	; 0xa0000
     150:	007d0002 	rsbseq	r0, sp, r2
     154:	c2000928 	andgt	r0, r0, #40, 18	; 0xa0000
     158:	c200092c 	andgt	r0, r0, #44, 18	; 0xb0000
     15c:	087d0002 	ldmdaeq	sp!, {r1}^
     160:	c200092c 	andgt	r0, r0, #44, 18	; 0xb0000
     164:	c2000968 	andgt	r0, r0, #104, 18	; 0x1a0000
     168:	047b0002 	ldrbteq	r0, [fp], #-2
     16c:	c2000968 	andgt	r0, r0, #104, 18	; 0x1a0000
     170:	c200096c 	andgt	r0, r0, #108, 18	; 0x1b0000
     174:	087d0002 	ldmdaeq	sp!, {r1}^
	...
     188:	007d0002 	rsbseq	r0, sp, r2
	...
     194:	087d0002 	ldmdaeq	sp!, {r1}^
	...
     1a0:	047b0002 	ldrbteq	r0, [fp], #-2
	...
     1ac:	087d0002 	ldmdaeq	sp!, {r1}^
	...
     1c0:	007d0002 	rsbseq	r0, sp, r2
	...
     1cc:	047d0002 	ldrbteq	r0, [sp], #-2
	...
     1d8:	047b0002 	ldrbteq	r0, [fp], #-2
	...
     1e4:	047d0002 	ldrbteq	r0, [sp], #-2
	...
     1f0:	007d0002 	rsbseq	r0, sp, r2
	...
     204:	007d0002 	rsbseq	r0, sp, r2
	...
     210:	087d0002 	ldmdaeq	sp!, {r1}^
	...
     21c:	047b0002 	ldrbteq	r0, [fp], #-2
	...
     228:	087d0002 	ldmdaeq	sp!, {r1}^
	...
     234:	c20008e8 	andgt	r0, r0, #232, 16	; 0xe80000
     238:	c20008ec 	andgt	r0, r0, #236, 16	; 0xec0000
     23c:	007d0002 	rsbseq	r0, sp, r2
     240:	c20008ec 	andgt	r0, r0, #236, 16	; 0xec0000
     244:	c20008f0 	andgt	r0, r0, #240, 16	; 0xf00000
     248:	047d0002 	ldrbteq	r0, [sp], #-2
     24c:	c20008f0 	andgt	r0, r0, #240, 16	; 0xf00000
     250:	c200091c 	andgt	r0, r0, #28, 18	; 0x70000
     254:	047b0002 	ldrbteq	r0, [fp], #-2
     258:	c200091c 	andgt	r0, r0, #28, 18	; 0x70000
     25c:	c2000920 	andgt	r0, r0, #32, 18	; 0x80000
     260:	047d0002 	ldrbteq	r0, [sp], #-2
     264:	c2000920 	andgt	r0, r0, #32, 18	; 0x80000
     268:	c2000924 	andgt	r0, r0, #36, 18	; 0x90000
     26c:	007d0002 	rsbseq	r0, sp, r2
	...
     280:	007d0002 	rsbseq	r0, sp, r2
	...
     28c:	087d0002 	ldmdaeq	sp!, {r1}^
	...
     298:	047b0002 	ldrbteq	r0, [fp], #-2
	...
     2a4:	087d0002 	ldmdaeq	sp!, {r1}^
	...
     2b0:	c20008b0 	andgt	r0, r0, #176, 16	; 0xb00000
     2b4:	c20008b4 	andgt	r0, r0, #180, 16	; 0xb40000
     2b8:	007d0002 	rsbseq	r0, sp, r2
     2bc:	c20008b4 	andgt	r0, r0, #180, 16	; 0xb40000
     2c0:	c20008b8 	andgt	r0, r0, #184, 16	; 0xb80000
     2c4:	087d0002 	ldmdaeq	sp!, {r1}^
     2c8:	c20008b8 	andgt	r0, r0, #184, 16	; 0xb80000
     2cc:	c20008e4 	andgt	r0, r0, #228, 16	; 0xe40000
     2d0:	047b0002 	ldrbteq	r0, [fp], #-2
     2d4:	c20008e4 	andgt	r0, r0, #228, 16	; 0xe40000
     2d8:	c20008e8 	andgt	r0, r0, #232, 16	; 0xe80000
     2dc:	087d0002 	ldmdaeq	sp!, {r1}^
	...
     2e8:	c2000858 	andgt	r0, r0, #88, 16	; 0x580000
     2ec:	c200085c 	andgt	r0, r0, #92, 16	; 0x5c0000
     2f0:	007d0002 	rsbseq	r0, sp, r2
     2f4:	c200085c 	andgt	r0, r0, #92, 16	; 0x5c0000
     2f8:	c2000860 	andgt	r0, r0, #96, 16	; 0x600000
     2fc:	047d0002 	ldrbteq	r0, [sp], #-2
     300:	c2000860 	andgt	r0, r0, #96, 16	; 0x600000
     304:	c20008a8 	andgt	r0, r0, #168, 16	; 0xa80000
     308:	047b0002 	ldrbteq	r0, [fp], #-2
     30c:	c20008a8 	andgt	r0, r0, #168, 16	; 0xa80000
     310:	c20008ac 	andgt	r0, r0, #172, 16	; 0xac0000
     314:	047d0002 	ldrbteq	r0, [sp], #-2
     318:	c20008ac 	andgt	r0, r0, #172, 16	; 0xac0000
     31c:	c20008b0 	andgt	r0, r0, #176, 16	; 0xb00000
     320:	007d0002 	rsbseq	r0, sp, r2
	...
     32c:	c200081c 	andgt	r0, r0, #28, 16	; 0x1c0000
     330:	c2000820 	andgt	r0, r0, #32, 16	; 0x200000
     334:	007d0002 	rsbseq	r0, sp, r2
     338:	c2000820 	andgt	r0, r0, #32, 16	; 0x200000
     33c:	c2000824 	andgt	r0, r0, #36, 16	; 0x240000
     340:	047d0002 	ldrbteq	r0, [sp], #-2
     344:	c2000824 	andgt	r0, r0, #36, 16	; 0x240000
     348:	c2000850 	andgt	r0, r0, #80, 16	; 0x500000
     34c:	047b0002 	ldrbteq	r0, [fp], #-2
     350:	c2000850 	andgt	r0, r0, #80, 16	; 0x500000
     354:	c2000854 	andgt	r0, r0, #84, 16	; 0x540000
     358:	047d0002 	ldrbteq	r0, [sp], #-2
     35c:	c2000854 	andgt	r0, r0, #84, 16	; 0x540000
     360:	c2000858 	andgt	r0, r0, #88, 16	; 0x580000
     364:	007d0002 	rsbseq	r0, sp, r2
	...
     378:	007d0002 	rsbseq	r0, sp, r2
	...
     384:	047d0002 	ldrbteq	r0, [sp], #-2
	...
     390:	047b0002 	ldrbteq	r0, [fp], #-2
	...
     39c:	047d0002 	ldrbteq	r0, [sp], #-2
	...
     3a8:	007d0002 	rsbseq	r0, sp, r2
	...
     3bc:	007d0002 	rsbseq	r0, sp, r2
	...
     3c8:	047d0002 	ldrbteq	r0, [sp], #-2
	...
     3d4:	047b0002 	ldrbteq	r0, [fp], #-2
	...
     3e0:	047d0002 	ldrbteq	r0, [sp], #-2
	...
     3ec:	007d0002 	rsbseq	r0, sp, r2
	...
     3f8:	c2000a9c 	andgt	r0, r0, #156, 20	; 0x9c000
     3fc:	c2000aa0 	andgt	r0, r0, #160, 20	; 0xa0000
     400:	007d0002 	rsbseq	r0, sp, r2
     404:	c2000aa0 	andgt	r0, r0, #160, 20	; 0xa0000
     408:	c2000aa4 	andgt	r0, r0, #164, 20	; 0xa4000
     40c:	047d0002 	ldrbteq	r0, [sp], #-2
     410:	c2000aa4 	andgt	r0, r0, #164, 20	; 0xa4000
     414:	c2000b08 	andgt	r0, r0, #8, 22	; 0x2000
     418:	047b0002 	ldrbteq	r0, [fp], #-2
     41c:	c2000b08 	andgt	r0, r0, #8, 22	; 0x2000
     420:	c2000b0c 	andgt	r0, r0, #12, 22	; 0x3000
     424:	047d0002 	ldrbteq	r0, [sp], #-2
     428:	c2000b0c 	andgt	r0, r0, #12, 22	; 0x3000
     42c:	c2000b10 	andgt	r0, r0, #16, 22	; 0x4000
     430:	007d0002 	rsbseq	r0, sp, r2
	...
     43c:	c2000a38 	andgt	r0, r0, #56, 20	; 0x38000
     440:	c2000a3c 	andgt	r0, r0, #60, 20	; 0x3c000
     444:	007d0002 	rsbseq	r0, sp, r2
     448:	c2000a3c 	andgt	r0, r0, #60, 20	; 0x3c000
     44c:	c2000a40 	andgt	r0, r0, #64, 20	; 0x40000
     450:	047d0002 	ldrbteq	r0, [sp], #-2
     454:	c2000a40 	andgt	r0, r0, #64, 20	; 0x40000
     458:	c2000a94 	andgt	r0, r0, #148, 20	; 0x94000
     45c:	047b0002 	ldrbteq	r0, [fp], #-2
     460:	c2000a94 	andgt	r0, r0, #148, 20	; 0x94000
     464:	c2000a98 	andgt	r0, r0, #152, 20	; 0x98000
     468:	047d0002 	ldrbteq	r0, [sp], #-2
     46c:	c2000a98 	andgt	r0, r0, #152, 20	; 0x98000
     470:	c2000a9c 	andgt	r0, r0, #156, 20	; 0x9c000
     474:	007d0002 	rsbseq	r0, sp, r2
	...
     480:	c20009e4 	andgt	r0, r0, #228, 18	; 0x390000
     484:	c20009e8 	andgt	r0, r0, #232, 18	; 0x3a0000
     488:	007d0002 	rsbseq	r0, sp, r2
     48c:	c20009e8 	andgt	r0, r0, #232, 18	; 0x3a0000
     490:	c20009ec 	andgt	r0, r0, #236, 18	; 0x3b0000
     494:	047d0002 	ldrbteq	r0, [sp], #-2
     498:	c20009ec 	andgt	r0, r0, #236, 18	; 0x3b0000
     49c:	c2000a30 	andgt	r0, r0, #48, 20	; 0x30000
     4a0:	047b0002 	ldrbteq	r0, [fp], #-2
     4a4:	c2000a30 	andgt	r0, r0, #48, 20	; 0x30000
     4a8:	c2000a34 	andgt	r0, r0, #52, 20	; 0x34000
     4ac:	047d0002 	ldrbteq	r0, [sp], #-2
     4b0:	c2000a34 	andgt	r0, r0, #52, 20	; 0x34000
     4b4:	c2000a38 	andgt	r0, r0, #56, 20	; 0x38000
     4b8:	007d0002 	rsbseq	r0, sp, r2
	...
     4cc:	007d0002 	rsbseq	r0, sp, r2
	...
     4d8:	087d0002 	ldmdaeq	sp!, {r1}^
	...
     4e4:	047b0002 	ldrbteq	r0, [fp], #-2
	...
     4f0:	087d0002 	ldmdaeq	sp!, {r1}^
	...
     4fc:	007d0002 	rsbseq	r0, sp, r2
	...
     510:	007d0002 	rsbseq	r0, sp, r2
	...
     51c:	047d0002 	ldrbteq	r0, [sp], #-2
	...
     528:	047b0002 	ldrbteq	r0, [fp], #-2
	...
     534:	047d0002 	ldrbteq	r0, [sp], #-2
	...
     540:	007d0002 	rsbseq	r0, sp, r2
	...
     554:	007d0002 	rsbseq	r0, sp, r2
	...
     560:	047d0002 	ldrbteq	r0, [sp], #-2
	...
     56c:	047b0002 	ldrbteq	r0, [fp], #-2
	...
     578:	047d0002 	ldrbteq	r0, [sp], #-2
	...
     584:	007d0002 	rsbseq	r0, sp, r2
	...
     598:	007d0002 	rsbseq	r0, sp, r2
	...
     5a4:	087d0002 	ldmdaeq	sp!, {r1}^
	...
     5b0:	107d0002 	rsbsne	r0, sp, r2
	...
     5bc:	0c7b0002 	ldcleq	0, cr0, [fp], #-8
	...
     5c8:	107d0002 	rsbsne	r0, sp, r2
	...
     5d4:	087d0002 	ldmdaeq	sp!, {r1}^
	...
     5e0:	007d0002 	rsbseq	r0, sp, r2
	...
     5f4:	007d0002 	rsbseq	r0, sp, r2
	...
     600:	087d0002 	ldmdaeq	sp!, {r1}^
	...
     60c:	047b0002 	ldrbteq	r0, [fp], #-2
	...
     618:	087d0002 	ldmdaeq	sp!, {r1}^
	...
     62c:	007d0002 	rsbseq	r0, sp, r2
	...
     638:	087d0002 	ldmdaeq	sp!, {r1}^
	...
     644:	047b0002 	ldrbteq	r0, [fp], #-2
	...
     650:	087d0002 	ldmdaeq	sp!, {r1}^
	...
     664:	007d0002 	rsbseq	r0, sp, r2
	...
     670:	087d0002 	ldmdaeq	sp!, {r1}^
	...
     67c:	107d0002 	rsbsne	r0, sp, r2
	...
     688:	0c7b0002 	ldcleq	0, cr0, [fp], #-8
	...
     694:	107d0002 	rsbsne	r0, sp, r2
	...
     6a0:	087d0002 	ldmdaeq	sp!, {r1}^
	...
     6ac:	007d0002 	rsbseq	r0, sp, r2
	...
     6c0:	007d0002 	rsbseq	r0, sp, r2
	...
     6cc:	0c7d0002 	ldcleq	0, cr0, [sp], #-8
	...
     6d8:	147d0002 	ldrbtne	r0, [sp], #-2
	...
     6e4:	107b0002 	rsbsne	r0, fp, r2
	...
     6f0:	147d0002 	ldrbtne	r0, [sp], #-2
	...
     6fc:	0c7d0002 	ldcleq	0, cr0, [sp], #-8
	...
     708:	007d0002 	rsbseq	r0, sp, r2
	...
     714:	c2002ff4 	andgt	r2, r0, #244, 30	; 0x3d0
     718:	c2002ff8 	andgt	r2, r0, #248, 30	; 0x3e0
     71c:	007d0002 	rsbseq	r0, sp, r2
     720:	c2002ff8 	andgt	r2, r0, #248, 30	; 0x3e0
     724:	c2002ffc 	andgt	r2, r0, #252, 30	; 0x3f0
     728:	107d0002 	rsbsne	r0, sp, r2
     72c:	c2002ffc 	andgt	r2, r0, #252, 30	; 0x3f0
     730:	c2003000 	andgt	r3, r0, #0
     734:	187d0002 	ldmdane	sp!, {r1}^
     738:	c2003000 	andgt	r3, r0, #0
     73c:	c200303c 	andgt	r3, r0, #60	; 0x3c
     740:	147b0002 	ldrbtne	r0, [fp], #-2
     744:	c200303c 	andgt	r3, r0, #60	; 0x3c
     748:	c2003040 	andgt	r3, r0, #64	; 0x40
     74c:	187d0002 	ldmdane	sp!, {r1}^
     750:	c2003040 	andgt	r3, r0, #64	; 0x40
     754:	c2003044 	andgt	r3, r0, #68	; 0x44
     758:	107d0002 	rsbsne	r0, sp, r2
     75c:	c2003044 	andgt	r3, r0, #68	; 0x44
     760:	c2003048 	andgt	r3, r0, #72	; 0x48
     764:	007d0002 	rsbseq	r0, sp, r2
	...
     770:	c2002064 	andgt	r2, r0, #100	; 0x64
     774:	c2002068 	andgt	r2, r0, #104	; 0x68
     778:	007d0002 	rsbseq	r0, sp, r2
     77c:	c2002068 	andgt	r2, r0, #104	; 0x68
     780:	c200206c 	andgt	r2, r0, #108	; 0x6c
     784:	207d0002 	rsbscs	r0, sp, r2
     788:	c200206c 	andgt	r2, r0, #108	; 0x6c
     78c:	c2002ff0 	andgt	r2, r0, #240, 30	; 0x3c0
     790:	047b0002 	ldrbteq	r0, [fp], #-2
     794:	c2002ff0 	andgt	r2, r0, #240, 30	; 0x3c0
     798:	c2002ff4 	andgt	r2, r0, #244, 30	; 0x3d0
     79c:	207d0002 	rsbscs	r0, sp, r2
	...
     7a8:	c2001ae8 	andgt	r1, r0, #232, 20	; 0xe8000
     7ac:	c2001aec 	andgt	r1, r0, #236, 20	; 0xec000
     7b0:	007d0002 	rsbseq	r0, sp, r2
     7b4:	c2001aec 	andgt	r1, r0, #236, 20	; 0xec000
     7b8:	c2001af0 	andgt	r1, r0, #240, 20	; 0xf0000
     7bc:	207d0002 	rsbscs	r0, sp, r2
     7c0:	c2001af0 	andgt	r1, r0, #240, 20	; 0xf0000
     7c4:	c2002060 	andgt	r2, r0, #96	; 0x60
     7c8:	047b0002 	ldrbteq	r0, [fp], #-2
     7cc:	c2002060 	andgt	r2, r0, #96	; 0x60
     7d0:	c2002064 	andgt	r2, r0, #100	; 0x64
     7d4:	207d0002 	rsbscs	r0, sp, r2
	...
     7e0:	c20013e0 	andgt	r1, r0, #224, 6	; 0x80000003
     7e4:	c20013e4 	andgt	r1, r0, #228, 6	; 0x90000003
     7e8:	007d0002 	rsbseq	r0, sp, r2
     7ec:	c20013e4 	andgt	r1, r0, #228, 6	; 0x90000003
     7f0:	c20013e8 	andgt	r1, r0, #232, 6	; 0xa0000003
     7f4:	087d0002 	ldmdaeq	sp!, {r1}^
     7f8:	c20013e8 	andgt	r1, r0, #232, 6	; 0xa0000003
     7fc:	c2001ae0 	andgt	r1, r0, #224, 20	; 0xe0000
     800:	047b0002 	ldrbteq	r0, [fp], #-2
     804:	c2001ae0 	andgt	r1, r0, #224, 20	; 0xe0000
     808:	c2001ae4 	andgt	r1, r0, #228, 20	; 0xe4000
     80c:	087d0002 	ldmdaeq	sp!, {r1}^
	...
     818:	c2001280 	andgt	r1, r0, #128, 4
     81c:	c2001284 	andgt	r1, r0, #132, 4	; 0x40000008
     820:	007d0002 	rsbseq	r0, sp, r2
     824:	c2001284 	andgt	r1, r0, #132, 4	; 0x40000008
     828:	c2001288 	andgt	r1, r0, #136, 4	; 0x80000008
     82c:	087d0002 	ldmdaeq	sp!, {r1}^
     830:	c2001288 	andgt	r1, r0, #136, 4	; 0x80000008
     834:	c20013d8 	andgt	r1, r0, #216, 6	; 0x60000003
     838:	047b0002 	ldrbteq	r0, [fp], #-2
     83c:	c20013d8 	andgt	r1, r0, #216, 6	; 0x60000003
     840:	c20013dc 	andgt	r1, r0, #220, 6	; 0x70000003
     844:	087d0002 	ldmdaeq	sp!, {r1}^
	...
     850:	c2001124 	andgt	r1, r0, #36, 2
     854:	c2001128 	andgt	r1, r0, #40, 2
     858:	007d0002 	rsbseq	r0, sp, r2
     85c:	c2001128 	andgt	r1, r0, #40, 2
     860:	c200112c 	andgt	r1, r0, #44, 2
     864:	087d0002 	ldmdaeq	sp!, {r1}^
     868:	c200112c 	andgt	r1, r0, #44, 2
     86c:	c200127c 	andgt	r1, r0, #124, 4	; 0xc0000007
     870:	047b0002 	ldrbteq	r0, [fp], #-2
     874:	c200127c 	andgt	r1, r0, #124, 4	; 0xc0000007
     878:	c2001280 	andgt	r1, r0, #128, 4
     87c:	087d0002 	ldmdaeq	sp!, {r1}^
	...
     888:	c2000dec 	andgt	r0, r0, #236, 26	; 0x3b00
     88c:	c2000df0 	andgt	r0, r0, #240, 26	; 0x3c00
     890:	007d0002 	rsbseq	r0, sp, r2
     894:	c2000df0 	andgt	r0, r0, #240, 26	; 0x3c00
     898:	c2000df4 	andgt	r0, r0, #244, 26	; 0x3d00
     89c:	087d0002 	ldmdaeq	sp!, {r1}^
     8a0:	c2000df4 	andgt	r0, r0, #244, 26	; 0x3d00
     8a4:	c2001120 	andgt	r1, r0, #32, 2
     8a8:	047b0002 	ldrbteq	r0, [fp], #-2
     8ac:	c2001120 	andgt	r1, r0, #32, 2
     8b0:	c2001124 	andgt	r1, r0, #36, 2
     8b4:	087d0002 	ldmdaeq	sp!, {r1}^
	...
     8c0:	c2000cbc 	andgt	r0, r0, #188, 24	; 0xbc00
     8c4:	c2000cc0 	andgt	r0, r0, #192, 24	; 0xc000
     8c8:	007d0002 	rsbseq	r0, sp, r2
     8cc:	c2000cc0 	andgt	r0, r0, #192, 24	; 0xc000
     8d0:	c2000cc4 	andgt	r0, r0, #196, 24	; 0xc400
     8d4:	0c7d0002 	ldcleq	0, cr0, [sp], #-8
     8d8:	c2000cc4 	andgt	r0, r0, #196, 24	; 0xc400
     8dc:	c2000de8 	andgt	r0, r0, #232, 26	; 0x3a00
     8e0:	047b0002 	ldrbteq	r0, [fp], #-2
     8e4:	c2000de8 	andgt	r0, r0, #232, 26	; 0x3a00
     8e8:	c2000dec 	andgt	r0, r0, #236, 26	; 0x3b00
     8ec:	0c7d0002 	ldcleq	0, cr0, [sp], #-8
	...
     8f8:	c2000c40 	andgt	r0, r0, #64, 24	; 0x4000
     8fc:	c2000c44 	andgt	r0, r0, #68, 24	; 0x4400
     900:	007d0002 	rsbseq	r0, sp, r2
     904:	c2000c44 	andgt	r0, r0, #68, 24	; 0x4400
     908:	c2000c48 	andgt	r0, r0, #72, 24	; 0x4800
     90c:	087d0002 	ldmdaeq	sp!, {r1}^
     910:	c2000c48 	andgt	r0, r0, #72, 24	; 0x4800
     914:	c2000cb8 	andgt	r0, r0, #184, 24	; 0xb800
     918:	047b0002 	ldrbteq	r0, [fp], #-2
     91c:	c2000cb8 	andgt	r0, r0, #184, 24	; 0xb800
     920:	c2000cbc 	andgt	r0, r0, #188, 24	; 0xbc00
     924:	087d0002 	ldmdaeq	sp!, {r1}^
	...
     930:	c2000bf0 	andgt	r0, r0, #240, 22	; 0x3c000
     934:	c2000bf4 	andgt	r0, r0, #244, 22	; 0x3d000
     938:	007d0002 	rsbseq	r0, sp, r2
     93c:	c2000bf4 	andgt	r0, r0, #244, 22	; 0x3d000
     940:	c2000bf8 	andgt	r0, r0, #248, 22	; 0x3e000
     944:	047d0002 	ldrbteq	r0, [sp], #-2
     948:	c2000bf8 	andgt	r0, r0, #248, 22	; 0x3e000
     94c:	c2000c38 	andgt	r0, r0, #56, 24	; 0x3800
     950:	047b0002 	ldrbteq	r0, [fp], #-2
     954:	c2000c38 	andgt	r0, r0, #56, 24	; 0x3800
     958:	c2000c3c 	andgt	r0, r0, #60, 24	; 0x3c00
     95c:	047d0002 	ldrbteq	r0, [sp], #-2
     960:	c2000c3c 	andgt	r0, r0, #60, 24	; 0x3c00
     964:	c2000c40 	andgt	r0, r0, #64, 24	; 0x4000
     968:	007d0002 	rsbseq	r0, sp, r2
	...
     974:	c2000b84 	andgt	r0, r0, #132, 22	; 0x21000
     978:	c2000b88 	andgt	r0, r0, #136, 22	; 0x22000
     97c:	007d0002 	rsbseq	r0, sp, r2
     980:	c2000b88 	andgt	r0, r0, #136, 22	; 0x22000
     984:	c2000b8c 	andgt	r0, r0, #140, 22	; 0x23000
     988:	047d0002 	ldrbteq	r0, [sp], #-2
     98c:	c2000b8c 	andgt	r0, r0, #140, 22	; 0x23000
     990:	c2000be8 	andgt	r0, r0, #232, 22	; 0x3a000
     994:	047b0002 	ldrbteq	r0, [fp], #-2
     998:	c2000be8 	andgt	r0, r0, #232, 22	; 0x3a000
     99c:	c2000bec 	andgt	r0, r0, #236, 22	; 0x3b000
     9a0:	047d0002 	ldrbteq	r0, [sp], #-2
     9a4:	c2000bec 	andgt	r0, r0, #236, 22	; 0x3b000
     9a8:	c2000bf0 	andgt	r0, r0, #240, 22	; 0x3c000
     9ac:	007d0002 	rsbseq	r0, sp, r2
	...
     9c0:	007d0002 	rsbseq	r0, sp, r2
	...
     9cc:	087d0002 	ldmdaeq	sp!, {r1}^
	...
     9d8:	047b0002 	ldrbteq	r0, [fp], #-2
	...
     9e4:	087d0002 	ldmdaeq	sp!, {r1}^
	...
     9f0:	c2000b40 	andgt	r0, r0, #64, 22	; 0x10000
     9f4:	c2000b44 	andgt	r0, r0, #68, 22	; 0x11000
     9f8:	007d0002 	rsbseq	r0, sp, r2
     9fc:	c2000b44 	andgt	r0, r0, #68, 22	; 0x11000
     a00:	c2000b48 	andgt	r0, r0, #72, 22	; 0x12000
     a04:	087d0002 	ldmdaeq	sp!, {r1}^
     a08:	c2000b48 	andgt	r0, r0, #72, 22	; 0x12000
     a0c:	c2000b80 	andgt	r0, r0, #128, 22	; 0x20000
     a10:	047b0002 	ldrbteq	r0, [fp], #-2
     a14:	c2000b80 	andgt	r0, r0, #128, 22	; 0x20000
     a18:	c2000b84 	andgt	r0, r0, #132, 22	; 0x21000
     a1c:	087d0002 	ldmdaeq	sp!, {r1}^
	...
     a28:	c2000b10 	andgt	r0, r0, #16, 22	; 0x4000
     a2c:	c2000b14 	andgt	r0, r0, #20, 22	; 0x5000
     a30:	007d0002 	rsbseq	r0, sp, r2
     a34:	c2000b14 	andgt	r0, r0, #20, 22	; 0x5000
     a38:	c2000b18 	andgt	r0, r0, #24, 22	; 0x6000
     a3c:	047d0002 	ldrbteq	r0, [sp], #-2
     a40:	c2000b18 	andgt	r0, r0, #24, 22	; 0x6000
     a44:	c2000b38 	andgt	r0, r0, #56, 22	; 0xe000
     a48:	047b0002 	ldrbteq	r0, [fp], #-2
     a4c:	c2000b38 	andgt	r0, r0, #56, 22	; 0xe000
     a50:	c2000b3c 	andgt	r0, r0, #60, 22	; 0xf000
     a54:	047d0002 	ldrbteq	r0, [sp], #-2
     a58:	c2000b3c 	andgt	r0, r0, #60, 22	; 0xf000
     a5c:	c2000b40 	andgt	r0, r0, #64, 22	; 0x10000
     a60:	007d0002 	rsbseq	r0, sp, r2
	...
     a74:	007d0002 	rsbseq	r0, sp, r2
	...
     a80:	047d0002 	ldrbteq	r0, [sp], #-2
	...
     a8c:	047b0002 	ldrbteq	r0, [fp], #-2
	...
     a98:	047d0002 	ldrbteq	r0, [sp], #-2
	...
     aa4:	007d0002 	rsbseq	r0, sp, r2
	...
     ab8:	007d0002 	rsbseq	r0, sp, r2
	...
     ac4:	087d0002 	ldmdaeq	sp!, {r1}^
	...
     ad0:	047b0002 	ldrbteq	r0, [fp], #-2
	...
     adc:	087d0002 	ldmdaeq	sp!, {r1}^
	...
     af0:	007d0002 	rsbseq	r0, sp, r2
	...
     afc:	047d0002 	ldrbteq	r0, [sp], #-2
	...
     b08:	047b0002 	ldrbteq	r0, [fp], #-2
	...
     b14:	047d0002 	ldrbteq	r0, [sp], #-2
	...
     b20:	007d0002 	rsbseq	r0, sp, r2
	...
     b2c:	c2003048 	andgt	r3, r0, #72	; 0x48
     b30:	c200304c 	andgt	r3, r0, #76	; 0x4c
     b34:	007d0002 	rsbseq	r0, sp, r2
     b38:	c200304c 	andgt	r3, r0, #76	; 0x4c
     b3c:	c2003050 	andgt	r3, r0, #80	; 0x50
     b40:	047d0002 	ldrbteq	r0, [sp], #-2
     b44:	c2003050 	andgt	r3, r0, #80	; 0x50
     b48:	c2003064 	andgt	r3, r0, #100	; 0x64
     b4c:	047b0002 	ldrbteq	r0, [fp], #-2
     b50:	c2003064 	andgt	r3, r0, #100	; 0x64
     b54:	c2003068 	andgt	r3, r0, #104	; 0x68
     b58:	047d0002 	ldrbteq	r0, [sp], #-2
     b5c:	c2003068 	andgt	r3, r0, #104	; 0x68
     b60:	c200306c 	andgt	r3, r0, #108	; 0x6c
     b64:	007d0002 	rsbseq	r0, sp, r2
	...
     b70:	c200306c 	andgt	r3, r0, #108	; 0x6c
     b74:	c2003070 	andgt	r3, r0, #112	; 0x70
     b78:	007d0002 	rsbseq	r0, sp, r2
     b7c:	c2003070 	andgt	r3, r0, #112	; 0x70
     b80:	c2003074 	andgt	r3, r0, #116	; 0x74
     b84:	087d0002 	ldmdaeq	sp!, {r1}^
     b88:	c2003074 	andgt	r3, r0, #116	; 0x74
     b8c:	c20030ec 	andgt	r3, r0, #236	; 0xec
     b90:	047b0002 	ldrbteq	r0, [fp], #-2
	...
     ba4:	007d0002 	rsbseq	r0, sp, r2
	...
     bb0:	087d0002 	ldmdaeq	sp!, {r1}^
	...
     bbc:	047b0002 	ldrbteq	r0, [fp], #-2
	...
     bc8:	087d0002 	ldmdaeq	sp!, {r1}^
	...
     bd4:	c20031d4 	andgt	r3, r0, #212, 2	; 0x35
     bd8:	c20031d8 	andgt	r3, r0, #216, 2	; 0x36
     bdc:	007d0002 	rsbseq	r0, sp, r2
     be0:	c20031d8 	andgt	r3, r0, #216, 2	; 0x36
     be4:	c20031dc 	andgt	r3, r0, #220, 2	; 0x37
     be8:	087d0002 	ldmdaeq	sp!, {r1}^
     bec:	c20031dc 	andgt	r3, r0, #220, 2	; 0x37
     bf0:	c2003260 	andgt	r3, r0, #96, 4
     bf4:	047b0002 	ldrbteq	r0, [fp], #-2
     bf8:	c2003260 	andgt	r3, r0, #96, 4
     bfc:	c2003264 	andgt	r3, r0, #100, 4	; 0x40000006
     c00:	087d0002 	ldmdaeq	sp!, {r1}^
	...
     c0c:	c2003160 	andgt	r3, r0, #96, 2
     c10:	c2003164 	andgt	r3, r0, #100, 2
     c14:	007d0002 	rsbseq	r0, sp, r2
     c18:	c2003164 	andgt	r3, r0, #100, 2
     c1c:	c2003168 	andgt	r3, r0, #104, 2
     c20:	087d0002 	ldmdaeq	sp!, {r1}^
     c24:	c2003168 	andgt	r3, r0, #104, 2
     c28:	c20031d0 	andgt	r3, r0, #208, 2	; 0x34
     c2c:	047b0002 	ldrbteq	r0, [fp], #-2
     c30:	c20031d0 	andgt	r3, r0, #208, 2	; 0x34
     c34:	c20031d4 	andgt	r3, r0, #212, 2	; 0x35
     c38:	087d0002 	ldmdaeq	sp!, {r1}^
	...
     c44:	c200310c 	andgt	r3, r0, #12, 2
     c48:	c2003110 	andgt	r3, r0, #16, 2
     c4c:	007d0002 	rsbseq	r0, sp, r2
     c50:	c2003110 	andgt	r3, r0, #16, 2
     c54:	c2003114 	andgt	r3, r0, #20, 2
     c58:	087d0002 	ldmdaeq	sp!, {r1}^
     c5c:	c2003114 	andgt	r3, r0, #20, 2
     c60:	c200315c 	andgt	r3, r0, #92, 2
     c64:	047b0002 	ldrbteq	r0, [fp], #-2
     c68:	c200315c 	andgt	r3, r0, #92, 2
     c6c:	c2003160 	andgt	r3, r0, #96, 2
     c70:	087d0002 	ldmdaeq	sp!, {r1}^
	...
     c7c:	c20030ec 	andgt	r3, r0, #236	; 0xec
     c80:	c20030f0 	andgt	r3, r0, #240	; 0xf0
     c84:	007d0002 	rsbseq	r0, sp, r2
     c88:	c20030f0 	andgt	r3, r0, #240	; 0xf0
     c8c:	c20030f4 	andgt	r3, r0, #244	; 0xf4
     c90:	047d0002 	ldrbteq	r0, [sp], #-2
     c94:	c20030f4 	andgt	r3, r0, #244	; 0xf4
     c98:	c2003104 	andgt	r3, r0, #4, 2
     c9c:	047b0002 	ldrbteq	r0, [fp], #-2
     ca0:	c2003104 	andgt	r3, r0, #4, 2
     ca4:	c2003108 	andgt	r3, r0, #8, 2
     ca8:	047d0002 	ldrbteq	r0, [sp], #-2
     cac:	c2003108 	andgt	r3, r0, #8, 2
     cb0:	c200310c 	andgt	r3, r0, #12, 2
     cb4:	007d0002 	rsbseq	r0, sp, r2
	...
     cc0:	c20035b8 	andgt	r3, r0, #184, 10	; 0x2e000000
     cc4:	c20035bc 	andgt	r3, r0, #188, 10	; 0x2f000000
     cc8:	007d0002 	rsbseq	r0, sp, r2
     ccc:	c20035bc 	andgt	r3, r0, #188, 10	; 0x2f000000
     cd0:	c20035c0 	andgt	r3, r0, #192, 10	; 0x30000000
     cd4:	087d0002 	ldmdaeq	sp!, {r1}^
     cd8:	c20035c0 	andgt	r3, r0, #192, 10	; 0x30000000
     cdc:	c20035e8 	andgt	r3, r0, #232, 10	; 0x3a000000
     ce0:	047b0002 	ldrbteq	r0, [fp], #-2
	...
     cec:	c2003534 	andgt	r3, r0, #52, 10	; 0xd000000
     cf0:	c2003538 	andgt	r3, r0, #56, 10	; 0xe000000
     cf4:	007d0002 	rsbseq	r0, sp, r2
     cf8:	c2003538 	andgt	r3, r0, #56, 10	; 0xe000000
     cfc:	c200353c 	andgt	r3, r0, #60, 10	; 0xf000000
     d00:	087d0002 	ldmdaeq	sp!, {r1}^
     d04:	c200353c 	andgt	r3, r0, #60, 10	; 0xf000000
     d08:	c20035b4 	andgt	r3, r0, #180, 10	; 0x2d000000
     d0c:	047b0002 	ldrbteq	r0, [fp], #-2
     d10:	c20035b4 	andgt	r3, r0, #180, 10	; 0x2d000000
     d14:	c20035b8 	andgt	r3, r0, #184, 10	; 0x2e000000
     d18:	087d0002 	ldmdaeq	sp!, {r1}^
	...
     d24:	c2003520 	andgt	r3, r0, #32, 10	; 0x8000000
     d28:	c2003524 	andgt	r3, r0, #36, 10	; 0x9000000
     d2c:	007d0002 	rsbseq	r0, sp, r2
     d30:	c2003524 	andgt	r3, r0, #36, 10	; 0x9000000
     d34:	c2003528 	andgt	r3, r0, #40, 10	; 0xa000000
     d38:	087d0002 	ldmdaeq	sp!, {r1}^
     d3c:	c2003528 	andgt	r3, r0, #40, 10	; 0xa000000
     d40:	c2003534 	andgt	r3, r0, #52, 10	; 0xd000000
     d44:	047b0002 	ldrbteq	r0, [fp], #-2
	...
     d50:	c2003298 	andgt	r3, r0, #152, 4	; 0x80000009
     d54:	c200329c 	andgt	r3, r0, #156, 4	; 0xc0000009
     d58:	007d0002 	rsbseq	r0, sp, r2
     d5c:	c200329c 	andgt	r3, r0, #156, 4	; 0xc0000009
     d60:	c20032a0 	andgt	r3, r0, #160, 4
     d64:	087d0002 	ldmdaeq	sp!, {r1}^
     d68:	c20032a0 	andgt	r3, r0, #160, 4
     d6c:	c200351c 	andgt	r3, r0, #28, 10	; 0x7000000
     d70:	047b0002 	ldrbteq	r0, [fp], #-2
     d74:	c200351c 	andgt	r3, r0, #28, 10	; 0x7000000
     d78:	c2003520 	andgt	r3, r0, #32, 10	; 0x8000000
     d7c:	087d0002 	ldmdaeq	sp!, {r1}^
	...
     d88:	c2003264 	andgt	r3, r0, #100, 4	; 0x40000006
     d8c:	c2003268 	andgt	r3, r0, #104, 4	; 0x80000006
     d90:	007d0002 	rsbseq	r0, sp, r2
     d94:	c2003268 	andgt	r3, r0, #104, 4	; 0x80000006
     d98:	c200326c 	andgt	r3, r0, #108, 4	; 0xc0000006
     d9c:	087d0002 	ldmdaeq	sp!, {r1}^
     da0:	c200326c 	andgt	r3, r0, #108, 4	; 0xc0000006
     da4:	c2003294 	andgt	r3, r0, #148, 4	; 0x40000009
     da8:	047b0002 	ldrbteq	r0, [fp], #-2
     dac:	c2003294 	andgt	r3, r0, #148, 4	; 0x40000009
     db0:	c2003298 	andgt	r3, r0, #152, 4	; 0x80000009
     db4:	087d0002 	ldmdaeq	sp!, {r1}^
	...
     dc0:	c2003700 	andgt	r3, r0, #0, 14
     dc4:	c2003704 	andgt	r3, r0, #4, 14	; 0x100000
     dc8:	007d0002 	rsbseq	r0, sp, r2
     dcc:	c2003704 	andgt	r3, r0, #4, 14	; 0x100000
     dd0:	c2003708 	andgt	r3, r0, #8, 14	; 0x200000
     dd4:	087d0002 	ldmdaeq	sp!, {r1}^
     dd8:	c2003708 	andgt	r3, r0, #8, 14	; 0x200000
     ddc:	c2003888 	andgt	r3, r0, #136, 16	; 0x880000
     de0:	047b0002 	ldrbteq	r0, [fp], #-2
     de4:	c2003888 	andgt	r3, r0, #136, 16	; 0x880000
     de8:	c200388c 	andgt	r3, r0, #140, 16	; 0x8c0000
     dec:	087d0002 	ldmdaeq	sp!, {r1}^
	...
     df8:	c20036e0 	andgt	r3, r0, #224, 12	; 0xe000000
     dfc:	c20036e4 	andgt	r3, r0, #228, 12	; 0xe400000
     e00:	007d0002 	rsbseq	r0, sp, r2
     e04:	c20036e4 	andgt	r3, r0, #228, 12	; 0xe400000
     e08:	c20036e8 	andgt	r3, r0, #232, 12	; 0xe800000
     e0c:	087d0002 	ldmdaeq	sp!, {r1}^
     e10:	c20036e8 	andgt	r3, r0, #232, 12	; 0xe800000
     e14:	c2003700 	andgt	r3, r0, #0, 14
     e18:	047b0002 	ldrbteq	r0, [fp], #-2
	...
     e24:	c20036c0 	andgt	r3, r0, #192, 12	; 0xc000000
     e28:	c20036c4 	andgt	r3, r0, #196, 12	; 0xc400000
     e2c:	007d0002 	rsbseq	r0, sp, r2
     e30:	c20036c4 	andgt	r3, r0, #196, 12	; 0xc400000
     e34:	c20036c8 	andgt	r3, r0, #200, 12	; 0xc800000
     e38:	087d0002 	ldmdaeq	sp!, {r1}^
     e3c:	c20036c8 	andgt	r3, r0, #200, 12	; 0xc800000
     e40:	c20036e0 	andgt	r3, r0, #224, 12	; 0xe000000
     e44:	047b0002 	ldrbteq	r0, [fp], #-2
	...
     e50:	c20036a0 	andgt	r3, r0, #160, 12	; 0xa000000
     e54:	c20036a4 	andgt	r3, r0, #164, 12	; 0xa400000
     e58:	007d0002 	rsbseq	r0, sp, r2
     e5c:	c20036a4 	andgt	r3, r0, #164, 12	; 0xa400000
     e60:	c20036a8 	andgt	r3, r0, #168, 12	; 0xa800000
     e64:	087d0002 	ldmdaeq	sp!, {r1}^
     e68:	c20036a8 	andgt	r3, r0, #168, 12	; 0xa800000
     e6c:	c20036c0 	andgt	r3, r0, #192, 12	; 0xc000000
     e70:	047b0002 	ldrbteq	r0, [fp], #-2
	...
     e7c:	c2003680 	andgt	r3, r0, #128, 12	; 0x8000000
     e80:	c2003684 	andgt	r3, r0, #132, 12	; 0x8400000
     e84:	007d0002 	rsbseq	r0, sp, r2
     e88:	c2003684 	andgt	r3, r0, #132, 12	; 0x8400000
     e8c:	c2003688 	andgt	r3, r0, #136, 12	; 0x8800000
     e90:	087d0002 	ldmdaeq	sp!, {r1}^
     e94:	c2003688 	andgt	r3, r0, #136, 12	; 0x8800000
     e98:	c20036a0 	andgt	r3, r0, #160, 12	; 0xa000000
     e9c:	047b0002 	ldrbteq	r0, [fp], #-2
	...
     ea8:	c2003660 	andgt	r3, r0, #96, 12	; 0x6000000
     eac:	c2003664 	andgt	r3, r0, #100, 12	; 0x6400000
     eb0:	007d0002 	rsbseq	r0, sp, r2
     eb4:	c2003664 	andgt	r3, r0, #100, 12	; 0x6400000
     eb8:	c2003668 	andgt	r3, r0, #104, 12	; 0x6800000
     ebc:	087d0002 	ldmdaeq	sp!, {r1}^
     ec0:	c2003668 	andgt	r3, r0, #104, 12	; 0x6800000
     ec4:	c2003680 	andgt	r3, r0, #128, 12	; 0x8000000
     ec8:	047b0002 	ldrbteq	r0, [fp], #-2
	...
     ed4:	c2003640 	andgt	r3, r0, #64, 12	; 0x4000000
     ed8:	c2003644 	andgt	r3, r0, #68, 12	; 0x4400000
     edc:	007d0002 	rsbseq	r0, sp, r2
     ee0:	c2003644 	andgt	r3, r0, #68, 12	; 0x4400000
     ee4:	c2003648 	andgt	r3, r0, #72, 12	; 0x4800000
     ee8:	087d0002 	ldmdaeq	sp!, {r1}^
     eec:	c2003648 	andgt	r3, r0, #72, 12	; 0x4800000
     ef0:	c2003660 	andgt	r3, r0, #96, 12	; 0x6000000
     ef4:	047b0002 	ldrbteq	r0, [fp], #-2
	...
     f00:	c2003618 	andgt	r3, r0, #24, 12	; 0x1800000
     f04:	c200361c 	andgt	r3, r0, #28, 12	; 0x1c00000
     f08:	007d0002 	rsbseq	r0, sp, r2
     f0c:	c200361c 	andgt	r3, r0, #28, 12	; 0x1c00000
     f10:	c2003620 	andgt	r3, r0, #32, 12	; 0x2000000
     f14:	087d0002 	ldmdaeq	sp!, {r1}^
     f18:	c2003620 	andgt	r3, r0, #32, 12	; 0x2000000
     f1c:	c200363c 	andgt	r3, r0, #60, 12	; 0x3c00000
     f20:	047b0002 	ldrbteq	r0, [fp], #-2
     f24:	c200363c 	andgt	r3, r0, #60, 12	; 0x3c00000
     f28:	c2003640 	andgt	r3, r0, #64, 12	; 0x4000000
     f2c:	087d0002 	ldmdaeq	sp!, {r1}^
	...
     f38:	c20035e8 	andgt	r3, r0, #232, 10	; 0x3a000000
     f3c:	c20035ec 	andgt	r3, r0, #236, 10	; 0x3b000000
     f40:	007d0002 	rsbseq	r0, sp, r2
     f44:	c20035ec 	andgt	r3, r0, #236, 10	; 0x3b000000
     f48:	c20035f0 	andgt	r3, r0, #240, 10	; 0x3c000000
     f4c:	087d0002 	ldmdaeq	sp!, {r1}^
     f50:	c20035f0 	andgt	r3, r0, #240, 10	; 0x3c000000
     f54:	c2003614 	andgt	r3, r0, #20, 12	; 0x1400000
     f58:	047b0002 	ldrbteq	r0, [fp], #-2
     f5c:	c2003614 	andgt	r3, r0, #20, 12	; 0x1400000
     f60:	c2003618 	andgt	r3, r0, #24, 12	; 0x1800000
     f64:	087d0002 	ldmdaeq	sp!, {r1}^
	...
     f78:	007d0002 	rsbseq	r0, sp, r2
	...
     f84:	087d0002 	ldmdaeq	sp!, {r1}^
	...
     f90:	047b0002 	ldrbteq	r0, [fp], #-2
	...
     f9c:	087d0002 	ldmdaeq	sp!, {r1}^
	...
     fb0:	007d0002 	rsbseq	r0, sp, r2
	...
     fbc:	047d0002 	ldrbteq	r0, [sp], #-2
	...
     fc8:	047b0002 	ldrbteq	r0, [fp], #-2
	...
     fd4:	047d0002 	ldrbteq	r0, [sp], #-2
	...
     fe0:	007d0002 	rsbseq	r0, sp, r2
	...
     fec:	c20039e8 	andgt	r3, r0, #232, 18	; 0x3a0000
     ff0:	c20039ec 	andgt	r3, r0, #236, 18	; 0x3b0000
     ff4:	007d0002 	rsbseq	r0, sp, r2
     ff8:	c20039ec 	andgt	r3, r0, #236, 18	; 0x3b0000
     ffc:	c20039f0 	andgt	r3, r0, #240, 18	; 0x3c0000
    1000:	047d0002 	ldrbteq	r0, [sp], #-2
    1004:	c20039f0 	andgt	r3, r0, #240, 18	; 0x3c0000
    1008:	c2003a60 	andgt	r3, r0, #96, 20	; 0x60000
    100c:	047b0002 	ldrbteq	r0, [fp], #-2
    1010:	c2003a60 	andgt	r3, r0, #96, 20	; 0x60000
    1014:	c2003a64 	andgt	r3, r0, #100, 20	; 0x64000
    1018:	047d0002 	ldrbteq	r0, [sp], #-2
    101c:	c2003a64 	andgt	r3, r0, #100, 20	; 0x64000
    1020:	c2003a68 	andgt	r3, r0, #104, 20	; 0x68000
    1024:	007d0002 	rsbseq	r0, sp, r2
	...
    1038:	007d0002 	rsbseq	r0, sp, r2
	...
    1044:	047d0002 	ldrbteq	r0, [sp], #-2
	...
    1050:	047b0002 	ldrbteq	r0, [fp], #-2
	...
    105c:	047d0002 	ldrbteq	r0, [sp], #-2
	...
    1068:	007d0002 	rsbseq	r0, sp, r2
	...
    1074:	c2003968 	andgt	r3, r0, #104, 18	; 0x1a0000
    1078:	c200396c 	andgt	r3, r0, #108, 18	; 0x1b0000
    107c:	007d0002 	rsbseq	r0, sp, r2
    1080:	c200396c 	andgt	r3, r0, #108, 18	; 0x1b0000
    1084:	c2003970 	andgt	r3, r0, #112, 18	; 0x1c0000
    1088:	047d0002 	ldrbteq	r0, [sp], #-2
    108c:	c2003970 	andgt	r3, r0, #112, 18	; 0x1c0000
    1090:	c20039e0 	andgt	r3, r0, #224, 18	; 0x380000
    1094:	047b0002 	ldrbteq	r0, [fp], #-2
    1098:	c20039e0 	andgt	r3, r0, #224, 18	; 0x380000
    109c:	c20039e4 	andgt	r3, r0, #228, 18	; 0x390000
    10a0:	047d0002 	ldrbteq	r0, [sp], #-2
    10a4:	c20039e4 	andgt	r3, r0, #228, 18	; 0x390000
    10a8:	c20039e8 	andgt	r3, r0, #232, 18	; 0x3a0000
    10ac:	007d0002 	rsbseq	r0, sp, r2
	...
    10b8:	c200390c 	andgt	r3, r0, #12, 18	; 0x30000
    10bc:	c2003910 	andgt	r3, r0, #16, 18	; 0x40000
    10c0:	007d0002 	rsbseq	r0, sp, r2
    10c4:	c2003910 	andgt	r3, r0, #16, 18	; 0x40000
    10c8:	c2003914 	andgt	r3, r0, #20, 18	; 0x50000
    10cc:	047d0002 	ldrbteq	r0, [sp], #-2
    10d0:	c2003914 	andgt	r3, r0, #20, 18	; 0x50000
    10d4:	c2003960 	andgt	r3, r0, #96, 18	; 0x180000
    10d8:	047b0002 	ldrbteq	r0, [fp], #-2
    10dc:	c2003960 	andgt	r3, r0, #96, 18	; 0x180000
    10e0:	c2003964 	andgt	r3, r0, #100, 18	; 0x190000
    10e4:	047d0002 	ldrbteq	r0, [sp], #-2
    10e8:	c2003964 	andgt	r3, r0, #100, 18	; 0x190000
    10ec:	c2003968 	andgt	r3, r0, #104, 18	; 0x1a0000
    10f0:	007d0002 	rsbseq	r0, sp, r2
	...
    10fc:	c200388c 	andgt	r3, r0, #140, 16	; 0x8c0000
    1100:	c2003890 	andgt	r3, r0, #144, 16	; 0x900000
    1104:	007d0002 	rsbseq	r0, sp, r2
    1108:	c2003890 	andgt	r3, r0, #144, 16	; 0x900000
    110c:	c2003894 	andgt	r3, r0, #148, 16	; 0x940000
    1110:	047d0002 	ldrbteq	r0, [sp], #-2
    1114:	c2003894 	andgt	r3, r0, #148, 16	; 0x940000
    1118:	c2003904 	andgt	r3, r0, #4, 18	; 0x10000
    111c:	047b0002 	ldrbteq	r0, [fp], #-2
    1120:	c2003904 	andgt	r3, r0, #4, 18	; 0x10000
    1124:	c2003908 	andgt	r3, r0, #8, 18	; 0x20000
    1128:	047d0002 	ldrbteq	r0, [sp], #-2
    112c:	c2003908 	andgt	r3, r0, #8, 18	; 0x20000
    1130:	c200390c 	andgt	r3, r0, #12, 18	; 0x30000
    1134:	007d0002 	rsbseq	r0, sp, r2
	...
    1140:	c2004224 	andgt	r4, r0, #36, 4	; 0x40000002
    1144:	c2004228 	andgt	r4, r0, #40, 4	; 0x80000002
    1148:	007d0002 	rsbseq	r0, sp, r2
    114c:	c2004228 	andgt	r4, r0, #40, 4	; 0x80000002
    1150:	c200422c 	andgt	r4, r0, #44, 4	; 0xc0000002
    1154:	047d0002 	ldrbteq	r0, [sp], #-2
    1158:	c200422c 	andgt	r4, r0, #44, 4	; 0xc0000002
    115c:	c2004280 	andgt	r4, r0, #128, 4
    1160:	047b0002 	ldrbteq	r0, [fp], #-2
    1164:	c2004280 	andgt	r4, r0, #128, 4
    1168:	c2004284 	andgt	r4, r0, #132, 4	; 0x40000008
    116c:	047d0002 	ldrbteq	r0, [sp], #-2
    1170:	c2004284 	andgt	r4, r0, #132, 4	; 0x40000008
    1174:	c2004288 	andgt	r4, r0, #136, 4	; 0x80000008
    1178:	007d0002 	rsbseq	r0, sp, r2
	...
    1184:	c20041d4 	andgt	r4, r0, #212, 2	; 0x35
    1188:	c20041d8 	andgt	r4, r0, #216, 2	; 0x36
    118c:	007d0002 	rsbseq	r0, sp, r2
    1190:	c20041d8 	andgt	r4, r0, #216, 2	; 0x36
    1194:	c20041dc 	andgt	r4, r0, #220, 2	; 0x37
    1198:	087d0002 	ldmdaeq	sp!, {r1}^
    119c:	c20041dc 	andgt	r4, r0, #220, 2	; 0x37
    11a0:	c2004220 	andgt	r4, r0, #32, 4
    11a4:	047b0002 	ldrbteq	r0, [fp], #-2
    11a8:	c2004220 	andgt	r4, r0, #32, 4
    11ac:	c2004224 	andgt	r4, r0, #36, 4	; 0x40000002
    11b0:	087d0002 	ldmdaeq	sp!, {r1}^
	...
    11bc:	c2003ee0 	andgt	r3, r0, #224, 28	; 0xe00
    11c0:	c2003ee4 	andgt	r3, r0, #228, 28	; 0xe40
    11c4:	007d0002 	rsbseq	r0, sp, r2
    11c8:	c2003ee4 	andgt	r3, r0, #228, 28	; 0xe40
    11cc:	c2003ee8 	andgt	r3, r0, #232, 28	; 0xe80
    11d0:	087d0002 	ldmdaeq	sp!, {r1}^
    11d4:	c2003ee8 	andgt	r3, r0, #232, 28	; 0xe80
    11d8:	c20041d0 	andgt	r4, r0, #208, 2	; 0x34
    11dc:	047b0002 	ldrbteq	r0, [fp], #-2
    11e0:	c20041d0 	andgt	r4, r0, #208, 2	; 0x34
    11e4:	c20041d4 	andgt	r4, r0, #212, 2	; 0x35
    11e8:	087d0002 	ldmdaeq	sp!, {r1}^
	...
    11f4:	c2003c5c 	andgt	r3, r0, #92, 24	; 0x5c00
    11f8:	c2003c60 	andgt	r3, r0, #96, 24	; 0x6000
    11fc:	007d0002 	rsbseq	r0, sp, r2
    1200:	c2003c60 	andgt	r3, r0, #96, 24	; 0x6000
    1204:	c2003c64 	andgt	r3, r0, #100, 24	; 0x6400
    1208:	047d0002 	ldrbteq	r0, [sp], #-2
    120c:	c2003c64 	andgt	r3, r0, #100, 24	; 0x6400
    1210:	c2003ed8 	andgt	r3, r0, #216, 28	; 0xd80
    1214:	047b0002 	ldrbteq	r0, [fp], #-2
    1218:	c2003ed8 	andgt	r3, r0, #216, 28	; 0xd80
    121c:	c2003edc 	andgt	r3, r0, #220, 28	; 0xdc0
    1220:	047d0002 	ldrbteq	r0, [sp], #-2
    1224:	c2003edc 	andgt	r3, r0, #220, 28	; 0xdc0
    1228:	c2003ee0 	andgt	r3, r0, #224, 28	; 0xe00
    122c:	007d0002 	rsbseq	r0, sp, r2
	...
    1238:	c2003bd4 	andgt	r3, r0, #212, 22	; 0x35000
    123c:	c2003bd8 	andgt	r3, r0, #216, 22	; 0x36000
    1240:	007d0002 	rsbseq	r0, sp, r2
    1244:	c2003bd8 	andgt	r3, r0, #216, 22	; 0x36000
    1248:	c2003bdc 	andgt	r3, r0, #220, 22	; 0x37000
    124c:	047d0002 	ldrbteq	r0, [sp], #-2
    1250:	c2003bdc 	andgt	r3, r0, #220, 22	; 0x37000
    1254:	c2003c54 	andgt	r3, r0, #84, 24	; 0x5400
    1258:	047b0002 	ldrbteq	r0, [fp], #-2
    125c:	c2003c54 	andgt	r3, r0, #84, 24	; 0x5400
    1260:	c2003c58 	andgt	r3, r0, #88, 24	; 0x5800
    1264:	047d0002 	ldrbteq	r0, [sp], #-2
    1268:	c2003c58 	andgt	r3, r0, #88, 24	; 0x5800
    126c:	c2003c5c 	andgt	r3, r0, #92, 24	; 0x5c00
    1270:	007d0002 	rsbseq	r0, sp, r2
	...
    127c:	c2003ad8 	andgt	r3, r0, #216, 20	; 0xd8000
    1280:	c2003adc 	andgt	r3, r0, #220, 20	; 0xdc000
    1284:	007d0002 	rsbseq	r0, sp, r2
    1288:	c2003adc 	andgt	r3, r0, #220, 20	; 0xdc000
    128c:	c2003ae0 	andgt	r3, r0, #224, 20	; 0xe0000
    1290:	047d0002 	ldrbteq	r0, [sp], #-2
    1294:	c2003ae0 	andgt	r3, r0, #224, 20	; 0xe0000
    1298:	c2003bcc 	andgt	r3, r0, #204, 22	; 0x33000
    129c:	047b0002 	ldrbteq	r0, [fp], #-2
    12a0:	c2003bcc 	andgt	r3, r0, #204, 22	; 0x33000
    12a4:	c2003bd0 	andgt	r3, r0, #208, 22	; 0x34000
    12a8:	047d0002 	ldrbteq	r0, [sp], #-2
    12ac:	c2003bd0 	andgt	r3, r0, #208, 22	; 0x34000
    12b0:	c2003bd4 	andgt	r3, r0, #212, 22	; 0x35000
    12b4:	007d0002 	rsbseq	r0, sp, r2
	...
    12c8:	007d0002 	rsbseq	r0, sp, r2
	...
    12d4:	087d0002 	ldmdaeq	sp!, {r1}^
	...
    12e0:	047b0002 	ldrbteq	r0, [fp], #-2
	...
    12ec:	087d0002 	ldmdaeq	sp!, {r1}^
	...
    12f8:	c2004600 	andgt	r4, r0, #0, 12
    12fc:	c2004604 	andgt	r4, r0, #4, 12	; 0x400000
    1300:	007d0002 	rsbseq	r0, sp, r2
    1304:	c2004604 	andgt	r4, r0, #4, 12	; 0x400000
    1308:	c2004608 	andgt	r4, r0, #8, 12	; 0x800000
    130c:	087d0002 	ldmdaeq	sp!, {r1}^
    1310:	c2004608 	andgt	r4, r0, #8, 12	; 0x800000
    1314:	c2004638 	andgt	r4, r0, #56, 12	; 0x3800000
    1318:	047b0002 	ldrbteq	r0, [fp], #-2
    131c:	c2004638 	andgt	r4, r0, #56, 12	; 0x3800000
    1320:	c200463c 	andgt	r4, r0, #60, 12	; 0x3c00000
    1324:	087d0002 	ldmdaeq	sp!, {r1}^
	...
    1330:	c20045b8 	andgt	r4, r0, #184, 10	; 0x2e000000
    1334:	c20045bc 	andgt	r4, r0, #188, 10	; 0x2f000000
    1338:	007d0002 	rsbseq	r0, sp, r2
    133c:	c20045bc 	andgt	r4, r0, #188, 10	; 0x2f000000
    1340:	c20045c0 	andgt	r4, r0, #192, 10	; 0x30000000
    1344:	087d0002 	ldmdaeq	sp!, {r1}^
    1348:	c20045c0 	andgt	r4, r0, #192, 10	; 0x30000000
    134c:	c20045fc 	andgt	r4, r0, #252, 10	; 0x3f000000
    1350:	047b0002 	ldrbteq	r0, [fp], #-2
    1354:	c20045fc 	andgt	r4, r0, #252, 10	; 0x3f000000
    1358:	c2004600 	andgt	r4, r0, #0, 12
    135c:	087d0002 	ldmdaeq	sp!, {r1}^
	...
    1370:	007d0002 	rsbseq	r0, sp, r2
	...
    137c:	087d0002 	ldmdaeq	sp!, {r1}^
	...
    1388:	047b0002 	ldrbteq	r0, [fp], #-2
	...
    1394:	087d0002 	ldmdaeq	sp!, {r1}^
	...
    13a0:	c2004578 	andgt	r4, r0, #120, 10	; 0x1e000000
    13a4:	c200457c 	andgt	r4, r0, #124, 10	; 0x1f000000
    13a8:	007d0002 	rsbseq	r0, sp, r2
    13ac:	c200457c 	andgt	r4, r0, #124, 10	; 0x1f000000
    13b0:	c2004580 	andgt	r4, r0, #128, 10	; 0x20000000
    13b4:	087d0002 	ldmdaeq	sp!, {r1}^
    13b8:	c2004580 	andgt	r4, r0, #128, 10	; 0x20000000
    13bc:	c20045b4 	andgt	r4, r0, #180, 10	; 0x2d000000
    13c0:	047b0002 	ldrbteq	r0, [fp], #-2
    13c4:	c20045b4 	andgt	r4, r0, #180, 10	; 0x2d000000
    13c8:	c20045b8 	andgt	r4, r0, #184, 10	; 0x2e000000
    13cc:	087d0002 	ldmdaeq	sp!, {r1}^
	...
    13d8:	c2004538 	andgt	r4, r0, #56, 10	; 0xe000000
    13dc:	c200453c 	andgt	r4, r0, #60, 10	; 0xf000000
    13e0:	007d0002 	rsbseq	r0, sp, r2
    13e4:	c200453c 	andgt	r4, r0, #60, 10	; 0xf000000
    13e8:	c2004540 	andgt	r4, r0, #64, 10	; 0x10000000
    13ec:	087d0002 	ldmdaeq	sp!, {r1}^
    13f0:	c2004540 	andgt	r4, r0, #64, 10	; 0x10000000
    13f4:	c2004574 	andgt	r4, r0, #116, 10	; 0x1d000000
    13f8:	047b0002 	ldrbteq	r0, [fp], #-2
    13fc:	c2004574 	andgt	r4, r0, #116, 10	; 0x1d000000
    1400:	c2004578 	andgt	r4, r0, #120, 10	; 0x1e000000
    1404:	087d0002 	ldmdaeq	sp!, {r1}^
	...
    1418:	007d0002 	rsbseq	r0, sp, r2
	...
    1424:	087d0002 	ldmdaeq	sp!, {r1}^
	...
    1430:	047b0002 	ldrbteq	r0, [fp], #-2
	...
    143c:	087d0002 	ldmdaeq	sp!, {r1}^
	...
    1450:	007d0002 	rsbseq	r0, sp, r2
	...
    145c:	087d0002 	ldmdaeq	sp!, {r1}^
	...
    1468:	047b0002 	ldrbteq	r0, [fp], #-2
	...
    1474:	087d0002 	ldmdaeq	sp!, {r1}^
	...
    1480:	c2004448 	andgt	r4, r0, #72, 8	; 0x48000000
    1484:	c200444c 	andgt	r4, r0, #76, 8	; 0x4c000000
    1488:	007d0002 	rsbseq	r0, sp, r2
    148c:	c200444c 	andgt	r4, r0, #76, 8	; 0x4c000000
    1490:	c2004450 	andgt	r4, r0, #80, 8	; 0x50000000
    1494:	087d0002 	ldmdaeq	sp!, {r1}^
    1498:	c2004450 	andgt	r4, r0, #80, 8	; 0x50000000
    149c:	c2004534 	andgt	r4, r0, #52, 10	; 0xd000000
    14a0:	047b0002 	ldrbteq	r0, [fp], #-2
    14a4:	c2004534 	andgt	r4, r0, #52, 10	; 0xd000000
    14a8:	c2004538 	andgt	r4, r0, #56, 10	; 0xe000000
    14ac:	087d0002 	ldmdaeq	sp!, {r1}^
	...
    14c0:	007d0002 	rsbseq	r0, sp, r2
	...
    14cc:	087d0002 	ldmdaeq	sp!, {r1}^
	...
    14d8:	047b0002 	ldrbteq	r0, [fp], #-2
	...
    14e4:	087d0002 	ldmdaeq	sp!, {r1}^
	...
    14f0:	c2004408 	andgt	r4, r0, #8, 8	; 0x8000000
    14f4:	c200440c 	andgt	r4, r0, #12, 8	; 0xc000000
    14f8:	007d0002 	rsbseq	r0, sp, r2
    14fc:	c200440c 	andgt	r4, r0, #12, 8	; 0xc000000
    1500:	c2004410 	andgt	r4, r0, #16, 8	; 0x10000000
    1504:	087d0002 	ldmdaeq	sp!, {r1}^
    1508:	c2004410 	andgt	r4, r0, #16, 8	; 0x10000000
    150c:	c2004444 	andgt	r4, r0, #68, 8	; 0x44000000
    1510:	047b0002 	ldrbteq	r0, [fp], #-2
    1514:	c2004444 	andgt	r4, r0, #68, 8	; 0x44000000
    1518:	c2004448 	andgt	r4, r0, #72, 8	; 0x48000000
    151c:	087d0002 	ldmdaeq	sp!, {r1}^
	...
    1528:	c20043a4 	andgt	r4, r0, #164, 6	; 0x90000002
    152c:	c20043a8 	andgt	r4, r0, #168, 6	; 0xa0000002
    1530:	007d0002 	rsbseq	r0, sp, r2
    1534:	c20043a8 	andgt	r4, r0, #168, 6	; 0xa0000002
    1538:	c20043ac 	andgt	r4, r0, #172, 6	; 0xb0000002
    153c:	087d0002 	ldmdaeq	sp!, {r1}^
    1540:	c20043ac 	andgt	r4, r0, #172, 6	; 0xb0000002
    1544:	c2004404 	andgt	r4, r0, #4, 8	; 0x4000000
    1548:	047b0002 	ldrbteq	r0, [fp], #-2
    154c:	c2004404 	andgt	r4, r0, #4, 8	; 0x4000000
    1550:	c2004408 	andgt	r4, r0, #8, 8	; 0x8000000
    1554:	087d0002 	ldmdaeq	sp!, {r1}^
	...
    1560:	c2004328 	andgt	r4, r0, #40, 6	; 0xa0000000
    1564:	c200432c 	andgt	r4, r0, #44, 6	; 0xb0000000
    1568:	007d0002 	rsbseq	r0, sp, r2
    156c:	c200432c 	andgt	r4, r0, #44, 6	; 0xb0000000
    1570:	c2004330 	andgt	r4, r0, #48, 6	; 0xc0000000
    1574:	047d0002 	ldrbteq	r0, [sp], #-2
    1578:	c2004330 	andgt	r4, r0, #48, 6	; 0xc0000000
    157c:	c200439c 	andgt	r4, r0, #156, 6	; 0x70000002
    1580:	047b0002 	ldrbteq	r0, [fp], #-2
    1584:	c200439c 	andgt	r4, r0, #156, 6	; 0x70000002
    1588:	c20043a0 	andgt	r4, r0, #160, 6	; 0x80000002
    158c:	047d0002 	ldrbteq	r0, [sp], #-2
    1590:	c20043a0 	andgt	r4, r0, #160, 6	; 0x80000002
    1594:	c20043a4 	andgt	r4, r0, #164, 6	; 0x90000002
    1598:	007d0002 	rsbseq	r0, sp, r2
	...
    15a4:	c2004288 	andgt	r4, r0, #136, 4	; 0x80000008
    15a8:	c200428c 	andgt	r4, r0, #140, 4	; 0xc0000008
    15ac:	007d0002 	rsbseq	r0, sp, r2
    15b0:	c200428c 	andgt	r4, r0, #140, 4	; 0xc0000008
    15b4:	c2004290 	andgt	r4, r0, #144, 4
    15b8:	047d0002 	ldrbteq	r0, [sp], #-2
    15bc:	c2004290 	andgt	r4, r0, #144, 4
    15c0:	c2004320 	andgt	r4, r0, #32, 6	; 0x80000000
    15c4:	047b0002 	ldrbteq	r0, [fp], #-2
    15c8:	c2004320 	andgt	r4, r0, #32, 6	; 0x80000000
    15cc:	c2004324 	andgt	r4, r0, #36, 6	; 0x90000000
    15d0:	047d0002 	ldrbteq	r0, [sp], #-2
    15d4:	c2004324 	andgt	r4, r0, #36, 6	; 0x90000000
    15d8:	c2004328 	andgt	r4, r0, #40, 6	; 0xa0000000
    15dc:	007d0002 	rsbseq	r0, sp, r2
	...
    15f0:	007d0002 	rsbseq	r0, sp, r2
	...
    15fc:	047d0002 	ldrbteq	r0, [sp], #-2
	...
    1608:	047b0002 	ldrbteq	r0, [fp], #-2
	...
    1614:	047d0002 	ldrbteq	r0, [sp], #-2
	...
    1620:	007d0002 	rsbseq	r0, sp, r2
	...
    162c:	c200463c 	andgt	r4, r0, #60, 12	; 0x3c00000
    1630:	c2004640 	andgt	r4, r0, #64, 12	; 0x4000000
    1634:	007d0002 	rsbseq	r0, sp, r2
    1638:	c2004640 	andgt	r4, r0, #64, 12	; 0x4000000
    163c:	c2004644 	andgt	r4, r0, #68, 12	; 0x4400000
    1640:	047d0002 	ldrbteq	r0, [sp], #-2
    1644:	c2004644 	andgt	r4, r0, #68, 12	; 0x4400000
    1648:	c200466c 	andgt	r4, r0, #108, 12	; 0x6c00000
    164c:	047b0002 	ldrbteq	r0, [fp], #-2
    1650:	c200466c 	andgt	r4, r0, #108, 12	; 0x6c00000
    1654:	c2004670 	andgt	r4, r0, #112, 12	; 0x7000000
    1658:	047d0002 	ldrbteq	r0, [sp], #-2
    165c:	c2004670 	andgt	r4, r0, #112, 12	; 0x7000000
    1660:	c2004674 	andgt	r4, r0, #116, 12	; 0x7400000
    1664:	007d0002 	rsbseq	r0, sp, r2
	...
    1678:	007d0002 	rsbseq	r0, sp, r2
	...
    1684:	047d0002 	ldrbteq	r0, [sp], #-2
	...
    1690:	047b0002 	ldrbteq	r0, [fp], #-2
	...
    169c:	047d0002 	ldrbteq	r0, [sp], #-2
	...
    16a8:	007d0002 	rsbseq	r0, sp, r2
	...
    16bc:	007d0002 	rsbseq	r0, sp, r2
	...
    16c8:	047d0002 	ldrbteq	r0, [sp], #-2
	...
    16d4:	047b0002 	ldrbteq	r0, [fp], #-2
	...
    16e0:	047d0002 	ldrbteq	r0, [sp], #-2
	...
    16ec:	007d0002 	rsbseq	r0, sp, r2
	...
    16f8:	c2004a10 	andgt	r4, r0, #16, 20	; 0x10000
    16fc:	c2004a14 	andgt	r4, r0, #20, 20	; 0x14000
    1700:	007d0002 	rsbseq	r0, sp, r2
    1704:	c2004a14 	andgt	r4, r0, #20, 20	; 0x14000
    1708:	c2004a18 	andgt	r4, r0, #24, 20	; 0x18000
    170c:	207d0002 	rsbscs	r0, sp, r2
    1710:	c2004a18 	andgt	r4, r0, #24, 20	; 0x18000
    1714:	c2004bac 	andgt	r4, r0, #172, 22	; 0x2b000
    1718:	047b0002 	ldrbteq	r0, [fp], #-2
    171c:	c2004bac 	andgt	r4, r0, #172, 22	; 0x2b000
    1720:	c2004bb0 	andgt	r4, r0, #176, 22	; 0x2c000
    1724:	207d0002 	rsbscs	r0, sp, r2
	...
    1738:	007d0002 	rsbseq	r0, sp, r2
	...
    1744:	047d0002 	ldrbteq	r0, [sp], #-2
	...
    1750:	047b0002 	ldrbteq	r0, [fp], #-2
	...
    175c:	047d0002 	ldrbteq	r0, [sp], #-2
	...
    1768:	007d0002 	rsbseq	r0, sp, r2
	...
    1774:	c20048bc 	andgt	r4, r0, #188, 16	; 0xbc0000
    1778:	c20048c0 	andgt	r4, r0, #192, 16	; 0xc00000
    177c:	007d0002 	rsbseq	r0, sp, r2
    1780:	c20048c0 	andgt	r4, r0, #192, 16	; 0xc00000
    1784:	c20048c4 	andgt	r4, r0, #196, 16	; 0xc40000
    1788:	087d0002 	ldmdaeq	sp!, {r1}^
    178c:	c20048c4 	andgt	r4, r0, #196, 16	; 0xc40000
    1790:	c2004a0c 	andgt	r4, r0, #12, 20	; 0xc000
    1794:	047b0002 	ldrbteq	r0, [fp], #-2
    1798:	c2004a0c 	andgt	r4, r0, #12, 20	; 0xc000
    179c:	c2004a10 	andgt	r4, r0, #16, 20	; 0x10000
    17a0:	087d0002 	ldmdaeq	sp!, {r1}^
	...
    17b4:	007d0002 	rsbseq	r0, sp, r2
	...
    17c0:	047d0002 	ldrbteq	r0, [sp], #-2
	...
    17cc:	047b0002 	ldrbteq	r0, [fp], #-2
	...
    17d8:	047d0002 	ldrbteq	r0, [sp], #-2
	...
    17e4:	007d0002 	rsbseq	r0, sp, r2
	...
    17f8:	007d0002 	rsbseq	r0, sp, r2
	...
    1804:	047d0002 	ldrbteq	r0, [sp], #-2
	...
    1810:	047b0002 	ldrbteq	r0, [fp], #-2
	...
    181c:	047d0002 	ldrbteq	r0, [sp], #-2
	...
    1828:	007d0002 	rsbseq	r0, sp, r2
	...
    183c:	007d0002 	rsbseq	r0, sp, r2
	...
    1848:	087d0002 	ldmdaeq	sp!, {r1}^
	...
    1854:	047b0002 	ldrbteq	r0, [fp], #-2
	...
    1860:	087d0002 	ldmdaeq	sp!, {r1}^
	...
    186c:	c2004848 	andgt	r4, r0, #72, 16	; 0x480000
    1870:	c200484c 	andgt	r4, r0, #76, 16	; 0x4c0000
    1874:	007d0002 	rsbseq	r0, sp, r2
    1878:	c200484c 	andgt	r4, r0, #76, 16	; 0x4c0000
    187c:	c2004850 	andgt	r4, r0, #80, 16	; 0x500000
    1880:	087d0002 	ldmdaeq	sp!, {r1}^
    1884:	c2004850 	andgt	r4, r0, #80, 16	; 0x500000
    1888:	c20048b8 	andgt	r4, r0, #184, 16	; 0xb80000
    188c:	047b0002 	ldrbteq	r0, [fp], #-2
    1890:	c20048b8 	andgt	r4, r0, #184, 16	; 0xb80000
    1894:	c20048bc 	andgt	r4, r0, #188, 16	; 0xbc0000
    1898:	087d0002 	ldmdaeq	sp!, {r1}^
	...
    18ac:	007d0002 	rsbseq	r0, sp, r2
	...
    18b8:	087d0002 	ldmdaeq	sp!, {r1}^
	...
    18c4:	047b0002 	ldrbteq	r0, [fp], #-2
	...
    18d0:	087d0002 	ldmdaeq	sp!, {r1}^
	...
    18dc:	c20046c8 	andgt	r4, r0, #200, 12	; 0xc800000
    18e0:	c20046cc 	andgt	r4, r0, #204, 12	; 0xcc00000
    18e4:	007d0002 	rsbseq	r0, sp, r2
    18e8:	c20046cc 	andgt	r4, r0, #204, 12	; 0xcc00000
    18ec:	c20046d0 	andgt	r4, r0, #208, 12	; 0xd000000
    18f0:	0c7d0002 	ldcleq	0, cr0, [sp], #-8
    18f4:	c20046d0 	andgt	r4, r0, #208, 12	; 0xd000000
    18f8:	c2004844 	andgt	r4, r0, #68, 16	; 0x440000
    18fc:	047b0002 	ldrbteq	r0, [fp], #-2
    1900:	c2004844 	andgt	r4, r0, #68, 16	; 0x440000
    1904:	c2004848 	andgt	r4, r0, #72, 16	; 0x480000
    1908:	0c7d0002 	ldcleq	0, cr0, [sp], #-8
	...
    191c:	007d0002 	rsbseq	r0, sp, r2
	...
    1928:	087d0002 	ldmdaeq	sp!, {r1}^
	...
    1934:	047b0002 	ldrbteq	r0, [fp], #-2
	...
    1940:	087d0002 	ldmdaeq	sp!, {r1}^
	...
    194c:	c2004674 	andgt	r4, r0, #116, 12	; 0x7400000
    1950:	c2004678 	andgt	r4, r0, #120, 12	; 0x7800000
    1954:	007d0002 	rsbseq	r0, sp, r2
    1958:	c2004678 	andgt	r4, r0, #120, 12	; 0x7800000
    195c:	c200467c 	andgt	r4, r0, #124, 12	; 0x7c00000
    1960:	087d0002 	ldmdaeq	sp!, {r1}^
    1964:	c200467c 	andgt	r4, r0, #124, 12	; 0x7c00000
    1968:	c20046c4 	andgt	r4, r0, #196, 12	; 0xc400000
    196c:	047b0002 	ldrbteq	r0, [fp], #-2
    1970:	c20046c4 	andgt	r4, r0, #196, 12	; 0xc400000
    1974:	c20046c8 	andgt	r4, r0, #200, 12	; 0xc800000
    1978:	087d0002 	ldmdaeq	sp!, {r1}^
	...
    1984:	c2004c3c 	andgt	r4, r0, #60, 24	; 0x3c00
    1988:	c2004c40 	andgt	r4, r0, #64, 24	; 0x4000
    198c:	007d0002 	rsbseq	r0, sp, r2
    1990:	c2004c40 	andgt	r4, r0, #64, 24	; 0x4000
    1994:	c2004c44 	andgt	r4, r0, #68, 24	; 0x4400
    1998:	087d0002 	ldmdaeq	sp!, {r1}^
    199c:	c2004c44 	andgt	r4, r0, #68, 24	; 0x4400
    19a0:	c2004c98 	andgt	r4, r0, #152, 24	; 0x9800
    19a4:	047b0002 	ldrbteq	r0, [fp], #-2
    19a8:	c2004c98 	andgt	r4, r0, #152, 24	; 0x9800
    19ac:	c2004c9c 	andgt	r4, r0, #156, 24	; 0x9c00
    19b0:	087d0002 	ldmdaeq	sp!, {r1}^
	...
    19bc:	c2004c28 	andgt	r4, r0, #40, 24	; 0x2800
    19c0:	c2004c2c 	andgt	r4, r0, #44, 24	; 0x2c00
    19c4:	007d0002 	rsbseq	r0, sp, r2
    19c8:	c2004c2c 	andgt	r4, r0, #44, 24	; 0x2c00
    19cc:	c2004c30 	andgt	r4, r0, #48, 24	; 0x3000
    19d0:	087d0002 	ldmdaeq	sp!, {r1}^
    19d4:	c2004c30 	andgt	r4, r0, #48, 24	; 0x3000
    19d8:	c2004c3c 	andgt	r4, r0, #60, 24	; 0x3c00
    19dc:	047b0002 	ldrbteq	r0, [fp], #-2
	...
    19e8:	c2004bb0 	andgt	r4, r0, #176, 22	; 0x2c000
    19ec:	c2004bb4 	andgt	r4, r0, #180, 22	; 0x2d000
    19f0:	007d0002 	rsbseq	r0, sp, r2
    19f4:	c2004bb4 	andgt	r4, r0, #180, 22	; 0x2d000
    19f8:	c2004bb8 	andgt	r4, r0, #184, 22	; 0x2e000
    19fc:	107d0002 	rsbsne	r0, sp, r2
    1a00:	c2004bb8 	andgt	r4, r0, #184, 22	; 0x2e000
    1a04:	c2004c28 	andgt	r4, r0, #40, 24	; 0x2800
    1a08:	047b0002 	ldrbteq	r0, [fp], #-2
	...

Disassembly of section .debug_aranges:

00000000 <.debug_aranges>:
   0:	00000084 	andeq	r0, r0, r4, lsl #1
   4:	00000002 	andeq	r0, r0, r2
   8:	00040000 	andeq	r0, r4, r0
   c:	00000000 	andeq	r0, r0, r0
  10:	c200081c 	andgt	r0, r0, #28, 16	; 0x1c0000
  14:	0000003c 	andeq	r0, r0, ip, lsr r0
  18:	c2000858 	andgt	r0, r0, #88, 16	; 0x580000
  1c:	00000058 	andeq	r0, r0, r8, asr r0
  20:	c20008b0 	andgt	r0, r0, #176, 16	; 0xb00000
  24:	00000038 	andeq	r0, r0, r8, lsr r0
  28:	00000000 	andeq	r0, r0, r0
  2c:	00000038 	andeq	r0, r0, r8, lsr r0
  30:	c20008e8 	andgt	r0, r0, #232, 16	; 0xe80000
  34:	0000003c 	andeq	r0, r0, ip, lsr r0
  38:	00000000 	andeq	r0, r0, r0
  3c:	00000050 	andeq	r0, r0, r0, asr r0
  40:	00000000 	andeq	r0, r0, r0
  44:	00000064 	andeq	r0, r0, r4, rrx
  48:	00000000 	andeq	r0, r0, r0
  4c:	00000064 	andeq	r0, r0, r4, rrx
  50:	c2000924 	andgt	r0, r0, #36, 18	; 0x90000
  54:	00000048 	andeq	r0, r0, r8, asr #32
  58:	00000000 	andeq	r0, r0, r0
  5c:	00000048 	andeq	r0, r0, r8, asr #32
  60:	00000000 	andeq	r0, r0, r0
  64:	00000040 	andeq	r0, r0, r0, asr #32
  68:	00000000 	andeq	r0, r0, r0
  6c:	00000040 	andeq	r0, r0, r0, asr #32
  70:	c200096c 	andgt	r0, r0, #108, 18	; 0x1b0000
  74:	0000003c 	andeq	r0, r0, ip, lsr r0
  78:	c20009a8 	andgt	r0, r0, #168, 18	; 0x2a0000
  7c:	0000003c 	andeq	r0, r0, ip, lsr r0
	...
  88:	00000054 	andeq	r0, r0, r4, asr r0
  8c:	03d00002 	bicseq	r0, r0, #2
  90:	00040000 	andeq	r0, r4, r0
	...
  9c:	00000060 	andeq	r0, r0, r0, rrx
  a0:	00000000 	andeq	r0, r0, r0
  a4:	00000078 	andeq	r0, r0, r8, ror r0
  a8:	00000000 	andeq	r0, r0, r0
  ac:	00000070 	andeq	r0, r0, r0, ror r0
  b0:	c20009e4 	andgt	r0, r0, #228, 18	; 0x390000
  b4:	00000054 	andeq	r0, r0, r4, asr r0
  b8:	c2000a38 	andgt	r0, r0, #56, 20	; 0x38000
  bc:	00000064 	andeq	r0, r0, r4, rrx
  c0:	c2000a9c 	andgt	r0, r0, #156, 20	; 0x9c000
  c4:	00000074 	andeq	r0, r0, r4, ror r0
  c8:	00000000 	andeq	r0, r0, r0
  cc:	000000e8 	andeq	r0, r0, r8, ror #1
  d0:	00000000 	andeq	r0, r0, r0
  d4:	000000a8 	andeq	r0, r0, r8, lsr #1
	...
  e0:	000000b4 	strheq	r0, [r0], -r4
  e4:	07430002 	strbeq	r0, [r3, -r2]
  e8:	00040000 	andeq	r0, r4, r0
	...
  f4:	00000054 	andeq	r0, r0, r4, asr r0
  f8:	c2000b10 	andgt	r0, r0, #16, 22	; 0x4000
  fc:	00000030 	andeq	r0, r0, r0, lsr r0
 100:	c2000b40 	andgt	r0, r0, #64, 22	; 0x10000
 104:	00000044 	andeq	r0, r0, r4, asr #32
 108:	00000000 	andeq	r0, r0, r0
 10c:	00000054 	andeq	r0, r0, r4, asr r0
 110:	c2000b84 	andgt	r0, r0, #132, 22	; 0x21000
 114:	0000006c 	andeq	r0, r0, ip, rrx
 118:	c2000bf0 	andgt	r0, r0, #240, 22	; 0x3c000
 11c:	00000050 	andeq	r0, r0, r0, asr r0
 120:	c2000c40 	andgt	r0, r0, #64, 24	; 0x4000
 124:	0000007c 	andeq	r0, r0, ip, ror r0
 128:	c2000cbc 	andgt	r0, r0, #188, 24	; 0xbc00
 12c:	00000130 	andeq	r0, r0, r0, lsr r1
 130:	c2000dec 	andgt	r0, r0, #236, 26	; 0x3b00
 134:	00000338 	andeq	r0, r0, r8, lsr r3
 138:	c2001124 	andgt	r1, r0, #36, 2
 13c:	0000015c 	andeq	r0, r0, ip, asr r1
 140:	c2001280 	andgt	r1, r0, #128, 4
 144:	0000015c 	andeq	r0, r0, ip, asr r1
 148:	c20013e0 	andgt	r1, r0, #224, 6	; 0x80000003
 14c:	00000704 	andeq	r0, r0, r4, lsl #14
 150:	c2001ae8 	andgt	r1, r0, #232, 20	; 0xe8000
 154:	0000057c 	andeq	r0, r0, ip, ror r5
 158:	c2002064 	andgt	r2, r0, #100	; 0x64
 15c:	00000f90 	muleq	r0, r0, pc	; <UNPREDICTABLE>
 160:	c2002ff4 	andgt	r2, r0, #244, 30	; 0x3d0
 164:	00000054 	andeq	r0, r0, r4, asr r0
 168:	00000000 	andeq	r0, r0, r0
 16c:	00000058 	andeq	r0, r0, r8, asr r0
 170:	00000000 	andeq	r0, r0, r0
 174:	0000005c 	andeq	r0, r0, ip, asr r0
 178:	00000000 	andeq	r0, r0, r0
 17c:	00000044 	andeq	r0, r0, r4, asr #32
 180:	00000000 	andeq	r0, r0, r0
 184:	0000004c 	andeq	r0, r0, ip, asr #32
 188:	00000000 	andeq	r0, r0, r0
 18c:	0000006c 	andeq	r0, r0, ip, rrx
	...
 198:	0000001c 	andeq	r0, r0, ip, lsl r0
 19c:	15710002 	ldrbne	r0, [r1, #-2]!
 1a0:	00040000 	andeq	r0, r4, r0
 1a4:	00000000 	andeq	r0, r0, r0
 1a8:	c20000f4 	andgt	r0, r0, #244	; 0xf4
 1ac:	00000078 	andeq	r0, r0, r8, ror r0
	...
 1b8:	0000001c 	andeq	r0, r0, ip, lsl r0
 1bc:	15970002 	ldrne	r0, [r7, #2]
 1c0:	00040000 	andeq	r0, r4, r0
 1c4:	00000000 	andeq	r0, r0, r0
 1c8:	c200016c 	andgt	r0, r0, #108, 2
 1cc:	00000334 	andeq	r0, r0, r4, lsr r3
	...
 1d8:	0000001c 	andeq	r0, r0, ip, lsl r0
 1dc:	15bd0002 	ldrne	r0, [sp, #2]!
 1e0:	00040000 	andeq	r0, r4, r0
 1e4:	00000000 	andeq	r0, r0, r0
 1e8:	c20004a0 	andgt	r0, r0, #160, 8	; 0xa0000000
 1ec:	0000013c 	andeq	r0, r0, ip, lsr r1
	...
 1f8:	0000002c 	andeq	r0, r0, ip, lsr #32
 1fc:	15e30002 	strbne	r0, [r3, #2]!
 200:	00040000 	andeq	r0, r4, r0
 204:	00000000 	andeq	r0, r0, r0
 208:	c2003048 	andgt	r3, r0, #72	; 0x48
 20c:	00000024 	andeq	r0, r0, r4, lsr #32
 210:	00000000 	andeq	r0, r0, r0
 214:	00000030 	andeq	r0, r0, r0, lsr r0
 218:	00000000 	andeq	r0, r0, r0
 21c:	000000bc 	strheq	r0, [r0], -ip
	...
 228:	0000001c 	andeq	r0, r0, ip, lsl r0
 22c:	17020002 	strne	r0, [r2, -r2]
 230:	00040000 	andeq	r0, r4, r0
 234:	00000000 	andeq	r0, r0, r0
 238:	c20005dc 	andgt	r0, r0, #220, 10	; 0x37000000
 23c:	00000018 	andeq	r0, r0, r8, lsl r0
	...
 248:	0000001c 	andeq	r0, r0, ip, lsl r0
 24c:	17280002 	strne	r0, [r8, -r2]!
 250:	00040000 	andeq	r0, r4, r0
 254:	00000000 	andeq	r0, r0, r0
 258:	c20005f4 	andgt	r0, r0, #244, 10	; 0x3d000000
 25c:	00000044 	andeq	r0, r0, r4, asr #32
	...
 268:	0000001c 	andeq	r0, r0, ip, lsl r0
 26c:	174e0002 	strbne	r0, [lr, -r2]
 270:	00040000 	andeq	r0, r4, r0
 274:	00000000 	andeq	r0, r0, r0
 278:	c200306c 	andgt	r3, r0, #108	; 0x6c
 27c:	00000080 	andeq	r0, r0, r0, lsl #1
	...
 288:	0000003c 	andeq	r0, r0, ip, lsr r0
 28c:	18030002 	stmdane	r3, {r1}
 290:	00040000 	andeq	r0, r4, r0
 294:	00000000 	andeq	r0, r0, r0
 298:	c20030ec 	andgt	r3, r0, #236	; 0xec
 29c:	00000020 	andeq	r0, r0, r0, lsr #32
 2a0:	c200310c 	andgt	r3, r0, #12, 2
 2a4:	00000054 	andeq	r0, r0, r4, asr r0
 2a8:	c2003160 	andgt	r3, r0, #96, 2
 2ac:	00000074 	andeq	r0, r0, r4, ror r0
 2b0:	c20031d4 	andgt	r3, r0, #212, 2	; 0x35
 2b4:	00000090 	muleq	r0, r0, r0
 2b8:	00000000 	andeq	r0, r0, r0
 2bc:	00000058 	andeq	r0, r0, r8, asr r0
	...
 2c8:	0000001c 	andeq	r0, r0, ip, lsl r0
 2cc:	19f40002 	ldmibne	r4!, {r1}^
 2d0:	00040000 	andeq	r0, r4, r0
 2d4:	00000000 	andeq	r0, r0, r0
 2d8:	c2000638 	andgt	r0, r0, #56, 12	; 0x3800000
 2dc:	00000048 	andeq	r0, r0, r8, asr #32
	...
 2e8:	0000001c 	andeq	r0, r0, ip, lsl r0
 2ec:	1a1a0002 	bne	6802fc <SYS_MODE+0x6802dd>
 2f0:	00040000 	andeq	r0, r4, r0
 2f4:	00000000 	andeq	r0, r0, r0
 2f8:	c2000680 	andgt	r0, r0, #128, 12	; 0x8000000
 2fc:	00000050 	andeq	r0, r0, r0, asr r0
	...
 308:	0000001c 	andeq	r0, r0, ip, lsl r0
 30c:	1a400002 	bne	100031c <SYS_MODE+0x10002fd>
 310:	00040000 	andeq	r0, r4, r0
 314:	00000000 	andeq	r0, r0, r0
 318:	c20006d0 	andgt	r0, r0, #208, 12	; 0xd000000
 31c:	0000014c 	andeq	r0, r0, ip, asr #2
	...
 328:	0000001c 	andeq	r0, r0, ip, lsl r0
 32c:	1a660002 	bne	198033c <SYS_MODE+0x198031d>
 330:	00040000 	andeq	r0, r4, r0
 334:	00000000 	andeq	r0, r0, r0
 338:	c200005c 	andgt	r0, r0, #92	; 0x5c
 33c:	00000098 	muleq	r0, r8, r0
	...
 348:	0000001c 	andeq	r0, r0, ip, lsl r0
 34c:	1a8c0002 	bne	fe30035c <_stack_end+0x3c2da15c>
 350:	00040000 	andeq	r0, r4, r0
 354:	00000000 	andeq	r0, r0, r0
 358:	c2000000 	andgt	r0, r0, #0
 35c:	0000005c 	andeq	r0, r0, ip, asr r0
	...
 368:	0000003c 	andeq	r0, r0, ip, lsr r0
 36c:	1ab20002 	bne	fec8037c <_stack_end+0x3cc5a17c>
 370:	00040000 	andeq	r0, r4, r0
 374:	00000000 	andeq	r0, r0, r0
 378:	c2003264 	andgt	r3, r0, #100, 4	; 0x40000006
 37c:	00000034 	andeq	r0, r0, r4, lsr r0
 380:	c2003298 	andgt	r3, r0, #152, 4	; 0x80000009
 384:	00000288 	andeq	r0, r0, r8, lsl #5
 388:	c2003520 	andgt	r3, r0, #32, 10	; 0x8000000
 38c:	00000014 	andeq	r0, r0, r4, lsl r0
 390:	c2003534 	andgt	r3, r0, #52, 10	; 0xd000000
 394:	00000084 	andeq	r0, r0, r4, lsl #1
 398:	c20035b8 	andgt	r3, r0, #184, 10	; 0x2e000000
 39c:	00000030 	andeq	r0, r0, r0, lsr r0
	...
 3a8:	00000064 	andeq	r0, r0, r4, rrx
 3ac:	1e380002 	cdpne	0, 3, cr0, cr8, cr2, {0}
 3b0:	00040000 	andeq	r0, r4, r0
	...
 3bc:	00000030 	andeq	r0, r0, r0, lsr r0
 3c0:	c20035e8 	andgt	r3, r0, #232, 10	; 0x3a000000
 3c4:	00000030 	andeq	r0, r0, r0, lsr r0
 3c8:	c2003618 	andgt	r3, r0, #24, 12	; 0x1800000
 3cc:	00000028 	andeq	r0, r0, r8, lsr #32
 3d0:	c2003640 	andgt	r3, r0, #64, 12	; 0x4000000
 3d4:	00000020 	andeq	r0, r0, r0, lsr #32
 3d8:	c2003660 	andgt	r3, r0, #96, 12	; 0x6000000
 3dc:	00000020 	andeq	r0, r0, r0, lsr #32
 3e0:	c2003680 	andgt	r3, r0, #128, 12	; 0x8000000
 3e4:	00000020 	andeq	r0, r0, r0, lsr #32
 3e8:	c20036a0 	andgt	r3, r0, #160, 12	; 0xa000000
 3ec:	00000020 	andeq	r0, r0, r0, lsr #32
 3f0:	c20036c0 	andgt	r3, r0, #192, 12	; 0xc000000
 3f4:	00000020 	andeq	r0, r0, r0, lsr #32
 3f8:	c20036e0 	andgt	r3, r0, #224, 12	; 0xe000000
 3fc:	00000020 	andeq	r0, r0, r0, lsr #32
 400:	c2003700 	andgt	r3, r0, #0, 14
 404:	0000018c 	andeq	r0, r0, ip, lsl #3
	...
 410:	00000044 	andeq	r0, r0, r4, asr #32
 414:	230d0002 	movwcs	r0, #53250	; 0xd002
 418:	00040000 	andeq	r0, r4, r0
 41c:	00000000 	andeq	r0, r0, r0
 420:	c200388c 	andgt	r3, r0, #140, 16	; 0x8c0000
 424:	00000080 	andeq	r0, r0, r0, lsl #1
 428:	c200390c 	andgt	r3, r0, #12, 18	; 0x30000
 42c:	0000005c 	andeq	r0, r0, ip, asr r0
 430:	c2003968 	andgt	r3, r0, #104, 18	; 0x1a0000
 434:	00000080 	andeq	r0, r0, r0, lsl #1
 438:	00000000 	andeq	r0, r0, r0
 43c:	00000080 	andeq	r0, r0, r0, lsl #1
 440:	c20039e8 	andgt	r3, r0, #232, 18	; 0x3a0000
 444:	00000080 	andeq	r0, r0, r0, lsl #1
 448:	00000000 	andeq	r0, r0, r0
 44c:	00000080 	andeq	r0, r0, r0, lsl #1
	...
 458:	0000001c 	andeq	r0, r0, ip, lsl r0
 45c:	251d0002 	ldrcs	r0, [sp, #-2]
 460:	00040000 	andeq	r0, r4, r0
 464:	00000000 	andeq	r0, r0, r0
 468:	c2003a68 	andgt	r3, r0, #104, 20	; 0x68000
 46c:	00000070 	andeq	r0, r0, r0, ror r0
	...
 478:	00000044 	andeq	r0, r0, r4, asr #32
 47c:	25430002 	strbcs	r0, [r3, #-2]
 480:	00040000 	andeq	r0, r4, r0
 484:	00000000 	andeq	r0, r0, r0
 488:	c2003ad8 	andgt	r3, r0, #216, 20	; 0xd8000
 48c:	000000fc 	strdeq	r0, [r0], -ip
 490:	c2003bd4 	andgt	r3, r0, #212, 22	; 0x35000
 494:	00000088 	andeq	r0, r0, r8, lsl #1
 498:	c2003c5c 	andgt	r3, r0, #92, 24	; 0x5c00
 49c:	00000284 	andeq	r0, r0, r4, lsl #5
 4a0:	c2003ee0 	andgt	r3, r0, #224, 28	; 0xe00
 4a4:	000002f4 	strdeq	r0, [r0], -r4
 4a8:	c20041d4 	andgt	r4, r0, #212, 2	; 0x35
 4ac:	00000050 	andeq	r0, r0, r0, asr r0
 4b0:	c2004224 	andgt	r4, r0, #36, 4	; 0x40000002
 4b4:	00000064 	andeq	r0, r0, r4, rrx
	...
 4c0:	00000084 	andeq	r0, r0, r4, lsl #1
 4c4:	29cc0002 	stmibcs	ip, {r1}^
 4c8:	00040000 	andeq	r0, r4, r0
 4cc:	00000000 	andeq	r0, r0, r0
 4d0:	c2004288 	andgt	r4, r0, #136, 4	; 0x80000008
 4d4:	000000a0 	andeq	r0, r0, r0, lsr #1
 4d8:	c2004328 	andgt	r4, r0, #40, 6	; 0xa0000000
 4dc:	0000007c 	andeq	r0, r0, ip, ror r0
 4e0:	c20043a4 	andgt	r4, r0, #164, 6	; 0x90000002
 4e4:	00000064 	andeq	r0, r0, r4, rrx
 4e8:	c2004408 	andgt	r4, r0, #8, 8	; 0x8000000
 4ec:	00000040 	andeq	r0, r0, r0, asr #32
 4f0:	00000000 	andeq	r0, r0, r0
 4f4:	00000040 	andeq	r0, r0, r0, asr #32
 4f8:	c2004448 	andgt	r4, r0, #72, 8	; 0x48000000
 4fc:	000000f0 	strdeq	r0, [r0], -r0	; <UNPREDICTABLE>
 500:	00000000 	andeq	r0, r0, r0
 504:	000000b8 	strheq	r0, [r0], -r8
 508:	00000000 	andeq	r0, r0, r0
 50c:	00000040 	andeq	r0, r0, r0, asr #32
 510:	c2004538 	andgt	r4, r0, #56, 10	; 0xe000000
 514:	00000040 	andeq	r0, r0, r0, asr #32
 518:	c2004578 	andgt	r4, r0, #120, 10	; 0x1e000000
 51c:	00000040 	andeq	r0, r0, r0, asr #32
 520:	00000000 	andeq	r0, r0, r0
 524:	00000040 	andeq	r0, r0, r0, asr #32
 528:	c20045b8 	andgt	r4, r0, #184, 10	; 0x2e000000
 52c:	00000048 	andeq	r0, r0, r8, asr #32
 530:	c2004600 	andgt	r4, r0, #0, 12
 534:	0000003c 	andeq	r0, r0, ip, lsr r0
 538:	00000000 	andeq	r0, r0, r0
 53c:	0000003c 	andeq	r0, r0, ip, lsr r0
	...
 548:	00000034 	andeq	r0, r0, r4, lsr r0
 54c:	2e250002 	cdpcs	0, 2, cr0, cr5, cr2, {0}
 550:	00040000 	andeq	r0, r4, r0
	...
 55c:	00000030 	andeq	r0, r0, r0, lsr r0
 560:	00000000 	andeq	r0, r0, r0
 564:	0000002c 	andeq	r0, r0, ip, lsr #32
 568:	c200463c 	andgt	r4, r0, #60, 12	; 0x3c00000
 56c:	00000038 	andeq	r0, r0, r8, lsr r0
 570:	00000000 	andeq	r0, r0, r0
 574:	00000038 	andeq	r0, r0, r8, lsr r0
	...
 580:	0000006c 	andeq	r0, r0, ip, rrx
 584:	2f370002 	svccs	0x00370002
 588:	00040000 	andeq	r0, r4, r0
 58c:	00000000 	andeq	r0, r0, r0
 590:	c2004674 	andgt	r4, r0, #116, 12	; 0x7400000
 594:	00000054 	andeq	r0, r0, r4, asr r0
 598:	00000000 	andeq	r0, r0, r0
 59c:	0000003c 	andeq	r0, r0, ip, lsr r0
 5a0:	c20046c8 	andgt	r4, r0, #200, 12	; 0xc800000
 5a4:	00000180 	andeq	r0, r0, r0, lsl #3
 5a8:	00000000 	andeq	r0, r0, r0
 5ac:	00000054 	andeq	r0, r0, r4, asr r0
 5b0:	c2004848 	andgt	r4, r0, #72, 16	; 0x480000
 5b4:	00000074 	andeq	r0, r0, r4, ror r0
 5b8:	00000000 	andeq	r0, r0, r0
 5bc:	00000084 	andeq	r0, r0, r4, lsl #1
 5c0:	00000000 	andeq	r0, r0, r0
 5c4:	00000020 	andeq	r0, r0, r0, lsr #32
 5c8:	00000000 	andeq	r0, r0, r0
 5cc:	00000020 	andeq	r0, r0, r0, lsr #32
 5d0:	c20048bc 	andgt	r4, r0, #188, 16	; 0xbc0000
 5d4:	00000154 	andeq	r0, r0, r4, asr r1
 5d8:	00000000 	andeq	r0, r0, r0
 5dc:	00000030 	andeq	r0, r0, r0, lsr r0
 5e0:	c2004a10 	andgt	r4, r0, #16, 20	; 0x10000
 5e4:	000001a0 	andeq	r0, r0, r0, lsr #3
	...
 5f0:	0000002c 	andeq	r0, r0, ip, lsr #32
 5f4:	34670002 	strbtcc	r0, [r7], #-2
 5f8:	00040000 	andeq	r0, r4, r0
 5fc:	00000000 	andeq	r0, r0, r0
 600:	c2004bb0 	andgt	r4, r0, #176, 22	; 0x2c000
 604:	00000078 	andeq	r0, r0, r8, ror r0
 608:	c2004c28 	andgt	r4, r0, #40, 24	; 0x2800
 60c:	00000014 	andeq	r0, r0, r4, lsl r0
 610:	c2004c3c 	andgt	r4, r0, #60, 24	; 0x3c00
 614:	00000060 	andeq	r0, r0, r0, rrx
	...

Disassembly of section .debug_ranges:

00000000 <.debug_ranges>:
   0:	c200081c 	andgt	r0, r0, #28, 16	; 0x1c0000
   4:	c2000858 	andgt	r0, r0, #88, 16	; 0x580000
   8:	c2000858 	andgt	r0, r0, #88, 16	; 0x580000
   c:	c20008b0 	andgt	r0, r0, #176, 16	; 0xb00000
  10:	c20008b0 	andgt	r0, r0, #176, 16	; 0xb00000
  14:	c20008e8 	andgt	r0, r0, #232, 16	; 0xe80000
  18:	00000001 	andeq	r0, r0, r1
  1c:	00000001 	andeq	r0, r0, r1
  20:	c20008e8 	andgt	r0, r0, #232, 16	; 0xe80000
  24:	c2000924 	andgt	r0, r0, #36, 18	; 0x90000
  28:	00000001 	andeq	r0, r0, r1
  2c:	00000001 	andeq	r0, r0, r1
  30:	00000001 	andeq	r0, r0, r1
  34:	00000001 	andeq	r0, r0, r1
  38:	00000001 	andeq	r0, r0, r1
  3c:	00000001 	andeq	r0, r0, r1
  40:	c2000924 	andgt	r0, r0, #36, 18	; 0x90000
  44:	c200096c 	andgt	r0, r0, #108, 18	; 0x1b0000
  48:	00000001 	andeq	r0, r0, r1
  4c:	00000001 	andeq	r0, r0, r1
  50:	00000001 	andeq	r0, r0, r1
  54:	00000001 	andeq	r0, r0, r1
  58:	00000001 	andeq	r0, r0, r1
  5c:	00000001 	andeq	r0, r0, r1
  60:	c200096c 	andgt	r0, r0, #108, 18	; 0x1b0000
  64:	c20009a8 	andgt	r0, r0, #168, 18	; 0x2a0000
  68:	c20009a8 	andgt	r0, r0, #168, 18	; 0x2a0000
  6c:	c20009e4 	andgt	r0, r0, #228, 18	; 0x390000
	...
  78:	00000001 	andeq	r0, r0, r1
  7c:	00000001 	andeq	r0, r0, r1
  80:	00000001 	andeq	r0, r0, r1
  84:	00000001 	andeq	r0, r0, r1
  88:	00000001 	andeq	r0, r0, r1
  8c:	00000001 	andeq	r0, r0, r1
  90:	c20009e4 	andgt	r0, r0, #228, 18	; 0x390000
  94:	c2000a38 	andgt	r0, r0, #56, 20	; 0x38000
  98:	c2000a38 	andgt	r0, r0, #56, 20	; 0x38000
  9c:	c2000a9c 	andgt	r0, r0, #156, 20	; 0x9c000
  a0:	c2000a9c 	andgt	r0, r0, #156, 20	; 0x9c000
  a4:	c2000b10 	andgt	r0, r0, #16, 22	; 0x4000
  a8:	00000001 	andeq	r0, r0, r1
  ac:	00000001 	andeq	r0, r0, r1
  b0:	00000001 	andeq	r0, r0, r1
  b4:	00000001 	andeq	r0, r0, r1
	...
  c0:	00000001 	andeq	r0, r0, r1
  c4:	00000001 	andeq	r0, r0, r1
  c8:	c2000b10 	andgt	r0, r0, #16, 22	; 0x4000
  cc:	c2000b40 	andgt	r0, r0, #64, 22	; 0x10000
  d0:	c2000b40 	andgt	r0, r0, #64, 22	; 0x10000
  d4:	c2000b84 	andgt	r0, r0, #132, 22	; 0x21000
  d8:	00000001 	andeq	r0, r0, r1
  dc:	00000001 	andeq	r0, r0, r1
  e0:	c2000b84 	andgt	r0, r0, #132, 22	; 0x21000
  e4:	c2000bf0 	andgt	r0, r0, #240, 22	; 0x3c000
  e8:	c2000bf0 	andgt	r0, r0, #240, 22	; 0x3c000
  ec:	c2000c40 	andgt	r0, r0, #64, 24	; 0x4000
  f0:	c2000c40 	andgt	r0, r0, #64, 24	; 0x4000
  f4:	c2000cbc 	andgt	r0, r0, #188, 24	; 0xbc00
  f8:	c2000cbc 	andgt	r0, r0, #188, 24	; 0xbc00
  fc:	c2000dec 	andgt	r0, r0, #236, 26	; 0x3b00
 100:	c2000dec 	andgt	r0, r0, #236, 26	; 0x3b00
 104:	c2001124 	andgt	r1, r0, #36, 2
 108:	c2001124 	andgt	r1, r0, #36, 2
 10c:	c2001280 	andgt	r1, r0, #128, 4
 110:	c2001280 	andgt	r1, r0, #128, 4
 114:	c20013dc 	andgt	r1, r0, #220, 6	; 0x70000003
 118:	c20013e0 	andgt	r1, r0, #224, 6	; 0x80000003
 11c:	c2001ae4 	andgt	r1, r0, #228, 20	; 0xe4000
 120:	c2001ae8 	andgt	r1, r0, #232, 20	; 0xe8000
 124:	c2002064 	andgt	r2, r0, #100	; 0x64
 128:	c2002064 	andgt	r2, r0, #100	; 0x64
 12c:	c2002ff4 	andgt	r2, r0, #244, 30	; 0x3d0
 130:	c2002ff4 	andgt	r2, r0, #244, 30	; 0x3d0
 134:	c2003048 	andgt	r3, r0, #72	; 0x48
 138:	00000001 	andeq	r0, r0, r1
 13c:	00000001 	andeq	r0, r0, r1
 140:	00000001 	andeq	r0, r0, r1
 144:	00000001 	andeq	r0, r0, r1
 148:	00000001 	andeq	r0, r0, r1
 14c:	00000001 	andeq	r0, r0, r1
 150:	00000001 	andeq	r0, r0, r1
 154:	00000001 	andeq	r0, r0, r1
 158:	00000001 	andeq	r0, r0, r1
 15c:	00000001 	andeq	r0, r0, r1
	...
 168:	c2003048 	andgt	r3, r0, #72	; 0x48
 16c:	c200306c 	andgt	r3, r0, #108	; 0x6c
 170:	00000001 	andeq	r0, r0, r1
 174:	00000001 	andeq	r0, r0, r1
 178:	00000001 	andeq	r0, r0, r1
 17c:	00000001 	andeq	r0, r0, r1
	...
 188:	c200306c 	andgt	r3, r0, #108	; 0x6c
 18c:	c20030ec 	andgt	r3, r0, #236	; 0xec
	...
 198:	c20030ec 	andgt	r3, r0, #236	; 0xec
 19c:	c200310c 	andgt	r3, r0, #12, 2
 1a0:	c200310c 	andgt	r3, r0, #12, 2
 1a4:	c2003160 	andgt	r3, r0, #96, 2
 1a8:	c2003160 	andgt	r3, r0, #96, 2
 1ac:	c20031d4 	andgt	r3, r0, #212, 2	; 0x35
 1b0:	c20031d4 	andgt	r3, r0, #212, 2	; 0x35
 1b4:	c2003264 	andgt	r3, r0, #100, 4	; 0x40000006
 1b8:	00000001 	andeq	r0, r0, r1
 1bc:	00000001 	andeq	r0, r0, r1
	...
 1c8:	c2003264 	andgt	r3, r0, #100, 4	; 0x40000006
 1cc:	c2003298 	andgt	r3, r0, #152, 4	; 0x80000009
 1d0:	c2003298 	andgt	r3, r0, #152, 4	; 0x80000009
 1d4:	c2003520 	andgt	r3, r0, #32, 10	; 0x8000000
 1d8:	c2003520 	andgt	r3, r0, #32, 10	; 0x8000000
 1dc:	c2003534 	andgt	r3, r0, #52, 10	; 0xd000000
 1e0:	c2003534 	andgt	r3, r0, #52, 10	; 0xd000000
 1e4:	c20035b8 	andgt	r3, r0, #184, 10	; 0x2e000000
 1e8:	c20035b8 	andgt	r3, r0, #184, 10	; 0x2e000000
 1ec:	c20035e8 	andgt	r3, r0, #232, 10	; 0x3a000000
	...
 1f8:	00000001 	andeq	r0, r0, r1
 1fc:	00000001 	andeq	r0, r0, r1
 200:	c20035e8 	andgt	r3, r0, #232, 10	; 0x3a000000
 204:	c2003618 	andgt	r3, r0, #24, 12	; 0x1800000
 208:	c2003618 	andgt	r3, r0, #24, 12	; 0x1800000
 20c:	c2003640 	andgt	r3, r0, #64, 12	; 0x4000000
 210:	c2003640 	andgt	r3, r0, #64, 12	; 0x4000000
 214:	c2003660 	andgt	r3, r0, #96, 12	; 0x6000000
 218:	c2003660 	andgt	r3, r0, #96, 12	; 0x6000000
 21c:	c2003680 	andgt	r3, r0, #128, 12	; 0x8000000
 220:	c2003680 	andgt	r3, r0, #128, 12	; 0x8000000
 224:	c20036a0 	andgt	r3, r0, #160, 12	; 0xa000000
 228:	c20036a0 	andgt	r3, r0, #160, 12	; 0xa000000
 22c:	c20036c0 	andgt	r3, r0, #192, 12	; 0xc000000
 230:	c20036c0 	andgt	r3, r0, #192, 12	; 0xc000000
 234:	c20036e0 	andgt	r3, r0, #224, 12	; 0xe000000
 238:	c20036e0 	andgt	r3, r0, #224, 12	; 0xe000000
 23c:	c2003700 	andgt	r3, r0, #0, 14
 240:	c2003700 	andgt	r3, r0, #0, 14
 244:	c200388c 	andgt	r3, r0, #140, 16	; 0x8c0000
	...
 250:	c200388c 	andgt	r3, r0, #140, 16	; 0x8c0000
 254:	c200390c 	andgt	r3, r0, #12, 18	; 0x30000
 258:	c200390c 	andgt	r3, r0, #12, 18	; 0x30000
 25c:	c2003968 	andgt	r3, r0, #104, 18	; 0x1a0000
 260:	c2003968 	andgt	r3, r0, #104, 18	; 0x1a0000
 264:	c20039e8 	andgt	r3, r0, #232, 18	; 0x3a0000
 268:	00000001 	andeq	r0, r0, r1
 26c:	00000001 	andeq	r0, r0, r1
 270:	c20039e8 	andgt	r3, r0, #232, 18	; 0x3a0000
 274:	c2003a68 	andgt	r3, r0, #104, 20	; 0x68000
 278:	00000001 	andeq	r0, r0, r1
 27c:	00000001 	andeq	r0, r0, r1
	...
 288:	c2003ad8 	andgt	r3, r0, #216, 20	; 0xd8000
 28c:	c2003bd4 	andgt	r3, r0, #212, 22	; 0x35000
 290:	c2003bd4 	andgt	r3, r0, #212, 22	; 0x35000
 294:	c2003c5c 	andgt	r3, r0, #92, 24	; 0x5c00
 298:	c2003c5c 	andgt	r3, r0, #92, 24	; 0x5c00
 29c:	c2003ee0 	andgt	r3, r0, #224, 28	; 0xe00
 2a0:	c2003ee0 	andgt	r3, r0, #224, 28	; 0xe00
 2a4:	c20041d4 	andgt	r4, r0, #212, 2	; 0x35
 2a8:	c20041d4 	andgt	r4, r0, #212, 2	; 0x35
 2ac:	c2004224 	andgt	r4, r0, #36, 4	; 0x40000002
 2b0:	c2004224 	andgt	r4, r0, #36, 4	; 0x40000002
 2b4:	c2004288 	andgt	r4, r0, #136, 4	; 0x80000008
	...
 2c0:	c2004288 	andgt	r4, r0, #136, 4	; 0x80000008
 2c4:	c2004328 	andgt	r4, r0, #40, 6	; 0xa0000000
 2c8:	c2004328 	andgt	r4, r0, #40, 6	; 0xa0000000
 2cc:	c20043a4 	andgt	r4, r0, #164, 6	; 0x90000002
 2d0:	c20043a4 	andgt	r4, r0, #164, 6	; 0x90000002
 2d4:	c2004408 	andgt	r4, r0, #8, 8	; 0x8000000
 2d8:	c2004408 	andgt	r4, r0, #8, 8	; 0x8000000
 2dc:	c2004448 	andgt	r4, r0, #72, 8	; 0x48000000
 2e0:	00000001 	andeq	r0, r0, r1
 2e4:	00000001 	andeq	r0, r0, r1
 2e8:	c2004448 	andgt	r4, r0, #72, 8	; 0x48000000
 2ec:	c2004538 	andgt	r4, r0, #56, 10	; 0xe000000
 2f0:	00000001 	andeq	r0, r0, r1
 2f4:	00000001 	andeq	r0, r0, r1
 2f8:	00000001 	andeq	r0, r0, r1
 2fc:	00000001 	andeq	r0, r0, r1
 300:	c2004538 	andgt	r4, r0, #56, 10	; 0xe000000
 304:	c2004578 	andgt	r4, r0, #120, 10	; 0x1e000000
 308:	c2004578 	andgt	r4, r0, #120, 10	; 0x1e000000
 30c:	c20045b8 	andgt	r4, r0, #184, 10	; 0x2e000000
 310:	00000001 	andeq	r0, r0, r1
 314:	00000001 	andeq	r0, r0, r1
 318:	c20045b8 	andgt	r4, r0, #184, 10	; 0x2e000000
 31c:	c2004600 	andgt	r4, r0, #0, 12
 320:	c2004600 	andgt	r4, r0, #0, 12
 324:	c200463c 	andgt	r4, r0, #60, 12	; 0x3c00000
 328:	00000001 	andeq	r0, r0, r1
 32c:	00000001 	andeq	r0, r0, r1
	...
 338:	00000001 	andeq	r0, r0, r1
 33c:	00000001 	andeq	r0, r0, r1
 340:	00000001 	andeq	r0, r0, r1
 344:	00000001 	andeq	r0, r0, r1
 348:	c200463c 	andgt	r4, r0, #60, 12	; 0x3c00000
 34c:	c2004674 	andgt	r4, r0, #116, 12	; 0x7400000
 350:	00000001 	andeq	r0, r0, r1
 354:	00000001 	andeq	r0, r0, r1
	...
 360:	c2004674 	andgt	r4, r0, #116, 12	; 0x7400000
 364:	c20046c8 	andgt	r4, r0, #200, 12	; 0xc800000
 368:	00000001 	andeq	r0, r0, r1
 36c:	00000001 	andeq	r0, r0, r1
 370:	c20046c8 	andgt	r4, r0, #200, 12	; 0xc800000
 374:	c2004848 	andgt	r4, r0, #72, 16	; 0x480000
 378:	00000001 	andeq	r0, r0, r1
 37c:	00000001 	andeq	r0, r0, r1
 380:	c2004848 	andgt	r4, r0, #72, 16	; 0x480000
 384:	c20048bc 	andgt	r4, r0, #188, 16	; 0xbc0000
 388:	00000001 	andeq	r0, r0, r1
 38c:	00000001 	andeq	r0, r0, r1
 390:	00000001 	andeq	r0, r0, r1
 394:	00000001 	andeq	r0, r0, r1
 398:	00000001 	andeq	r0, r0, r1
 39c:	00000001 	andeq	r0, r0, r1
 3a0:	c20048bc 	andgt	r4, r0, #188, 16	; 0xbc0000
 3a4:	c2004a10 	andgt	r4, r0, #16, 20	; 0x10000
 3a8:	00000001 	andeq	r0, r0, r1
 3ac:	00000001 	andeq	r0, r0, r1
 3b0:	c2004a10 	andgt	r4, r0, #16, 20	; 0x10000
 3b4:	c2004bb0 	andgt	r4, r0, #176, 22	; 0x2c000
	...
 3c0:	c2004bb0 	andgt	r4, r0, #176, 22	; 0x2c000
 3c4:	c2004c28 	andgt	r4, r0, #40, 24	; 0x2800
 3c8:	c2004c28 	andgt	r4, r0, #40, 24	; 0x2800
 3cc:	c2004c3c 	andgt	r4, r0, #60, 24	; 0x3c00
 3d0:	c2004c3c 	andgt	r4, r0, #60, 24	; 0x3c00
 3d4:	c2004c9c 	andgt	r4, r0, #156, 24	; 0x9c00
	...

Disassembly of section .debug_line:

00000000 <.debug_line>:
       0:	00000233 	andeq	r0, r0, r3, lsr r2
       4:	00a50003 	adceq	r0, r5, r3
       8:	01020000 	mrseq	r0, (UNDEF: 2)
       c:	000d0efb 	strdeq	r0, [sp], -fp
      10:	01010101 	tsteq	r1, r1, lsl #2
      14:	01000000 	mrseq	r0, (UNDEF: 0)
      18:	2f010000 	svccs	0x00010000
      1c:	656d6f68 	strbvs	r6, [sp, #-3944]!	; 0xfffff098
      20:	6c7a632f 	ldclvs	3, cr6, [sl], #-188	; 0xffffff44
      24:	2f786d69 	svccs	0x00786d69
      28:	65646f63 	strbvs	r6, [r4, #-3939]!	; 0xfffff09d
      2c:	63617073 	cmnvs	r1, #115	; 0x73
      30:	65742f65 	ldrbvs	r2, [r4, #-3941]!	; 0xfffff09b
      34:	622f706d 	eorvs	r7, pc, #109	; 0x6d
      38:	6d657261 	sfmvs	f7, 2, [r5, #-388]!	; 0xfffffe7c
      3c:	6c617465 	cfstrdvs	mvd7, [r1], #-404	; 0xfffffe6c
      40:	726f665f 	rsbvc	r6, pc, #99614720	; 0x5f00000
      44:	632f635f 			; <UNDEFINED> instruction: 0x632f635f
      48:	2f65646f 	svccs	0x0065646f
      4c:	6362696c 	cmnvs	r2, #108, 18	; 0x1b0000
      50:	6372732f 	cmnvs	r2, #-1140850688	; 0xbc000000
      54:	6f682f00 	svcvs	0x00682f00
      58:	632f656d 			; <UNDEFINED> instruction: 0x632f656d
      5c:	6d696c7a 	stclvs	12, cr6, [r9, #-488]!	; 0xfffffe18
      60:	6f632f78 	svcvs	0x00632f78
      64:	70736564 	rsbsvc	r6, r3, r4, ror #10
      68:	2f656361 	svccs	0x00656361
      6c:	706d6574 	rsbvc	r6, sp, r4, ror r5
      70:	7261622f 	rsbvc	r6, r1, #-268435454	; 0xf0000002
      74:	74656d65 	strbtvc	r6, [r5], #-3429	; 0xfffff29b
      78:	665f6c61 	ldrbvs	r6, [pc], -r1, ror #24
      7c:	635f726f 	cmpvs	pc, #-268435450	; 0xf0000006
      80:	646f632f 	strbtvs	r6, [pc], #-815	; 88 <SYS_MODE+0x69>
      84:	696c2f65 	stmdbvs	ip!, {r0, r2, r5, r6, r8, r9, sl, fp, sp}^
      88:	692f6362 	stmdbvs	pc!, {r1, r5, r6, r8, r9, sp, lr}	; <UNPREDICTABLE>
      8c:	0000636e 	andeq	r6, r0, lr, ror #6
      90:	6362696c 	cmnvs	r2, #108, 18	; 0x1b0000
      94:	73696c5f 	cmnvc	r9, #24320	; 0x5f00
      98:	00632e74 	rsbeq	r2, r3, r4, ror lr
      9c:	6c000001 	stcvs	0, cr0, [r0], {1}
      a0:	5f636269 	svcpl	0x00636269
      a4:	7473696c 	ldrbtvc	r6, [r3], #-2412	; 0xfffff694
      a8:	0200682e 	andeq	r6, r0, #3014656	; 0x2e0000
      ac:	05000000 	streq	r0, [r0, #-0]
      b0:	02050001 	andeq	r0, r5, #1
      b4:	c200081c 	andgt	r0, r0, #28, 16	; 0x1c0000
      b8:	05010a03 	streq	r0, [r1, #-2563]	; 0xfffff5fd
      bc:	1805831f 	stmdane	r5, {r0, r1, r2, r3, r4, r8, r9, pc}
      c0:	4a110566 	bmi	441660 <SYS_MODE+0x441641>
      c4:	024b0105 	subeq	r0, fp, #1073741825	; 0x40000001
      c8:	01010008 	tsteq	r1, r8
      cc:	05000105 	streq	r0, [r0, #-261]	; 0xfffffefb
      d0:	00085802 	andeq	r5, r8, r2, lsl #16
      d4:	011603c2 	tsteq	r6, r2, asr #7
      d8:	05bb1005 	ldreq	r1, [fp, #5]!
      dc:	6767670d 	strbvs	r6, [r7, -sp, lsl #14]!
      e0:	02670105 	rsbeq	r0, r7, #1073741825	; 0x40000001
      e4:	01010008 	tsteq	r1, r8
      e8:	05000105 	streq	r0, [r0, #-261]	; 0xfffffefb
      ec:	0008b002 	andeq	fp, r8, r2
      f0:	012603c2 	smlawteq	r6, r2, r3, r0
      f4:	059f0505 	ldreq	r0, [pc, #1285]	; 601 <SYS_MODE+0x5e2>
      f8:	0602bb01 	streq	fp, [r2], -r1, lsl #22
      fc:	05010100 	streq	r0, [r1, #-256]	; 0xffffff00
     100:	02050001 	andeq	r0, r5, #1
     104:	00000000 	andeq	r0, r0, r0
     108:	05013303 	streq	r3, [r1, #-771]	; 0xfffffcfd
     10c:	01059f05 	tsteq	r5, r5, lsl #30
     110:	000602bb 			; <UNDEFINED> instruction: 0x000602bb
     114:	01050101 	tsteq	r5, r1, lsl #2
     118:	e8020500 	stmda	r2, {r8, sl}
     11c:	03c20008 	biceq	r0, r2, #8
     120:	0d05013f 	stfeqs	f0, [r5, #-252]	; 0xffffff04
     124:	0105679f 			; <UNDEFINED> instruction: 0x0105679f
     128:	00080267 	andeq	r0, r8, r7, ror #4
     12c:	01050101 	tsteq	r5, r1, lsl #2
     130:	00020500 	andeq	r0, r2, r0, lsl #10
     134:	03000000 	movweq	r0, #0
     138:	050100cb 	streq	r0, [r1, #-203]	; 0xffffff35
     13c:	0e058305 	cdpeq	3, 0, cr8, cr5, cr5, {0}
     140:	010567d7 	ldrdeq	r6, [r5, -r7]
     144:	00060267 	andeq	r0, r6, r7, ror #4
     148:	01050101 	tsteq	r5, r1, lsl #2
     14c:	00020500 	andeq	r0, r2, r0, lsl #10
     150:	03000000 	movweq	r0, #0
     154:	050100d9 	streq	r0, [r1, #-217]	; 0xffffff27
     158:	10059f15 	andne	r9, r5, r5, lsl pc
     15c:	4b06054a 	blmi	18168c <SYS_MODE+0x18166d>
     160:	054a1305 	strbeq	r1, [sl, #-773]	; 0xfffffcfb
     164:	0d054b12 	vstreq	d4, [r5, #-72]	; 0xffffffb8
     168:	4b06054a 	blmi	181698 <SYS_MODE+0x181679>
     16c:	054a1305 	strbeq	r1, [sl, #-773]	; 0xfffffcfb
     170:	08024b01 	stmdaeq	r2, {r0, r8, r9, fp, lr}
     174:	05010100 	streq	r0, [r1, #-256]	; 0xffffff00
     178:	02050001 	andeq	r0, r5, #1
     17c:	00000000 	andeq	r0, r0, r0
     180:	0100e603 	tsteq	r0, r3, lsl #12
     184:	059f1c05 	ldreq	r1, [pc, #3077]	; d91 <SYS_MODE+0xd72>
     188:	054b6802 	strbeq	r6, [fp, #-2050]	; 0xfffff7fe
     18c:	07056705 	streq	r6, [r5, -r5, lsl #14]
     190:	4b020583 	blmi	817a4 <SYS_MODE+0x81785>
     194:	02670105 	rsbeq	r0, r7, #1073741825	; 0x40000001
     198:	01010006 	tsteq	r1, r6
     19c:	05000105 	streq	r0, [r0, #-261]	; 0xfffffefb
     1a0:	00092402 	andeq	r2, r9, r2, lsl #8
     1a4:	00f603c2 	rscseq	r0, r6, r2, asr #7
     1a8:	9f050501 	svcls	0x00050501
     1ac:	670105d7 			; <UNDEFINED> instruction: 0x670105d7
     1b0:	01000602 	tsteq	r0, r2, lsl #12
     1b4:	00010501 	andeq	r0, r1, r1, lsl #10
     1b8:	00000205 	andeq	r0, r0, r5, lsl #4
     1bc:	81030000 	mrshi	r0, (UNDEF: 3)
     1c0:	05050101 	streq	r0, [r5, #-257]	; 0xfffffeff
     1c4:	0105d79f 			; <UNDEFINED> instruction: 0x0105d79f
     1c8:	00060267 	andeq	r0, r6, r7, ror #4
     1cc:	01050101 	tsteq	r5, r1, lsl #2
     1d0:	00020500 	andeq	r0, r2, r0, lsl #10
     1d4:	03000000 	movweq	r0, #0
     1d8:	0501018c 	streq	r0, [r1, #-396]	; 0xfffffe74
     1dc:	18059f11 	stmdane	r5, {r0, r4, r8, r9, sl, fp, ip, pc}
     1e0:	9f01054a 	svcls	0x0001054a
     1e4:	01000802 	tsteq	r0, r2, lsl #16
     1e8:	00010501 	andeq	r0, r1, r1, lsl #10
     1ec:	00000205 	andeq	r0, r0, r5, lsl #4
     1f0:	96030000 	strls	r0, [r3], -r0
     1f4:	11050101 	tstne	r5, r1, lsl #2
     1f8:	4a18059f 	bmi	60187c <SYS_MODE+0x60185d>
     1fc:	029f0105 	addseq	r0, pc, #1073741825	; 0x40000001
     200:	01010008 	tsteq	r1, r8
     204:	05000105 	streq	r0, [r0, #-261]	; 0xfffffefb
     208:	00096c02 	andeq	r6, r9, r2, lsl #24
     20c:	01a003c2 	asreq	r0, r2, #7
     210:	9f120501 	svcls	0x00120501
     214:	02bb0105 	adcseq	r0, fp, #1073741825	; 0x40000001
     218:	01010008 	tsteq	r1, r8
     21c:	05000105 	streq	r0, [r0, #-261]	; 0xfffffefb
     220:	0009a802 	andeq	sl, r9, r2, lsl #16
     224:	01a903c2 			; <UNDEFINED> instruction: 0x01a903c2
     228:	83100501 	tsthi	r0, #4194304	; 0x400000
     22c:	054a1705 	strbeq	r1, [sl, #-1797]	; 0xfffff8fb
     230:	08029f01 	stmdaeq	r2, {r0, r8, r9, sl, fp, ip, pc}
     234:	b8010100 	stmdalt	r1, {r8}
     238:	03000002 	movweq	r0, #2
     23c:	0000b300 	andeq	fp, r0, r0, lsl #6
     240:	fb010200 	blx	40a4a <SYS_MODE+0x40a2b>
     244:	01000d0e 	tsteq	r0, lr, lsl #26
     248:	00010101 	andeq	r0, r1, r1, lsl #2
     24c:	00010000 	andeq	r0, r1, r0
     250:	682f0100 	stmdavs	pc!, {r8}	; <UNPREDICTABLE>
     254:	2f656d6f 	svccs	0x00656d6f
     258:	696c7a63 	stmdbvs	ip!, {r0, r1, r5, r6, r9, fp, ip, sp, lr}^
     25c:	632f786d 			; <UNDEFINED> instruction: 0x632f786d
     260:	7365646f 	cmnvc	r5, #1862270976	; 0x6f000000
     264:	65636170 	strbvs	r6, [r3, #-368]!	; 0xfffffe90
     268:	6d65742f 	cfstrdvs	mvd7, [r5, #-188]!	; 0xffffff44
     26c:	61622f70 	smcvs	8944	; 0x22f0
     270:	656d6572 	strbvs	r6, [sp, #-1394]!	; 0xfffffa8e
     274:	5f6c6174 	svcpl	0x006c6174
     278:	5f726f66 	svcpl	0x00726f66
     27c:	6f632f63 	svcvs	0x00632f63
     280:	6c2f6564 	cfstr32vs	mvfx6, [pc], #-400	; f8 <SYS_MODE+0xd9>
     284:	2f636269 	svccs	0x00636269
     288:	00637273 	rsbeq	r7, r3, r3, ror r2
     28c:	6d6f682f 	stclvs	8, cr6, [pc, #-188]!	; 1d8 <SYS_MODE+0x1b9>
     290:	7a632f65 	bvc	18cc02c <SYS_MODE+0x18cc00d>
     294:	786d696c 	stmdavc	sp!, {r2, r3, r5, r6, r8, fp, sp, lr}^
     298:	646f632f 	strbtvs	r6, [pc], #-815	; 2a0 <SYS_MODE+0x281>
     29c:	61707365 	cmnvs	r0, r5, ror #6
     2a0:	742f6563 	strtvc	r6, [pc], #-1379	; 2a8 <SYS_MODE+0x289>
     2a4:	2f706d65 	svccs	0x00706d65
     2a8:	65726162 	ldrbvs	r6, [r2, #-354]!	; 0xfffffe9e
     2ac:	6174656d 	cmnvs	r4, sp, ror #10
     2b0:	6f665f6c 	svcvs	0x00665f6c
     2b4:	2f635f72 	svccs	0x00635f72
     2b8:	65646f63 	strbvs	r6, [r4, #-3939]!	; 0xfffff09d
     2bc:	6372612f 	cmnvs	r2, #-1073741813	; 0xc000000b
     2c0:	72612f68 	rsbvc	r2, r1, #104, 30	; 0x1a0
     2c4:	2d37766d 	ldccs	6, cr7, [r7, #-436]!	; 0xfffffe4c
     2c8:	6e692f61 	cdpvs	15, 6, cr2, cr9, cr1, {3}
     2cc:	6c000063 	stcvs	0, cr0, [r0], {99}	; 0x63
     2d0:	5f636269 	svcpl	0x00636269
     2d4:	6f6d656d 	svcvs	0x006d656d
     2d8:	632e7972 			; <UNDEFINED> instruction: 0x632e7972
     2dc:	00000100 	andeq	r0, r0, r0, lsl #2
     2e0:	68637261 	stmdavs	r3!, {r0, r5, r6, r9, ip, sp, lr}^
     2e4:	6d6f635f 	stclvs	3, cr6, [pc, #-380]!	; 170 <SYS_MODE+0x151>
     2e8:	656c6970 	strbvs	r6, [ip, #-2416]!	; 0xfffff690
     2ec:	00682e72 	rsbeq	r2, r8, r2, ror lr
     2f0:	00000002 	andeq	r0, r0, r2
     2f4:	05000105 	streq	r0, [r0, #-261]	; 0xfffffefb
     2f8:	00000002 	andeq	r0, r0, r2
     2fc:	08051a00 	stmdaeq	r5, {r9, fp, ip}
     300:	18054c9f 	stmdane	r5, {r0, r1, r2, r3, r4, r7, sl, fp, lr}
     304:	01040200 	mrseq	r0, R12_usr
     308:	000f052e 	andeq	r0, pc, lr, lsr #10
     30c:	66010402 	strvs	r0, [r1], -r2, lsl #8
     310:	02001405 	andeq	r1, r0, #83886080	; 0x5000000
     314:	05660104 	strbeq	r0, [r6, #-260]!	; 0xfffffefc
     318:	04020012 	streq	r0, [r2], #-18	; 0xffffffee
     31c:	0a052e01 	beq	14bb28 <SYS_MODE+0x14bb09>
     320:	01040200 	mrseq	r0, R12_usr
     324:	0008052e 	andeq	r0, r8, lr, lsr #10
     328:	2e010402 	cdpcs	4, 0, cr0, cr1, cr2, {0}
     32c:	054c0905 	strbeq	r0, [ip, #-2309]	; 0xfffff6fb
     330:	08022f01 	stmdaeq	r2, {r0, r8, r9, sl, fp, sp}
     334:	05010100 	streq	r0, [r1, #-256]	; 0xffffff00
     338:	02050001 	andeq	r0, r5, #1
     33c:	00000000 	andeq	r0, r0, r0
     340:	05011b03 	streq	r1, [r1, #-2819]	; 0xfffff4fd
     344:	054cbb08 	strbeq	fp, [ip, #-2824]	; 0xfffff4f8
     348:	0402000e 	streq	r0, [r2], #-14
     34c:	08052e02 	stmdaeq	r5, {r1, r9, sl, fp, sp}
     350:	02040200 	andeq	r0, r4, #0, 4
     354:	00230566 	eoreq	r0, r3, r6, ror #10
     358:	4a010402 	bmi	41368 <SYS_MODE+0x41349>
     35c:	02001a05 	andeq	r1, r0, #20480	; 0x5000
     360:	05660104 	strbeq	r0, [r6, #-260]!	; 0xfffffefc
     364:	0402001f 	streq	r0, [r2], #-31	; 0xffffffe1
     368:	1d056601 	stcne	6, cr6, [r5, #-4]
     36c:	01040200 	mrseq	r0, R12_usr
     370:	0015052e 	andseq	r0, r5, lr, lsr #10
     374:	2e010402 	cdpcs	4, 0, cr0, cr1, cr2, {0}
     378:	02001105 	andeq	r1, r0, #1073741825	; 0x40000001
     37c:	052e0104 	streq	r0, [lr, #-260]!	; 0xfffffefc
     380:	01054d09 	tsteq	r5, r9, lsl #26
     384:	0008022f 	andeq	r0, r8, pc, lsr #4
     388:	01050101 	tsteq	r5, r1, lsl #2
     38c:	00020500 	andeq	r0, r2, r0, lsl #10
     390:	03000000 	movweq	r0, #0
     394:	1005012a 	andne	r0, r5, sl, lsr #2
     398:	4a1905a2 	bmi	641a28 <SYS_MODE+0x641a09>
     39c:	05661605 	strbeq	r1, [r6, #-1541]!	; 0xfffff9fb
     3a0:	0e052e14 	mcreq	14, 0, r2, cr5, cr4, {0}
     3a4:	2e06054a 	cfsh32cs	mvfx0, mvfx6, #42
     3a8:	02002905 	andeq	r2, r0, #81920	; 0x14000
     3ac:	054a0104 	strbeq	r0, [sl, #-260]	; 0xfffffefc
     3b0:	04020026 	streq	r0, [r2], #-38	; 0xffffffda
     3b4:	22056601 	andcs	r6, r5, #1048576	; 0x100000
     3b8:	01040200 	mrseq	r0, R12_usr
     3bc:	4a06052e 	bmi	18187c <SYS_MODE+0x18185d>
     3c0:	05320905 	ldreq	r0, [r2, #-2309]!	; 0xfffff6fb
     3c4:	08022f01 	stmdaeq	r2, {r0, r8, r9, sl, fp, sp}
     3c8:	05010100 	streq	r0, [r1, #-256]	; 0xffffff00
     3cc:	02050001 	andeq	r0, r5, #1
     3d0:	c20009e4 	andgt	r0, r0, #228, 18	; 0x390000
     3d4:	05013a03 	streq	r3, [r1, #-2563]	; 0xfffff5fd
     3d8:	0205850a 	andeq	r8, r5, #41943040	; 0x2800000
     3dc:	001c054a 	andseq	r0, ip, sl, asr #10
     3e0:	2e030402 	cdpcs	4, 0, cr0, cr3, cr2, {0}
     3e4:	02000f05 	andeq	r0, r0, #5, 30
     3e8:	05660104 	strbeq	r0, [r6, #-260]!	; 0xfffffefc
     3ec:	04020002 	streq	r0, [r2], #-2
     3f0:	0c054a01 			; <UNDEFINED> instruction: 0x0c054a01
     3f4:	6701054c 	strvs	r0, [r1, -ip, asr #10]
     3f8:	01000802 	tsteq	r0, r2, lsl #16
     3fc:	00010501 	andeq	r0, r1, r1, lsl #10
     400:	0a380205 	beq	e00c1c <SYS_MODE+0xe00bfd>
     404:	cb03c200 	blgt	f0c0c <SYS_MODE+0xf0bed>
     408:	08050100 	stmdaeq	r5, {r8}
     40c:	06054cbb 			; <UNDEFINED> instruction: 0x06054cbb
     410:	6609052f 	strvs	r0, [r9], -pc, lsr #10
     414:	05650e05 	strbeq	r0, [r5, #-3589]!	; 0xfffff1fb
     418:	09056608 	stmdbeq	r5, {r3, r9, sl, sp, lr}
     41c:	2f01054d 	svccs	0x0001054d
     420:	01000802 	tsteq	r0, r2, lsl #16
     424:	00010501 	andeq	r0, r1, r1, lsl #10
     428:	0a9c0205 	beq	fe700c44 <_stack_end+0x3c6daa44>
     42c:	de03c200 	cdple	2, 0, cr12, cr3, cr0, {0}
     430:	08050100 	stmdaeq	r5, {r8}
     434:	4a1d05bb 	bmi	741b28 <SYS_MODE+0x741b09>
     438:	054c0805 	strbeq	r0, [ip, #-2053]	; 0xfffff7fb
     43c:	07052f0e 	streq	r2, [r5, -lr, lsl #30]
     440:	660c0566 	strvs	r0, [ip], -r6, ror #10
     444:	052e0a05 	streq	r0, [lr, #-2565]!	; 0xfffff5fb
     448:	08052d0e 	stmdaeq	r5, {r1, r2, r3, r8, sl, fp, sp}
     44c:	4d090566 	cfstr32mi	mvfx0, [r9, #-408]	; 0xfffffe68
     450:	022f0105 	eoreq	r0, pc, #1073741825	; 0x40000001
     454:	01010008 	tsteq	r1, r8
     458:	05000105 	streq	r0, [r0, #-261]	; 0xfffffefb
     45c:	00000002 	andeq	r0, r0, r2
     460:	00f00300 	rscseq	r0, r0, r0, lsl #6
     464:	bd050501 	cfstr32lt	mvfx0, [r5, #-4]
     468:	05830705 	streq	r0, [r3, #1797]	; 0x705
     46c:	09054b05 	stmdbeq	r5, {r0, r2, r8, r9, fp, lr}
     470:	2f0f054b 	svccs	0x000f054b
     474:	05660805 	strbeq	r0, [r6, #-2053]!	; 0xfffff7fb
     478:	0b05660d 	bleq	159cb4 <SYS_MODE+0x159c95>
     47c:	2d0f052e 	cfstr32cs	mvfx0, [pc, #-184]	; 3cc <SYS_MODE+0x3ad>
     480:	05660905 	strbeq	r0, [r6, #-2309]!	; 0xfffff6fb
     484:	05056a07 	streq	r6, [r5, #-2567]	; 0xfffff5f9
     488:	83090583 	movwhi	r0, #38275	; 0x9583
     48c:	052f0b05 	streq	r0, [pc, #-2821]!	; fffff98f <_stack_end+0x3dfd978f>
     490:	0b05ba0d 	bleq	16eccc <SYS_MODE+0x16ecad>
     494:	490f054a 	stmdbmi	pc, {r1, r3, r6, r8, sl}	; <UNPREDICTABLE>
     498:	4e660905 	vmulmi.f16	s1, s12, s10	; <UNPREDICTABLE>
     49c:	022f0105 	eoreq	r0, pc, #1073741825	; 0x40000001
     4a0:	01010008 	tsteq	r1, r8
     4a4:	05000105 	streq	r0, [r0, #-261]	; 0xfffffefb
     4a8:	00000002 	andeq	r0, r0, r2
     4ac:	018a0300 	orreq	r0, sl, r0, lsl #6
     4b0:	bc060501 	cfstr32lt	mvfx0, [r6], {1}
     4b4:	054c0b05 	strbeq	r0, [ip, #-2821]	; 0xfffff4fb
     4b8:	02054a2c 	andeq	r4, r5, #44, 20	; 0x2c000
     4bc:	2f0e054a 	svccs	0x000e054a
     4c0:	05661505 	strbeq	r1, [r6, #-1285]!	; 0xfffffafb
     4c4:	06054a0c 	streq	r4, [r5], -ip, lsl #20
     4c8:	0054054a 	subseq	r0, r4, sl, asr #10
     4cc:	65020402 	strvs	r0, [r2, #-1026]	; 0xfffffbfe
     4d0:	02005b05 	andeq	r5, r0, #5120	; 0x1400
     4d4:	05660204 	strbeq	r0, [r6, #-516]!	; 0xfffffdfc
     4d8:	04020067 	streq	r0, [r2], #-103	; 0xffffff99
     4dc:	02056602 	andeq	r6, r5, #2097152	; 0x200000
     4e0:	01040200 	mrseq	r0, R12_usr
     4e4:	84040566 	strhi	r0, [r4], #-1382	; 0xfffffa9a
     4e8:	052f0905 	streq	r0, [pc, #-2309]!	; fffffbeb <_stack_end+0x3dfd99eb>
     4ec:	08022f01 	stmdaeq	r2, {r0, r8, r9, sl, fp, sp}
     4f0:	7d010100 	stfvcs	f0, [r1, #-0]
     4f4:	0300000c 	movweq	r0, #12
     4f8:	0000c100 	andeq	ip, r0, r0, lsl #2
     4fc:	fb010200 	blx	40d06 <SYS_MODE+0x40ce7>
     500:	01000d0e 	tsteq	r0, lr, lsl #26
     504:	00010101 	andeq	r0, r1, r1, lsl #2
     508:	00010000 	andeq	r0, r1, r0
     50c:	682f0100 	stmdavs	pc!, {r8}	; <UNPREDICTABLE>
     510:	2f656d6f 	svccs	0x00656d6f
     514:	696c7a63 	stmdbvs	ip!, {r0, r1, r5, r6, r9, fp, ip, sp, lr}^
     518:	632f786d 			; <UNDEFINED> instruction: 0x632f786d
     51c:	7365646f 	cmnvc	r5, #1862270976	; 0x6f000000
     520:	65636170 	strbvs	r6, [r3, #-368]!	; 0xfffffe90
     524:	6d65742f 	cfstrdvs	mvd7, [r5, #-188]!	; 0xffffff44
     528:	61622f70 	smcvs	8944	; 0x22f0
     52c:	656d6572 	strbvs	r6, [sp, #-1394]!	; 0xfffffa8e
     530:	5f6c6174 	svcpl	0x006c6174
     534:	5f726f66 	svcpl	0x00726f66
     538:	6f632f63 	svcvs	0x00632f63
     53c:	6c2f6564 	cfstr32vs	mvfx6, [pc], #-400	; 3b4 <SYS_MODE+0x395>
     540:	2f636269 	svccs	0x00636269
     544:	00637273 	rsbeq	r7, r3, r3, ror r2
     548:	6d6f682f 	stclvs	8, cr6, [pc, #-188]!	; 494 <SYS_MODE+0x475>
     54c:	7a632f65 	bvc	18cc2e8 <SYS_MODE+0x18cc2c9>
     550:	786d696c 	stmdavc	sp!, {r2, r3, r5, r6, r8, fp, sp, lr}^
     554:	646f632f 	strbtvs	r6, [pc], #-815	; 55c <SYS_MODE+0x53d>
     558:	61707365 	cmnvs	r0, r5, ror #6
     55c:	742f6563 	strtvc	r6, [pc], #-1379	; 564 <SYS_MODE+0x545>
     560:	2f706d65 	svccs	0x00706d65
     564:	65726162 	ldrbvs	r6, [r2, #-354]!	; 0xfffffe9e
     568:	6174656d 	cmnvs	r4, sp, ror #10
     56c:	6f665f6c 	svcvs	0x00665f6c
     570:	2f635f72 	svccs	0x00635f72
     574:	65646f63 	strbvs	r6, [r4, #-3939]!	; 0xfffff09d
     578:	6372612f 	cmnvs	r2, #-1073741813	; 0xc000000b
     57c:	72612f68 	rsbvc	r2, r1, #104, 30	; 0x1a0
     580:	2d37766d 	ldccs	6, cr7, [r7, #-436]!	; 0xfffffe4c
     584:	6e692f61 	cdpvs	15, 6, cr2, cr9, cr1, {3}
     588:	6c000063 	stcvs	0, cr0, [r0], {99}	; 0x63
     58c:	5f636269 	svcpl	0x00636269
     590:	6e697270 	mcrvs	2, 3, r7, cr9, cr0, {3}
     594:	632e6674 			; <UNDEFINED> instruction: 0x632e6674
     598:	00000100 	andeq	r0, r0, r0, lsl #2
     59c:	68637261 	stmdavs	r3!, {r0, r5, r6, r9, ip, sp, lr}^
     5a0:	6d6f635f 	stclvs	3, cr6, [pc, #-380]!	; 42c <SYS_MODE+0x40d>
     5a4:	656c6970 	strbvs	r6, [ip, #-2416]!	; 0xfffff690
     5a8:	00682e72 	rsbeq	r2, r8, r2, ror lr
     5ac:	3c000002 	stccc	0, cr0, [r0], {2}
     5b0:	6c697562 	cfstr64vs	mvdx7, [r9], #-392	; 0xfffffe78
     5b4:	6e692d74 	mcrvs	13, 3, r2, cr9, cr4, {3}
     5b8:	0000003e 	andeq	r0, r0, lr, lsr r0
     5bc:	01050000 	mrseq	r0, (UNDEF: 5)
     5c0:	00020500 	andeq	r0, r2, r0, lsl #10
     5c4:	03000000 	movweq	r0, #0
     5c8:	05010180 	streq	r0, [r1, #-384]	; 0xfffffe80
     5cc:	1405f306 	strne	pc, [r5], #-774	; 0xfffffcfa
     5d0:	661a0583 	ldrvs	r0, [sl], -r3, lsl #11
     5d4:	024c0105 	subeq	r0, ip, #1073741825	; 0x40000001
     5d8:	01010008 	tsteq	r1, r8
     5dc:	05000105 	streq	r0, [r0, #-261]	; 0xfffffefb
     5e0:	000b1002 	andeq	r1, fp, r2
     5e4:	018903c2 	orreq	r0, r9, r2, asr #7
     5e8:	0802f401 	stmdaeq	r2, {r0, sl, ip, sp, lr, pc}
     5ec:	05010100 	streq	r0, [r1, #-256]	; 0xffffff00
     5f0:	02050001 	andeq	r0, r5, #1
     5f4:	c2000b40 	andgt	r0, r0, #64, 22	; 0x10000
     5f8:	01019003 	tsteq	r1, r3
     5fc:	05f40605 	ldrbeq	r0, [r4, #1541]!	; 0x605
     600:	01056705 	tsteq	r5, r5, lsl #14
     604:	00060268 	andeq	r0, r6, r8, ror #4
     608:	01050101 	tsteq	r5, r1, lsl #2
     60c:	00020500 	andeq	r0, r2, r0, lsl #10
     610:	03000000 	movweq	r0, #0
     614:	0501019a 	streq	r0, [r1, #-410]	; 0xfffffe66
     618:	2105f406 	tstcs	r5, r6, lsl #8	; <UNPREDICTABLE>
     61c:	4a060568 	bmi	181bc4 <SYS_MODE+0x181ba5>
     620:	02a00105 	adceq	r0, r0, #1073741825	; 0x40000001
     624:	01010006 	tsteq	r1, r6
     628:	05000105 	streq	r0, [r0, #-261]	; 0xfffffefb
     62c:	000b8402 	andeq	r8, fp, r2, lsl #8
     630:	01a603c2 			; <UNDEFINED> instruction: 0x01a603c2
     634:	a00a0501 	andge	r0, sl, r1, lsl #10
     638:	054a0305 	strbeq	r0, [sl, #-773]	; 0xfffffcfb
     63c:	04020022 	streq	r0, [r2], #-34	; 0xffffffde
     640:	11052e04 	tstne	r5, r4, lsl #28
     644:	01040200 	mrseq	r0, R12_usr
     648:	00030566 	andeq	r0, r3, r6, ror #10
     64c:	4a010402 	bmi	4165c <SYS_MODE+0x4163d>
     650:	02001e05 	andeq	r1, r0, #5, 28	; 0x50
     654:	054a0304 	strbeq	r0, [sl, #-772]	; 0xfffffcfc
     658:	04020014 	streq	r0, [r2], #-20	; 0xffffffec
     65c:	1b056603 	blne	159e70 <SYS_MODE+0x159e51>
     660:	6701054b 	strvs	r0, [r1, -fp, asr #10]
     664:	01000802 	tsteq	r0, r2, lsl #16
     668:	00010501 	andeq	r0, r1, r1, lsl #10
     66c:	0bf00205 	bleq	ffc00e88 <_stack_end+0x3dbdac88>
     670:	b003c200 	andlt	ip, r3, r0, lsl #4
     674:	16050101 	strne	r0, [r5], -r1, lsl #2
     678:	0402009f 	streq	r0, [r2], #-159	; 0xffffff61
     67c:	00660601 	rsbeq	r0, r6, r1, lsl #12
     680:	66030402 	strvs	r0, [r3], -r2, lsl #8
     684:	04040200 	streq	r0, [r4], #-512	; 0xfffffe00
     688:	0402004a 	streq	r0, [r2], #-74	; 0xffffffb6
     68c:	01052e06 	tsteq	r5, r6, lsl #28
     690:	06040200 	streq	r0, [r4], -r0, lsl #4
     694:	08024b06 	stmdaeq	r2, {r1, r2, r8, r9, fp, lr}
     698:	05010100 	streq	r0, [r1, #-256]	; 0xffffff00
     69c:	02050001 	andeq	r0, r5, #1
     6a0:	c2000c40 	andgt	r0, r0, #64, 24	; 0x4000
     6a4:	0101b703 	tsteq	r1, r3, lsl #14
     6a8:	05831005 	streq	r1, [r3, #5]
     6ac:	0b054b09 	bleq	1532d8 <SYS_MODE+0x1532b9>
     6b0:	6625052f 	strtvs	r0, [r5], -pc, lsr #10
     6b4:	054a2a05 	strbeq	r2, [sl, #-2565]	; 0xfffff5fb
     6b8:	11056622 	tstne	r5, r2, lsr #12
     6bc:	2e07052e 	cfsh32cs	mvfx0, mvfx7, #30
     6c0:	05491505 	strbeq	r1, [r9, #-1285]	; 0xfffffafb
     6c4:	09054a0a 	stmdbeq	r5, {r1, r3, r9, fp, lr}
     6c8:	4d0a0582 	cfstr32mi	mvfx0, [sl, #-520]	; 0xfffffdf8
     6cc:	022f0105 	eoreq	r0, pc, #1073741825	; 0x40000001
     6d0:	01010006 	tsteq	r1, r6
     6d4:	05000105 	streq	r0, [r0, #-261]	; 0xfffffefb
     6d8:	000cbc02 	andeq	fp, ip, r2, lsl #24
     6dc:	01c203c2 	biceq	r0, r2, r2, asr #7
     6e0:	d7100501 	ldrle	r0, [r0, -r1, lsl #10]
     6e4:	054d0f05 	strbeq	r0, [sp, #-3845]	; 0xfffff0fb
     6e8:	28054a06 	stmdacs	r5, {r1, r2, r9, fp, lr}
     6ec:	01040200 	mrseq	r0, R12_usr
     6f0:	001d054a 	andseq	r0, sp, sl, asr #10
     6f4:	4a010402 	bmi	41704 <SYS_MODE+0x416e5>
     6f8:	054b1105 	strbeq	r1, [fp, #-261]	; 0xfffffefb
     6fc:	07054a05 	streq	r4, [r5, -r5, lsl #20]
     700:	03040200 	movweq	r0, #16896	; 0x4200
     704:	0026052f 	eoreq	r0, r6, pc, lsr #10
     708:	f1030402 			; <UNDEFINED> instruction: 0xf1030402
     70c:	02000505 	andeq	r0, r0, #20971520	; 0x1400000
     710:	05660104 	strbeq	r0, [r6, #-260]!	; 0xfffffefc
     714:	05058809 	streq	r8, [r5, #-2057]	; 0xfffff7f7
     718:	660c052f 	strvs	r0, [ip], -pc, lsr #10
     71c:	05660505 	strbeq	r0, [r6, #-1285]!	; 0xfffffafb
     720:	0d05f109 	stfeqd	f7, [r5, #-36]	; 0xffffffdc
     724:	4a06056b 	bmi	181cd8 <SYS_MODE+0x181cb9>
     728:	054b0b05 	strbeq	r0, [fp, #-2821]	; 0xfffff4fb
     72c:	10052f07 	andne	r2, r5, r7, lsl #30
     730:	660b05f1 			; <UNDEFINED> instruction: 0x660b05f1
     734:	056b0a05 	strbeq	r0, [fp, #-2565]!	; 0xfffff5fb
     738:	06022f01 	streq	r2, [r2], -r1, lsl #30
     73c:	05010100 	streq	r0, [r1, #-256]	; 0xffffff00
     740:	02050001 	andeq	r0, r5, #1
     744:	c2000dec 	andgt	r0, r0, #236, 26	; 0x3b00
     748:	0101de03 	tsteq	r1, r3, lsl #28
     74c:	05d80f05 	ldrbeq	r0, [r8, #3845]	; 0xf05
     750:	08054a06 	stmdaeq	r5, {r1, r2, r9, fp, lr}
     754:	0019054b 	andseq	r0, r9, fp, asr #10
     758:	66010402 	strvs	r0, [r1], -r2, lsl #8
     75c:	02000f05 	andeq	r0, r0, #5, 30
     760:	054a0104 	strbeq	r0, [sl, #-260]	; 0xfffffefc
     764:	0402002a 	streq	r0, [r2], #-42	; 0xffffffd6
     768:	41054a02 	tstmi	r5, r2, lsl #20
     76c:	03040200 	movweq	r0, #16896	; 0x4200
     770:	00370566 	eorseq	r0, r7, r6, ror #10
     774:	4a030402 	bmi	c1784 <SYS_MODE+0xc1765>
     778:	054b0c05 	strbeq	r0, [fp, #-3077]	; 0xfffff3fb
     77c:	0e05680b 	cdpeq	8, 0, cr6, cr5, cr11, {0}
     780:	660a052f 	strvs	r0, [sl], -pc, lsr #10
     784:	054a1205 	strbeq	r1, [sl, #-517]	; 0xfffffdfb
     788:	1905490b 	stmdbne	r5, {r0, r1, r3, r8, fp, lr}
     78c:	01040200 	mrseq	r0, R12_usr
     790:	690b0582 	stmdbvs	fp, {r1, r7, r8, sl}
     794:	052f0e05 	streq	r0, [pc, #-3589]!	; fffff997 <_stack_end+0x3dfd9797>
     798:	1205660a 	andne	r6, r5, #10485760	; 0xa00000
     79c:	4913054a 	ldmdbmi	r3, {r1, r3, r6, r8, sl}
     7a0:	054a0b05 	strbeq	r0, [sl, #-2821]	; 0xfffff4fb
     7a4:	04020024 	streq	r0, [r2], #-36	; 0xffffffdc
     7a8:	35054a01 	strcc	r4, [r5, #-2561]	; 0xfffff5ff
     7ac:	02040200 	andeq	r0, r4, #0, 4
     7b0:	6c0d0582 	cfstr32vs	mvfx0, [sp], {130}	; 0x82
     7b4:	054a0605 	strbeq	r0, [sl, #-1541]	; 0xfffff9fb
     7b8:	08054b11 	stmdaeq	r5, {r0, r4, r8, r9, fp, lr}
     7bc:	0024054a 	eoreq	r0, r4, sl, asr #10
     7c0:	4a010402 	bmi	417d0 <SYS_MODE+0x417b1>
     7c4:	02002b05 	andeq	r2, r0, #5120	; 0x1400
     7c8:	05660204 	strbeq	r0, [r6, #-516]!	; 0xfffffdfc
     7cc:	0402003d 	streq	r0, [r2], #-61	; 0xffffffc3
     7d0:	0a058203 	beq	160fe4 <SYS_MODE+0x160fc5>
     7d4:	0f056783 	svceq	0x00056783
     7d8:	01040200 	mrseq	r0, R12_usr
     7dc:	670c0566 	strvs	r0, [ip, -r6, ror #10]
     7e0:	05690805 	strbeq	r0, [r9, #-2053]!	; 0xfffff7fb
     7e4:	04020022 	streq	r0, [r2], #-34	; 0xffffffde
     7e8:	17056601 	strne	r6, [r5, -r1, lsl #12]
     7ec:	01040200 	mrseq	r0, R12_usr
     7f0:	0035054a 	eorseq	r0, r5, sl, asr #10
     7f4:	4a020402 	bmi	81804 <SYS_MODE+0x817e5>
     7f8:	05670e05 	strbeq	r0, [r7, #-3589]!	; 0xfffff1fb
     7fc:	1205660a 	andne	r6, r5, #10485760	; 0xa00000
     800:	680d054a 	stmdavs	sp, {r1, r3, r6, r8, sl}
     804:	02002605 	andeq	r2, r0, #5242880	; 0x500000
     808:	05660104 	strbeq	r0, [r6, #-260]!	; 0xfffffefc
     80c:	0402001c 	streq	r0, [r2], #-28	; 0xffffffe4
     810:	39054a01 	stmdbcc	r5, {r0, r9, fp, lr}
     814:	02040200 	andeq	r0, r4, #0, 4
     818:	670e054a 	strvs	r0, [lr, -sl, asr #10]
     81c:	05660a05 	strbeq	r0, [r6, #-2565]!	; 0xfffff5fb
     820:	0d054a12 	vstreq	s8, [r5, #-72]	; 0xffffffb8
     824:	001b0568 	andseq	r0, fp, r8, ror #10
     828:	66010402 	strvs	r0, [r1], -r2, lsl #8
     82c:	05670e05 	strbeq	r0, [r7, #-3589]!	; 0xfffff1fb
     830:	1205660a 	andne	r6, r5, #10485760	; 0xa00000
     834:	4c08054a 	cfstr32mi	mvfx0, [r8], {74}	; 0x4a
     838:	05670e05 	strbeq	r0, [r7, #-3589]!	; 0xfffff1fb
     83c:	1205660a 	andne	r6, r5, #10485760	; 0xa00000
     840:	4e06054a 	cfsh32mi	mvfx0, mvfx6, #42
     844:	05670805 	strbeq	r0, [r7, #-2053]!	; 0xfffff7fb
     848:	0a05670e 	beq	15a488 <SYS_MODE+0x15a469>
     84c:	4a120566 	bmi	481dec <SYS_MODE+0x481dcd>
     850:	05681405 	strbeq	r1, [r8, #-1029]!	; 0xfffffbfb
     854:	0e054a0d 	vmlaeq.f32	s8, s10, s26
     858:	660a054b 	strvs	r0, [sl], -fp, asr #10
     85c:	054a1205 	strbeq	r1, [sl, #-517]	; 0xfffffdfb
     860:	0d056814 	stceq	8, cr6, [r5, #-80]	; 0xffffffb0
     864:	4b0e054a 	blmi	381d94 <SYS_MODE+0x381d75>
     868:	05660a05 	strbeq	r0, [r6, #-2565]!	; 0xfffff5fb
     86c:	0a054a12 	beq	1530bc <SYS_MODE+0x15309d>
     870:	0801054e 	stmdaeq	r1, {r1, r2, r3, r6, r8, sl}
     874:	000602ad 	andeq	r0, r6, sp, lsr #5
     878:	01050101 	tsteq	r5, r1, lsl #2
     87c:	24020500 	strcs	r0, [r2], #-1280	; 0xfffffb00
     880:	03c20011 	biceq	r0, r2, #17
     884:	05010294 	streq	r0, [r1, #-660]	; 0xfffffd6c
     888:	0605d80a 	streq	sp, [r5], -sl, lsl #16
     88c:	670b054d 	strvs	r0, [fp, -sp, asr #10]
     890:	056a0f05 	strbeq	r0, [sl, #-3845]!	; 0xfffff0fb
     894:	22054a06 	andcs	r4, r5, #24576	; 0x6000
     898:	01040200 	mrseq	r0, R12_usr
     89c:	6827054a 	stmdavs	r7!, {r1, r3, r6, r8, sl}
     8a0:	2f9e1205 	svccs	0x009e1205
     8a4:	01040200 	mrseq	r0, R12_usr
     8a8:	36056606 	strcc	r6, [r5], -r6, lsl #12
     8ac:	02040200 	andeq	r0, r4, #0, 4
     8b0:	55058206 	strpl	r8, [r5, #-518]	; 0xfffffdfa
     8b4:	02040200 	andeq	r0, r4, #0, 4
     8b8:	0402004a 	streq	r0, [r2], #-74	; 0xffffffb6
     8bc:	004a0604 	subeq	r0, sl, r4, lsl #12
     8c0:	4a050402 	bmi	1418d0 <SYS_MODE+0x1418b1>
     8c4:	07040200 	streq	r0, [r4, -r0, lsl #4]
     8c8:	0012052e 	andseq	r0, r2, lr, lsr #10
     8cc:	06070402 	streq	r0, [r7], -r2, lsl #8
     8d0:	000e0566 	andeq	r0, lr, r6, ror #10
     8d4:	4a080402 	bmi	2018e4 <SYS_MODE+0x2018c5>
     8d8:	02001205 	andeq	r1, r0, #1342177280	; 0x50000000
     8dc:	05660804 	strbeq	r0, [r6, #-2052]!	; 0xfffff7fc
     8e0:	0402000d 	streq	r0, [r2], #-13
     8e4:	05056708 	streq	r6, [r5, #-1800]	; 0xfffff8f8
     8e8:	08040200 	stmdaeq	r4, {r9}
     8ec:	0014059f 	mulseq	r4, pc, r5	; <UNPREDICTABLE>
     8f0:	66010402 	strvs	r0, [r1], -r2, lsl #8
     8f4:	05690a05 	strbeq	r0, [r9, #-2565]!	; 0xfffff5fb
     8f8:	13280201 			; <UNDEFINED> instruction: 0x13280201
     8fc:	01000602 	tsteq	r0, r2, lsl #12
     900:	00010501 	andeq	r0, r1, r1, lsl #10
     904:	12800205 	addne	r0, r0, #1342177280	; 0x50000000
     908:	ad03c200 	sfmge	f4, 1, [r3, #-0]
     90c:	0a050102 	beq	140d1c <SYS_MODE+0x140cfd>
     910:	4d0605d8 	cfstr32mi	mvfx0, [r6, #-864]	; 0xfffffca0
     914:	05670b05 	strbeq	r0, [r7, #-2821]!	; 0xfffff4fb
     918:	06056a0f 	streq	r6, [r5], -pc, lsl #20
     91c:	0022054a 	eoreq	r0, r2, sl, asr #10
     920:	4a010402 	bmi	41930 <SYS_MODE+0x41911>
     924:	05682705 	strbeq	r2, [r8, #-1797]!	; 0xfffff8fb
     928:	004b6612 	subeq	r6, fp, r2, lsl r6
     92c:	06010402 	streq	r0, [r1], -r2, lsl #8
     930:	00360566 	eorseq	r0, r6, r6, ror #10
     934:	06020402 	streq	r0, [r2], -r2, lsl #8
     938:	00550582 	subseq	r0, r5, r2, lsl #11
     93c:	4a020402 	bmi	8194c <SYS_MODE+0x8192d>
     940:	04040200 	streq	r0, [r4], #-512	; 0xfffffe00
     944:	02004a06 	andeq	r4, r0, #24576	; 0x6000
     948:	004a0504 	subeq	r0, sl, r4, lsl #10
     94c:	2e070402 	cdpcs	4, 0, cr0, cr7, cr2, {0}
     950:	02001205 	andeq	r1, r0, #1342177280	; 0x50000000
     954:	66060704 	strvs	r0, [r6], -r4, lsl #14
     958:	02000e05 	andeq	r0, r0, #5, 28	; 0x50
     95c:	054a0804 	strbeq	r0, [sl, #-2052]	; 0xfffff7fc
     960:	04020012 	streq	r0, [r2], #-18	; 0xffffffee
     964:	0d056608 	stceq	6, cr6, [r5, #-32]	; 0xffffffe0
     968:	08040200 	stmdaeq	r4, {r9}
     96c:	00050567 	andeq	r0, r5, r7, ror #10
     970:	bb080402 	bllt	201980 <SYS_MODE+0x201961>
     974:	02001405 	andeq	r1, r0, #83886080	; 0x5000000
     978:	05660104 	strbeq	r0, [r6, #-260]!	; 0xfffffefc
     97c:	0105690a 	tsteq	r5, sl, lsl #18
     980:	02132802 	andseq	r2, r3, #131072	; 0x20000
     984:	01010006 	tsteq	r1, r6
     988:	05000105 	streq	r0, [r0, #-261]	; 0xfffffefb
     98c:	0013e002 	andseq	lr, r3, r2
     990:	02ce03c2 	sbceq	r0, lr, #134217731	; 0x8000003
     994:	f40a0501 	vst3.8	{d0,d2,d4}, [sl], r1
     998:	6c06054b 	cfstr32vs	mvfx0, [r6], {75}	; 0x4b
     99c:	059f0c05 	ldreq	r0, [pc, #3077]	; 15a9 <SYS_MODE+0x158a>
     9a0:	05e50806 	strbeq	r0, [r5, #2054]!	; 0x806
     9a4:	06059f0c 	streq	r9, [r5], -ip, lsl #30
     9a8:	3605e508 	strcc	lr, [r5], -r8, lsl #10
     9ac:	4a0c059f 	bmi	302030 <SYS_MODE+0x302011>
     9b0:	01040200 	mrseq	r0, R12_usr
     9b4:	02004a06 	andeq	r4, r0, #24576	; 0x6000
     9b8:	05660204 	strbeq	r0, [r6, #-516]!	; 0xfffffdfc
     9bc:	0402005d 	streq	r0, [r2], #-93	; 0xffffffa3
     9c0:	054a0604 	strbeq	r0, [sl, #-1540]	; 0xfffff9fc
     9c4:	0402000c 	streq	r0, [r2], #-12
     9c8:	02004a04 	andeq	r4, r0, #4, 20	; 0x4000
     9cc:	4a060504 	bmi	181de4 <SYS_MODE+0x181dc5>
     9d0:	06040200 	streq	r0, [r4], -r0, lsl #4
     9d4:	0402004a 	streq	r0, [r2], #-74	; 0xffffffb6
     9d8:	06052e08 	streq	r2, [r5], -r8, lsl #28
     9dc:	05940806 	ldreq	r0, [r4, #2054]	; 0x806
     9e0:	04020022 	streq	r0, [r2], #-34	; 0xffffffde
     9e4:	0c059e01 	stceq	14, cr9, [r5], {1}
     9e8:	080805a0 	stmdaeq	r8, {r5, r7, r8, sl}
     9ec:	4b0605b3 	blmi	1820c0 <SYS_MODE+0x1820a1>
     9f0:	05830e05 	streq	r0, [r3, #3589]	; 0xe05
     9f4:	0f054b0b 	svceq	0x00054b0b
     9f8:	4a060586 	bmi	182018 <SYS_MODE+0x181ff9>
     9fc:	054b0a05 	strbeq	r0, [fp, #-2565]	; 0xfffff5fb
     a00:	0c054d09 	stceq	13, cr4, [r5], {9}
     a04:	6610052f 	ldrvs	r0, [r0], -pc, lsr #10
     a08:	64830905 	strvs	r0, [r3], #2309	; 0x905
     a0c:	02002a05 	andeq	r2, r0, #20480	; 0x5000
     a10:	05660104 	strbeq	r0, [r6, #-260]!	; 0xfffffefc
     a14:	17056b07 	strne	r6, [r5, -r7, lsl #22]
     a18:	9e270583 	cfsh64ls	mvdx0, mvdx7, #-61
     a1c:	05ba0a05 	ldreq	r0, [sl, #2565]!	; 0xa05
     a20:	0e054b11 	vmoveq.32	d5[0], r4
     a24:	66080583 	strvs	r0, [r8], -r3, lsl #11
     a28:	05680605 	strbeq	r0, [r8, #-1541]!	; 0xfffff9fb
     a2c:	0e059f05 	cdpeq	15, 0, cr9, cr5, cr5, {0}
     a30:	66160568 	ldrvs	r0, [r6], -r8, ror #10
     a34:	05ba0805 	ldreq	r0, [sl, #2053]!	; 0x805
     a38:	0705670c 	streq	r6, [r5, -ip, lsl #14]
     a3c:	850b054b 	strhi	r0, [fp, #-1355]	; 0xfffffab5
     a40:	002205a0 	eoreq	r0, r2, r0, lsr #11
     a44:	66010402 	strvs	r0, [r1], -r2, lsl #8
     a48:	02001905 	andeq	r1, r0, #81920	; 0x14000
     a4c:	054a0104 	strbeq	r0, [sl, #-260]	; 0xfffffefc
     a50:	06054c05 	streq	r4, [r5], -r5, lsl #24
     a54:	67140569 	ldrvs	r0, [r4, -r9, ror #10]
     a58:	05660a05 	strbeq	r0, [r6, #-2565]!	; 0xfffff5fb
     a5c:	0a056711 	beq	15a6a8 <SYS_MODE+0x15a689>
     a60:	4a0805d6 	bmi	2021c0 <SYS_MODE+0x2021a1>
     a64:	02001805 	andeq	r1, r0, #327680	; 0x50000
     a68:	054a0204 	strbeq	r0, [sl, #-516]	; 0xfffffdfc
     a6c:	04020033 	streq	r0, [r2], #-51	; 0xffffffcd
     a70:	29059e03 	stmdbcs	r5, {r0, r1, r9, sl, fp, ip, pc}
     a74:	03040200 	movweq	r0, #16896	; 0x4200
     a78:	4d07054a 	cfstr32mi	mvfx0, [r7, #-296]	; 0xfffffed8
     a7c:	05861205 	streq	r1, [r6, #517]	; 0x205
     a80:	07054c0b 	streq	r4, [r5, -fp, lsl #24]
     a84:	6727052f 	strvs	r0, [r7, -pc, lsr #10]!
     a88:	05f21405 	ldrbeq	r1, [r2, #1029]!	; 0x405
     a8c:	14052e0e 	strne	r2, [r5], #-3598	; 0xfffff1f2
     a90:	4a120566 	bmi	482030 <SYS_MODE+0x482011>
     a94:	ba0a0567 	blt	282038 <SYS_MODE+0x282019>
     a98:	05630b05 	strbeq	r0, [r3, #-2821]!	; 0xfffff4fb
     a9c:	0b058609 	bleq	1622c8 <SYS_MODE+0x1622a9>
     aa0:	080e0532 	stmdaeq	lr, {r1, r4, r5, r8, sl}
     aa4:	66120575 			; <UNDEFINED> instruction: 0x66120575
     aa8:	05810b05 	streq	r0, [r1, #2821]	; 0xb05
     aac:	04020035 	streq	r0, [r2], #-53	; 0xffffffcb
     ab0:	2c056601 	stccs	6, cr6, [r5], {1}
     ab4:	01040200 	mrseq	r0, R12_usr
     ab8:	4d080566 	cfstr32mi	mvfx0, [r8, #-408]	; 0xfffffe68
     abc:	05680e05 	strbeq	r0, [r8, #-3589]!	; 0xfffff1fb
     ac0:	09056612 	stmdbeq	r5, {r1, r4, r9, sl, sp, lr}
     ac4:	01040200 	mrseq	r0, R12_usr
     ac8:	2f250587 	svccs	0x00250587
     acc:	3c081205 	sfmcc	f1, 4, [r8], {5}
     ad0:	052e0c05 	streq	r0, [lr, #-3077]!	; 0xfffff3fb
     ad4:	10056612 	andne	r6, r5, r2, lsl r6
     ad8:	6711054a 	ldrvs	r0, [r1, -sl, asr #10]
     adc:	05f20805 	ldrbeq	r0, [r2, #2053]!	; 0x805
     ae0:	07056409 	streq	r6, [r5, -r9, lsl #8]
     ae4:	330f0585 	movwcc	r0, #62853	; 0xf585
     ae8:	054a0605 	strbeq	r0, [sl, #-1541]	; 0xfffff9fb
     aec:	04020027 	streq	r0, [r2], #-39	; 0xffffffd9
     af0:	1d054a01 	vstrne	s8, [r5, #-4]
     af4:	01040200 	mrseq	r0, R12_usr
     af8:	4b08054a 	blmi	202028 <SYS_MODE+0x202009>
     afc:	02000f05 	andeq	r0, r0, #5, 30
     b00:	05660104 	strbeq	r0, [r6, #-260]!	; 0xfffffefc
     b04:	04020026 	streq	r0, [r2], #-38	; 0xffffffda
     b08:	1c056602 	stcne	6, cr6, [r5], {2}
     b0c:	02040200 	andeq	r0, r4, #0, 4
     b10:	4b0c054a 	blmi	302040 <SYS_MODE+0x302021>
     b14:	05680b05 	strbeq	r0, [r8, #-2821]!	; 0xfffff4fb
     b18:	12052f0e 	andne	r2, r5, #14, 30	; 0x38
     b1c:	810b0566 	tsthi	fp, r6, ror #10
     b20:	02001a05 	andeq	r1, r0, #20480	; 0x5000
     b24:	05820104 	streq	r0, [r2, #260]	; 0x104
     b28:	08056b06 	stmdaeq	r5, {r1, r2, r8, r9, fp, sp, lr}
     b2c:	670e0567 	strvs	r0, [lr, -r7, ror #10]
     b30:	05661205 	strbeq	r1, [r6, #-517]!	; 0xfffffdfb
     b34:	0d05a014 	stceq	0, cr10, [r5, #-80]	; 0xffffffb0
     b38:	4b0e054a 	blmi	382068 <SYS_MODE+0x382049>
     b3c:	05661205 	strbeq	r1, [r6, #-517]!	; 0xfffffdfb
     b40:	0d05a014 	stceq	0, cr10, [r5, #-80]	; 0xffffffb0
     b44:	4b0e054a 	blmi	382074 <SYS_MODE+0x382055>
     b48:	05661205 	strbeq	r1, [r6, #-517]!	; 0xfffffdfb
     b4c:	0105860a 	tsteq	r5, sl, lsl #12
     b50:	03040200 	movweq	r0, #16896	; 0x4200
     b54:	0602ad08 	streq	sl, [r2], -r8, lsl #26
     b58:	05010100 	streq	r0, [r1, #-256]	; 0xffffff00
     b5c:	02050001 	andeq	r0, r5, #1
     b60:	c2001ae8 	andgt	r1, r0, #232, 20	; 0xe8000
     b64:	0103ce03 	tsteq	r3, r3, lsl #28
     b68:	05f40605 	ldrbeq	r0, [r4, #1541]!	; 0x605
     b6c:	04020018 	streq	r0, [r2], #-24	; 0xffffffe8
     b70:	2d059e01 	stccs	14, cr9, [r5, #-4]
     b74:	02040200 	andeq	r0, r4, #0, 4
     b78:	9f0c059e 	svcls	0x000c059e
     b7c:	b0080e05 	andlt	r0, r8, r5, lsl #28
     b80:	05bb0605 	ldreq	r0, [fp, #1541]!	; 0x605
     b84:	0f05670b 	svceq	0x0005670b
     b88:	4a06056a 	bmi	182138 <SYS_MODE+0x182119>
     b8c:	034b0a05 	movteq	r0, #47621	; 0xba05
     b90:	19054a0a 	stmdbne	r5, {r1, r3, r9, fp, lr}
     b94:	2e1c054b 	cfmac32cs	mvfx0, mvfx12, mvfx11
     b98:	05822405 	streq	r2, [r2, #1029]	; 0x405
     b9c:	07052e0e 	streq	r2, [r5, -lr, lsl #28]
     ba0:	6711052e 	ldrvs	r0, [r1, -lr, lsr #10]
     ba4:	052e1405 	streq	r1, [lr, #-1029]!	; 0xfffffbfb
     ba8:	0a054a2c 	beq	153460 <SYS_MODE+0x153441>
     bac:	302d0566 	eorcc	r0, sp, r6, ror #10
     bb0:	059e2605 	ldreq	r2, [lr, #1541]	; 0x605
     bb4:	4b054a48 	blmi	1534dc <SYS_MODE+0x1534bd>
     bb8:	4a52052e 	bmi	1482078 <SYS_MODE+0x1482059>
     bbc:	054a4105 	strbeq	r4, [sl, #-261]	; 0xfffffefb
     bc0:	17052e07 	strne	r2, [r5, -r7, lsl #28]
     bc4:	9e2b0568 	cfsh64ls	mvdx0, mvdx11, #56
     bc8:	054a0805 	strbeq	r0, [sl, #-2053]	; 0xfffff7fb
     bcc:	3705671c 	smladcc	r5, ip, r7, r6
     bd0:	9e10059e 	cfcmp32ls	r0, mvfx0, mvfx14
     bd4:	671c054b 	ldrvs	r0, [ip, -fp, asr #10]
     bd8:	05660c05 	strbeq	r0, [r6, #-3077]!	; 0xfffff3fb
     bdc:	0a056624 	beq	15a474 <SYS_MODE+0x15a455>
     be0:	13053082 	movwne	r3, #20610	; 0x5082
     be4:	4a1c052e 	bmi	7020a4 <SYS_MODE+0x702085>
     be8:	05663c05 	strbeq	r3, [r6, #-3077]!	; 0xfffff3fb
     bec:	31056637 	tstcc	r5, r7, lsr r6
     bf0:	4a2b054a 	bmi	ac2120 <SYS_MODE+0xac2101>
     bf4:	054a2605 	strbeq	r2, [sl, #-1541]	; 0xfffff9fb
     bf8:	17054a20 	strne	r4, [r5, -r0, lsr #20]
     bfc:	2e0f052e 	cfsh32cs	mvfx0, mvfx15, #30
     c00:	054a0a05 	strbeq	r0, [sl, #-2565]	; 0xfffff5fb
     c04:	06054c13 			; <UNDEFINED> instruction: 0x06054c13
     c08:	830b052e 	movwhi	r0, #46382	; 0xb52e
     c0c:	05670c05 	strbeq	r0, [r7, #-3077]!	; 0xfffff3fb
     c10:	2b058644 	blcs	162528 <SYS_MODE+0x162509>
     c14:	01040200 	mrseq	r0, R12_usr
     c18:	00440566 	subeq	r0, r4, r6, ror #10
     c1c:	66030402 	strvs	r0, [r3], -r2, lsl #8
     c20:	04040200 	streq	r0, [r4], #-512	; 0xfffffe00
     c24:	10054a06 	andne	r4, r5, r6, lsl #20
     c28:	06040200 	streq	r0, [r4], -r0, lsl #4
     c2c:	0d052e06 	stceq	14, cr2, [r5, #-24]	; 0xffffffe8
     c30:	06040200 	streq	r0, [r4], -r0, lsl #4
     c34:	00060531 	andeq	r0, r6, r1, lsr r5
     c38:	4a060402 	bmi	181c48 <SYS_MODE+0x181c29>
     c3c:	054c0805 	strbeq	r0, [ip, #-2053]	; 0xfffff7fb
     c40:	04020019 	streq	r0, [r2], #-25	; 0xffffffe7
     c44:	0b059e01 	bleq	168450 <SYS_MODE+0x168431>
     c48:	2e0a059f 	mcrcs	5, 0, r0, cr10, cr15, {4}
     c4c:	05671b05 	strbeq	r1, [r7, #-2821]!	; 0xfffff4fb
     c50:	2e052e25 	cdpcs	14, 0, cr2, cr5, cr5, {1}
     c54:	2e0e054a 	cfsh32cs	mvfx0, mvfx14, #42
     c58:	4c0d054d 	cfstr32mi	mvfx0, [sp], {77}	; 0x4d
     c5c:	4b681005 	blmi	1a04c78 <SYS_MODE+0x1a04c59>
     c60:	056a0a05 	strbeq	r0, [sl, #-2565]!	; 0xfffff5fb
     c64:	04020020 	streq	r0, [r2], #-32	; 0xffffffe0
     c68:	16056601 	strne	r6, [r5], -r1, lsl #12
     c6c:	01040200 	mrseq	r0, R12_usr
     c70:	4b09054a 	blmi	2421a0 <SYS_MODE+0x242181>
     c74:	056c1005 	strbeq	r1, [ip, #-5]!
     c78:	0c054b06 			; <UNDEFINED> instruction: 0x0c054b06
     c7c:	0e05a184 	mvfeqd	f2, f4
     c80:	4a06054c 	bmi	1821b8 <SYS_MODE+0x182199>
     c84:	02001c05 	andeq	r1, r0, #1280	; 0x500
     c88:	054a0104 	strbeq	r0, [sl, #-260]	; 0xfffffefc
     c8c:	0605680c 	streq	r6, [r5], -ip, lsl #16
     c90:	6712054e 	ldrvs	r0, [r2, -lr, asr #10]
     c94:	052e0b05 	streq	r0, [lr, #-2821]!	; 0xfffff4fb
     c98:	09056a10 	stmdbeq	r5, {r4, r9, fp, sp, lr}
     c9c:	0402004b 	streq	r0, [r2], #-75	; 0xffffffb5
     ca0:	00660601 	rsbeq	r0, r6, r1, lsl #12
     ca4:	02020402 	andeq	r0, r2, #33554432	; 0x2000000
     ca8:	0200122e 	andeq	r1, r0, #-536870910	; 0xe0000002
     cac:	052e0404 	streq	r0, [lr, #-1028]!	; 0xfffffbfc
     cb0:	04020006 	streq	r0, [r2], #-6
     cb4:	af080604 	svcge	0x00080604
     cb8:	05681005 	strbeq	r1, [r8, #-5]!
     cbc:	02004a05 	andeq	r4, r0, #20480	; 0x5000
     cc0:	4a060104 	bmi	1810d8 <SYS_MODE+0x1810b9>
     cc4:	02040200 	andeq	r0, r4, #0, 4
     cc8:	0402004a 	streq	r0, [r2], #-74	; 0xffffffb6
     ccc:	47052e04 	strmi	r2, [r5, -r4, lsl #28]
     cd0:	04040200 	streq	r0, [r4], #-512	; 0xfffffe00
     cd4:	0b05d806 	bleq	176cf4 <SYS_MODE+0x176cd5>
     cd8:	04040200 	streq	r0, [r4], #-512	; 0xfffffe00
     cdc:	000f0566 	andeq	r0, pc, r6, ror #10
     ce0:	02040402 	andeq	r0, r4, #33554432	; 0x2000000
     ce4:	0805142a 	stmdaeq	r5, {r1, r3, r5, sl, ip}
     ce8:	04040200 	streq	r0, [r4], #-512	; 0xfffffe00
     cec:	4b0d054a 	blmi	34221c <SYS_MODE+0x3421fd>
     cf0:	02002705 	andeq	r2, r0, #1310720	; 0x140000
     cf4:	052e0204 	streq	r0, [lr, #-516]!	; 0xfffffdfc
     cf8:	04020012 	streq	r0, [r2], #-18	; 0xffffffee
     cfc:	0d05f201 	sfmeq	f7, 1, [r5, #-4]
     d00:	01040200 	mrseq	r0, R12_usr
     d04:	690a0566 	stmdbvs	sl, {r1, r2, r5, r6, r8, sl}
     d08:	02000105 	andeq	r0, r0, #1073741825	; 0x40000001
     d0c:	022f0104 	eoreq	r0, pc, #4, 2
     d10:	01010006 	tsteq	r1, r6
     d14:	05000105 	streq	r0, [r0, #-261]	; 0xfffffefb
     d18:	00206402 	eoreq	r6, r0, r2, lsl #8
     d1c:	04bc03c2 	ldrteq	r0, [ip], #962	; 0x3c2
     d20:	d80a0501 	stmdale	sl, {r0, r8, sl}
     d24:	054c0605 	strbeq	r0, [ip, #-1541]	; 0xfffff9fb
     d28:	31696809 	cmncc	r9, r9, lsl #16
     d2c:	054a0805 	strbeq	r0, [sl, #-2053]	; 0xfffff7fb
     d30:	0d054c07 	stceq	12, cr4, [r5, #-28]	; 0xffffffe4
     d34:	07052108 	streq	r2, [r5, -r8, lsl #2]
     d38:	320d0567 	andcc	r0, sp, #432013312	; 0x19c00000
     d3c:	056a0b05 	strbeq	r0, [sl, #-2821]!	; 0xfffff4fb
     d40:	07054c0f 	streq	r4, [r5, -pc, lsl #24]
     d44:	0219054a 	andseq	r0, r9, #310378496	; 0x12800000
     d48:	3105132a 	tstcc	r5, sl, lsr #6
     d4c:	66370566 	ldrtvs	r0, [r7], -r6, ror #10
     d50:	054a0905 	strbeq	r0, [sl, #-2309]	; 0xfffff6fb
     d54:	31052f19 	tstcc	r5, r9, lsl pc
     d58:	66370566 	ldrtvs	r0, [r7], -r6, ror #10
     d5c:	054a0905 	strbeq	r0, [sl, #-2309]	; 0xfffff6fb
     d60:	31052f19 	tstcc	r5, r9, lsl pc
     d64:	66370566 	ldrtvs	r0, [r7], -r6, ror #10
     d68:	054a0905 	strbeq	r0, [sl, #-2309]	; 0xfffff6fb
     d6c:	31052f19 	tstcc	r5, r9, lsl pc
     d70:	66370566 	ldrtvs	r0, [r7], -r6, ror #10
     d74:	054a0905 	strbeq	r0, [sl, #-2309]	; 0xfffff6fb
     d78:	31052f19 	tstcc	r5, r9, lsl pc
     d7c:	66370566 	ldrtvs	r0, [r7], -r6, ror #10
     d80:	054a0905 	strbeq	r0, [sl, #-2309]	; 0xfffff6fb
     d84:	09052f37 	stmdbeq	r5, {r0, r1, r2, r4, r5, r8, r9, sl, fp, sp}
     d88:	3005054a 	andcc	r0, r5, sl, asr #10
     d8c:	05690b05 	strbeq	r0, [r9, #-2821]!	; 0xfffff4fb
     d90:	08054b09 	stmdaeq	r5, {r0, r3, r8, r9, fp, lr}
     d94:	4b0f059e 	blmi	3c2414 <SYS_MODE+0x3c23f5>
     d98:	05a00e05 	streq	r0, [r0, #3589]!	; 0xe05
     d9c:	11054a0d 	tstne	r5, sp, lsl #20
     da0:	9f0a054b 	svcls	0x000a054b
     da4:	05670f05 	strbeq	r0, [r7, #-3845]!	; 0xfffff0fb
     da8:	0f05671f 	svceq	0x0005671f
     dac:	0d054d4a 	stceq	13, cr4, [r5, #-296]	; 0xfffffed8
     db0:	6a0f054c 	bvs	3c22e8 <SYS_MODE+0x3c22c9>
     db4:	054b0905 	strbeq	r0, [fp, #-2309]	; 0xfffff6fb
     db8:	0d054a08 	vstreq	s8, [r5, #-32]	; 0xffffffe0
     dbc:	0b05674b 	bleq	15aaf0 <SYS_MODE+0x15aad1>
     dc0:	9e0a0567 	cfsh32ls	mvfx0, mvfx10, #55
     dc4:	054b1505 	strbeq	r1, [fp, #-1285]	; 0xfffffafb
     dc8:	0f05a010 	svceq	0x0005a010
     dcc:	4b13054a 	blmi	4c22fc <SYS_MODE+0x4c22dd>
     dd0:	059f3305 	ldreq	r3, [pc, #773]	; 10dd <SYS_MODE+0x10be>
     dd4:	0f054a13 	svceq	0x00054a13
     dd8:	6b0d052f 	blvs	34229c <SYS_MODE+0x34227d>
     ddc:	054a0505 	strbeq	r0, [sl, #-1285]	; 0xfffffafb
     de0:	142e020f 	strtne	r0, [lr], #-527	; 0xfffffdf1
     de4:	670d0567 	strvs	r0, [sp, -r7, ror #10]
     de8:	054a0c05 	strbeq	r0, [sl, #-3077]	; 0xfffff3fb
     dec:	05674b11 	strbeq	r4, [r7, #-2833]!	; 0xfffff4ef
     df0:	0f056809 	svceq	0x00056809
     df4:	0d056730 	stceq	7, cr6, [r5, #-192]	; 0xffffff40
     df8:	4a0c0567 	bmi	30239c <SYS_MODE+0x30237d>
     dfc:	674b1105 	strbvs	r1, [fp, -r5, lsl #2]
     e00:	05680905 	strbeq	r0, [r8, #-2309]!	; 0xfffff6fb
     e04:	0567310f 	strbeq	r3, [r7, #-271]!	; 0xfffffef1
     e08:	0f056709 	svceq	0x00056709
     e0c:	09056731 	stmdbeq	r5, {r0, r4, r5, r8, r9, sl, sp, lr}
     e10:	300f0567 	andcc	r0, pc, r7, ror #10
     e14:	67090567 	strvs	r0, [r9, -r7, ror #10]
     e18:	4a680330 	bmi	1a01ae0 <SYS_MODE+0x1a01ac1>
     e1c:	030d0552 	movweq	r0, #54610	; 0xd552
     e20:	05052e14 	streq	r2, [r5, #-3604]	; 0xfffff1ec
     e24:	030d054a 	movweq	r0, #54602	; 0xd54a
     e28:	01b0020a 	lslseq	r0, sl, #4
     e2c:	4a0c0501 	bmi	302238 <SYS_MODE+0x302219>
     e30:	02001f05 	andeq	r1, r0, #5, 30
     e34:	054a0104 	strbeq	r0, [sl, #-260]	; 0xfffffefc
     e38:	0402001c 	streq	r0, [r2], #-28	; 0xffffffe4
     e3c:	10054a01 	andne	r4, r5, r1, lsl #20
     e40:	6812054b 	ldmdavs	r2, {r0, r1, r3, r6, r8, sl}
     e44:	054a1105 	strbeq	r1, [sl, #-261]	; 0xfffffefb
     e48:	12054b10 	andne	r4, r5, #16, 22	; 0x4000
     e4c:	4a110568 	bmi	4423f4 <SYS_MODE+0x4423d5>
     e50:	694b1005 	stmdbvs	fp, {r0, r2, ip}^
     e54:	054b1105 	strbeq	r1, [fp, #-261]	; 0xfffffefb
     e58:	0c05690d 			; <UNDEFINED> instruction: 0x0c05690d
     e5c:	4b11054a 	blmi	44238c <SYS_MODE+0x44236d>
     e60:	056a0e05 	strbeq	r0, [sl, #-3589]!	; 0xfffff1fb
     e64:	22054a0c 	andcs	r4, r5, #12, 20	; 0xc000
     e68:	01040200 	mrseq	r0, R12_usr
     e6c:	001e054a 	andseq	r0, lr, sl, asr #10
     e70:	4a010402 	bmi	41e80 <SYS_MODE+0x41e61>
     e74:	054b1105 	strbeq	r1, [fp, #-261]	; 0xfffffefb
     e78:	0c056a13 			; <UNDEFINED> instruction: 0x0c056a13
     e7c:	4b11054a 	blmi	4423ac <SYS_MODE+0x44238d>
     e80:	056a0e05 	strbeq	r0, [sl, #-3589]!	; 0xfffff1fb
     e84:	22054a0c 	andcs	r4, r5, #12, 20	; 0xc000
     e88:	01040200 	mrseq	r0, R12_usr
     e8c:	001e054a 	andseq	r0, lr, sl, asr #10
     e90:	4a010402 	bmi	41ea0 <SYS_MODE+0x41e81>
     e94:	054c1505 	strbeq	r1, [ip, #-1285]	; 0xfffffafb
     e98:	1d054a0e 	vstrne	s8, [r5, #-56]	; 0xffffffc8
     e9c:	d73d054c 	ldrle	r0, [sp, -ip, asr #10]!
     ea0:	74081305 	strvc	r1, [r8], #-773	; 0xfffffcfb
     ea4:	32020e05 	andcc	r0, r2, #5, 28	; 0x50
     ea8:	341a050f 	ldrcc	r0, [sl], #-1295	; 0xfffffaf1
     eac:	054a1305 	strbeq	r1, [sl, #-773]	; 0xfffffcfb
     eb0:	38054b18 	stmdacc	r5, {r3, r4, r8, r9, fp, lr}
     eb4:	6613059f 			; <UNDEFINED> instruction: 0x6613059f
     eb8:	78030e05 	stmdavc	r3, {r0, r2, r9, sl, fp}
     ebc:	05012802 	streq	r2, [r1, #-2050]	; 0xfffff7fe
     ec0:	2e0b0326 	cdpcs	3, 0, cr0, cr11, cr6, {1}
     ec4:	054a4c05 	strbeq	r4, [sl, #-3077]	; 0xfffff3fb
     ec8:	36054a3c 			; <UNDEFINED> instruction: 0x36054a3c
     ecc:	00550582 	subseq	r0, r5, r2, lsl #11
     ed0:	4a020402 	bmi	81ee0 <SYS_MODE+0x81ec1>
     ed4:	00018105 	andeq	r8, r1, r5, lsl #2
     ed8:	4a020402 	bmi	81ee8 <SYS_MODE+0x81ec9>
     edc:	054a7105 	strbeq	r7, [sl, #-261]	; 0xfffffefb
     ee0:	81058266 	tsthi	r5, r6, ror #4
     ee4:	17054a01 	strne	r4, [r5, -r1, lsl #20]
     ee8:	08040200 	stmdaeq	r4, {r9}
     eec:	00380582 	eorseq	r0, r8, r2, lsl #11
     ef0:	2f080402 	svccs	0x00080402
     ef4:	02001305 	andeq	r1, r0, #335544320	; 0x14000000
     ef8:	05660804 	strbeq	r0, [r6, #-2052]!	; 0xfffff7fc
     efc:	0402000e 	streq	r0, [r2], #-14
     f00:	02740308 	rsbseq	r0, r4, #8, 6	; 0x20000000
     f04:	15050128 	strne	r0, [r5, #-296]	; 0xfffffed8
     f08:	052e1103 	streq	r1, [lr, #-259]!	; 0xfffffefd
     f0c:	13054a0e 	movwne	r4, #23054	; 0x5a0e
     f10:	021a054c 	andseq	r0, sl, #76, 10	; 0x13000000
     f14:	13051538 	movwne	r1, #21816	; 0x5538
     f18:	2f054b4a 	svccs	0x00054b4a
     f1c:	05152c02 	ldreq	r2, [r5, #-3074]	; 0xfffff3fe
     f20:	4e054a67 	vmlsmi.f32	s8, s10, s15
     f24:	823f054a 	eorshi	r0, pc, #310378496	; 0x12800000
     f28:	02007005 	andeq	r7, r0, #5
     f2c:	054a0204 	strbeq	r0, [sl, #-516]	; 0xfffffdfc
     f30:	020001ae 	andeq	r0, r0, #-2147483605	; 0x8000002b
     f34:	054a0204 	strbeq	r0, [sl, #-516]	; 0xfffffdfc
     f38:	054a0195 	strbeq	r0, [sl, #-405]	; 0xfffffe6b
     f3c:	05820181 	streq	r0, [r2, #385]	; 0x181
     f40:	054a01ae 	strbeq	r0, [sl, #-430]	; 0xfffffe52
     f44:	04020020 	streq	r0, [r2], #-32	; 0xffffffe0
     f48:	13058208 	movwne	r8, #21000	; 0x5208
     f4c:	08040200 	stmdaeq	r4, {r9}
     f50:	020f052f 	andeq	r0, pc, #197132288	; 0xbc00000
     f54:	09051524 	stmdbeq	r5, {r2, r5, r8, sl, ip}
     f58:	330d0567 	movwcc	r0, #54631	; 0xd567
     f5c:	054a0c05 	strbeq	r0, [sl, #-3077]	; 0xfffff3fb
     f60:	04020023 	streq	r0, [r2], #-35	; 0xffffffdd
     f64:	0f054a01 	svceq	0x00054a01
     f68:	13260267 			; <UNDEFINED> instruction: 0x13260267
     f6c:	05670905 	strbeq	r0, [r7, #-2309]!	; 0xfffff6fb
     f70:	0c05340e 	cfstrseq	mvf3, [r5], {14}
     f74:	0020054a 	eoreq	r0, r0, sl, asr #10
     f78:	4a020402 	bmi	81f88 <SYS_MODE+0x81f69>
     f7c:	02001d05 	andeq	r1, r0, #320	; 0x140
     f80:	054a0204 	strbeq	r0, [sl, #-516]	; 0xfffffdfc
     f84:	04020037 	streq	r0, [r2], #-55	; 0xffffffc9
     f88:	0e054a03 	vmlaeq.f32	s8, s10, s6
     f8c:	4a0c0567 	bmi	302530 <SYS_MODE+0x302511>
     f90:	02002005 	andeq	r2, r0, #5
     f94:	054a0204 	strbeq	r0, [sl, #-516]	; 0xfffffdfc
     f98:	0402001d 	streq	r0, [r2], #-29	; 0xffffffe3
     f9c:	37054a02 	strcc	r4, [r5, -r2, lsl #20]
     fa0:	03040200 	movweq	r0, #16896	; 0x4200
     fa4:	670f054a 	strvs	r0, [pc, -sl, asr #10]
     fa8:	05132602 	ldreq	r2, [r3, #-1538]	; 0xfffff9fe
     fac:	16056709 	strne	r6, [r5], -r9, lsl #14
     fb0:	4c150532 	cfldr32mi	mvfx0, [r5], {50}	; 0x32
     fb4:	054a0c05 	strbeq	r0, [sl, #-3077]	; 0xfffff3fb
     fb8:	0d054b11 	vstreq	d4, [r5, #-68]	; 0xffffffbc
     fbc:	f113052f 			; <UNDEFINED> instruction: 0xf113052f
     fc0:	05661105 	strbeq	r1, [r6, #-261]!	; 0xfffffefb
     fc4:	09056b13 	stmdbeq	r5, {r0, r1, r4, r8, r9, fp, sp, lr}
     fc8:	f4130582 			; <UNDEFINED> instruction: 0xf4130582
     fcc:	054a0c05 	strbeq	r0, [sl, #-3077]	; 0xfffff3fb
     fd0:	0d054b11 	vstreq	d4, [r5, #-68]	; 0xffffffbc
     fd4:	f113052f 			; <UNDEFINED> instruction: 0xf113052f
     fd8:	05661105 	strbeq	r1, [r6, #-261]!	; 0xfffffefb
     fdc:	09056a0f 	stmdbeq	r5, {r0, r1, r2, r3, r9, fp, sp, lr}
     fe0:	32150567 	andscc	r0, r5, #432013312	; 0x19c00000
     fe4:	009f1a05 	addseq	r1, pc, r5, lsl #20
     fe8:	06010402 	streq	r0, [r1], -r2, lsl #8
     fec:	04020066 	streq	r0, [r2], #-102	; 0xffffff9a
     ff0:	02004a02 	andeq	r4, r0, #8192	; 0x2000
     ff4:	052e0404 	streq	r0, [lr, #-1028]!	; 0xfffffbfc
     ff8:	04020013 	streq	r0, [r2], #-19	; 0xffffffed
     ffc:	05840604 	streq	r0, [r4, #1540]	; 0x604
    1000:	0402000c 	streq	r0, [r2], #-12
    1004:	0d054a04 	vstreq	s8, [r5, #-16]
    1008:	bc15054b 	cfldr32lt	mvfx0, [r5], {75}	; 0x4b
    100c:	054a0c05 	strbeq	r0, [sl, #-3077]	; 0xfffff3fb
    1010:	0d054b11 	vstreq	d4, [r5, #-68]	; 0xffffffbc
    1014:	f113052f 			; <UNDEFINED> instruction: 0xf113052f
    1018:	05661105 	strbeq	r1, [r6, #-261]!	; 0xfffffefb
    101c:	12056b0f 	andne	r6, r5, #15360	; 0x3c00
    1020:	660b052f 	strvs	r0, [fp], -pc, lsr #10
    1024:	05f11105 	ldrbeq	r1, [r1, #261]!	; 0x105
    1028:	26054a0f 	strcs	r4, [r5], -pc, lsl #20
    102c:	01040200 	mrseq	r0, R12_usr
    1030:	001a054a 	andseq	r0, sl, sl, asr #10
    1034:	4a010402 	bmi	42044 <SYS_MODE+0x42025>
    1038:	02004505 	andeq	r4, r0, #20971520	; 0x1400000
    103c:	054a0204 	strbeq	r0, [sl, #-516]	; 0xfffffdfc
    1040:	04020039 	streq	r0, [r2], #-57	; 0xffffffc7
    1044:	13056602 	movwne	r6, #22018	; 0x5602
    1048:	4a0c054e 	bmi	302588 <SYS_MODE+0x302569>
    104c:	054b1105 	strbeq	r1, [fp, #-261]	; 0xfffffefb
    1050:	13052f0d 	movwne	r2, #24333	; 0x5f0d
    1054:	661105f1 			; <UNDEFINED> instruction: 0x661105f1
    1058:	056a0f05 	strbeq	r0, [sl, #-3845]!	; 0xfffff0fb
    105c:	0f056709 	svceq	0x00056709
    1060:	14054b32 	strne	r4, [r5], #-2866	; 0xfffff4ce
    1064:	4b0c0568 	blmi	30260c <SYS_MODE+0x3025ed>
    1068:	05674605 	strbeq	r4, [r7, #-1541]!	; 0xfffff9fb
    106c:	1105823b 	tstne	r5, fp, lsr r2
    1070:	0251052e 	subseq	r0, r1, #192937984	; 0xb800000
    1074:	1105162e 	tstne	r5, lr, lsr #12
    1078:	020f0582 	andeq	r0, pc, #545259520	; 0x20800000
    107c:	09051624 	stmdbeq	r5, {r2, r5, r9, sl, ip}
    1080:	0f053267 	svceq	0x00053267
    1084:	670905f3 			; <UNDEFINED> instruction: 0x670905f3
    1088:	080f0531 	stmdaeq	pc, {r0, r4, r5, r8, sl}	; <UNPREDICTABLE>
    108c:	67090521 	strvs	r0, [r9, -r1, lsr #10]
    1090:	fb030a05 	blx	c38ae <SYS_MODE+0xc388f>
    1094:	09052e7d 	stmdbeq	r5, {r0, r2, r3, r4, r5, r6, r9, sl, fp, sp}
    1098:	0303054a 	movweq	r0, #13642	; 0x354a
    109c:	004a028a 	subeq	r0, sl, sl, lsl #5
    10a0:	06010402 	streq	r0, [r1], -r2, lsl #8
    10a4:	04020082 	streq	r0, [r2], #-130	; 0xffffff7e
    10a8:	02006602 	andeq	r6, r0, #2097152	; 0x200000
    10ac:	052e0404 	streq	r0, [lr, #-1028]!	; 0xfffffbfc
    10b0:	0402000a 	streq	r0, [r2], #-10
    10b4:	05a10604 	streq	r0, [r1, #1540]!	; 0x604
    10b8:	04020001 	streq	r0, [r2], #-1
    10bc:	06022f04 	streq	r2, [r2], -r4, lsl #30
    10c0:	05010100 	streq	r0, [r1, #-256]	; 0xffffff00
    10c4:	02050001 	andeq	r0, r5, #1
    10c8:	c2002ff4 	andgt	r2, r0, #244, 30	; 0x3d0
    10cc:	0106d903 	tsteq	r6, r3, lsl #18
    10d0:	05840305 	streq	r0, [r4, #773]	; 0x305
    10d4:	0a054c13 	beq	154128 <SYS_MODE+0x154109>
    10d8:	01052208 	tsteq	r5, r8, lsl #4
    10dc:	000a022f 	andeq	r0, sl, pc, lsr #4
    10e0:	01050101 	tsteq	r5, r1, lsl #2
    10e4:	00020500 	andeq	r0, r2, r0, lsl #10
    10e8:	03000000 	movweq	r0, #0
    10ec:	050106e4 	streq	r0, [r1, #-1764]	; 0xfffff91c
    10f0:	1305a003 	movwne	sl, #20483	; 0x5003
    10f4:	080a054b 	stmdaeq	sl, {r0, r1, r3, r6, r8, sl}
    10f8:	2f010522 	svccs	0x00010522
    10fc:	01000a02 	tsteq	r0, r2, lsl #20
    1100:	00010501 	andeq	r0, r1, r1, lsl #10
    1104:	00000205 	andeq	r0, r0, r5, lsl #4
    1108:	ee030000 	cdp	0, 0, cr0, cr3, cr0, {0}
    110c:	03050106 	movweq	r0, #20742	; 0x5106
    1110:	4b1305bc 	blmi	4c2808 <SYS_MODE+0x4c27e9>
    1114:	22080a05 	andcs	r0, r8, #20480	; 0x5000
    1118:	022f0105 	eoreq	r0, pc, #1073741825	; 0x40000001
    111c:	0101000a 	tsteq	r1, sl
    1120:	05000105 	streq	r0, [r0, #-261]	; 0xfffffefb
    1124:	00000002 	andeq	r0, r0, r2
    1128:	06f80300 	ldrbteq	r0, [r8], r0, lsl #6
    112c:	a00a0501 	andge	r0, sl, r1, lsl #10
    1130:	21080105 	tstcs	r8, r5, lsl #2
    1134:	01000602 	tsteq	r0, r2, lsl #12
    1138:	00010501 	andeq	r0, r1, r1, lsl #10
    113c:	00000205 	andeq	r0, r0, r5, lsl #4
    1140:	ff030000 			; <UNDEFINED> instruction: 0xff030000
    1144:	0a050106 	beq	141564 <SYS_MODE+0x141545>
    1148:	080105d7 	stmdaeq	r1, {r0, r1, r2, r4, r6, r7, r8, sl}
    114c:	00060221 	andeq	r0, r6, r1, lsr #4
    1150:	01050101 	tsteq	r5, r1, lsl #2
    1154:	00020500 	andeq	r0, r2, r0, lsl #10
    1158:	03000000 	movweq	r0, #0
    115c:	05010785 	streq	r0, [r1, #-1925]	; 0xfffff87b
    1160:	1b05bc03 	blne	170174 <SYS_MODE+0x170155>
    1164:	8313054b 	tsthi	r3, #314572800	; 0x12c00000
    1168:	22080a05 	andcs	r0, r8, #20480	; 0x5000
    116c:	022f0105 	eoreq	r0, pc, #1073741825	; 0x40000001
    1170:	0101000a 	tsteq	r1, sl
    1174:	000000a2 	andeq	r0, r0, r2, lsr #1
    1178:	00700003 	rsbseq	r0, r0, r3
    117c:	01020000 	mrseq	r0, (UNDEF: 2)
    1180:	000d0efb 	strdeq	r0, [sp], -fp
    1184:	01010101 	tsteq	r1, r1, lsl #2
    1188:	01000000 	mrseq	r0, (UNDEF: 0)
    118c:	2f010000 	svccs	0x00010000
    1190:	656d6f68 	strbvs	r6, [sp, #-3944]!	; 0xfffff098
    1194:	6c7a632f 	ldclvs	3, cr6, [sl], #-188	; 0xffffff44
    1198:	2f786d69 	svccs	0x00786d69
    119c:	65646f63 	strbvs	r6, [r4, #-3939]!	; 0xfffff09d
    11a0:	63617073 	cmnvs	r1, #115	; 0x73
    11a4:	65742f65 	ldrbvs	r2, [r4, #-3941]!	; 0xfffff09b
    11a8:	622f706d 	eorvs	r7, pc, #109	; 0x6d
    11ac:	6d657261 	sfmvs	f7, 2, [r5, #-388]!	; 0xfffffe7c
    11b0:	6c617465 	cfstrdvs	mvd7, [r1], #-404	; 0xfffffe6c
    11b4:	726f665f 	rsbvc	r6, pc, #99614720	; 0x5f00000
    11b8:	632f635f 			; <UNDEFINED> instruction: 0x632f635f
    11bc:	2f65646f 	svccs	0x0065646f
    11c0:	68637261 	stmdavs	r3!, {r0, r5, r6, r9, ip, sp, lr}^
    11c4:	6d72612f 	ldfvse	f6, [r2, #-188]!	; 0xffffff44
    11c8:	612d3776 			; <UNDEFINED> instruction: 0x612d3776
    11cc:	6372732f 	cmnvs	r2, #-1140850688	; 0xbc000000
    11d0:	72610000 	rsbvc	r0, r1, #0
    11d4:	625f6863 	subsvs	r6, pc, #6488064	; 0x630000
    11d8:	636e6172 	cmnvs	lr, #-2147483620	; 0x8000001c
    11dc:	72705f68 	rsbsvc	r5, r0, #104, 30	; 0x1a0
    11e0:	63696465 	cmnvs	r9, #1694498816	; 0x65000000
    11e4:	2e726f74 	mrccs	15, 3, r6, cr2, cr4, {3}
    11e8:	00010073 	andeq	r0, r1, r3, ror r0
    11ec:	05000000 	streq	r0, [r0, #-0]
    11f0:	0000f402 	andeq	pc, r0, r2, lsl #8
    11f4:	010d03c2 	smlabteq	sp, r2, r3, r0
    11f8:	342f2f2f 	strtcc	r2, [pc], #-3887	; 1200 <SYS_MODE+0x11e1>
    11fc:	342f2f2f 	strtcc	r2, [pc], #-3887	; 1204 <SYS_MODE+0x11e5>
    1200:	30362f2f 	eorscc	r2, r6, pc, lsr #30
    1204:	2f2f2f2f 	svccs	0x002f2f2f
    1208:	302f2f2f 	eorcc	r2, pc, pc, lsr #30
    120c:	2f302f2f 	svccs	0x00302f2f
    1210:	2f302f2f 	svccs	0x00302f2f
    1214:	0002022f 	andeq	r0, r2, pc, lsr #4
    1218:	01490101 	cmpeq	r9, r1, lsl #2
    121c:	00030000 	andeq	r0, r3, r0
    1220:	00000065 	andeq	r0, r0, r5, rrx
    1224:	0efb0102 	cdpeq	1, 15, cr0, cr11, cr2, {0}
    1228:	0101000d 	tsteq	r1, sp
    122c:	00000101 	andeq	r0, r0, r1, lsl #2
    1230:	00000100 	andeq	r0, r0, r0, lsl #2
    1234:	6f682f01 	svcvs	0x00682f01
    1238:	632f656d 			; <UNDEFINED> instruction: 0x632f656d
    123c:	6d696c7a 	stclvs	12, cr6, [r9, #-488]!	; 0xfffffe18
    1240:	6f632f78 	svcvs	0x00632f78
    1244:	70736564 	rsbsvc	r6, r3, r4, ror #10
    1248:	2f656361 	svccs	0x00656361
    124c:	706d6574 	rsbvc	r6, sp, r4, ror r5
    1250:	7261622f 	rsbvc	r6, r1, #-268435454	; 0xf0000002
    1254:	74656d65 	strbtvc	r6, [r5], #-3429	; 0xfffff29b
    1258:	665f6c61 	ldrbvs	r6, [pc], -r1, ror #24
    125c:	635f726f 	cmpvs	pc, #-268435450	; 0xf0000006
    1260:	646f632f 	strbtvs	r6, [pc], #-815	; 1268 <SYS_MODE+0x1249>
    1264:	72612f65 	rsbvc	r2, r1, #404	; 0x194
    1268:	612f6863 			; <UNDEFINED> instruction: 0x612f6863
    126c:	37766d72 			; <UNDEFINED> instruction: 0x37766d72
    1270:	732f612d 			; <UNDEFINED> instruction: 0x732f612d
    1274:	00006372 	andeq	r6, r0, r2, ror r3
    1278:	68637261 	stmdavs	r3!, {r0, r5, r6, r9, ip, sp, lr}^
    127c:	6361635f 	cmnvs	r1, #2080374785	; 0x7c000001
    1280:	732e6568 			; <UNDEFINED> instruction: 0x732e6568
    1284:	00000100 	andeq	r0, r0, r0, lsl #2
    1288:	02050000 	andeq	r0, r5, #0
    128c:	c200016c 	andgt	r0, r0, #108, 2
    1290:	2f011803 	svccs	0x00011803
    1294:	2f342f2f 	svccs	0x00342f2f
    1298:	2f342f2f 	svccs	0x00342f2f
    129c:	2f342f2f 	svccs	0x00342f2f
    12a0:	2f342f2f 	svccs	0x00342f2f
    12a4:	2f30362f 	svccs	0x0030362f
    12a8:	2f2f2f2f 	svccs	0x002f2f2f
    12ac:	2f302f2f 	svccs	0x00302f2f
    12b0:	2f2f302f 	svccs	0x002f302f
    12b4:	2f2f302f 	svccs	0x002f302f
    12b8:	2f302f34 	svccs	0x00302f34
    12bc:	312f2f2f 			; <UNDEFINED> instruction: 0x312f2f2f
    12c0:	2f2f2f2f 	svccs	0x002f2f2f
    12c4:	2f2f2f30 	svccs	0x002f2f30
    12c8:	2f2f2f2f 	svccs	0x002f2f2f
    12cc:	312f312f 			; <UNDEFINED> instruction: 0x312f312f
    12d0:	2f2f2f2f 	svccs	0x002f2f2f
    12d4:	2f312f2f 	svccs	0x00312f2f
    12d8:	2f312f2f 	svccs	0x00312f2f
    12dc:	2f302f34 	svccs	0x00302f34
    12e0:	312f2f2f 			; <UNDEFINED> instruction: 0x312f2f2f
    12e4:	2f2f2f2f 	svccs	0x002f2f2f
    12e8:	2f2f2f30 	svccs	0x002f2f30
    12ec:	2f2f2f2f 	svccs	0x002f2f2f
    12f0:	312f312f 			; <UNDEFINED> instruction: 0x312f312f
    12f4:	2f2f2f2f 	svccs	0x002f2f2f
    12f8:	2f312f2f 	svccs	0x00312f2f
    12fc:	2f312f2f 	svccs	0x00312f2f
    1300:	2f302f34 	svccs	0x00302f34
    1304:	312f2f2f 			; <UNDEFINED> instruction: 0x312f2f2f
    1308:	2f2f2f2f 	svccs	0x002f2f2f
    130c:	2f2f2f30 	svccs	0x002f2f30
    1310:	2f2f2f2f 	svccs	0x002f2f2f
    1314:	312f312f 			; <UNDEFINED> instruction: 0x312f312f
    1318:	2f2f2f2f 	svccs	0x002f2f2f
    131c:	2f312f2f 	svccs	0x00312f2f
    1320:	2f312f2f 	svccs	0x00312f2f
    1324:	2f2f3036 	svccs	0x002f3036
    1328:	2f2f2f2f 	svccs	0x002f2f2f
    132c:	2f2f302f 	svccs	0x002f302f
    1330:	2f2f2f30 	svccs	0x002f2f30
    1334:	362f2f30 	qasxcc	r2, pc, r0	; <UNPREDICTABLE>
    1338:	2f2f2f30 	svccs	0x002f2f30
    133c:	2f2f2f2f 	svccs	0x002f2f2f
    1340:	302f2f30 	eorcc	r2, pc, r0, lsr pc	; <UNPREDICTABLE>
    1344:	302f2f2f 	eorcc	r2, pc, pc, lsr #30
    1348:	30362f2f 	eorscc	r2, r6, pc, lsr #30
    134c:	2f2f2f2f 	svccs	0x002f2f2f
    1350:	302f2f2f 	eorcc	r2, pc, pc, lsr #30
    1354:	2f302f2f 	svccs	0x00302f2f
    1358:	2f302f2f 	svccs	0x00302f2f
    135c:	7ea2032f 	cdpvc	3, 10, cr0, cr2, cr15, {1}
    1360:	0202342e 	andeq	r3, r2, #771751936	; 0x2e000000
    1364:	ce010100 	adfgts	f0, f1, f0
    1368:	03000000 	movweq	r0, #0
    136c:	00006700 	andeq	r6, r0, r0, lsl #14
    1370:	fb010200 	blx	41b7a <SYS_MODE+0x41b5b>
    1374:	01000d0e 	tsteq	r0, lr, lsl #26
    1378:	00010101 	andeq	r0, r1, r1, lsl #2
    137c:	00010000 	andeq	r0, r1, r0
    1380:	682f0100 	stmdavs	pc!, {r8}	; <UNPREDICTABLE>
    1384:	2f656d6f 	svccs	0x00656d6f
    1388:	696c7a63 	stmdbvs	ip!, {r0, r1, r5, r6, r9, fp, ip, sp, lr}^
    138c:	632f786d 			; <UNDEFINED> instruction: 0x632f786d
    1390:	7365646f 	cmnvc	r5, #1862270976	; 0x6f000000
    1394:	65636170 	strbvs	r6, [r3, #-368]!	; 0xfffffe90
    1398:	6d65742f 	cfstrdvs	mvd7, [r5, #-188]!	; 0xffffff44
    139c:	61622f70 	smcvs	8944	; 0x22f0
    13a0:	656d6572 	strbvs	r6, [sp, #-1394]!	; 0xfffffa8e
    13a4:	5f6c6174 	svcpl	0x006c6174
    13a8:	5f726f66 	svcpl	0x00726f66
    13ac:	6f632f63 	svcvs	0x00632f63
    13b0:	612f6564 			; <UNDEFINED> instruction: 0x612f6564
    13b4:	2f686372 	svccs	0x00686372
    13b8:	766d7261 	strbtvc	r7, [sp], -r1, ror #4
    13bc:	2f612d37 	svccs	0x00612d37
    13c0:	00637273 	rsbeq	r7, r3, r3, ror r2
    13c4:	63726100 	cmnvs	r2, #0, 2
    13c8:	6f635f68 	svcvs	0x00635f68
    13cc:	7865746e 	stmdavc	r5!, {r1, r2, r3, r5, r6, sl, ip, sp, lr}^
    13d0:	00732e74 	rsbseq	r2, r3, r4, ror lr
    13d4:	00000001 	andeq	r0, r0, r1
    13d8:	a0020500 	andge	r0, r2, r0, lsl #10
    13dc:	03c20004 	biceq	r0, r2, #4
    13e0:	2f30010c 	svccs	0x0030010c
    13e4:	2f2f312f 	svccs	0x002f312f
    13e8:	312f312f 			; <UNDEFINED> instruction: 0x312f312f
    13ec:	312e0903 			; <UNDEFINED> instruction: 0x312e0903
    13f0:	2f2f2f30 	svccs	0x002f2f30
    13f4:	2f2f2f2f 	svccs	0x002f2f2f
    13f8:	2f2f2f2f 	svccs	0x002f2f2f
    13fc:	2f312f2f 	svccs	0x00312f2f
    1400:	2f2f312f 	svccs	0x002f312f
    1404:	2f2f2f2f 	svccs	0x002f2f2f
    1408:	2f2f2f2f 	svccs	0x002f2f2f
    140c:	2f2f2f2f 	svccs	0x002f2f2f
    1410:	2f2f2f2f 	svccs	0x002f2f2f
    1414:	2f2f2f2f 	svccs	0x002f2f2f
    1418:	2f2f2f2f 	svccs	0x002f2f2f
    141c:	2f2f2f2f 	svccs	0x002f2f2f
    1420:	03302f2f 	teqeq	r0, #47, 30	; 0xbc
    1424:	2f312e09 	svccs	0x00312e09
    1428:	2f2f312f 	svccs	0x002f312f
    142c:	2f2f3131 	svccs	0x002f3131
    1430:	302f2f31 	eorcc	r2, pc, r1, lsr pc	; <UNPREDICTABLE>
    1434:	01000202 	tsteq	r0, r2, lsl #4
    1438:	00017801 	andeq	r7, r1, r1, lsl #16
    143c:	b8000300 	stmdalt	r0, {r8, r9}
    1440:	02000000 	andeq	r0, r0, #0
    1444:	0d0efb01 	vstreq	d15, [lr, #-4]
    1448:	01010100 	mrseq	r0, (UNDEF: 17)
    144c:	00000001 	andeq	r0, r0, r1
    1450:	01000001 	tsteq	r0, r1
    1454:	6d6f682f 	stclvs	8, cr6, [pc, #-188]!	; 13a0 <SYS_MODE+0x1381>
    1458:	7a632f65 	bvc	18cd1f4 <SYS_MODE+0x18cd1d5>
    145c:	786d696c 	stmdavc	sp!, {r2, r3, r5, r6, r8, fp, sp, lr}^
    1460:	646f632f 	strbtvs	r6, [pc], #-815	; 1468 <SYS_MODE+0x1449>
    1464:	61707365 	cmnvs	r0, r5, ror #6
    1468:	742f6563 	strtvc	r6, [pc], #-1379	; 1470 <SYS_MODE+0x1451>
    146c:	2f706d65 	svccs	0x00706d65
    1470:	65726162 	ldrbvs	r6, [r2, #-354]!	; 0xfffffe9e
    1474:	6174656d 	cmnvs	r4, sp, ror #10
    1478:	6f665f6c 	svcvs	0x00665f6c
    147c:	2f635f72 	svccs	0x00635f72
    1480:	65646f63 	strbvs	r6, [r4, #-3939]!	; 0xfffff09d
    1484:	6372612f 	cmnvs	r2, #-1073741813	; 0xc000000b
    1488:	72612f68 	rsbvc	r2, r1, #104, 30	; 0x1a0
    148c:	2d37766d 	ldccs	6, cr7, [r7, #-436]!	; 0xfffffe4c
    1490:	72732f61 	rsbsvc	r2, r3, #388	; 0x184
    1494:	682f0063 	stmdavs	pc!, {r0, r1, r5, r6}	; <UNPREDICTABLE>
    1498:	2f656d6f 	svccs	0x00656d6f
    149c:	696c7a63 	stmdbvs	ip!, {r0, r1, r5, r6, r9, fp, ip, sp, lr}^
    14a0:	632f786d 			; <UNDEFINED> instruction: 0x632f786d
    14a4:	7365646f 	cmnvc	r5, #1862270976	; 0x6f000000
    14a8:	65636170 	strbvs	r6, [r3, #-368]!	; 0xfffffe90
    14ac:	6d65742f 	cfstrdvs	mvd7, [r5, #-188]!	; 0xffffff44
    14b0:	61622f70 	smcvs	8944	; 0x22f0
    14b4:	656d6572 	strbvs	r6, [sp, #-1394]!	; 0xfffffa8e
    14b8:	5f6c6174 	svcpl	0x006c6174
    14bc:	5f726f66 	svcpl	0x00726f66
    14c0:	6f632f63 	svcvs	0x00632f63
    14c4:	612f6564 			; <UNDEFINED> instruction: 0x612f6564
    14c8:	2f686372 	svccs	0x00686372
    14cc:	766d7261 	strbtvc	r7, [sp], -r1, ror #4
    14d0:	2f612d37 	svccs	0x00612d37
    14d4:	00636e69 	rsbeq	r6, r3, r9, ror #28
    14d8:	63726100 	cmnvs	r2, #0, 2
    14dc:	70635f68 	rsbvc	r5, r3, r8, ror #30
    14e0:	00632e75 	rsbeq	r2, r3, r5, ror lr
    14e4:	61000001 	tstvs	r0, r1
    14e8:	5f686372 	svcpl	0x00686372
    14ec:	706d6f63 	rsbvc	r6, sp, r3, ror #30
    14f0:	72656c69 	rsbvc	r6, r5, #26880	; 0x6900
    14f4:	0200682e 	andeq	r6, r0, #3014656	; 0x2e0000
    14f8:	05000000 	streq	r0, [r0, #-0]
    14fc:	02050001 	andeq	r0, r5, #1
    1500:	c2003048 	andgt	r3, r0, #72	; 0x48
    1504:	4b050519 	blmi	142970 <SYS_MODE+0x142951>
    1508:	026c0105 	rsbeq	r0, ip, #1073741825	; 0x40000001
    150c:	01010008 	tsteq	r1, r8
    1510:	05000105 	streq	r0, [r0, #-261]	; 0xfffffefb
    1514:	00000002 	andeq	r0, r0, r2
    1518:	01150300 	tsteq	r5, r0, lsl #6
    151c:	05670e05 	strbeq	r0, [r7, #-3589]!	; 0xfffff1fb
    1520:	0c054b05 			; <UNDEFINED> instruction: 0x0c054b05
    1524:	2f01054b 	svccs	0x0001054b
    1528:	01000802 	tsteq	r0, r2, lsl #16
    152c:	00010501 	andeq	r0, r1, r1, lsl #10
    1530:	00000205 	andeq	r0, r0, r5, lsl #4
    1534:	20030000 	andcs	r0, r3, r0
    1538:	83170501 	tsthi	r7, #4194304	; 0x400000
    153c:	054a2305 	strbeq	r2, [sl, #-773]	; 0xfffffcfb
    1540:	11054a32 	tstne	r5, r2, lsr sl
    1544:	4a0f054c 	bmi	3c2a7c <SYS_MODE+0x3c2a5d>
    1548:	052f1805 	streq	r1, [pc, #-2053]!	; d4b <SYS_MODE+0xd2c>
    154c:	1005660c 	andne	r6, r5, ip, lsl #12
    1550:	4a080530 	bmi	202a18 <SYS_MODE+0x2029f9>
    1554:	02001b05 	andeq	r1, r0, #5120	; 0x1400
    1558:	054f0204 	strbeq	r0, [pc, #-516]	; 135c <SYS_MODE+0x133d>
    155c:	04020019 	streq	r0, [r2], #-25	; 0xffffffe7
    1560:	1f054a02 	svcne	0x00054a02
    1564:	02040200 	andeq	r0, r4, #0, 4
    1568:	0009052f 	andeq	r0, r9, pc, lsr #10
    156c:	4a020402 	bmi	8257c <SYS_MODE+0x8255d>
    1570:	02003905 	andeq	r3, r0, #81920	; 0x14000
    1574:	054a0104 	strbeq	r0, [sl, #-260]	; 0xfffffefc
    1578:	04020029 	streq	r0, [r2], #-41	; 0xffffffd7
    157c:	01054a01 	tsteq	r5, r1, lsl #20
    1580:	054a0a03 	strbeq	r0, [sl, #-2563]	; 0xfffff5fd
    1584:	0402001b 	streq	r0, [r2], #-27	; 0xffffffe5
    1588:	19052b03 	stmdbne	r5, {r0, r1, r8, r9, fp, sp}
    158c:	03040200 	movweq	r0, #16896	; 0x4200
    1590:	001f054a 	andseq	r0, pc, sl, asr #10
    1594:	2f030402 	svccs	0x00030402
    1598:	02000905 	andeq	r0, r0, #81920	; 0x14000
    159c:	054a0304 	strbeq	r0, [sl, #-772]	; 0xfffffcfc
    15a0:	0402003c 	streq	r0, [r2], #-60	; 0xffffffc4
    15a4:	2c054a02 			; <UNDEFINED> instruction: 0x2c054a02
    15a8:	02040200 	andeq	r0, r4, #0, 4
    15ac:	4c01054a 	cfstr32mi	mvfx0, [r1], {74}	; 0x4a
    15b0:	01000602 	tsteq	r0, r2, lsl #12
    15b4:	00008301 	andeq	r8, r0, r1, lsl #6
    15b8:	69000300 	stmdbvs	r0, {r8, r9}
    15bc:	02000000 	andeq	r0, r0, #0
    15c0:	0d0efb01 	vstreq	d15, [lr, #-4]
    15c4:	01010100 	mrseq	r0, (UNDEF: 17)
    15c8:	00000001 	andeq	r0, r0, r1
    15cc:	01000001 	tsteq	r0, r1
    15d0:	6d6f682f 	stclvs	8, cr6, [pc, #-188]!	; 151c <SYS_MODE+0x14fd>
    15d4:	7a632f65 	bvc	18cd370 <SYS_MODE+0x18cd351>
    15d8:	786d696c 	stmdavc	sp!, {r2, r3, r5, r6, r8, fp, sp, lr}^
    15dc:	646f632f 	strbtvs	r6, [pc], #-815	; 15e4 <SYS_MODE+0x15c5>
    15e0:	61707365 	cmnvs	r0, r5, ror #6
    15e4:	742f6563 	strtvc	r6, [pc], #-1379	; 15ec <SYS_MODE+0x15cd>
    15e8:	2f706d65 	svccs	0x00706d65
    15ec:	65726162 	ldrbvs	r6, [r2, #-354]!	; 0xfffffe9e
    15f0:	6174656d 	cmnvs	r4, sp, ror #10
    15f4:	6f665f6c 	svcvs	0x00665f6c
    15f8:	2f635f72 	svccs	0x00635f72
    15fc:	65646f63 	strbvs	r6, [r4, #-3939]!	; 0xfffff09d
    1600:	6372612f 	cmnvs	r2, #-1073741813	; 0xc000000b
    1604:	72612f68 	rsbvc	r2, r1, #104, 30	; 0x1a0
    1608:	2d37766d 	ldccs	6, cr7, [r7, #-436]!	; 0xfffffe4c
    160c:	72732f61 	rsbsvc	r2, r3, #388	; 0x184
    1610:	61000063 	tstvs	r0, r3, rrx
    1614:	5f686372 	svcpl	0x00686372
    1618:	65637865 	strbvs	r7, [r3, #-2149]!	; 0xfffff79b
    161c:	6f697470 	svcvs	0x00697470
    1620:	00732e6e 	rsbseq	r2, r3, lr, ror #28
    1624:	00000001 	andeq	r0, r0, r1
    1628:	dc020500 	cfstr32le	mvfx0, [r2], {-0}
    162c:	03c20005 	biceq	r0, r2, #5
    1630:	3534010c 	ldrcc	r0, [r4, #-268]!	; 0xfffffef4
    1634:	02313131 	eorseq	r3, r1, #1073741836	; 0x4000000c
    1638:	01010002 	tsteq	r1, r2
    163c:	00000088 	andeq	r0, r0, r8, lsl #1
    1640:	00630003 	rsbeq	r0, r3, r3
    1644:	01020000 	mrseq	r0, (UNDEF: 2)
    1648:	000d0efb 	strdeq	r0, [sp], -fp
    164c:	01010101 	tsteq	r1, r1, lsl #2
    1650:	01000000 	mrseq	r0, (UNDEF: 0)
    1654:	2f010000 	svccs	0x00010000
    1658:	656d6f68 	strbvs	r6, [sp, #-3944]!	; 0xfffff098
    165c:	6c7a632f 	ldclvs	3, cr6, [sl], #-188	; 0xffffff44
    1660:	2f786d69 	svccs	0x00786d69
    1664:	65646f63 	strbvs	r6, [r4, #-3939]!	; 0xfffff09d
    1668:	63617073 	cmnvs	r1, #115	; 0x73
    166c:	65742f65 	ldrbvs	r2, [r4, #-3941]!	; 0xfffff09b
    1670:	622f706d 	eorvs	r7, pc, #109	; 0x6d
    1674:	6d657261 	sfmvs	f7, 2, [r5, #-388]!	; 0xfffffe7c
    1678:	6c617465 	cfstrdvs	mvd7, [r1], #-404	; 0xfffffe6c
    167c:	726f665f 	rsbvc	r6, pc, #99614720	; 0x5f00000
    1680:	632f635f 			; <UNDEFINED> instruction: 0x632f635f
    1684:	2f65646f 	svccs	0x0065646f
    1688:	68637261 	stmdavs	r3!, {r0, r5, r6, r9, ip, sp, lr}^
    168c:	6d72612f 	ldfvse	f6, [r2, #-188]!	; 0xffffff44
    1690:	612d3776 			; <UNDEFINED> instruction: 0x612d3776
    1694:	6372732f 	cmnvs	r2, #-1140850688	; 0xbc000000
    1698:	72610000 	rsbvc	r0, r1, #0
    169c:	665f6863 	ldrbvs	r6, [pc], -r3, ror #16
    16a0:	732e7570 			; <UNDEFINED> instruction: 0x732e7570
    16a4:	00000100 	andeq	r0, r0, r0, lsl #2
    16a8:	02050000 	andeq	r0, r5, #0
    16ac:	c20005f4 	andgt	r0, r0, #244, 10	; 0x3d000000
    16b0:	2f010e03 	svccs	0x00010e03
    16b4:	2f2f312f 	svccs	0x002f312f
    16b8:	302f2f31 	eorcc	r2, pc, r1, lsr pc	; <UNPREDICTABLE>
    16bc:	312f2f35 			; <UNDEFINED> instruction: 0x312f2f35
    16c0:	02302f2f 	eorseq	r2, r0, #47, 30	; 0xbc
    16c4:	01010002 	tsteq	r1, r2
    16c8:	0000009b 	muleq	r0, fp, r0
    16cc:	00640003 	rsbeq	r0, r4, r3
    16d0:	01020000 	mrseq	r0, (UNDEF: 2)
    16d4:	000d0efb 	strdeq	r0, [sp], -fp
    16d8:	01010101 	tsteq	r1, r1, lsl #2
    16dc:	01000000 	mrseq	r0, (UNDEF: 0)
    16e0:	2f010000 	svccs	0x00010000
    16e4:	656d6f68 	strbvs	r6, [sp, #-3944]!	; 0xfffff098
    16e8:	6c7a632f 	ldclvs	3, cr6, [sl], #-188	; 0xffffff44
    16ec:	2f786d69 	svccs	0x00786d69
    16f0:	65646f63 	strbvs	r6, [r4, #-3939]!	; 0xfffff09d
    16f4:	63617073 	cmnvs	r1, #115	; 0x73
    16f8:	65742f65 	ldrbvs	r2, [r4, #-3941]!	; 0xfffff09b
    16fc:	622f706d 	eorvs	r7, pc, #109	; 0x6d
    1700:	6d657261 	sfmvs	f7, 2, [r5, #-388]!	; 0xfffffe7c
    1704:	6c617465 	cfstrdvs	mvd7, [r1], #-404	; 0xfffffe6c
    1708:	726f665f 	rsbvc	r6, pc, #99614720	; 0x5f00000
    170c:	632f635f 			; <UNDEFINED> instruction: 0x632f635f
    1710:	2f65646f 	svccs	0x0065646f
    1714:	68637261 	stmdavs	r3!, {r0, r5, r6, r9, ip, sp, lr}^
    1718:	6d72612f 	ldfvse	f6, [r2, #-188]!	; 0xffffff44
    171c:	612d3776 			; <UNDEFINED> instruction: 0x612d3776
    1720:	6372732f 	cmnvs	r2, #-1140850688	; 0xbc000000
    1724:	72610000 	rsbvc	r0, r1, #0
    1728:	695f6863 	ldmdbvs	pc, {r0, r1, r5, r6, fp, sp, lr}^	; <UNPREDICTABLE>
    172c:	2e74696e 	vsubcs.f16	s13, s8, s29	; <UNPREDICTABLE>
    1730:	00010063 	andeq	r0, r1, r3, rrx
    1734:	01050000 	mrseq	r0, (UNDEF: 5)
    1738:	6c020500 	cfstr32vs	mvfx0, [r2], {-0}
    173c:	03c20030 	biceq	r0, r2, #48	; 0x30
    1740:	05050114 	streq	r0, [r5, #-276]	; 0xfffffeec
    1744:	2e3b054c 	cdpcs	5, 3, cr0, cr11, cr12, {2}
    1748:	699e0505 	ldmibvs	lr, {r0, r2, r8, sl}
    174c:	2f313131 	svccs	0x00313131
    1750:	2f312f31 	svccs	0x00312f31
    1754:	31313131 	teqcc	r1, r1, lsr r1
    1758:	31312f2f 	teqcc	r1, pc, lsr #30
    175c:	05310b05 	ldreq	r0, [r1, #-2821]!	; 0xfffff4fb
    1760:	06022f01 	streq	r2, [r2], -r1, lsl #30
    1764:	7a010100 	bvc	41b6c <SYS_MODE+0x41b4d>
    1768:	03000001 	movweq	r0, #1
    176c:	0000c600 	andeq	ip, r0, r0, lsl #12
    1770:	fb010200 	blx	41f7a <SYS_MODE+0x41f5b>
    1774:	01000d0e 	tsteq	r0, lr, lsl #26
    1778:	00010101 	andeq	r0, r1, r1, lsl #2
    177c:	00010000 	andeq	r0, r1, r0
    1780:	682f0100 	stmdavs	pc!, {r8}	; <UNPREDICTABLE>
    1784:	2f656d6f 	svccs	0x00656d6f
    1788:	696c7a63 	stmdbvs	ip!, {r0, r1, r5, r6, r9, fp, ip, sp, lr}^
    178c:	632f786d 			; <UNDEFINED> instruction: 0x632f786d
    1790:	7365646f 	cmnvc	r5, #1862270976	; 0x6f000000
    1794:	65636170 	strbvs	r6, [r3, #-368]!	; 0xfffffe90
    1798:	6d65742f 	cfstrdvs	mvd7, [r5, #-188]!	; 0xffffff44
    179c:	61622f70 	smcvs	8944	; 0x22f0
    17a0:	656d6572 	strbvs	r6, [sp, #-1394]!	; 0xfffffa8e
    17a4:	5f6c6174 	svcpl	0x006c6174
    17a8:	5f726f66 	svcpl	0x00726f66
    17ac:	6f632f63 	svcvs	0x00632f63
    17b0:	612f6564 			; <UNDEFINED> instruction: 0x612f6564
    17b4:	2f686372 	svccs	0x00686372
    17b8:	766d7261 	strbtvc	r7, [sp], -r1, ror #4
    17bc:	2f612d37 	svccs	0x00612d37
    17c0:	00637273 	rsbeq	r7, r3, r3, ror r2
    17c4:	6d6f682f 	stclvs	8, cr6, [pc, #-188]!	; 1710 <SYS_MODE+0x16f1>
    17c8:	7a632f65 	bvc	18cd564 <SYS_MODE+0x18cd545>
    17cc:	786d696c 	stmdavc	sp!, {r2, r3, r5, r6, r8, fp, sp, lr}^
    17d0:	646f632f 	strbtvs	r6, [pc], #-815	; 17d8 <SYS_MODE+0x17b9>
    17d4:	61707365 	cmnvs	r0, r5, ror #6
    17d8:	742f6563 	strtvc	r6, [pc], #-1379	; 17e0 <SYS_MODE+0x17c1>
    17dc:	2f706d65 	svccs	0x00706d65
    17e0:	65726162 	ldrbvs	r6, [r2, #-354]!	; 0xfffffe9e
    17e4:	6174656d 	cmnvs	r4, sp, ror #10
    17e8:	6f665f6c 	svcvs	0x00665f6c
    17ec:	2f635f72 	svccs	0x00635f72
    17f0:	65646f63 	strbvs	r6, [r4, #-3939]!	; 0xfffff09d
    17f4:	6372612f 	cmnvs	r2, #-1073741813	; 0xc000000b
    17f8:	72612f68 	rsbvc	r2, r1, #104, 30	; 0x1a0
    17fc:	2d37766d 	ldccs	6, cr7, [r7, #-436]!	; 0xfffffe4c
    1800:	6e692f61 	cdpvs	15, 6, cr2, cr9, cr1, {3}
    1804:	61000063 	tstvs	r0, r3, rrx
    1808:	5f686372 	svcpl	0x00686372
    180c:	2e717269 	cdpcs	2, 7, cr7, cr1, cr9, {3}
    1810:	00010063 	andeq	r0, r1, r3, rrx
    1814:	63726100 	cmnvs	r2, #0, 2
    1818:	6f635f68 	svcvs	0x00635f68
    181c:	6c69706d 	stclvs	0, cr7, [r9], #-436	; 0xfffffe4c
    1820:	682e7265 	stmdavs	lr!, {r0, r2, r5, r6, r9, ip, sp, lr}
    1824:	00000200 	andeq	r0, r0, r0, lsl #4
    1828:	68637261 	stmdavs	r3!, {r0, r5, r6, r9, ip, sp, lr}^
    182c:	7172695f 	cmnvc	r2, pc, asr r9
    1830:	0200682e 	andeq	r6, r0, #3014656	; 0x2e0000
    1834:	05000000 	streq	r0, [r0, #-0]
    1838:	02050001 	andeq	r0, r5, #1
    183c:	c20030ec 	andgt	r3, r0, #236	; 0xec
    1840:	84011603 	strhi	r1, [r1], #-1539	; 0xfffff9fd
    1844:	01000802 	tsteq	r0, r2, lsl #16
    1848:	00010501 	andeq	r0, r1, r1, lsl #10
    184c:	310c0205 	tstcc	ip, r5, lsl #4
    1850:	1e03c200 	cdpne	2, 0, cr12, cr3, cr0, {0}
    1854:	84050501 	strhi	r0, [r5], #-1281	; 0xfffffaff
    1858:	054d2005 	strbeq	r2, [sp, #-5]
    185c:	01058205 	tsteq	r5, r5, lsl #4
    1860:	000602f3 	strdeq	r0, [r6], -r3
    1864:	01050101 	tsteq	r5, r1, lsl #2
    1868:	60020500 	andvs	r0, r2, r0, lsl #10
    186c:	03c20031 	biceq	r0, r2, #49	; 0x31
    1870:	1305012a 	movwne	r0, #20778	; 0x512a
    1874:	4a050568 	bmi	142e1c <SYS_MODE+0x142dfd>
    1878:	02002805 	andeq	r2, r0, #327680	; 0x50000
    187c:	05300304 	ldreq	r0, [r0, #-772]!	; 0xfffffcfc
    1880:	0402002b 	streq	r0, [r2], #-43	; 0xffffffd5
    1884:	3005d703 	andcc	sp, r5, r3, lsl #14
    1888:	03040200 	movweq	r0, #16896	; 0x4200
    188c:	000505b7 			; <UNDEFINED> instruction: 0x000505b7
    1890:	66010402 	strvs	r0, [r1], -r2, lsl #8
    1894:	2f01056d 	svccs	0x0001056d
    1898:	01000602 	tsteq	r0, r2, lsl #12
    189c:	00010501 	andeq	r0, r1, r1, lsl #10
    18a0:	31d40205 	bicscc	r0, r4, r5, lsl #4
    18a4:	3a03c200 	bcc	f20ac <SYS_MODE+0xf208d>
    18a8:	d7080501 	strle	r0, [r8, -r1, lsl #10]
    18ac:	6a260569 	bvs	982e58 <SYS_MODE+0x982e39>
    18b0:	05d72905 	ldrbeq	r2, [r7, #2309]	; 0x905
    18b4:	0569a105 	strbeq	sl, [r9, #-261]!	; 0xfffffefb
    18b8:	66730309 	ldrbtvs	r0, [r3], -r9, lsl #6
    18bc:	0301054d 	movweq	r0, #5453	; 0x154d
    18c0:	04022e0b 	streq	r2, [r2], #-3595	; 0xfffff1f5
    18c4:	05010100 	streq	r0, [r1, #-256]	; 0xffffff00
    18c8:	02050001 	andeq	r0, r5, #1
    18cc:	00000000 	andeq	r0, r0, r0
    18d0:	0100d003 	tsteq	r0, r3
    18d4:	05840505 	streq	r0, [r4, #1285]	; 0x505
    18d8:	29054d26 	stmdbcs	r5, {r1, r2, r5, r8, sl, fp, lr}
    18dc:	bb0105d7 	bllt	43040 <SYS_MODE+0x43021>
    18e0:	01000602 	tsteq	r0, r2, lsl #12
    18e4:	00008801 	andeq	r8, r0, r1, lsl #16
    18e8:	63000300 	movwvs	r0, #768	; 0x300
    18ec:	02000000 	andeq	r0, r0, #0
    18f0:	0d0efb01 	vstreq	d15, [lr, #-4]
    18f4:	01010100 	mrseq	r0, (UNDEF: 17)
    18f8:	00000001 	andeq	r0, r0, r1
    18fc:	01000001 	tsteq	r0, r1
    1900:	6d6f682f 	stclvs	8, cr6, [pc, #-188]!	; 184c <SYS_MODE+0x182d>
    1904:	7a632f65 	bvc	18cd6a0 <SYS_MODE+0x18cd681>
    1908:	786d696c 	stmdavc	sp!, {r2, r3, r5, r6, r8, fp, sp, lr}^
    190c:	646f632f 	strbtvs	r6, [pc], #-815	; 1914 <SYS_MODE+0x18f5>
    1910:	61707365 	cmnvs	r0, r5, ror #6
    1914:	742f6563 	strtvc	r6, [pc], #-1379	; 191c <SYS_MODE+0x18fd>
    1918:	2f706d65 	svccs	0x00706d65
    191c:	65726162 	ldrbvs	r6, [r2, #-354]!	; 0xfffffe9e
    1920:	6174656d 	cmnvs	r4, sp, ror #10
    1924:	6f665f6c 	svcvs	0x00665f6c
    1928:	2f635f72 	svccs	0x00635f72
    192c:	65646f63 	strbvs	r6, [r4, #-3939]!	; 0xfffff09d
    1930:	6372612f 	cmnvs	r2, #-1073741813	; 0xc000000b
    1934:	72612f68 	rsbvc	r2, r1, #104, 30	; 0x1a0
    1938:	2d37766d 	ldccs	6, cr7, [r7, #-436]!	; 0xfffffe4c
    193c:	72732f61 	rsbsvc	r2, r3, #388	; 0x184
    1940:	61000063 	tstvs	r0, r3, rrx
    1944:	5f686372 	svcpl	0x00686372
    1948:	2e756d6d 	cdpcs	13, 7, cr6, cr5, cr13, {3}
    194c:	00010073 	andeq	r0, r1, r3, ror r0
    1950:	05000000 	streq	r0, [r0, #-0]
    1954:	00063c02 	andeq	r3, r6, r2, lsl #24
    1958:	011003c2 	tsteq	r0, r2, asr #7
    195c:	2f322f2f 	svccs	0x00322f2f
    1960:	2f2f312f 	svccs	0x002f312f
    1964:	2f2f2f30 	svccs	0x002f2f30
    1968:	2f2f2f34 	svccs	0x002f2f34
    196c:	01000202 	tsteq	r0, r2, lsl #4
    1970:	00008b01 	andeq	r8, r0, r1, lsl #22
    1974:	63000300 	movwvs	r0, #768	; 0x300
    1978:	02000000 	andeq	r0, r0, #0
    197c:	0d0efb01 	vstreq	d15, [lr, #-4]
    1980:	01010100 	mrseq	r0, (UNDEF: 17)
    1984:	00000001 	andeq	r0, r0, r1
    1988:	01000001 	tsteq	r0, r1
    198c:	6d6f682f 	stclvs	8, cr6, [pc, #-188]!	; 18d8 <SYS_MODE+0x18b9>
    1990:	7a632f65 	bvc	18cd72c <SYS_MODE+0x18cd70d>
    1994:	786d696c 	stmdavc	sp!, {r2, r3, r5, r6, r8, fp, sp, lr}^
    1998:	646f632f 	strbtvs	r6, [pc], #-815	; 19a0 <SYS_MODE+0x1981>
    199c:	61707365 	cmnvs	r0, r5, ror #6
    19a0:	742f6563 	strtvc	r6, [pc], #-1379	; 19a8 <SYS_MODE+0x1989>
    19a4:	2f706d65 	svccs	0x00706d65
    19a8:	65726162 	ldrbvs	r6, [r2, #-354]!	; 0xfffffe9e
    19ac:	6174656d 	cmnvs	r4, sp, ror #10
    19b0:	6f665f6c 	svcvs	0x00665f6c
    19b4:	2f635f72 	svccs	0x00635f72
    19b8:	65646f63 	strbvs	r6, [r4, #-3939]!	; 0xfffff09d
    19bc:	6372612f 	cmnvs	r2, #-1073741813	; 0xc000000b
    19c0:	72612f68 	rsbvc	r2, r1, #104, 30	; 0x1a0
    19c4:	2d37766d 	ldccs	6, cr7, [r7, #-436]!	; 0xfffffe4c
    19c8:	72732f61 	rsbsvc	r2, r3, #388	; 0x184
    19cc:	61000063 	tstvs	r0, r3, rrx
    19d0:	5f686372 	svcpl	0x00686372
    19d4:	2e626c74 	mcrcs	12, 3, r6, cr2, cr4, {3}
    19d8:	00010073 	andeq	r0, r1, r3, ror r0
    19dc:	05000000 	streq	r0, [r0, #-0]
    19e0:	00068002 	andeq	r8, r6, r2
    19e4:	011203c2 	tsteq	r2, r2, asr #7
    19e8:	342f342f 	strtcc	r3, [pc], #-1071	; 19f0 <SYS_MODE+0x19d1>
    19ec:	342f342f 	strtcc	r3, [pc], #-1071	; 19f4 <SYS_MODE+0x19d5>
    19f0:	352f352f 	strcc	r3, [pc, #-1327]!	; 14c9 <SYS_MODE+0x14aa>
    19f4:	352f342f 	strcc	r3, [pc, #-1071]!	; 15cd <SYS_MODE+0x15ae>
    19f8:	022f352f 	eoreq	r3, pc, #197132288	; 0xbc00000
    19fc:	01010002 	tsteq	r1, r2
    1a00:	000000ce 	andeq	r0, r0, lr, asr #1
    1a04:	00630003 	rsbeq	r0, r3, r3
    1a08:	01020000 	mrseq	r0, (UNDEF: 2)
    1a0c:	000d0efb 	strdeq	r0, [sp], -fp
    1a10:	01010101 	tsteq	r1, r1, lsl #2
    1a14:	01000000 	mrseq	r0, (UNDEF: 0)
    1a18:	2f010000 	svccs	0x00010000
    1a1c:	656d6f68 	strbvs	r6, [sp, #-3944]!	; 0xfffff098
    1a20:	6c7a632f 	ldclvs	3, cr6, [sl], #-188	; 0xffffff44
    1a24:	2f786d69 	svccs	0x00786d69
    1a28:	65646f63 	strbvs	r6, [r4, #-3939]!	; 0xfffff09d
    1a2c:	63617073 	cmnvs	r1, #115	; 0x73
    1a30:	65742f65 	ldrbvs	r2, [r4, #-3941]!	; 0xfffff09b
    1a34:	622f706d 	eorvs	r7, pc, #109	; 0x6d
    1a38:	6d657261 	sfmvs	f7, 2, [r5, #-388]!	; 0xfffffe7c
    1a3c:	6c617465 	cfstrdvs	mvd7, [r1], #-404	; 0xfffffe6c
    1a40:	726f665f 	rsbvc	r6, pc, #99614720	; 0x5f00000
    1a44:	632f635f 			; <UNDEFINED> instruction: 0x632f635f
    1a48:	2f65646f 	svccs	0x0065646f
    1a4c:	68637261 	stmdavs	r3!, {r0, r5, r6, r9, ip, sp, lr}^
    1a50:	6d72612f 	ldfvse	f6, [r2, #-188]!	; 0xffffff44
    1a54:	612d3776 			; <UNDEFINED> instruction: 0x612d3776
    1a58:	6372732f 	cmnvs	r2, #-1140850688	; 0xbc000000
    1a5c:	72610000 	rsbvc	r0, r1, #0
    1a60:	705f6863 	subsvc	r6, pc, r3, ror #16
    1a64:	732e756d 			; <UNDEFINED> instruction: 0x732e756d
    1a68:	00000100 	andeq	r0, r0, r0, lsl #2
    1a6c:	02050000 	andeq	r0, r5, #0
    1a70:	c20006d0 	andgt	r0, r0, #208, 12	; 0xd000000
    1a74:	2f011e03 	svccs	0x00011e03
    1a78:	2f352f2f 	svccs	0x00352f2f
    1a7c:	2f352f2f 	svccs	0x00352f2f
    1a80:	2f352f2f 	svccs	0x00352f2f
    1a84:	2f352f2f 	svccs	0x00352f2f
    1a88:	2f2f312f 	svccs	0x002f312f
    1a8c:	302f2f31 	eorcc	r2, pc, r1, lsr pc	; <UNPREDICTABLE>
    1a90:	2f2f2f35 	svccs	0x002f2f35
    1a94:	302f2f35 	eorcc	r2, pc, r5, lsr pc	; <UNPREDICTABLE>
    1a98:	2f352f36 	svccs	0x00352f36
    1a9c:	2f2f2f35 	svccs	0x002f2f35
    1aa0:	2f2f352f 	svccs	0x002f352f
    1aa4:	2f352f2f 	svccs	0x00352f2f
    1aa8:	2f352f2f 	svccs	0x00352f2f
    1aac:	09032f2f 	stmdbeq	r3, {r0, r1, r2, r3, r5, r8, r9, sl, fp, sp}
    1ab0:	032f312e 			; <UNDEFINED> instruction: 0x032f312e
    1ab4:	30302e09 	eorscc	r2, r0, r9, lsl #28
    1ab8:	2f362f2f 	svccs	0x00362f2f
    1abc:	2f2f2f2f 	svccs	0x002f2f2f
    1ac0:	2f2f2f36 	svccs	0x002f2f36
    1ac4:	2f342f2f 	svccs	0x00342f2f
    1ac8:	2f2f2f2f 	svccs	0x002f2f2f
    1acc:	00020234 	andeq	r0, r2, r4, lsr r2
    1ad0:	00a50101 	adceq	r0, r5, r1, lsl #2
    1ad4:	00030000 	andeq	r0, r3, r0
    1ad8:	00000067 	andeq	r0, r0, r7, rrx
    1adc:	0efb0102 	cdpeq	1, 15, cr0, cr11, cr2, {0}
    1ae0:	0101000d 	tsteq	r1, sp
    1ae4:	00000101 	andeq	r0, r0, r1, lsl #2
    1ae8:	00000100 	andeq	r0, r0, r0, lsl #2
    1aec:	6f682f01 	svcvs	0x00682f01
    1af0:	632f656d 			; <UNDEFINED> instruction: 0x632f656d
    1af4:	6d696c7a 	stclvs	12, cr6, [r9, #-488]!	; 0xfffffe18
    1af8:	6f632f78 	svcvs	0x00632f78
    1afc:	70736564 	rsbsvc	r6, r3, r4, ror #10
    1b00:	2f656361 	svccs	0x00656361
    1b04:	706d6574 	rsbvc	r6, sp, r4, ror r5
    1b08:	7261622f 	rsbvc	r6, r1, #-268435454	; 0xf0000002
    1b0c:	74656d65 	strbtvc	r6, [r5], #-3429	; 0xfffff29b
    1b10:	665f6c61 	ldrbvs	r6, [pc], -r1, ror #24
    1b14:	635f726f 	cmpvs	pc, #-268435450	; 0xf0000006
    1b18:	646f632f 	strbtvs	r6, [pc], #-815	; 1b20 <SYS_MODE+0x1b01>
    1b1c:	72612f65 	rsbvc	r2, r1, #404	; 0x194
    1b20:	612f6863 			; <UNDEFINED> instruction: 0x612f6863
    1b24:	37766d72 			; <UNDEFINED> instruction: 0x37766d72
    1b28:	732f612d 			; <UNDEFINED> instruction: 0x732f612d
    1b2c:	00006372 	andeq	r6, r0, r2, ror r3
    1b30:	68637261 	stmdavs	r3!, {r0, r5, r6, r9, ip, sp, lr}^
    1b34:	6174735f 	cmnvs	r4, pc, asr r3
    1b38:	70757472 	rsbsvc	r7, r5, r2, ror r4
    1b3c:	0100732e 	tsteq	r0, lr, lsr #6
    1b40:	00000000 	andeq	r0, r0, r0
    1b44:	005c0205 	subseq	r0, ip, r5, lsl #4
    1b48:	1603c200 	strne	ip, [r3], -r0, lsl #4
    1b4c:	2f2f3101 	svccs	0x002f3101
    1b50:	2f312f2f 	svccs	0x00312f2f
    1b54:	2f2f312f 	svccs	0x002f312f
    1b58:	312f2f31 			; <UNDEFINED> instruction: 0x312f2f31
    1b5c:	2f312f2f 	svccs	0x00312f2f
    1b60:	2f2f312f 	svccs	0x002f312f
    1b64:	2f2f2f2f 	svccs	0x002f2f2f
    1b68:	2f2f2f2f 	svccs	0x002f2f2f
    1b6c:	31312f2f 	teqcc	r1, pc, lsr #30
    1b70:	032e5103 			; <UNDEFINED> instruction: 0x032e5103
    1b74:	02022e1e 	andeq	r2, r2, #480	; 0x1e0
    1b78:	8d010100 	stfhis	f0, [r1, #-0]
    1b7c:	03000000 	movweq	r0, #0
    1b80:	00006700 	andeq	r6, r0, r0, lsl #14
    1b84:	fb010200 	blx	4238e <SYS_MODE+0x4236f>
    1b88:	01000d0e 	tsteq	r0, lr, lsl #26
    1b8c:	00010101 	andeq	r0, r1, r1, lsl #2
    1b90:	00010000 	andeq	r0, r1, r0
    1b94:	682f0100 	stmdavs	pc!, {r8}	; <UNPREDICTABLE>
    1b98:	2f656d6f 	svccs	0x00656d6f
    1b9c:	696c7a63 	stmdbvs	ip!, {r0, r1, r5, r6, r9, fp, ip, sp, lr}^
    1ba0:	632f786d 			; <UNDEFINED> instruction: 0x632f786d
    1ba4:	7365646f 	cmnvc	r5, #1862270976	; 0x6f000000
    1ba8:	65636170 	strbvs	r6, [r3, #-368]!	; 0xfffffe90
    1bac:	6d65742f 	cfstrdvs	mvd7, [r5, #-188]!	; 0xffffff44
    1bb0:	61622f70 	smcvs	8944	; 0x22f0
    1bb4:	656d6572 	strbvs	r6, [sp, #-1394]!	; 0xfffffa8e
    1bb8:	5f6c6174 	svcpl	0x006c6174
    1bbc:	5f726f66 	svcpl	0x00726f66
    1bc0:	6f632f63 	svcvs	0x00632f63
    1bc4:	612f6564 			; <UNDEFINED> instruction: 0x612f6564
    1bc8:	2f686372 	svccs	0x00686372
    1bcc:	766d7261 	strbtvc	r7, [sp], -r1, ror #4
    1bd0:	2f612d37 	svccs	0x00612d37
    1bd4:	00637273 	rsbeq	r7, r3, r3, ror r2
    1bd8:	63726100 	cmnvs	r2, #0, 2
    1bdc:	65765f68 	ldrbvs	r5, [r6, #-3944]!	; 0xfffff098
    1be0:	726f7463 	rsbvc	r7, pc, #1660944384	; 0x63000000
    1be4:	00732e73 	rsbseq	r2, r3, r3, ror lr
    1be8:	00000001 	andeq	r0, r0, r1
    1bec:	00020500 	andeq	r0, r2, r0, lsl #10
    1bf0:	03c20000 	biceq	r0, r2, #0
    1bf4:	2f2f010f 	svccs	0x002f010f
    1bf8:	2f2f2f2f 	svccs	0x002f2f2f
    1bfc:	080f032f 	stmdaeq	pc, {r0, r1, r2, r3, r5, r8, r9}	; <UNPREDICTABLE>
    1c00:	31313120 	teqcc	r1, r0, lsr #2
    1c04:	02313131 	eorseq	r3, r1, #1073741836	; 0x4000000c
    1c08:	01010002 	tsteq	r1, r2
    1c0c:	00000289 	andeq	r0, r0, r9, lsl #5
    1c10:	01240003 			; <UNDEFINED> instruction: 0x01240003
    1c14:	01020000 	mrseq	r0, (UNDEF: 2)
    1c18:	000d0efb 	strdeq	r0, [sp], -fp
    1c1c:	01010101 	tsteq	r1, r1, lsl #2
    1c20:	01000000 	mrseq	r0, (UNDEF: 0)
    1c24:	2f010000 	svccs	0x00010000
    1c28:	656d6f68 	strbvs	r6, [sp, #-3944]!	; 0xfffff098
    1c2c:	6c7a632f 	ldclvs	3, cr6, [sl], #-188	; 0xffffff44
    1c30:	2f786d69 	svccs	0x00786d69
    1c34:	65646f63 	strbvs	r6, [r4, #-3939]!	; 0xfffff09d
    1c38:	63617073 	cmnvs	r1, #115	; 0x73
    1c3c:	65742f65 	ldrbvs	r2, [r4, #-3941]!	; 0xfffff09b
    1c40:	622f706d 	eorvs	r7, pc, #109	; 0x6d
    1c44:	6d657261 	sfmvs	f7, 2, [r5, #-388]!	; 0xfffffe7c
    1c48:	6c617465 	cfstrdvs	mvd7, [r1], #-404	; 0xfffffe6c
    1c4c:	726f665f 	rsbvc	r6, pc, #99614720	; 0x5f00000
    1c50:	632f635f 			; <UNDEFINED> instruction: 0x632f635f
    1c54:	2f65646f 	svccs	0x0065646f
    1c58:	72616f62 	rsbvc	r6, r1, #392	; 0x188
    1c5c:	6d612f64 	stclvs	15, cr2, [r1, #-400]!	; 0xfffffe70
    1c60:	38353333 	ldmdacc	r5!, {r0, r1, r4, r5, r8, r9, ip, sp}
    1c64:	7972742f 	ldmdbvc	r2!, {r0, r1, r2, r3, r5, sl, ip, sp, lr}^
    1c68:	736f7472 	cmnvc	pc, #1912602624	; 0x72000000
    1c6c:	6372732f 	cmnvs	r2, #-1140850688	; 0xbc000000
    1c70:	6f682f00 	svcvs	0x00682f00
    1c74:	632f656d 			; <UNDEFINED> instruction: 0x632f656d
    1c78:	6d696c7a 	stclvs	12, cr6, [r9, #-488]!	; 0xfffffe18
    1c7c:	6f632f78 	svcvs	0x00632f78
    1c80:	70736564 	rsbsvc	r6, r3, r4, ror #10
    1c84:	2f656361 	svccs	0x00656361
    1c88:	706d6574 	rsbvc	r6, sp, r4, ror r5
    1c8c:	7261622f 	rsbvc	r6, r1, #-268435454	; 0xf0000002
    1c90:	74656d65 	strbtvc	r6, [r5], #-3429	; 0xfffff29b
    1c94:	665f6c61 	ldrbvs	r6, [pc], -r1, ror #24
    1c98:	635f726f 	cmpvs	pc, #-268435450	; 0xf0000006
    1c9c:	646f632f 	strbtvs	r6, [pc], #-815	; 1ca4 <SYS_MODE+0x1c85>
    1ca0:	72612f65 	rsbvc	r2, r1, #404	; 0x194
    1ca4:	612f6863 			; <UNDEFINED> instruction: 0x612f6863
    1ca8:	37766d72 			; <UNDEFINED> instruction: 0x37766d72
    1cac:	692f612d 	stmdbvs	pc!, {r0, r2, r3, r5, r8, sp, lr}	; <UNPREDICTABLE>
    1cb0:	2f00636e 	svccs	0x0000636e
    1cb4:	656d6f68 	strbvs	r6, [sp, #-3944]!	; 0xfffff098
    1cb8:	6c7a632f 	ldclvs	3, cr6, [sl], #-188	; 0xffffff44
    1cbc:	2f786d69 	svccs	0x00786d69
    1cc0:	65646f63 	strbvs	r6, [r4, #-3939]!	; 0xfffff09d
    1cc4:	63617073 	cmnvs	r1, #115	; 0x73
    1cc8:	65742f65 	ldrbvs	r2, [r4, #-3941]!	; 0xfffff09b
    1ccc:	622f706d 	eorvs	r7, pc, #109	; 0x6d
    1cd0:	6d657261 	sfmvs	f7, 2, [r5, #-388]!	; 0xfffffe7c
    1cd4:	6c617465 	cfstrdvs	mvd7, [r1], #-404	; 0xfffffe6c
    1cd8:	726f665f 	rsbvc	r6, pc, #99614720	; 0x5f00000
    1cdc:	632f635f 			; <UNDEFINED> instruction: 0x632f635f
    1ce0:	2f65646f 	svccs	0x0065646f
    1ce4:	76697264 	strbtvc	r7, [r9], -r4, ror #4
    1ce8:	612f7265 			; <UNDEFINED> instruction: 0x612f7265
    1cec:	3533336d 	ldrcc	r3, [r3, #-877]!	; 0xfffffc93
    1cf0:	6e692f78 	mcrvs	15, 3, r2, cr9, cr8, {3}
    1cf4:	62000063 	andvs	r0, r0, #99	; 0x63
    1cf8:	6472616f 	ldrbtvs	r6, [r2], #-367	; 0xfffffe91
    1cfc:	696e695f 	stmdbvs	lr!, {r0, r1, r2, r3, r4, r6, r8, fp, sp, lr}^
    1d00:	00632e74 	rsbeq	r2, r3, r4, ror lr
    1d04:	61000001 	tstvs	r0, r1
    1d08:	5f686372 	svcpl	0x00686372
    1d0c:	706d6f63 	rsbvc	r6, sp, r3, ror #30
    1d10:	72656c69 	rsbvc	r6, r5, #26880	; 0x6900
    1d14:	0200682e 	andeq	r6, r0, #3014656	; 0x2e0000
    1d18:	64730000 	ldrbtvs	r0, [r3], #-0
    1d1c:	755f7672 	ldrbvc	r7, [pc, #-1650]	; 16b2 <SYS_MODE+0x1693>
    1d20:	2e747261 	cdpcs	2, 7, cr7, cr4, cr1, {3}
    1d24:	00030068 	andeq	r0, r3, r8, rrx
    1d28:	72647300 	rsbvc	r7, r4, #0, 6
    1d2c:	69745f76 	ldmdbvs	r4!, {r1, r2, r4, r5, r6, r8, r9, sl, fp, ip, lr}^
    1d30:	2e72656d 	cdpcs	5, 7, cr6, cr2, cr13, {3}
    1d34:	00030068 	andeq	r0, r3, r8, rrx
    1d38:	01050000 	mrseq	r0, (UNDEF: 5)
    1d3c:	64020500 	strvs	r0, [r2], #-1280	; 0xfffffb00
    1d40:	03c20032 	biceq	r0, r2, #50	; 0x32
    1d44:	0505010e 	streq	r0, [r5, #-270]	; 0xfffffef2
    1d48:	9f01059f 	svcls	0x0001059f
    1d4c:	01000602 	tsteq	r0, r2, lsl #12
    1d50:	00010501 	andeq	r0, r1, r1, lsl #10
    1d54:	32980205 	addscc	r0, r8, #1342177280	; 0x50000000
    1d58:	2103c200 	mrscs	ip, R11_usr
    1d5c:	68050501 	stmdavs	r5, {r0, r8, sl}
    1d60:	0f05674b 	svceq	0x0005674b
    1d64:	054b4b4d 	strbeq	r4, [fp, #-2893]	; 0xfffff4b3
    1d68:	05054b13 	streq	r4, [r5, #-2835]	; 0xfffff4ed
    1d6c:	3019054a 	andscc	r0, r9, sl, asr #10
    1d70:	052e0c05 	streq	r0, [lr, #-3077]!	; 0xfffff3fb
    1d74:	1b054c10 	blne	154dbc <SYS_MODE+0x154d9d>
    1d78:	83150567 	tsthi	r5, #432013312	; 0x19c00000
    1d7c:	84671b05 	strbthi	r1, [r7], #-2821	; 0xfffff4fb
    1d80:	05672b05 	strbeq	r2, [r7, #-2821]!	; 0xfffff4fb
    1d84:	39056617 	stmdbcc	r5, {r0, r1, r2, r4, r9, sl, sp, lr}
    1d88:	4a1b0582 	bmi	6c3398 <SYS_MODE+0x6c3379>
    1d8c:	4b4e1705 	blmi	13879a8 <SYS_MODE+0x1387989>
    1d90:	05821b05 	streq	r1, [r2, #2821]	; 0xb05
    1d94:	04020015 	streq	r0, [r2], #-21	; 0xffffffeb
    1d98:	25054d02 	strcs	r4, [r5, #-3330]	; 0xfffff2fe
    1d9c:	02040200 	andeq	r0, r4, #0, 4
    1da0:	05666e03 	strbeq	r6, [r6, #-3587]!	; 0xfffff1fd
    1da4:	04020005 	streq	r0, [r2], #-5
    1da8:	12056601 	andne	r6, r5, #1048576	; 0x100000
    1dac:	67661603 	strbvs	r1, [r6, -r3, lsl #12]!
    1db0:	054b0e05 	strbeq	r0, [fp, #-3589]	; 0xfffff1fb
    1db4:	05056713 	streq	r6, [r5, #-1811]	; 0xfffff8ed
    1db8:	310c054a 	tstcc	ip, sl, asr #10
    1dbc:	02002805 	andeq	r2, r0, #327680	; 0x50000
    1dc0:	05660104 	strbeq	r0, [r6, #-260]!	; 0xfffffefc
    1dc4:	2c056817 	stccs	8, cr6, [r5], {23}
    1dc8:	6617054b 	ldrvs	r0, [r7], -fp, asr #10
    1dcc:	05823a05 	streq	r3, [r2, #2565]	; 0xa05
    1dd0:	1a054a1b 	bne	154644 <SYS_MODE+0x154625>
    1dd4:	8617052f 	ldrhi	r0, [r7], -pc, lsr #10
    1dd8:	821b054b 	andshi	r0, fp, #314572800	; 0x12c00000
    1ddc:	02001505 	andeq	r1, r0, #20971520	; 0x1400000
    1de0:	054c0204 	strbeq	r0, [ip, #-516]	; 0xfffffdfc
    1de4:	04020025 	streq	r0, [r2], #-37	; 0xffffffdb
    1de8:	66720302 	ldrbtvs	r0, [r2], -r2, lsl #6
    1dec:	02000505 	andeq	r0, r0, #20971520	; 0x1400000
    1df0:	05660104 	strbeq	r0, [r6, #-260]!	; 0xfffffefc
    1df4:	6612030f 	ldrvs	r0, [r2], -pc, lsl #6
    1df8:	4b130567 	blmi	4c339c <SYS_MODE+0x4c337d>
    1dfc:	054a0505 	strbeq	r0, [sl, #-1285]	; 0xfffffafb
    1e00:	1705310c 	strne	r3, [r5, -ip, lsl #2]
    1e04:	68110568 	ldmdavs	r1, {r3, r5, r6, r8, sl}
    1e08:	6b681705 	blvs	1a07a24 <SYS_MODE+0x1a07a05>
    1e0c:	02002305 	andeq	r2, r0, #335544320	; 0x14000000
    1e10:	054d0204 	strbeq	r0, [sp, #-516]	; 0xfffffdfc
    1e14:	04020012 	streq	r0, [r2], #-18	; 0xffffffee
    1e18:	31056602 	tstcc	r5, r2, lsl #12
    1e1c:	02040200 	andeq	r0, r4, #0, 4
    1e20:	00160582 	andseq	r0, r6, r2, lsl #11
    1e24:	4a020402 	bmi	82e34 <SYS_MODE+0x82e15>
    1e28:	02001205 	andeq	r1, r0, #1342177280	; 0x50000000
    1e2c:	052f0204 	streq	r0, [pc, #-516]!	; 1c30 <SYS_MODE+0x1c11>
    1e30:	04020028 	streq	r0, [r2], #-40	; 0xffffffd8
    1e34:	666e0302 	strbtvs	r0, [lr], -r2, lsl #6
    1e38:	02000505 	andeq	r0, r0, #20971520	; 0x1400000
    1e3c:	05660104 	strbeq	r0, [r6, #-260]!	; 0xfffffefc
    1e40:	66140301 	ldrvs	r0, [r4], -r1, lsl #6
    1e44:	01000802 	tsteq	r0, r2, lsl #16
    1e48:	00010501 	andeq	r0, r1, r1, lsl #10
    1e4c:	35200205 	strcc	r0, [r0, #-517]!	; 0xfffffdfb
    1e50:	f203c200 	vhsub.s8	d12, d3, d0
    1e54:	05050100 	streq	r0, [r5, #-256]	; 0xffffff00
    1e58:	2f01054c 	svccs	0x0001054c
    1e5c:	01000402 	tsteq	r0, r2, lsl #8
    1e60:	00010501 	andeq	r0, r1, r1, lsl #10
    1e64:	35340205 	ldrcc	r0, [r4, #-517]!	; 0xfffffdfb
    1e68:	fb03c200 	blx	f2672 <SYS_MODE+0xf2653>
    1e6c:	05050100 	streq	r0, [r5, #-256]	; 0xffffff00
    1e70:	694d8584 	stmdbvs	sp, {r2, r7, r8, sl, pc}^
    1e74:	bd696969 			; <UNDEFINED> instruction: 0xbd696969
    1e78:	024b0105 	subeq	r0, fp, #1073741825	; 0x40000001
    1e7c:	01010006 	tsteq	r1, r6
    1e80:	05000105 	streq	r0, [r0, #-261]	; 0xfffffefb
    1e84:	0035b802 	eorseq	fp, r5, r2, lsl #16
    1e88:	019903c2 	orrseq	r0, r9, r2, asr #7
    1e8c:	4c050501 	cfstr32mi	mvfx0, [r5], {1}
    1e90:	670105a1 	strvs	r0, [r1, -r1, lsr #11]
    1e94:	01000402 	tsteq	r0, r2, lsl #8
    1e98:	0002b901 	andeq	fp, r2, r1, lsl #18
    1e9c:	af000300 	svcge	0x00000300
    1ea0:	02000001 	andeq	r0, r0, #1
    1ea4:	0d0efb01 	vstreq	d15, [lr, #-4]
    1ea8:	01010100 	mrseq	r0, (UNDEF: 17)
    1eac:	00000001 	andeq	r0, r0, r1
    1eb0:	01000001 	tsteq	r0, r1
    1eb4:	6d6f682f 	stclvs	8, cr6, [pc, #-188]!	; 1e00 <SYS_MODE+0x1de1>
    1eb8:	7a632f65 	bvc	18cdc54 <SYS_MODE+0x18cdc35>
    1ebc:	786d696c 	stmdavc	sp!, {r2, r3, r5, r6, r8, fp, sp, lr}^
    1ec0:	646f632f 	strbtvs	r6, [pc], #-815	; 1ec8 <SYS_MODE+0x1ea9>
    1ec4:	61707365 	cmnvs	r0, r5, ror #6
    1ec8:	742f6563 	strtvc	r6, [pc], #-1379	; 1ed0 <SYS_MODE+0x1eb1>
    1ecc:	2f706d65 	svccs	0x00706d65
    1ed0:	65726162 	ldrbvs	r6, [r2, #-354]!	; 0xfffffe9e
    1ed4:	6174656d 	cmnvs	r4, sp, ror #10
    1ed8:	6f665f6c 	svcvs	0x00665f6c
    1edc:	2f635f72 	svccs	0x00635f72
    1ee0:	65646f63 	strbvs	r6, [r4, #-3939]!	; 0xfffff09d
    1ee4:	616f622f 	cmnvs	pc, pc, lsr #4
    1ee8:	612f6472 			; <UNDEFINED> instruction: 0x612f6472
    1eec:	3533336d 	ldrcc	r3, [r3, #-877]!	; 0xfffffc93
    1ef0:	72742f38 	rsbsvc	r2, r4, #56, 30	; 0xe0
    1ef4:	6f747279 	svcvs	0x00747279
    1ef8:	72732f73 	rsbsvc	r2, r3, #460	; 0x1cc
    1efc:	682f0063 	stmdavs	pc!, {r0, r1, r5, r6}	; <UNPREDICTABLE>
    1f00:	2f656d6f 	svccs	0x00656d6f
    1f04:	696c7a63 	stmdbvs	ip!, {r0, r1, r5, r6, r9, fp, ip, sp, lr}^
    1f08:	632f786d 			; <UNDEFINED> instruction: 0x632f786d
    1f0c:	7365646f 	cmnvc	r5, #1862270976	; 0x6f000000
    1f10:	65636170 	strbvs	r6, [r3, #-368]!	; 0xfffffe90
    1f14:	6d65742f 	cfstrdvs	mvd7, [r5, #-188]!	; 0xffffff44
    1f18:	61622f70 	smcvs	8944	; 0x22f0
    1f1c:	656d6572 	strbvs	r6, [sp, #-1394]!	; 0xfffffa8e
    1f20:	5f6c6174 	svcpl	0x006c6174
    1f24:	5f726f66 	svcpl	0x00726f66
    1f28:	6f632f63 	svcvs	0x00632f63
    1f2c:	612f6564 			; <UNDEFINED> instruction: 0x612f6564
    1f30:	2f686372 	svccs	0x00686372
    1f34:	766d7261 	strbtvc	r7, [sp], -r1, ror #4
    1f38:	2f612d37 	svccs	0x00612d37
    1f3c:	00636e69 	rsbeq	r6, r3, r9, ror #28
    1f40:	6d6f682f 	stclvs	8, cr6, [pc, #-188]!	; 1e8c <SYS_MODE+0x1e6d>
    1f44:	7a632f65 	bvc	18cdce0 <SYS_MODE+0x18cdcc1>
    1f48:	786d696c 	stmdavc	sp!, {r2, r3, r5, r6, r8, fp, sp, lr}^
    1f4c:	646f632f 	strbtvs	r6, [pc], #-815	; 1f54 <SYS_MODE+0x1f35>
    1f50:	61707365 	cmnvs	r0, r5, ror #6
    1f54:	742f6563 	strtvc	r6, [pc], #-1379	; 1f5c <SYS_MODE+0x1f3d>
    1f58:	2f706d65 	svccs	0x00706d65
    1f5c:	65726162 	ldrbvs	r6, [r2, #-354]!	; 0xfffffe9e
    1f60:	6174656d 	cmnvs	r4, sp, ror #10
    1f64:	6f665f6c 	svcvs	0x00665f6c
    1f68:	2f635f72 	svccs	0x00635f72
    1f6c:	65646f63 	strbvs	r6, [r4, #-3939]!	; 0xfffff09d
    1f70:	62696c2f 	rsbvs	r6, r9, #12032	; 0x2f00
    1f74:	6e692f63 	cdpvs	15, 6, cr2, cr9, cr3, {3}
    1f78:	682f0063 	stmdavs	pc!, {r0, r1, r5, r6}	; <UNPREDICTABLE>
    1f7c:	2f656d6f 	svccs	0x00656d6f
    1f80:	696c7a63 	stmdbvs	ip!, {r0, r1, r5, r6, r9, fp, ip, sp, lr}^
    1f84:	632f786d 			; <UNDEFINED> instruction: 0x632f786d
    1f88:	7365646f 	cmnvc	r5, #1862270976	; 0x6f000000
    1f8c:	65636170 	strbvs	r6, [r3, #-368]!	; 0xfffffe90
    1f90:	6d65742f 	cfstrdvs	mvd7, [r5, #-188]!	; 0xffffff44
    1f94:	61622f70 	smcvs	8944	; 0x22f0
    1f98:	656d6572 	strbvs	r6, [sp, #-1394]!	; 0xfffffa8e
    1f9c:	5f6c6174 	svcpl	0x006c6174
    1fa0:	5f726f66 	svcpl	0x00726f66
    1fa4:	6f632f63 	svcvs	0x00632f63
    1fa8:	6b2f6564 	blvs	bdb540 <SYS_MODE+0xbdb521>
    1fac:	656e7265 	strbvs	r7, [lr, #-613]!	; 0xfffffd9b
    1fb0:	72742f6c 	rsbsvc	r2, r4, #108, 30	; 0x1b0
    1fb4:	6f747279 	svcvs	0x00747279
    1fb8:	6e692f73 	mcrvs	15, 3, r2, cr9, cr3, {3}
    1fbc:	682f0063 	stmdavs	pc!, {r0, r1, r5, r6}	; <UNPREDICTABLE>
    1fc0:	2f656d6f 	svccs	0x00656d6f
    1fc4:	696c7a63 	stmdbvs	ip!, {r0, r1, r5, r6, r9, fp, ip, sp, lr}^
    1fc8:	632f786d 			; <UNDEFINED> instruction: 0x632f786d
    1fcc:	7365646f 	cmnvc	r5, #1862270976	; 0x6f000000
    1fd0:	65636170 	strbvs	r6, [r3, #-368]!	; 0xfffffe90
    1fd4:	6d65742f 	cfstrdvs	mvd7, [r5, #-188]!	; 0xffffff44
    1fd8:	61622f70 	smcvs	8944	; 0x22f0
    1fdc:	656d6572 	strbvs	r6, [sp, #-1394]!	; 0xfffffa8e
    1fe0:	5f6c6174 	svcpl	0x006c6174
    1fe4:	5f726f66 	svcpl	0x00726f66
    1fe8:	6f632f63 	svcvs	0x00632f63
    1fec:	642f6564 	strtvs	r6, [pc], #-1380	; 1ff4 <SYS_MODE+0x1fd5>
    1ff0:	65766972 	ldrbvs	r6, [r6, #-2418]!	; 0xfffff68e
    1ff4:	6d612f72 	stclvs	15, cr2, [r1, #-456]!	; 0xfffffe38
    1ff8:	78353333 	ldmdavc	r5!, {r0, r1, r4, r5, r8, r9, ip, sp}
    1ffc:	636e692f 	cmnvs	lr, #770048	; 0xbc000
    2000:	616d0000 	cmnvs	sp, r0
    2004:	632e6e69 			; <UNDEFINED> instruction: 0x632e6e69
    2008:	00000100 	andeq	r0, r0, r0, lsl #2
    200c:	68637261 	stmdavs	r3!, {r0, r5, r6, r9, ip, sp, lr}^
    2010:	6d6f635f 	stclvs	3, cr6, [pc, #-380]!	; 1e9c <SYS_MODE+0x1e7d>
    2014:	656c6970 	strbvs	r6, [ip, #-2416]!	; 0xfffff690
    2018:	00682e72 	rsbeq	r2, r8, r2, ror lr
    201c:	6c000002 	stcvs	0, cr0, [r0], {2}
    2020:	5f636269 	svcpl	0x00636269
    2024:	7473696c 	ldrbtvc	r6, [r3], #-2412	; 0xfffff694
    2028:	0300682e 	movweq	r6, #2094	; 0x82e
    202c:	72740000 	rsbsvc	r0, r4, #0
    2030:	6f747279 	svcvs	0x00747279
    2034:	79745f73 	ldmdbvc	r4!, {r0, r1, r4, r5, r6, r8, r9, sl, fp, ip, lr}^
    2038:	2e736570 	mrccs	5, 3, r6, cr3, cr0, {3}
    203c:	00040068 	andeq	r0, r4, r8, rrx
    2040:	72647300 	rsbvc	r7, r4, #0, 6
    2044:	69745f76 	ldmdbvs	r4!, {r1, r2, r4, r5, r6, r8, r9, sl, fp, ip, lr}^
    2048:	2e72656d 	cdpcs	5, 7, cr6, cr2, cr13, {3}
    204c:	00050068 	andeq	r0, r5, r8, rrx
    2050:	01050000 	mrseq	r0, (UNDEF: 5)
    2054:	00020500 	andeq	r0, r2, r0, lsl #10
    2058:	03000000 	movweq	r0, #0
    205c:	0505010e 	streq	r0, [r5, #-270]	; 0xfffffef2
    2060:	9f010583 	svcls	0x00010583
    2064:	01000602 	tsteq	r0, r2, lsl #12
    2068:	00010501 	andeq	r0, r1, r1, lsl #10
    206c:	35e80205 	strbcc	r0, [r8, #517]!	; 0x205
    2070:	1603c200 	strne	ip, [r3], -r0, lsl #4
    2074:	83050501 	movwhi	r0, #21761	; 0x5501
    2078:	8401052f 	strhi	r0, [r1], #-1327	; 0xfffffad1
    207c:	01000602 	tsteq	r0, r2, lsl #12
    2080:	00010501 	andeq	r0, r1, r1, lsl #10
    2084:	36180205 	ldrcc	r0, [r8], -r5, lsl #4
    2088:	2003c200 	andcs	ip, r3, r0, lsl #4
    208c:	84050501 	strhi	r0, [r5], #-1281	; 0xfffffaff
    2090:	02680105 	rsbeq	r0, r8, #1073741825	; 0x40000001
    2094:	01010006 	tsteq	r1, r6
    2098:	05000105 	streq	r0, [r0, #-261]	; 0xfffffefb
    209c:	00364002 	eorseq	r4, r6, r2
    20a0:	013503c2 	teqeq	r5, r2, asr #7
    20a4:	02000905 	andeq	r0, r0, #81920	; 0x14000
    20a8:	02870104 	addeq	r0, r7, #4, 2
    20ac:	01010008 	tsteq	r1, r8
    20b0:	05000105 	streq	r0, [r0, #-261]	; 0xfffffefb
    20b4:	00366002 	eorseq	r6, r6, r2
    20b8:	013f03c2 	teqeq	pc, r2, asr #7
    20bc:	02000905 	andeq	r0, r0, #81920	; 0x14000
    20c0:	02870104 	addeq	r0, r7, #4, 2
    20c4:	01010008 	tsteq	r1, r8
    20c8:	05000105 	streq	r0, [r0, #-261]	; 0xfffffefb
    20cc:	00368002 	eorseq	r8, r6, r2
    20d0:	00c903c2 	sbceq	r0, r9, r2, asr #7
    20d4:	00090501 	andeq	r0, r9, r1, lsl #10
    20d8:	87010402 	strhi	r0, [r1, -r2, lsl #8]
    20dc:	01000802 	tsteq	r0, r2, lsl #16
    20e0:	00010501 	andeq	r0, r1, r1, lsl #10
    20e4:	36a00205 	strtcc	r0, [r0], r5, lsl #4
    20e8:	d303c200 	movwle	ip, #12800	; 0x3200
    20ec:	09050100 	stmdbeq	r5, {r8}
    20f0:	01040200 	mrseq	r0, R12_usr
    20f4:	00080287 	andeq	r0, r8, r7, lsl #5
    20f8:	01050101 	tsteq	r5, r1, lsl #2
    20fc:	c0020500 	andgt	r0, r2, r0, lsl #10
    2100:	03c20036 	biceq	r0, r2, #54	; 0x36
    2104:	050100dd 	streq	r0, [r1, #-221]	; 0xffffff23
    2108:	04020009 	streq	r0, [r2], #-9
    210c:	08028701 	stmdaeq	r2, {r0, r8, r9, sl, pc}
    2110:	05010100 	streq	r0, [r1, #-256]	; 0xffffff00
    2114:	02050001 	andeq	r0, r5, #1
    2118:	c20036e0 	andgt	r3, r0, #224, 12	; 0xe000000
    211c:	0100e703 	tsteq	r0, r3, lsl #14
    2120:	02000905 	andeq	r0, r0, #81920	; 0x14000
    2124:	02870104 	addeq	r0, r7, #4, 2
    2128:	01010008 	tsteq	r1, r8
    212c:	05000105 	streq	r0, [r0, #-261]	; 0xfffffefb
    2130:	00370002 	eorseq	r0, r7, r2
    2134:	00f403c2 	rscseq	r0, r4, r2, asr #7
    2138:	68050501 	stmdavs	r5, {r0, r8, sl}
    213c:	08d00831 	ldmeq	r0, {r0, r4, r5, fp}^
    2140:	08d008d0 	ldmeq	r0, {r4, r6, r7, fp}^
    2144:	03d008d0 	bicseq	r0, r0, #208, 16	; 0xd00000
    2148:	05c80809 	strbeq	r0, [r8, #2057]	; 0x809
    214c:	0105300c 	tsteq	r5, ip
    2150:	0006022f 	andeq	r0, r6, pc, lsr #4
    2154:	01ae0101 			; <UNDEFINED> instruction: 0x01ae0101
    2158:	00030000 	andeq	r0, r3, r0
    215c:	000000bc 	strheq	r0, [r0], -ip
    2160:	0efb0102 	cdpeq	1, 15, cr0, cr11, cr2, {0}
    2164:	0101000d 	tsteq	r1, sp
    2168:	00000101 	andeq	r0, r0, r1, lsl #2
    216c:	00000100 	andeq	r0, r0, r0, lsl #2
    2170:	6f682f01 	svcvs	0x00682f01
    2174:	632f656d 			; <UNDEFINED> instruction: 0x632f656d
    2178:	6d696c7a 	stclvs	12, cr6, [r9, #-488]!	; 0xfffffe18
    217c:	6f632f78 	svcvs	0x00632f78
    2180:	70736564 	rsbsvc	r6, r3, r4, ror #10
    2184:	2f656361 	svccs	0x00656361
    2188:	706d6574 	rsbvc	r6, sp, r4, ror r5
    218c:	7261622f 	rsbvc	r6, r1, #-268435454	; 0xf0000002
    2190:	74656d65 	strbtvc	r6, [r5], #-3429	; 0xfffff29b
    2194:	665f6c61 	ldrbvs	r6, [pc], -r1, ror #24
    2198:	635f726f 	cmpvs	pc, #-268435450	; 0xf0000006
    219c:	646f632f 	strbtvs	r6, [pc], #-815	; 21a4 <SYS_MODE+0x2185>
    21a0:	72642f65 	rsbvc	r2, r4, #404	; 0x194
    21a4:	72657669 	rsbvc	r7, r5, #110100480	; 0x6900000
    21a8:	336d612f 	cmncc	sp, #-1073741813	; 0xc000000b
    21ac:	2f783533 	svccs	0x00783533
    21b0:	00637273 	rsbeq	r7, r3, r3, ror r2
    21b4:	6d6f682f 	stclvs	8, cr6, [pc, #-188]!	; 2100 <SYS_MODE+0x20e1>
    21b8:	7a632f65 	bvc	18cdf54 <SYS_MODE+0x18cdf35>
    21bc:	786d696c 	stmdavc	sp!, {r2, r3, r5, r6, r8, fp, sp, lr}^
    21c0:	646f632f 	strbtvs	r6, [pc], #-815	; 21c8 <SYS_MODE+0x21a9>
    21c4:	61707365 	cmnvs	r0, r5, ror #6
    21c8:	742f6563 	strtvc	r6, [pc], #-1379	; 21d0 <SYS_MODE+0x21b1>
    21cc:	2f706d65 	svccs	0x00706d65
    21d0:	65726162 	ldrbvs	r6, [r2, #-354]!	; 0xfffffe9e
    21d4:	6174656d 	cmnvs	r4, sp, ror #10
    21d8:	6f665f6c 	svcvs	0x00665f6c
    21dc:	2f635f72 	svccs	0x00635f72
    21e0:	65646f63 	strbvs	r6, [r4, #-3939]!	; 0xfffff09d
    21e4:	6372612f 	cmnvs	r2, #-1073741813	; 0xc000000b
    21e8:	72612f68 	rsbvc	r2, r1, #104, 30	; 0x1a0
    21ec:	2d37766d 	ldccs	6, cr7, [r7, #-436]!	; 0xfffffe4c
    21f0:	6e692f61 	cdpvs	15, 6, cr2, cr9, cr1, {3}
    21f4:	73000063 	movwvc	r0, #99	; 0x63
    21f8:	5f767264 	svcpl	0x00767264
    21fc:	63746e69 	cmnvs	r4, #1680	; 0x690
    2200:	632e635f 			; <UNDEFINED> instruction: 0x632e635f
    2204:	00000100 	andeq	r0, r0, r0, lsl #2
    2208:	68637261 	stmdavs	r3!, {r0, r5, r6, r9, ip, sp, lr}^
    220c:	6d6f635f 	stclvs	3, cr6, [pc, #-380]!	; 2098 <SYS_MODE+0x2079>
    2210:	656c6970 	strbvs	r6, [ip, #-2416]!	; 0xfffff690
    2214:	00682e72 	rsbeq	r2, r8, r2, ror lr
    2218:	00000002 	andeq	r0, r0, r2
    221c:	05000105 	streq	r0, [r0, #-261]	; 0xfffffefb
    2220:	00388c02 	eorseq	r8, r8, r2, lsl #24
    2224:	0e0518c2 	cdpeq	8, 0, cr1, cr5, cr2, {6}
    2228:	11054b67 	tstne	r5, r7, ror #22
    222c:	4a0f054d 	bmi	3c3768 <SYS_MODE+0x3c3749>
    2230:	6705054b 	strvs	r0, [r5, -fp, asr #10]
    2234:	05850b05 	streq	r0, [r5, #2821]	; 0xb05
    2238:	10052f12 	andne	r2, r5, r2, lsl pc
    223c:	490b0566 	stmdbmi	fp, {r1, r2, r5, r6, r8, sl}
    2240:	02690105 	rsbeq	r0, r9, #1073741825	; 0x40000001
    2244:	0101000a 	tsteq	r1, sl
    2248:	05000105 	streq	r0, [r0, #-261]	; 0xfffffefb
    224c:	00390c02 	eorseq	r0, r9, r2, lsl #24
    2250:	011903c2 	tsteq	r9, r2, asr #7
    2254:	059f0805 	ldreq	r0, [pc, #2053]	; 2a61 <SYS_MODE+0x2a42>
    2258:	09056905 	stmdbeq	r5, {r0, r2, r8, fp, sp, lr}
    225c:	01055608 	tsteq	r5, r8, lsl #12
    2260:	00060231 	andeq	r0, r6, r1, lsr r2
    2264:	01050101 	tsteq	r5, r1, lsl #2
    2268:	68020500 	stmdavs	r2, {r8, sl}
    226c:	03c20039 	biceq	r0, r2, #57	; 0x39
    2270:	12050124 	andne	r0, r5, #36, 2
    2274:	08054b83 	stmdaeq	r5, {r0, r1, r7, r8, r9, fp, lr}
    2278:	690b054c 	stmdbvs	fp, {r2, r3, r6, r8, sl}
    227c:	05670905 	strbeq	r0, [r7, #-2309]!	; 0xfffff6fb
    2280:	09056805 	stmdbeq	r5, {r0, r2, fp, sp, lr}
    2284:	01055308 	tsteq	r5, r8, lsl #6
    2288:	00060234 	andeq	r0, r6, r4, lsr r2
    228c:	01050101 	tsteq	r5, r1, lsl #2
    2290:	00020500 	andeq	r0, r2, r0, lsl #10
    2294:	03000000 	movweq	r0, #0
    2298:	12050135 	andne	r0, r5, #1073741837	; 0x4000000d
    229c:	08054b83 	stmdaeq	r5, {r0, r1, r7, r8, r9, fp, lr}
    22a0:	690b054c 	stmdbvs	fp, {r2, r3, r6, r8, sl}
    22a4:	05670905 	strbeq	r0, [r7, #-2309]!	; 0xfffff6fb
    22a8:	09056805 	stmdbeq	r5, {r0, r2, fp, sp, lr}
    22ac:	01055308 	tsteq	r5, r8, lsl #6
    22b0:	00060234 	andeq	r0, r6, r4, lsr r2
    22b4:	01050101 	tsteq	r5, r1, lsl #2
    22b8:	e8020500 	stmda	r2, {r8, sl}
    22bc:	03c20039 	biceq	r0, r2, #57	; 0x39
    22c0:	050100c6 	streq	r0, [r1, #-198]	; 0xffffff3a
    22c4:	054b8312 	strbeq	r8, [fp, #-786]	; 0xfffffcee
    22c8:	0b054c08 	bleq	1552f0 <SYS_MODE+0x1552d1>
    22cc:	67090569 	strvs	r0, [r9, -r9, ror #10]
    22d0:	05680505 	strbeq	r0, [r8, #-1285]!	; 0xfffffafb
    22d4:	05530809 	ldrbeq	r0, [r3, #-2057]	; 0xfffff7f7
    22d8:	06023401 	streq	r3, [r2], -r1, lsl #8
    22dc:	05010100 	streq	r0, [r1, #-256]	; 0xffffff00
    22e0:	02050001 	andeq	r0, r5, #1
    22e4:	00000000 	andeq	r0, r0, r0
    22e8:	0100d703 	tsteq	r0, r3, lsl #14
    22ec:	4b831205 	blmi	fe0c6b08 <_stack_end+0x3c0a0908>
    22f0:	054c0805 	strbeq	r0, [ip, #-2053]	; 0xfffff7fb
    22f4:	0905690b 	stmdbeq	r5, {r0, r1, r3, r8, fp, sp, lr}
    22f8:	68050567 	stmdavs	r5, {r0, r1, r2, r5, r6, r8, sl}
    22fc:	53080905 	movwpl	r0, #35077	; 0x8905
    2300:	02340105 	eorseq	r0, r4, #1073741825	; 0x40000001
    2304:	01010006 	tsteq	r1, r6
    2308:	00000099 	muleq	r0, r9, r0
    230c:	00670003 	rsbeq	r0, r7, r3
    2310:	01020000 	mrseq	r0, (UNDEF: 2)
    2314:	000d0efb 	strdeq	r0, [sp], -fp
    2318:	01010101 	tsteq	r1, r1, lsl #2
    231c:	01000000 	mrseq	r0, (UNDEF: 0)
    2320:	2f010000 	svccs	0x00010000
    2324:	656d6f68 	strbvs	r6, [sp, #-3944]!	; 0xfffff098
    2328:	6c7a632f 	ldclvs	3, cr6, [sl], #-188	; 0xffffff44
    232c:	2f786d69 	svccs	0x00786d69
    2330:	65646f63 	strbvs	r6, [r4, #-3939]!	; 0xfffff09d
    2334:	63617073 	cmnvs	r1, #115	; 0x73
    2338:	65742f65 	ldrbvs	r2, [r4, #-3941]!	; 0xfffff09b
    233c:	622f706d 	eorvs	r7, pc, #109	; 0x6d
    2340:	6d657261 	sfmvs	f7, 2, [r5, #-388]!	; 0xfffffe7c
    2344:	6c617465 	cfstrdvs	mvd7, [r1], #-404	; 0xfffffe6c
    2348:	726f665f 	rsbvc	r6, pc, #99614720	; 0x5f00000
    234c:	632f635f 			; <UNDEFINED> instruction: 0x632f635f
    2350:	2f65646f 	svccs	0x0065646f
    2354:	76697264 	strbtvc	r7, [r9], -r4, ror #4
    2358:	612f7265 			; <UNDEFINED> instruction: 0x612f7265
    235c:	3533336d 	ldrcc	r3, [r3, #-877]!	; 0xfffffc93
    2360:	72732f78 	rsbsvc	r2, r3, #120, 30	; 0x1e0
    2364:	73000063 	movwvc	r0, #99	; 0x63
    2368:	5f767264 	svcpl	0x00767264
    236c:	63746e69 	cmnvs	r4, #1680	; 0x690
    2370:	732e735f 			; <UNDEFINED> instruction: 0x732e735f
    2374:	00000100 	andeq	r0, r0, r0, lsl #2
    2378:	02050000 	andeq	r0, r5, #0
    237c:	c2003a68 	andgt	r3, r0, #104, 20	; 0x68000
    2380:	31010903 	tstcc	r1, r3, lsl #18
    2384:	2f2f312f 	svccs	0x002f312f
    2388:	2f2f312f 	svccs	0x002f312f
    238c:	2f2f2f31 	svccs	0x002f2f31
    2390:	35313131 	ldrcc	r3, [r1, #-305]!	; 0xfffffecf
    2394:	2f313131 	svccs	0x00313131
    2398:	4e033131 	mcrmi	1, 0, r3, cr3, cr1, {1}
    239c:	3334322e 	teqcc	r4, #-536870910	; 0xe0000002
    23a0:	01000202 	tsteq	r0, r2, lsl #4
    23a4:	00034801 	andeq	r4, r3, r1, lsl #16
    23a8:	0c000300 	stceq	3, cr0, [r0], {-0}
    23ac:	02000001 	andeq	r0, r0, #1
    23b0:	0d0efb01 	vstreq	d15, [lr, #-4]
    23b4:	01010100 	mrseq	r0, (UNDEF: 17)
    23b8:	00000001 	andeq	r0, r0, r1
    23bc:	01000001 	tsteq	r0, r1
    23c0:	6d6f682f 	stclvs	8, cr6, [pc, #-188]!	; 230c <SYS_MODE+0x22ed>
    23c4:	7a632f65 	bvc	18ce160 <SYS_MODE+0x18ce141>
    23c8:	786d696c 	stmdavc	sp!, {r2, r3, r5, r6, r8, fp, sp, lr}^
    23cc:	646f632f 	strbtvs	r6, [pc], #-815	; 23d4 <SYS_MODE+0x23b5>
    23d0:	61707365 	cmnvs	r0, r5, ror #6
    23d4:	742f6563 	strtvc	r6, [pc], #-1379	; 23dc <SYS_MODE+0x23bd>
    23d8:	2f706d65 	svccs	0x00706d65
    23dc:	65726162 	ldrbvs	r6, [r2, #-354]!	; 0xfffffe9e
    23e0:	6174656d 	cmnvs	r4, sp, ror #10
    23e4:	6f665f6c 	svcvs	0x00665f6c
    23e8:	2f635f72 	svccs	0x00635f72
    23ec:	65646f63 	strbvs	r6, [r4, #-3939]!	; 0xfffff09d
    23f0:	6972642f 	ldmdbvs	r2!, {r0, r1, r2, r3, r5, sl, sp, lr}^
    23f4:	2f726576 	svccs	0x00726576
    23f8:	33336d61 	teqcc	r3, #6208	; 0x1840
    23fc:	732f7835 			; <UNDEFINED> instruction: 0x732f7835
    2400:	2f006372 	svccs	0x00006372
    2404:	656d6f68 	strbvs	r6, [sp, #-3944]!	; 0xfffff098
    2408:	6c7a632f 	ldclvs	3, cr6, [sl], #-188	; 0xffffff44
    240c:	2f786d69 	svccs	0x00786d69
    2410:	65646f63 	strbvs	r6, [r4, #-3939]!	; 0xfffff09d
    2414:	63617073 	cmnvs	r1, #115	; 0x73
    2418:	65742f65 	ldrbvs	r2, [r4, #-3941]!	; 0xfffff09b
    241c:	622f706d 	eorvs	r7, pc, #109	; 0x6d
    2420:	6d657261 	sfmvs	f7, 2, [r5, #-388]!	; 0xfffffe7c
    2424:	6c617465 	cfstrdvs	mvd7, [r1], #-404	; 0xfffffe6c
    2428:	726f665f 	rsbvc	r6, pc, #99614720	; 0x5f00000
    242c:	632f635f 			; <UNDEFINED> instruction: 0x632f635f
    2430:	2f65646f 	svccs	0x0065646f
    2434:	68637261 	stmdavs	r3!, {r0, r5, r6, r9, ip, sp, lr}^
    2438:	6d72612f 	ldfvse	f6, [r2, #-188]!	; 0xffffff44
    243c:	612d3776 			; <UNDEFINED> instruction: 0x612d3776
    2440:	636e692f 	cmnvs	lr, #770048	; 0xbc000
    2444:	6f682f00 	svcvs	0x00682f00
    2448:	632f656d 			; <UNDEFINED> instruction: 0x632f656d
    244c:	6d696c7a 	stclvs	12, cr6, [r9, #-488]!	; 0xfffffe18
    2450:	6f632f78 	svcvs	0x00632f78
    2454:	70736564 	rsbsvc	r6, r3, r4, ror #10
    2458:	2f656361 	svccs	0x00656361
    245c:	706d6574 	rsbvc	r6, sp, r4, ror r5
    2460:	7261622f 	rsbvc	r6, r1, #-268435454	; 0xf0000002
    2464:	74656d65 	strbtvc	r6, [r5], #-3429	; 0xfffff29b
    2468:	665f6c61 	ldrbvs	r6, [pc], -r1, ror #24
    246c:	635f726f 	cmpvs	pc, #-268435450	; 0xf0000006
    2470:	646f632f 	strbtvs	r6, [pc], #-815	; 2478 <SYS_MODE+0x2459>
    2474:	72642f65 	rsbvc	r2, r4, #404	; 0x194
    2478:	72657669 	rsbvc	r7, r5, #110100480	; 0x6900000
    247c:	336d612f 	cmncc	sp, #-1073741813	; 0xc000000b
    2480:	2f783533 	svccs	0x00783533
    2484:	00636e69 	rsbeq	r6, r3, r9, ror #28
    2488:	72647300 	rsbvc	r7, r4, #0, 6
    248c:	61755f76 	cmnvs	r5, r6, ror pc
    2490:	632e7472 			; <UNDEFINED> instruction: 0x632e7472
    2494:	00000100 	andeq	r0, r0, r0, lsl #2
    2498:	68637261 	stmdavs	r3!, {r0, r5, r6, r9, ip, sp, lr}^
    249c:	6d6f635f 	stclvs	3, cr6, [pc, #-380]!	; 2328 <SYS_MODE+0x2309>
    24a0:	656c6970 	strbvs	r6, [ip, #-2416]!	; 0xfffff690
    24a4:	00682e72 	rsbeq	r2, r8, r2, ror lr
    24a8:	73000002 	movwvc	r0, #2
    24ac:	5f767264 	svcpl	0x00767264
    24b0:	74726175 	ldrbtvc	r6, [r2], #-373	; 0xfffffe8b
    24b4:	0300682e 	movweq	r6, #2094	; 0x82e
    24b8:	05000000 	streq	r0, [r0, #-0]
    24bc:	02050001 	andeq	r0, r5, #1
    24c0:	c2003ad8 	andgt	r3, r0, #216, 20	; 0xd8000
    24c4:	05012203 	streq	r2, [r1, #-515]	; 0xfffffdfd
    24c8:	1705bb08 	strne	fp, [r5, -r8, lsl #22]
    24cc:	01040200 	mrseq	r0, R12_usr
    24d0:	67100566 	ldrvs	r0, [r0, -r6, ror #10]
    24d4:	054c0e05 	strbeq	r0, [ip, #-3589]	; 0xfffff1fb
    24d8:	05054c13 	streq	r4, [r5, #-3091]	; 0xfffff3ed
    24dc:	302f054a 	eorcc	r0, pc, sl, asr #10
    24e0:	05d60c05 	ldrbeq	r0, [r6, #3077]	; 0xc05
    24e4:	1205682a 	andne	r6, r5, #2752512	; 0x2a0000
    24e8:	4b2a05f2 	blmi	a83cb8 <SYS_MODE+0xa83c99>
    24ec:	05f21205 	ldrbeq	r1, [r2, #517]!	; 0x205
    24f0:	27054b14 	smladcs	r5, r4, fp, r4
    24f4:	02040200 	andeq	r0, r4, #0, 4
    24f8:	054a7a03 	strbeq	r7, [sl, #-2563]	; 0xfffff5fd
    24fc:	04020005 	streq	r0, [r2], #-5
    2500:	0c056601 	stceq	6, cr6, [r5], {1}
    2504:	05820a03 	streq	r0, [r2, #2563]	; 0xa03
    2508:	08022f01 	stmdaeq	r2, {r0, r8, r9, sl, fp, sp}
    250c:	05010100 	streq	r0, [r1, #-256]	; 0xffffff00
    2510:	02050001 	andeq	r0, r5, #1
    2514:	c2003bd4 	andgt	r3, r0, #212, 22	; 0x35000
    2518:	05013a03 	streq	r3, [r1, #-2563]	; 0xfffff5fd
    251c:	1c05830e 	stcne	3, cr8, [r5], {14}
    2520:	4d0d054a 	cfstr32mi	mvfx0, [sp, #-296]	; 0xfffffed8
    2524:	4b4a0b05 	blmi	1285140 <SYS_MODE+0x1285121>
    2528:	05670505 	strbeq	r0, [r7, #-1285]!	; 0xfffffafb
    252c:	1205a10b 	andne	sl, r5, #-1073741822	; 0xc0000002
    2530:	4a100530 	bmi	4039f8 <SYS_MODE+0x4039d9>
    2534:	05483505 	strbeq	r3, [r8, #-1285]	; 0xfffffafb
    2538:	01054a0b 	tsteq	r5, fp, lsl #20
    253c:	000a024e 	andeq	r0, sl, lr, asr #4
    2540:	01050101 	tsteq	r5, r1, lsl #2
    2544:	5c020500 	cfstr32pl	mvfx0, [r2], {-0}
    2548:	03c2003c 	biceq	r0, r2, #60	; 0x3c
    254c:	050100d2 	streq	r0, [r1, #-210]	; 0xffffff2e
    2550:	1c059f0e 	stcne	15, cr9, [r5], {14}
    2554:	4a2c054a 	bmi	b03a84 <SYS_MODE+0xb03a65>
    2558:	054a3c05 	strbeq	r3, [sl, #-3077]	; 0xfffff3fb
    255c:	0d05500f 	stceq	0, cr5, [r5, #-60]	; 0xffffffc4
    2560:	4b05054a 	blmi	143a90 <SYS_MODE+0x143a71>
    2564:	05a40d05 	streq	r0, [r4, #3333]!	; 0xd05
    2568:	16054a0b 	strne	r4, [r5], -fp, lsl #20
    256c:	4a0d054b 	bmi	343aa0 <SYS_MODE+0x343a81>
    2570:	054b0b05 	strbeq	r0, [fp, #-2821]	; 0xfffff4fb
    2574:	05a36705 	streq	r6, [r3, #1797]!	; 0x705
    2578:	0b05a40d 	bleq	16b5b4 <SYS_MODE+0x16b595>
    257c:	4b16054a 	blmi	583aac <SYS_MODE+0x583a8d>
    2580:	054a0d05 	strbeq	r0, [sl, #-3333]	; 0xfffff2fb
    2584:	05054b0b 	streq	r4, [r5, #-2827]	; 0xfffff4f5
    2588:	a10b0567 	tstge	fp, r7, ror #10
    258c:	054b1705 	strbeq	r1, [fp, #-1797]	; 0xfffff8fb
    2590:	0f054a08 	svceq	0x00054a08
    2594:	6817054b 	ldmdavs	r7, {r0, r1, r3, r6, r8, sl}
    2598:	054a0805 	strbeq	r0, [sl, #-2053]	; 0xfffff7fb
    259c:	16054b0f 	strne	r4, [r5], -pc, lsl #22
    25a0:	4a440568 	bmi	1103b48 <SYS_MODE+0x1103b29>
    25a4:	054a0b05 	strbeq	r0, [sl, #-2821]	; 0xfffff4fb
    25a8:	44056716 	strmi	r6, [r5], #-1814	; 0xfffff8ea
    25ac:	4a0b054a 	bmi	2c3adc <SYS_MODE+0x2c3abd>
    25b0:	a3670505 	cmnge	r7, #20971520	; 0x1400000
    25b4:	0d059fa1 	stceq	15, cr9, [r5, #-644]	; 0xfffffd7c
    25b8:	4a0b05a1 	bmi	2c3c44 <SYS_MODE+0x2c3c25>
    25bc:	054b0805 	strbeq	r0, [fp, #-2053]	; 0xfffff7fb
    25c0:	0584670f 	streq	r6, [r4, #1807]	; 0x70f
    25c4:	05a36705 	streq	r6, [r3, #1797]!	; 0x705
    25c8:	0b05a10d 	bleq	16aa04 <SYS_MODE+0x16a9e5>
    25cc:	4b08054a 	blmi	203afc <SYS_MODE+0x203add>
    25d0:	84670f05 	strbthi	r0, [r7], #-3845	; 0xfffff0fb
    25d4:	a1670505 	cmnge	r7, r5, lsl #10
    25d8:	029f0105 	addseq	r0, pc, #1073741825	; 0x40000001
    25dc:	01010008 	tsteq	r1, r8
    25e0:	05000105 	streq	r0, [r0, #-261]	; 0xfffffefb
    25e4:	003ee002 	eorseq	lr, lr, r2
    25e8:	01a203c2 			; <UNDEFINED> instruction: 0x01a203c2
    25ec:	9f0e0501 	svcls	0x000e0501
    25f0:	054a1c05 	strbeq	r1, [sl, #-3077]	; 0xfffff3fb
    25f4:	38054a2c 	stmdacc	r5, {r2, r3, r5, r9, fp, lr}
    25f8:	4c11054a 	cfldr32mi	mvfx0, [r1], {74}	; 0x4a
    25fc:	05d60e05 	ldrbeq	r0, [r6, #3589]	; 0xe05
    2600:	05054a08 	streq	r4, [r5, #-2568]	; 0xfffff5f8
    2604:	0d05a350 	stceq	3, cr10, [r5, #-320]	; 0xfffffec0
    2608:	4a0b05a4 	bmi	2c3ca0 <SYS_MODE+0x2c3c81>
    260c:	054b1605 	strbeq	r1, [fp, #-1541]	; 0xfffff9fb
    2610:	0b054a0d 	bleq	154e4c <SYS_MODE+0x154e2d>
    2614:	6705054b 	strvs	r0, [r5, -fp, asr #10]
    2618:	a4a3a4a3 	strtge	sl, [r3], #1187	; 0x4a3
    261c:	a3a16b9f 			; <UNDEFINED> instruction: 0xa3a16b9f
    2620:	05a10d05 	streq	r0, [r1, #3333]!	; 0xd05
    2624:	08054a0b 	stmdaeq	r5, {r0, r1, r3, r9, fp, lr}
    2628:	670f054b 	strvs	r0, [pc, -fp, asr #10]
    262c:	67050584 	strvs	r0, [r5, -r4, lsl #11]
    2630:	05a31305 	streq	r1, [r3, #773]!	; 0x305
    2634:	2e054a0b 	vmlacs.f32	s8, s10, s22
    2638:	4a08054b 	bmi	203b6c <SYS_MODE+0x203b4d>
    263c:	02002a05 	andeq	r2, r0, #20480	; 0x5000
    2640:	054b0104 	strbeq	r0, [fp, #-260]	; 0xfffffefc
    2644:	0402003a 	streq	r0, [r2], #-58	; 0xffffffc6
    2648:	0f054901 	svceq	0x00054901
    264c:	832f054c 			; <UNDEFINED> instruction: 0x832f054c
    2650:	054a0d05 	strbeq	r0, [sl, #-3333]	; 0xfffff2fb
    2654:	0402002a 	streq	r0, [r2], #-42	; 0xffffffd6
    2658:	3b054b01 	blcc	155264 <SYS_MODE+0x155245>
    265c:	01040200 	mrseq	r0, R12_usr
    2660:	4c0f0549 	cfstr32mi	mvfx0, [pc], {73}	; 0x49
    2664:	68210584 	stmdavs	r1!, {r2, r7, r8, sl}
    2668:	054a0805 	strbeq	r0, [sl, #-2053]	; 0xfffff7fb
    266c:	27054b0f 	strcs	r4, [r5, -pc, lsl #22]
    2670:	4a0d0583 	bmi	343c84 <SYS_MODE+0x343c65>
    2674:	674c0f05 	strbvs	r0, [ip, -r5, lsl #30]
    2678:	67678667 	strbvs	r8, [r7, -r7, ror #12]!
    267c:	67690b05 	strbvs	r0, [r9, -r5, lsl #22]!
    2680:	a3670505 	cmnge	r7, #20971520	; 0x1400000
    2684:	9c030905 			; <UNDEFINED> instruction: 0x9c030905
    2688:	0105ba7f 	tsteq	r5, pc, ror sl
    268c:	2e00e503 	cfsh32cs	mvfx14, mvfx0, #3
    2690:	01000402 	tsteq	r0, r2, lsl #8
    2694:	00010501 	andeq	r0, r1, r1, lsl #10
    2698:	41d40205 	bicsmi	r0, r4, r5, lsl #4
    269c:	8e03c200 	cdphi	2, 0, cr12, cr3, cr0, {0}
    26a0:	08050102 	stmdaeq	r5, {r1, r8}
    26a4:	6905059f 	stmdbvs	r5, {r0, r1, r2, r3, r4, r7, r8, sl}
    26a8:	0905674b 	stmdbeq	r5, {r0, r1, r3, r6, r8, r9, sl, sp, lr}
    26ac:	3301057e 	movwcc	r0, #5502	; 0x157e
    26b0:	01000402 	tsteq	r0, r2, lsl #8
    26b4:	00010501 	andeq	r0, r1, r1, lsl #10
    26b8:	42240205 	eormi	r0, r4, #1342177280	; 0x50000000
    26bc:	9803c200 	stmdals	r3, {r9, lr, pc}
    26c0:	0e050102 	adfeqs	f0, f5, f2
    26c4:	0011059f 	mulseq	r1, pc, r5	; <UNPREDICTABLE>
    26c8:	4d010402 	cfstrsmi	mvf0, [r1, #-8]
    26cc:	02000f05 	andeq	r0, r0, #5, 30
    26d0:	054a0104 	strbeq	r0, [sl, #-260]	; 0xfffffefc
    26d4:	04020018 	streq	r0, [r2], #-24	; 0xffffffe8
    26d8:	0f054b01 	svceq	0x00054b01
    26dc:	01040200 	mrseq	r0, R12_usr
    26e0:	0005054a 	andeq	r0, r5, sl, asr #10
    26e4:	4b010402 	blmi	436f4 <SYS_MODE+0x436d5>
    26e8:	67010568 	strvs	r0, [r1, -r8, ror #10]
    26ec:	01000802 	tsteq	r0, r2, lsl #16
    26f0:	00031e01 	andeq	r1, r3, r1, lsl #28
    26f4:	0e000300 	cdpeq	3, 0, cr0, cr0, cr0, {0}
    26f8:	02000001 	andeq	r0, r0, #1
    26fc:	0d0efb01 	vstreq	d15, [lr, #-4]
    2700:	01010100 	mrseq	r0, (UNDEF: 17)
    2704:	00000001 	andeq	r0, r0, r1
    2708:	01000001 	tsteq	r0, r1
    270c:	6d6f682f 	stclvs	8, cr6, [pc, #-188]!	; 2658 <SYS_MODE+0x2639>
    2710:	7a632f65 	bvc	18ce4ac <SYS_MODE+0x18ce48d>
    2714:	786d696c 	stmdavc	sp!, {r2, r3, r5, r6, r8, fp, sp, lr}^
    2718:	646f632f 	strbtvs	r6, [pc], #-815	; 2720 <SYS_MODE+0x2701>
    271c:	61707365 	cmnvs	r0, r5, ror #6
    2720:	742f6563 	strtvc	r6, [pc], #-1379	; 2728 <SYS_MODE+0x2709>
    2724:	2f706d65 	svccs	0x00706d65
    2728:	65726162 	ldrbvs	r6, [r2, #-354]!	; 0xfffffe9e
    272c:	6174656d 	cmnvs	r4, sp, ror #10
    2730:	6f665f6c 	svcvs	0x00665f6c
    2734:	2f635f72 	svccs	0x00635f72
    2738:	65646f63 	strbvs	r6, [r4, #-3939]!	; 0xfffff09d
    273c:	6372612f 	cmnvs	r2, #-1073741813	; 0xc000000b
    2740:	72612f68 	rsbvc	r2, r1, #104, 30	; 0x1a0
    2744:	2d37766d 	ldccs	6, cr7, [r7, #-436]!	; 0xfffffe4c
    2748:	6e692f61 	cdpvs	15, 6, cr2, cr9, cr1, {3}
    274c:	682f0063 	stmdavs	pc!, {r0, r1, r5, r6}	; <UNPREDICTABLE>
    2750:	2f656d6f 	svccs	0x00656d6f
    2754:	696c7a63 	stmdbvs	ip!, {r0, r1, r5, r6, r9, fp, ip, sp, lr}^
    2758:	632f786d 			; <UNDEFINED> instruction: 0x632f786d
    275c:	7365646f 	cmnvc	r5, #1862270976	; 0x6f000000
    2760:	65636170 	strbvs	r6, [r3, #-368]!	; 0xfffffe90
    2764:	6d65742f 	cfstrdvs	mvd7, [r5, #-188]!	; 0xffffff44
    2768:	61622f70 	smcvs	8944	; 0x22f0
    276c:	656d6572 	strbvs	r6, [sp, #-1394]!	; 0xfffffa8e
    2770:	5f6c6174 	svcpl	0x006c6174
    2774:	5f726f66 	svcpl	0x00726f66
    2778:	6f632f63 	svcvs	0x00632f63
    277c:	642f6564 	strtvs	r6, [pc], #-1380	; 2784 <SYS_MODE+0x2765>
    2780:	65766972 	ldrbvs	r6, [r6, #-2418]!	; 0xfffff68e
    2784:	6d612f72 	stclvs	15, cr2, [r1, #-456]!	; 0xfffffe38
    2788:	78353333 	ldmdavc	r5!, {r0, r1, r4, r5, r8, r9, ip, sp}
    278c:	6372732f 	cmnvs	r2, #-1140850688	; 0xbc000000
    2790:	6f682f00 	svcvs	0x00682f00
    2794:	632f656d 			; <UNDEFINED> instruction: 0x632f656d
    2798:	6d696c7a 	stclvs	12, cr6, [r9, #-488]!	; 0xfffffe18
    279c:	6f632f78 	svcvs	0x00632f78
    27a0:	70736564 	rsbsvc	r6, r3, r4, ror #10
    27a4:	2f656361 	svccs	0x00656361
    27a8:	706d6574 	rsbvc	r6, sp, r4, ror r5
    27ac:	7261622f 	rsbvc	r6, r1, #-268435454	; 0xf0000002
    27b0:	74656d65 	strbtvc	r6, [r5], #-3429	; 0xfffff29b
    27b4:	665f6c61 	ldrbvs	r6, [pc], -r1, ror #24
    27b8:	635f726f 	cmpvs	pc, #-268435450	; 0xf0000006
    27bc:	646f632f 	strbtvs	r6, [pc], #-815	; 27c4 <SYS_MODE+0x27a5>
    27c0:	72642f65 	rsbvc	r2, r4, #404	; 0x194
    27c4:	72657669 	rsbvc	r7, r5, #110100480	; 0x6900000
    27c8:	336d612f 	cmncc	sp, #-1073741813	; 0xc000000b
    27cc:	2f783533 	svccs	0x00783533
    27d0:	00636e69 	rsbeq	r6, r3, r9, ror #28
    27d4:	63726100 	cmnvs	r2, #0, 2
    27d8:	6f635f68 	svcvs	0x00635f68
    27dc:	6c69706d 	stclvs	0, cr7, [r9], #-436	; 0xfffffe4c
    27e0:	682e7265 	stmdavs	lr!, {r0, r2, r5, r6, r9, ip, sp, lr}
    27e4:	00000100 	andeq	r0, r0, r0, lsl #2
    27e8:	76726473 			; <UNDEFINED> instruction: 0x76726473
    27ec:	6d69745f 	cfstrdvs	mvd7, [r9, #-380]!	; 0xfffffe84
    27f0:	632e7265 			; <UNDEFINED> instruction: 0x632e7265
    27f4:	00000200 	andeq	r0, r0, r0, lsl #4
    27f8:	76726473 			; <UNDEFINED> instruction: 0x76726473
    27fc:	6d69745f 	cfstrdvs	mvd7, [r9, #-380]!	; 0xfffffe84
    2800:	682e7265 	stmdavs	lr!, {r0, r2, r5, r6, r9, ip, sp, lr}
    2804:	00000300 	andeq	r0, r0, r0, lsl #6
    2808:	00010500 	andeq	r0, r1, r0, lsl #10
    280c:	42880205 	addmi	r0, r8, #1342177280	; 0x50000000
    2810:	d203c200 	andle	ip, r3, #0, 4
    2814:	0e050100 	adfeqs	f0, f5, f0
    2818:	4c0d05d7 	cfstr32mi	mvfx0, [sp], {215}	; 0xd7
    281c:	052e0b05 	streq	r0, [lr, #-2821]!	; 0xfffff4fb
    2820:	22054b18 	andcs	r4, r5, #24, 22	; 0x6000
    2824:	2e280566 	cfsh64cs	mvdx0, mvdx8, #54
    2828:	054a0e05 	strbeq	r0, [sl, #-3589]	; 0xfffff1fb
    282c:	18052e0b 	stmdane	r5, {r0, r1, r3, r9, sl, fp, sp}
    2830:	66220567 	strtvs	r0, [r2], -r7, ror #10
    2834:	052e2805 	streq	r2, [lr, #-2053]!	; 0xfffff7fb
    2838:	0b054a2f 	bleq	1550fc <SYS_MODE+0x1550dd>
    283c:	6705054a 	strvs	r0, [r5, -sl, asr #10]
    2840:	02670105 	rsbeq	r0, r7, #1073741825	; 0x40000001
    2844:	01010008 	tsteq	r1, r8
    2848:	01050204 	tsteq	r5, r4, lsl #4
    284c:	28020500 	stmdacs	r2, {r8, sl}
    2850:	15c20043 	strbne	r0, [r2, #67]	; 0x43
    2854:	05bb0e05 	ldreq	r0, [fp, #3589]!	; 0xe05
    2858:	27054c0b 	strcs	r4, [r5, -fp, lsl #24]
    285c:	2e2d0566 	cfsh64cs	mvdx0, mvdx13, #54
    2860:	052e0805 	streq	r0, [lr, #-2053]!	; 0xfffff7fb
    2864:	12054d0b 	andne	r4, r5, #704	; 0x2c0
    2868:	662d052f 	strtvs	r0, [sp], -pc, lsr #10
    286c:	054a0f05 	strbeq	r0, [sl, #-3845]	; 0xfffff0fb
    2870:	0905490b 	stmdbeq	r5, {r0, r1, r3, r8, fp, lr}
    2874:	32010580 	andcc	r0, r1, #128, 10	; 0x20000000
    2878:	01000602 	tsteq	r0, r2, lsl #12
    287c:	05020401 	streq	r0, [r2, #-1025]	; 0xfffffbff
    2880:	02050001 	andeq	r0, r5, #1
    2884:	c20043a4 	andgt	r4, r0, #164, 6	; 0x90000002
    2888:	05010e03 	streq	r0, [r1, #-3587]	; 0xfffff1fd
    288c:	0505830e 	streq	r8, [r5, #-782]	; 0xfffffcf2
    2890:	bb0b054c 	bllt	2c3dc8 <SYS_MODE+0x2c3da9>
    2894:	052f1205 	streq	r1, [pc, #-517]!	; 2697 <SYS_MODE+0x2678>
    2898:	0f054a32 	svceq	0x00054a32
    289c:	490b052e 	stmdbmi	fp, {r1, r2, r3, r5, r8, sl}
    28a0:	02680105 	rsbeq	r0, r8, #1073741825	; 0x40000001
    28a4:	01010008 	tsteq	r1, r8
    28a8:	01050204 	tsteq	r5, r4, lsl #4
    28ac:	08020500 	stmdaeq	r2, {r8, sl}
    28b0:	03c20044 	biceq	r0, r2, #68	; 0x44
    28b4:	05050117 	streq	r0, [r5, #-279]	; 0xfffffee9
    28b8:	01056783 	smlabbeq	r5, r3, r7, r6
    28bc:	000602bb 			; <UNDEFINED> instruction: 0x000602bb
    28c0:	02040101 	andeq	r0, r4, #1073741824	; 0x40000000
    28c4:	05000105 	streq	r0, [r0, #-261]	; 0xfffffefb
    28c8:	00000002 	andeq	r0, r0, r2
    28cc:	011d0300 	tsteq	sp, r0, lsl #6
    28d0:	67830505 	strvs	r0, [r3, r5, lsl #10]
    28d4:	02bb0105 	adcseq	r0, fp, #1073741825	; 0x40000001
    28d8:	01010006 	tsteq	r1, r6
    28dc:	01050204 	tsteq	r5, r4, lsl #4
    28e0:	48020500 	stmdami	r2, {r8, sl}
    28e4:	03c20044 	biceq	r0, r2, #68	; 0x44
    28e8:	0e050123 	adfeqsp	f0, f5, f3
    28ec:	4d05059f 	cfstr32mi	mvfx0, [r5, #-636]	; 0xfffffd84
    28f0:	05690d05 	strbeq	r0, [r9, #-3333]!	; 0xfffff2fb
    28f4:	674b4a0b 	strbvs	r4, [fp, -fp, lsl #20]
    28f8:	a1670505 	cmnge	r7, r5, lsl #10
    28fc:	05690d05 	strbeq	r0, [r9, #-3333]!	; 0xfffff2fb
    2900:	08054a0b 	stmdaeq	r5, {r0, r1, r3, r9, fp, lr}
    2904:	670f054b 	strvs	r0, [pc, -fp, asr #10]
    2908:	05830d05 	streq	r0, [r3, #3333]	; 0xd05
    290c:	6785670f 	strvs	r6, [r5, pc, lsl #14]
    2910:	05680505 	strbeq	r0, [r8, #-1285]!	; 0xfffffafb
    2914:	06029f01 	streq	r9, [r2], -r1, lsl #30
    2918:	04010100 	streq	r0, [r1], #-256	; 0xffffff00
    291c:	00010502 	andeq	r0, r1, r2, lsl #10
    2920:	00000205 	andeq	r0, r0, r5, lsl #4
    2924:	c1030000 	mrsgt	r0, (UNDEF: 3)
    2928:	0e050100 	adfeqs	f0, f5, f0
    292c:	4d05059f 	cfstr32mi	mvfx0, [r5, #-636]	; 0xfffffd84
    2930:	05690d05 	strbeq	r0, [r9, #-3333]!	; 0xfffff2fb
    2934:	054b4a0b 	strbeq	r4, [fp, #-2571]	; 0xfffff5f5
    2938:	05a16705 	streq	r6, [r1, #1797]!	; 0x705
    293c:	0b05690d 	bleq	15cd78 <SYS_MODE+0x15cd59>
    2940:	4b1c054a 	blmi	703e70 <SYS_MODE+0x703e51>
    2944:	67660b05 	strbvs	r0, [r6, -r5, lsl #22]!
    2948:	05670505 	strbeq	r0, [r7, #-1285]!	; 0xfffffafb
    294c:	06029f01 	streq	r9, [r2], -r1, lsl #30
    2950:	04010100 	streq	r0, [r1], #-256	; 0xffffff00
    2954:	00010502 	andeq	r0, r1, r2, lsl #10
    2958:	00000205 	andeq	r0, r0, r5, lsl #4
    295c:	d7030000 	strle	r0, [r3, -r0]
    2960:	05050100 	streq	r0, [r5, #-256]	; 0xffffff00
    2964:	01056984 	smlabbeq	r5, r4, r9, r6
    2968:	000602bb 			; <UNDEFINED> instruction: 0x000602bb
    296c:	02040101 	andeq	r0, r4, #1073741824	; 0x40000000
    2970:	05000105 	streq	r0, [r0, #-261]	; 0xfffffefb
    2974:	00453802 	subeq	r3, r5, r2, lsl #16
    2978:	00e003c2 	rsceq	r0, r0, r2, asr #7
    297c:	a0050501 	andge	r0, r5, r1, lsl #10
    2980:	9f010569 	svcls	0x00010569
    2984:	01000602 	tsteq	r0, r2, lsl #12
    2988:	05020401 	streq	r0, [r2, #-1025]	; 0xfffffbff
    298c:	02050001 	andeq	r0, r5, #1
    2990:	c2004578 	andgt	r4, r0, #120, 10	; 0x1e000000
    2994:	0100e903 	tsteq	r0, r3, lsl #18
    2998:	69a00505 	stmibvs	r0!, {r0, r2, r8, sl}
    299c:	029f0105 	addseq	r0, pc, #1073741825	; 0x40000001
    29a0:	01010006 	tsteq	r1, r6
    29a4:	01050204 	tsteq	r5, r4, lsl #4
    29a8:	00020500 	andeq	r0, r2, r0, lsl #10
    29ac:	03000000 	movweq	r0, #0
    29b0:	050100f2 	streq	r0, [r1, #-242]	; 0xffffff0e
    29b4:	0569a005 	strbeq	sl, [r9, #-5]!
    29b8:	06029f01 	streq	r9, [r2], -r1, lsl #30
    29bc:	04010100 	streq	r0, [r1], #-256	; 0xffffff00
    29c0:	00010502 	andeq	r0, r1, r2, lsl #10
    29c4:	45b80205 	ldrmi	r0, [r8, #517]!	; 0x205
    29c8:	fb03c200 	blx	f31d2 <SYS_MODE+0xf31b3>
    29cc:	05050100 	streq	r0, [r5, #-256]	; 0xffffff00
    29d0:	bb0b05bc 	bllt	2c40c8 <SYS_MODE+0x2c40a9>
    29d4:	054a0505 	strbeq	r0, [sl, #-1285]	; 0xfffffafb
    29d8:	06022f01 	streq	r2, [r2], -r1, lsl #30
    29dc:	04010100 	streq	r0, [r1], #-256	; 0xffffff00
    29e0:	00010502 	andeq	r0, r1, r2, lsl #10
    29e4:	46000205 	strmi	r0, [r0], -r5, lsl #4
    29e8:	8203c200 	andhi	ip, r3, #0, 4
    29ec:	05050101 	streq	r0, [r5, #-257]	; 0xfffffeff
    29f0:	bb0105bc 	bllt	440e8 <SYS_MODE+0x440c9>
    29f4:	01000602 	tsteq	r0, r2, lsl #12
    29f8:	05020401 	streq	r0, [r2, #-1025]	; 0xfffffbff
    29fc:	02050001 	andeq	r0, r5, #1
    2a00:	00000000 	andeq	r0, r0, r0
    2a04:	01018803 	tsteq	r1, r3, lsl #16
    2a08:	05bc0505 	ldreq	r0, [ip, #1285]!	; 0x505
    2a0c:	0602bb01 	streq	fp, [r2], -r1, lsl #22
    2a10:	76010100 	strvc	r0, [r1], -r0, lsl #2
    2a14:	03000001 	movweq	r0, #1
    2a18:	00011400 	andeq	r1, r1, r0, lsl #8
    2a1c:	fb010200 	blx	43226 <SYS_MODE+0x43207>
    2a20:	01000d0e 	tsteq	r0, lr, lsl #26
    2a24:	00010101 	andeq	r0, r1, r1, lsl #2
    2a28:	00010000 	andeq	r0, r1, r0
    2a2c:	682f0100 	stmdavs	pc!, {r8}	; <UNPREDICTABLE>
    2a30:	2f656d6f 	svccs	0x00656d6f
    2a34:	696c7a63 	stmdbvs	ip!, {r0, r1, r5, r6, r9, fp, ip, sp, lr}^
    2a38:	632f786d 			; <UNDEFINED> instruction: 0x632f786d
    2a3c:	7365646f 	cmnvc	r5, #1862270976	; 0x6f000000
    2a40:	65636170 	strbvs	r6, [r3, #-368]!	; 0xfffffe90
    2a44:	6d65742f 	cfstrdvs	mvd7, [r5, #-188]!	; 0xffffff44
    2a48:	61622f70 	smcvs	8944	; 0x22f0
    2a4c:	656d6572 	strbvs	r6, [sp, #-1394]!	; 0xfffffa8e
    2a50:	5f6c6174 	svcpl	0x006c6174
    2a54:	5f726f66 	svcpl	0x00726f66
    2a58:	6f632f63 	svcvs	0x00632f63
    2a5c:	6b2f6564 	blvs	bdbff4 <SYS_MODE+0xbdbfd5>
    2a60:	656e7265 	strbvs	r7, [lr, #-613]!	; 0xfffffd9b
    2a64:	72742f6c 	rsbsvc	r2, r4, #108, 30	; 0x1b0
    2a68:	6f747279 	svcvs	0x00747279
    2a6c:	72732f73 	rsbsvc	r2, r3, #460	; 0x1cc
    2a70:	682f0063 	stmdavs	pc!, {r0, r1, r5, r6}	; <UNPREDICTABLE>
    2a74:	2f656d6f 	svccs	0x00656d6f
    2a78:	696c7a63 	stmdbvs	ip!, {r0, r1, r5, r6, r9, fp, ip, sp, lr}^
    2a7c:	632f786d 			; <UNDEFINED> instruction: 0x632f786d
    2a80:	7365646f 	cmnvc	r5, #1862270976	; 0x6f000000
    2a84:	65636170 	strbvs	r6, [r3, #-368]!	; 0xfffffe90
    2a88:	6d65742f 	cfstrdvs	mvd7, [r5, #-188]!	; 0xffffff44
    2a8c:	61622f70 	smcvs	8944	; 0x22f0
    2a90:	656d6572 	strbvs	r6, [sp, #-1394]!	; 0xfffffa8e
    2a94:	5f6c6174 	svcpl	0x006c6174
    2a98:	5f726f66 	svcpl	0x00726f66
    2a9c:	6f632f63 	svcvs	0x00632f63
    2aa0:	612f6564 			; <UNDEFINED> instruction: 0x612f6564
    2aa4:	2f686372 	svccs	0x00686372
    2aa8:	766d7261 	strbtvc	r7, [sp], -r1, ror #4
    2aac:	2f612d37 	svccs	0x00612d37
    2ab0:	00636e69 	rsbeq	r6, r3, r9, ror #28
    2ab4:	6d6f682f 	stclvs	8, cr6, [pc, #-188]!	; 2a00 <SYS_MODE+0x29e1>
    2ab8:	7a632f65 	bvc	18ce854 <SYS_MODE+0x18ce835>
    2abc:	786d696c 	stmdavc	sp!, {r2, r3, r5, r6, r8, fp, sp, lr}^
    2ac0:	646f632f 	strbtvs	r6, [pc], #-815	; 2ac8 <SYS_MODE+0x2aa9>
    2ac4:	61707365 	cmnvs	r0, r5, ror #6
    2ac8:	742f6563 	strtvc	r6, [pc], #-1379	; 2ad0 <SYS_MODE+0x2ab1>
    2acc:	2f706d65 	svccs	0x00706d65
    2ad0:	65726162 	ldrbvs	r6, [r2, #-354]!	; 0xfffffe9e
    2ad4:	6174656d 	cmnvs	r4, sp, ror #10
    2ad8:	6f665f6c 	svcvs	0x00665f6c
    2adc:	2f635f72 	svccs	0x00635f72
    2ae0:	65646f63 	strbvs	r6, [r4, #-3939]!	; 0xfffff09d
    2ae4:	72656b2f 	rsbvc	r6, r5, #48128	; 0xbc00
    2ae8:	2f6c656e 	svccs	0x006c656e
    2aec:	72797274 	rsbsvc	r7, r9, #116, 4	; 0x40000007
    2af0:	2f736f74 	svccs	0x00736f74
    2af4:	00636e69 	rsbeq	r6, r3, r9, ror #28
    2af8:	79727400 	ldmdbvc	r2!, {sl, ip, sp, lr}^
    2afc:	736f7472 	cmnvc	pc, #1912602624	; 0x72000000
    2b00:	6369745f 	cmnvs	r9, #1593835520	; 0x5f000000
    2b04:	00632e6b 	rsbeq	r2, r3, fp, ror #28
    2b08:	61000001 	tstvs	r0, r1
    2b0c:	5f686372 	svcpl	0x00686372
    2b10:	706d6f63 	rsbvc	r6, sp, r3, ror #30
    2b14:	72656c69 	rsbvc	r6, r5, #26880	; 0x6900
    2b18:	0200682e 	andeq	r6, r0, #3014656	; 0x2e0000
    2b1c:	72740000 	rsbsvc	r0, r4, #0
    2b20:	6f747279 	svcvs	0x00747279
    2b24:	69745f73 	ldmdbvs	r4!, {r0, r1, r4, r5, r6, r8, r9, sl, fp, ip, lr}^
    2b28:	682e6b63 	stmdavs	lr!, {r0, r1, r5, r6, r8, r9, fp, sp, lr}
    2b2c:	00000300 	andeq	r0, r0, r0, lsl #6
    2b30:	00010500 	andeq	r0, r1, r0, lsl #10
    2b34:	00000205 	andeq	r0, r0, r5, lsl #4
    2b38:	0d030000 	stceq	0, cr0, [r3, #-0]
    2b3c:	83190501 	tsthi	r9, #4194304	; 0x400000
    2b40:	02830105 	addeq	r0, r3, #1073741825	; 0x40000001
    2b44:	01010008 	tsteq	r1, r8
    2b48:	05000105 	streq	r0, [r0, #-261]	; 0xfffffefb
    2b4c:	00000002 	andeq	r0, r0, r2
    2b50:	01150300 	tsteq	r5, r0, lsl #6
    2b54:	054b1905 	strbeq	r1, [fp, #-2309]	; 0xfffff6fb
    2b58:	08029f01 	stmdaeq	r2, {r0, r8, r9, sl, fp, ip, pc}
    2b5c:	05010100 	streq	r0, [r1, #-256]	; 0xffffff00
    2b60:	02050001 	andeq	r0, r5, #1
    2b64:	c200463c 	andgt	r4, r0, #60, 12	; 0x3c00000
    2b68:	05011d03 	streq	r1, [r1, #-3331]	; 0xfffff2fd
    2b6c:	01054b18 	tsteq	r5, r8, lsl fp
    2b70:	000802f3 	strdeq	r0, [r8], -r3
    2b74:	01050101 	tsteq	r5, r1, lsl #2
    2b78:	00020500 	andeq	r0, r2, r0, lsl #10
    2b7c:	03000000 	movweq	r0, #0
    2b80:	18050125 	stmdane	r5, {r0, r2, r5, r8}
    2b84:	f301054b 	vrshl.u8	q0, <illegal reg q5.5>, <illegal reg q0.5>
    2b88:	01000802 	tsteq	r0, r2, lsl #16
    2b8c:	0003ae01 	andeq	sl, r3, r1, lsl #28
    2b90:	74000300 	strvc	r0, [r0], #-768	; 0xfffffd00
    2b94:	02000001 	andeq	r0, r0, #1
    2b98:	0d0efb01 	vstreq	d15, [lr, #-4]
    2b9c:	01010100 	mrseq	r0, (UNDEF: 17)
    2ba0:	00000001 	andeq	r0, r0, r1
    2ba4:	01000001 	tsteq	r0, r1
    2ba8:	6d6f682f 	stclvs	8, cr6, [pc, #-188]!	; 2af4 <SYS_MODE+0x2ad5>
    2bac:	7a632f65 	bvc	18ce948 <SYS_MODE+0x18ce929>
    2bb0:	786d696c 	stmdavc	sp!, {r2, r3, r5, r6, r8, fp, sp, lr}^
    2bb4:	646f632f 	strbtvs	r6, [pc], #-815	; 2bbc <SYS_MODE+0x2b9d>
    2bb8:	61707365 	cmnvs	r0, r5, ror #6
    2bbc:	742f6563 	strtvc	r6, [pc], #-1379	; 2bc4 <SYS_MODE+0x2ba5>
    2bc0:	2f706d65 	svccs	0x00706d65
    2bc4:	65726162 	ldrbvs	r6, [r2, #-354]!	; 0xfffffe9e
    2bc8:	6174656d 	cmnvs	r4, sp, ror #10
    2bcc:	6f665f6c 	svcvs	0x00665f6c
    2bd0:	2f635f72 	svccs	0x00635f72
    2bd4:	65646f63 	strbvs	r6, [r4, #-3939]!	; 0xfffff09d
    2bd8:	72656b2f 	rsbvc	r6, r5, #48128	; 0xbc00
    2bdc:	2f6c656e 	svccs	0x006c656e
    2be0:	72797274 	rsbsvc	r7, r9, #116, 4	; 0x40000007
    2be4:	2f736f74 	svccs	0x00736f74
    2be8:	00637273 	rsbeq	r7, r3, r3, ror r2
    2bec:	6d6f682f 	stclvs	8, cr6, [pc, #-188]!	; 2b38 <SYS_MODE+0x2b19>
    2bf0:	7a632f65 	bvc	18ce98c <SYS_MODE+0x18ce96d>
    2bf4:	786d696c 	stmdavc	sp!, {r2, r3, r5, r6, r8, fp, sp, lr}^
    2bf8:	646f632f 	strbtvs	r6, [pc], #-815	; 2c00 <SYS_MODE+0x2be1>
    2bfc:	61707365 	cmnvs	r0, r5, ror #6
    2c00:	742f6563 	strtvc	r6, [pc], #-1379	; 2c08 <SYS_MODE+0x2be9>
    2c04:	2f706d65 	svccs	0x00706d65
    2c08:	65726162 	ldrbvs	r6, [r2, #-354]!	; 0xfffffe9e
    2c0c:	6174656d 	cmnvs	r4, sp, ror #10
    2c10:	6f665f6c 	svcvs	0x00665f6c
    2c14:	2f635f72 	svccs	0x00635f72
    2c18:	65646f63 	strbvs	r6, [r4, #-3939]!	; 0xfffff09d
    2c1c:	6372612f 	cmnvs	r2, #-1073741813	; 0xc000000b
    2c20:	72612f68 	rsbvc	r2, r1, #104, 30	; 0x1a0
    2c24:	2d37766d 	ldccs	6, cr7, [r7, #-436]!	; 0xfffffe4c
    2c28:	6e692f61 	cdpvs	15, 6, cr2, cr9, cr1, {3}
    2c2c:	682f0063 	stmdavs	pc!, {r0, r1, r5, r6}	; <UNPREDICTABLE>
    2c30:	2f656d6f 	svccs	0x00656d6f
    2c34:	696c7a63 	stmdbvs	ip!, {r0, r1, r5, r6, r9, fp, ip, sp, lr}^
    2c38:	632f786d 			; <UNDEFINED> instruction: 0x632f786d
    2c3c:	7365646f 	cmnvc	r5, #1862270976	; 0x6f000000
    2c40:	65636170 	strbvs	r6, [r3, #-368]!	; 0xfffffe90
    2c44:	6d65742f 	cfstrdvs	mvd7, [r5, #-188]!	; 0xffffff44
    2c48:	61622f70 	smcvs	8944	; 0x22f0
    2c4c:	656d6572 	strbvs	r6, [sp, #-1394]!	; 0xfffffa8e
    2c50:	5f6c6174 	svcpl	0x006c6174
    2c54:	5f726f66 	svcpl	0x00726f66
    2c58:	6f632f63 	svcvs	0x00632f63
    2c5c:	6c2f6564 	cfstr32vs	mvfx6, [pc], #-400	; 2ad4 <SYS_MODE+0x2ab5>
    2c60:	2f636269 	svccs	0x00636269
    2c64:	00636e69 	rsbeq	r6, r3, r9, ror #28
    2c68:	6d6f682f 	stclvs	8, cr6, [pc, #-188]!	; 2bb4 <SYS_MODE+0x2b95>
    2c6c:	7a632f65 	bvc	18cea08 <SYS_MODE+0x18ce9e9>
    2c70:	786d696c 	stmdavc	sp!, {r2, r3, r5, r6, r8, fp, sp, lr}^
    2c74:	646f632f 	strbtvs	r6, [pc], #-815	; 2c7c <SYS_MODE+0x2c5d>
    2c78:	61707365 	cmnvs	r0, r5, ror #6
    2c7c:	742f6563 	strtvc	r6, [pc], #-1379	; 2c84 <SYS_MODE+0x2c65>
    2c80:	2f706d65 	svccs	0x00706d65
    2c84:	65726162 	ldrbvs	r6, [r2, #-354]!	; 0xfffffe9e
    2c88:	6174656d 	cmnvs	r4, sp, ror #10
    2c8c:	6f665f6c 	svcvs	0x00665f6c
    2c90:	2f635f72 	svccs	0x00635f72
    2c94:	65646f63 	strbvs	r6, [r4, #-3939]!	; 0xfffff09d
    2c98:	72656b2f 	rsbvc	r6, r5, #48128	; 0xbc00
    2c9c:	2f6c656e 	svccs	0x006c656e
    2ca0:	72797274 	rsbsvc	r7, r9, #116, 4	; 0x40000007
    2ca4:	2f736f74 	svccs	0x00736f74
    2ca8:	00636e69 	rsbeq	r6, r3, r9, ror #28
    2cac:	79727400 	ldmdbvc	r2!, {sl, ip, sp, lr}^
    2cb0:	736f7472 	cmnvc	pc, #1912602624	; 0x72000000
    2cb4:	7268745f 	rsbvc	r7, r8, #1593835520	; 0x5f000000
    2cb8:	2e646165 	powcssz	f6, f4, f5
    2cbc:	00010063 	andeq	r0, r1, r3, rrx
    2cc0:	63726100 	cmnvs	r2, #0, 2
    2cc4:	6f635f68 	svcvs	0x00635f68
    2cc8:	6c69706d 	stclvs	0, cr7, [r9], #-436	; 0xfffffe4c
    2ccc:	682e7265 	stmdavs	lr!, {r0, r2, r5, r6, r9, ip, sp, lr}
    2cd0:	00000200 	andeq	r0, r0, r0, lsl #4
    2cd4:	6362696c 	cmnvs	r2, #108, 18	; 0x1b0000
    2cd8:	73696c5f 	cmnvc	r9, #24320	; 0x5f00
    2cdc:	00682e74 	rsbeq	r2, r8, r4, ror lr
    2ce0:	74000003 	strvc	r0, [r0], #-3
    2ce4:	74727972 	ldrbtvc	r7, [r2], #-2418	; 0xfffff68e
    2ce8:	745f736f 	ldrbvc	r7, [pc], #-879	; 2cf0 <SYS_MODE+0x2cd1>
    2cec:	73657079 	cmnvc	r5, #121	; 0x79
    2cf0:	0400682e 	streq	r6, [r0], #-2094	; 0xfffff7d2
    2cf4:	72740000 	rsbsvc	r0, r4, #0
    2cf8:	6f747279 	svcvs	0x00747279
    2cfc:	68745f73 	ldmdavs	r4!, {r0, r1, r4, r5, r6, r8, r9, sl, fp, ip, lr}^
    2d00:	64616572 	strbtvs	r6, [r1], #-1394	; 0xfffffa8e
    2d04:	0400682e 	streq	r6, [r0], #-2094	; 0xfffff7d2
    2d08:	05000000 	streq	r0, [r0, #-0]
    2d0c:	02050001 	andeq	r0, r5, #1
    2d10:	c2004674 	andgt	r4, r0, #116, 12	; 0x7400000
    2d14:	05011e03 	streq	r1, [r1, #-3587]	; 0xfffff1fd
    2d18:	2d05bb08 	vstrcs	d11, [r5, #-32]	; 0xffffffe0
    2d1c:	2e05056a 	cfsh32cs	mvfx0, mvfx5, #58
    2d20:	05ef0905 	strbeq	r0, [pc, #2309]!	; 362d <SYS_MODE+0x360e>
    2d24:	04023201 	streq	r3, [r2], #-513	; 0xfffffdff
    2d28:	05010100 	streq	r0, [r1, #-256]	; 0xffffff00
    2d2c:	02050001 	andeq	r0, r5, #1
    2d30:	00000000 	andeq	r0, r0, r0
    2d34:	05012d03 	streq	r2, [r1, #-3331]	; 0xfffff2fd
    2d38:	0505bb08 	streq	fp, [r5, #-2824]	; 0xfffff4f8
    2d3c:	6309056a 	movwvs	r0, #38250	; 0x956a
    2d40:	02320105 	eorseq	r0, r2, #1073741825	; 0x40000001
    2d44:	01010004 	tsteq	r1, r4
    2d48:	05000105 	streq	r0, [r0, #-261]	; 0xfffffefb
    2d4c:	0046c802 	subeq	ip, r6, r2, lsl #16
    2d50:	00c903c2 	sbceq	r0, r9, r2, asr #7
    2d54:	f3080501 	vrshl.u8	d0, d1, d8
    2d58:	05696969 	strbeq	r6, [r9, #-2409]!	; 0xfffff697
    2d5c:	05056a12 	streq	r6, [r5, #-2578]	; 0xfffff5ee
    2d60:	d712054a 	ldrle	r0, [r2, -sl, asr #10]
    2d64:	05671605 	strbeq	r1, [r7, #-1541]!	; 0xfffff9fb
    2d68:	17056713 	smladne	r5, r3, r7, r6
    2d6c:	23056769 	movwcs	r6, #22377	; 0x5769
    2d70:	82170567 	andshi	r0, r7, #432013312	; 0x19c00000
    2d74:	054d2005 	strbeq	r2, [sp, #-5]
    2d78:	18056705 	stmdane	r5, {r0, r2, r8, r9, sl, sp, lr}
    2d7c:	bb1a05d9 	bllt	6844e8 <SYS_MODE+0x6844c9>
    2d80:	05bd1905 	ldreq	r1, [sp, #2309]!	; 0x905
    2d84:	05200817 	streq	r0, [r0, #-2071]!	; 0xfffff7e9
    2d88:	09054f13 	stmdbeq	r5, {r0, r1, r4, r8, r9, sl, fp, lr}
    2d8c:	4d825c03 	stcmi	12, cr5, [r2, #12]
    2d90:	01054d4d 	tsteq	r5, sp, asr #26
    2d94:	022e1c03 	eoreq	r1, lr, #768	; 0x300
    2d98:	01010004 	tsteq	r1, r4
    2d9c:	05000105 	streq	r0, [r0, #-261]	; 0xfffffefb
    2da0:	00000002 	andeq	r0, r0, r2
    2da4:	00f70300 	rscseq	r0, r7, r0, lsl #6
    2da8:	83080501 	movwhi	r0, #34049	; 0x8501
    2dac:	056a1305 	strbeq	r1, [sl, #-773]!	; 0xfffffcfb
    2db0:	09056905 	stmdbeq	r5, {r0, r2, r8, fp, sp, lr}
    2db4:	05f27a03 	ldrbeq	r7, [r2, #2563]!	; 0xa03
    2db8:	04023501 	streq	r3, [r2], #-1281	; 0xfffffaff
    2dbc:	05010100 	streq	r0, [r1, #-256]	; 0xffffff00
    2dc0:	02050001 	andeq	r0, r5, #1
    2dc4:	c2004848 	andgt	r4, r0, #72, 16	; 0x480000
    2dc8:	01018603 	tsteq	r1, r3, lsl #12
    2dcc:	05681305 	strbeq	r1, [r8, #-773]!	; 0xfffffcfb
    2dd0:	09054a05 	stmdbeq	r5, {r0, r2, r9, fp, lr}
    2dd4:	03040200 	movweq	r0, #16896	; 0x4200
    2dd8:	003f052f 	eorseq	r0, pc, pc, lsr #10
    2ddc:	d5030402 	strle	r0, [r3, #-1026]	; 0xfffffbfe
    2de0:	02000505 	andeq	r0, r0, #20971520	; 0x1400000
    2de4:	6a660104 	bvs	19831fc <SYS_MODE+0x19831dd>
    2de8:	05691d05 	strbeq	r1, [r9, #-3333]!	; 0xfffff2fb
    2dec:	06028301 	streq	r8, [r2], -r1, lsl #6
    2df0:	05010100 	streq	r0, [r1, #-256]	; 0xffffff00
    2df4:	02050001 	andeq	r0, r5, #1
    2df8:	00000000 	andeq	r0, r0, r0
    2dfc:	01019803 	tsteq	r1, r3, lsl #16
    2e00:	699f0805 	ldmibvs	pc, {r0, r2, fp}	; <UNPREDICTABLE>
    2e04:	056a1805 	strbeq	r1, [sl, #-2053]!	; 0xfffff7fb
    2e08:	0505d913 	streq	sp, [r5, #-2323]	; 0xfffff6ed
    2e0c:	03090569 	movweq	r0, #38249	; 0x9569
    2e10:	054dd674 	strbeq	sp, [sp, #-1652]	; 0xfffff98c
    2e14:	2e0a0301 	cdpcs	3, 0, cr0, cr10, cr1, {0}
    2e18:	01000402 	tsteq	r0, r2, lsl #8
    2e1c:	00010501 	andeq	r0, r1, r1, lsl #10
    2e20:	00000205 	andeq	r0, r0, r5, lsl #4
    2e24:	ae030000 	cdpge	0, 0, cr0, cr3, cr0, {0}
    2e28:	02840101 	addeq	r0, r4, #1073741824	; 0x40000000
    2e2c:	01010008 	tsteq	r1, r8
    2e30:	05000105 	streq	r0, [r0, #-261]	; 0xfffffefb
    2e34:	00000002 	andeq	r0, r0, r2
    2e38:	01b70300 			; <UNDEFINED> instruction: 0x01b70300
    2e3c:	08028401 	stmdaeq	r2, {r0, sl, pc}
    2e40:	05010100 	streq	r0, [r1, #-256]	; 0xffffff00
    2e44:	02050001 	andeq	r0, r5, #1
    2e48:	c20048bc 	andgt	r4, r0, #188, 16	; 0xbc0000
    2e4c:	0101c003 	tsteq	r1, r3
    2e50:	05832105 	streq	r2, [r3, #261]	; 0x105
    2e54:	18054c08 	stmdane	r5, {r3, sl, fp, lr}
    2e58:	bd1d056a 	cfldr32lt	mvfx0, [sp, #-424]	; 0xfffffe58
    2e5c:	05841005 	streq	r1, [r4, #5]
    2e60:	28056608 	stmdacs	r5, {r3, r9, sl, sp, lr}
    2e64:	4a080569 	bmi	204410 <SYS_MODE+0x2043f1>
    2e68:	02002a05 	andeq	r2, r0, #20480	; 0x5000
    2e6c:	054b0104 	strbeq	r0, [fp, #-260]	; 0xfffffefc
    2e70:	04020031 	streq	r0, [r2], #-49	; 0xffffffcf
    2e74:	1d054901 	vstrne.16	s8, [r5, #-2]	; <UNPREDICTABLE>
    2e78:	6608054e 	strvs	r0, [r8], -lr, asr #10
    2e7c:	054b1c05 	strbeq	r1, [fp, #-3077]	; 0xfffff3fb
    2e80:	27056624 	strcs	r6, [r5, -r4, lsr #12]
    2e84:	4a08054d 	bmi	2043c0 <SYS_MODE+0x2043a1>
    2e88:	054d1d05 	strbeq	r1, [sp, #-3333]	; 0xfffff2fb
    2e8c:	09058317 	stmdbeq	r5, {r0, r1, r2, r4, r8, r9, pc}
    2e90:	a3160567 	tstge	r6, #432013312	; 0x19c00000
    2e94:	05831d05 	streq	r1, [r3, #3333]	; 0xd05
    2e98:	09058317 	stmdbeq	r5, {r0, r1, r2, r4, r8, r9, pc}
    2e9c:	f2600367 	vcgt.s32	q8, q0, <illegal reg q11.5>
    2ea0:	4e4a0903 	vmlami.f16	s1, s20, s6	; <UNPREDICTABLE>
    2ea4:	15030105 	strne	r0, [r3, #-261]	; 0xfffffefb
    2ea8:	0004022e 	andeq	r0, r4, lr, lsr #4
    2eac:	01050101 	tsteq	r5, r1, lsl #2
    2eb0:	00020500 	andeq	r0, r2, r0, lsl #10
    2eb4:	03000000 	movweq	r0, #0
    2eb8:	050101ec 	streq	r0, [r1, #-492]	; 0xfffffe14
    2ebc:	08054b21 	stmdaeq	r5, {r0, r5, r8, r9, fp, lr}
    2ec0:	320105ba 	andcc	r0, r1, #780140544	; 0x2e800000
    2ec4:	01000602 	tsteq	r0, r2, lsl #12
    2ec8:	00010501 	andeq	r0, r1, r1, lsl #10
    2ecc:	4a100205 	bmi	4036e8 <SYS_MODE+0x4036c9>
    2ed0:	f703c200 			; <UNDEFINED> instruction: 0xf703c200
    2ed4:	1c050101 	stfnes	f0, [r5], {1}
    2ed8:	83210567 			; <UNDEFINED> instruction: 0x83210567
    2edc:	054d0505 	strbeq	r0, [sp, #-1285]	; 0xfffffafb
    2ee0:	26053118 			; <UNDEFINED> instruction: 0x26053118
    2ee4:	851c059e 	ldrhi	r0, [ip, #-1438]	; 0xfffffa62
    2ee8:	059e0805 	ldreq	r0, [lr, #2053]	; 0x805
    2eec:	28054b1c 	stmdacs	r5, {r2, r3, r4, r8, r9, fp, lr}
    2ef0:	831c059e 	tsthi	ip, #662700032	; 0x27800000
    2ef4:	059e0805 	ldreq	r0, [lr, #2053]	; 0x805
    2ef8:	11054b21 	tstne	r5, r1, lsr #22
    2efc:	82080585 	andhi	r0, r8, #557842432	; 0x21400000
    2f00:	05501205 	ldrbeq	r1, [r0, #-517]	; 0xfffffdfb
    2f04:	13058210 	movwne	r8, #21008	; 0x5210
    2f08:	660c0531 			; <UNDEFINED> instruction: 0x660c0531
    2f0c:	054b1305 	strbeq	r1, [fp, #-773]	; 0xfffffcfb
    2f10:	1305661f 	movwne	r6, #22047	; 0x561f
    2f14:	660c05a0 	strvs	r0, [ip], -r0, lsr #11
    2f18:	054d1b05 	strbeq	r1, [sp, #-2821]	; 0xfffff4fb
    2f1c:	4605690d 	strmi	r6, [r5], -sp, lsl #18
    2f20:	4a0d054a 	bmi	344450 <SYS_MODE+0x344431>
    2f24:	05bd0e05 	ldreq	r0, [sp, #3589]!	; 0xe05
    2f28:	14056817 	strne	r6, [r5], #-2071	; 0xfffff7e9
    2f2c:	4a05059e 	bmi	1445ac <SYS_MODE+0x14458d>
    2f30:	6a030905 	bvs	c534c <SYS_MODE+0xc532d>
    2f34:	03010566 	movweq	r0, #5478	; 0x1566
    2f38:	04022e17 	streq	r2, [r2], #-3607	; 0xfffff1e9
    2f3c:	ef010100 	svc	0x00010100
    2f40:	03000001 	movweq	r0, #1
    2f44:	00017200 	andeq	r7, r1, r0, lsl #4
    2f48:	fb010200 	blx	43752 <SYS_MODE+0x43733>
    2f4c:	01000d0e 	tsteq	r0, lr, lsl #26
    2f50:	00010101 	andeq	r0, r1, r1, lsl #2
    2f54:	00010000 	andeq	r0, r1, r0
    2f58:	682f0100 	stmdavs	pc!, {r8}	; <UNPREDICTABLE>
    2f5c:	2f656d6f 	svccs	0x00656d6f
    2f60:	696c7a63 	stmdbvs	ip!, {r0, r1, r5, r6, r9, fp, ip, sp, lr}^
    2f64:	632f786d 			; <UNDEFINED> instruction: 0x632f786d
    2f68:	7365646f 	cmnvc	r5, #1862270976	; 0x6f000000
    2f6c:	65636170 	strbvs	r6, [r3, #-368]!	; 0xfffffe90
    2f70:	6d65742f 	cfstrdvs	mvd7, [r5, #-188]!	; 0xffffff44
    2f74:	61622f70 	smcvs	8944	; 0x22f0
    2f78:	656d6572 	strbvs	r6, [sp, #-1394]!	; 0xfffffa8e
    2f7c:	5f6c6174 	svcpl	0x006c6174
    2f80:	5f726f66 	svcpl	0x00726f66
    2f84:	6f632f63 	svcvs	0x00632f63
    2f88:	6b2f6564 	blvs	bdc520 <SYS_MODE+0xbdc501>
    2f8c:	656e7265 	strbvs	r7, [lr, #-613]!	; 0xfffffd9b
    2f90:	72742f6c 	rsbsvc	r2, r4, #108, 30	; 0x1b0
    2f94:	6f747279 	svcvs	0x00747279
    2f98:	72732f73 	rsbsvc	r2, r3, #460	; 0x1cc
    2f9c:	682f0063 	stmdavs	pc!, {r0, r1, r5, r6}	; <UNPREDICTABLE>
    2fa0:	2f656d6f 	svccs	0x00656d6f
    2fa4:	696c7a63 	stmdbvs	ip!, {r0, r1, r5, r6, r9, fp, ip, sp, lr}^
    2fa8:	632f786d 			; <UNDEFINED> instruction: 0x632f786d
    2fac:	7365646f 	cmnvc	r5, #1862270976	; 0x6f000000
    2fb0:	65636170 	strbvs	r6, [r3, #-368]!	; 0xfffffe90
    2fb4:	6d65742f 	cfstrdvs	mvd7, [r5, #-188]!	; 0xffffff44
    2fb8:	61622f70 	smcvs	8944	; 0x22f0
    2fbc:	656d6572 	strbvs	r6, [sp, #-1394]!	; 0xfffffa8e
    2fc0:	5f6c6174 	svcpl	0x006c6174
    2fc4:	5f726f66 	svcpl	0x00726f66
    2fc8:	6f632f63 	svcvs	0x00632f63
    2fcc:	612f6564 			; <UNDEFINED> instruction: 0x612f6564
    2fd0:	2f686372 	svccs	0x00686372
    2fd4:	766d7261 	strbtvc	r7, [sp], -r1, ror #4
    2fd8:	2f612d37 	svccs	0x00612d37
    2fdc:	00636e69 	rsbeq	r6, r3, r9, ror #28
    2fe0:	6d6f682f 	stclvs	8, cr6, [pc, #-188]!	; 2f2c <SYS_MODE+0x2f0d>
    2fe4:	7a632f65 	bvc	18ced80 <SYS_MODE+0x18ced61>
    2fe8:	786d696c 	stmdavc	sp!, {r2, r3, r5, r6, r8, fp, sp, lr}^
    2fec:	646f632f 	strbtvs	r6, [pc], #-815	; 2ff4 <SYS_MODE+0x2fd5>
    2ff0:	61707365 	cmnvs	r0, r5, ror #6
    2ff4:	742f6563 	strtvc	r6, [pc], #-1379	; 2ffc <SYS_MODE+0x2fdd>
    2ff8:	2f706d65 	svccs	0x00706d65
    2ffc:	65726162 	ldrbvs	r6, [r2, #-354]!	; 0xfffffe9e
    3000:	6174656d 	cmnvs	r4, sp, ror #10
    3004:	6f665f6c 	svcvs	0x00665f6c
    3008:	2f635f72 	svccs	0x00635f72
    300c:	65646f63 	strbvs	r6, [r4, #-3939]!	; 0xfffff09d
    3010:	62696c2f 	rsbvs	r6, r9, #12032	; 0x2f00
    3014:	6e692f63 	cdpvs	15, 6, cr2, cr9, cr3, {3}
    3018:	682f0063 	stmdavs	pc!, {r0, r1, r5, r6}	; <UNPREDICTABLE>
    301c:	2f656d6f 	svccs	0x00656d6f
    3020:	696c7a63 	stmdbvs	ip!, {r0, r1, r5, r6, r9, fp, ip, sp, lr}^
    3024:	632f786d 			; <UNDEFINED> instruction: 0x632f786d
    3028:	7365646f 	cmnvc	r5, #1862270976	; 0x6f000000
    302c:	65636170 	strbvs	r6, [r3, #-368]!	; 0xfffffe90
    3030:	6d65742f 	cfstrdvs	mvd7, [r5, #-188]!	; 0xffffff44
    3034:	61622f70 	smcvs	8944	; 0x22f0
    3038:	656d6572 	strbvs	r6, [sp, #-1394]!	; 0xfffffa8e
    303c:	5f6c6174 	svcpl	0x006c6174
    3040:	5f726f66 	svcpl	0x00726f66
    3044:	6f632f63 	svcvs	0x00632f63
    3048:	6b2f6564 	blvs	bdc5e0 <SYS_MODE+0xbdc5c1>
    304c:	656e7265 	strbvs	r7, [lr, #-613]!	; 0xfffffd9b
    3050:	72742f6c 	rsbsvc	r2, r4, #108, 30	; 0x1b0
    3054:	6f747279 	svcvs	0x00747279
    3058:	6e692f73 	mcrvs	15, 3, r2, cr9, cr3, {3}
    305c:	74000063 	strvc	r0, [r0], #-99	; 0xffffff9d
    3060:	74727972 	ldrbtvc	r7, [r2], #-2418	; 0xfffff68e
    3064:	6b5f736f 	blvs	17dfe28 <SYS_MODE+0x17dfe09>
    3068:	656e7265 	strbvs	r7, [lr, #-613]!	; 0xfffffd9b
    306c:	00632e6c 	rsbeq	r2, r3, ip, ror #28
    3070:	61000001 	tstvs	r0, r1
    3074:	5f686372 	svcpl	0x00686372
    3078:	706d6f63 	rsbvc	r6, sp, r3, ror #30
    307c:	72656c69 	rsbvc	r6, r5, #26880	; 0x6900
    3080:	0200682e 	andeq	r6, r0, #3014656	; 0x2e0000
    3084:	696c0000 	stmdbvs	ip!, {}^	; <UNPREDICTABLE>
    3088:	6c5f6362 	mrrcvs	3, 6, r6, pc, cr2	; <UNPREDICTABLE>
    308c:	2e747369 	cdpcs	3, 7, cr7, cr4, cr9, {3}
    3090:	00030068 	andeq	r0, r3, r8, rrx
    3094:	79727400 	ldmdbvc	r2!, {sl, ip, sp, lr}^
    3098:	736f7472 	cmnvc	pc, #1912602624	; 0x72000000
    309c:	7079745f 	rsbsvc	r7, r9, pc, asr r4
    30a0:	682e7365 	stmdavs	lr!, {r0, r2, r5, r6, r8, r9, ip, sp, lr}
    30a4:	00000400 	andeq	r0, r0, r0, lsl #8
    30a8:	72797274 	rsbsvc	r7, r9, #116, 4	; 0x40000007
    30ac:	5f736f74 	svcpl	0x00736f74
    30b0:	6b636974 	blvs	18dd688 <SYS_MODE+0x18dd669>
    30b4:	0400682e 	streq	r6, [r0], #-2094	; 0xfffff7d2
    30b8:	05000000 	streq	r0, [r0, #-0]
    30bc:	02050001 	andeq	r0, r5, #1
    30c0:	c2004bb0 	andgt	r4, r0, #176, 22	; 0x2c000
    30c4:	05011303 	streq	r1, [r1, #-771]	; 0xfffffcfd
    30c8:	32058405 	andcc	r8, r5, #83886080	; 0x5000000
    30cc:	01040200 	mrseq	r0, R12_usr
    30d0:	00480551 	subeq	r0, r8, r1, asr r5
    30d4:	66010402 	strvs	r0, [r1], -r2, lsl #8
    30d8:	02001205 	andeq	r1, r0, #1342177280	; 0x50000000
    30dc:	05820104 	streq	r0, [r2, #260]	; 0x104
    30e0:	04020028 	streq	r0, [r2], #-40	; 0xffffffd8
    30e4:	12056701 	andne	r6, r5, #262144	; 0x40000
    30e8:	01040200 	mrseq	r0, R12_usr
    30ec:	000905d6 	ldrdeq	r0, [r9], -r6
    30f0:	4b010402 	blmi	44100 <SYS_MODE+0x440e1>
    30f4:	02000505 	andeq	r0, r0, #20971520	; 0x1400000
    30f8:	7a030104 	bvc	c3510 <SYS_MODE+0xc34f1>
    30fc:	00020282 	andeq	r0, r2, r2, lsl #5
    3100:	01050101 	tsteq	r5, r1, lsl #2
    3104:	28020500 	stmdacs	r2, {r8, sl}
    3108:	03c2004c 	biceq	r0, r2, #76	; 0x4c
    310c:	05050127 	streq	r0, [r5, #-295]	; 0xfffffed9
    3110:	2f01054b 	svccs	0x0001054b
    3114:	01000402 	tsteq	r0, r2, lsl #8
    3118:	00010501 	andeq	r0, r1, r1, lsl #10
    311c:	4c3c0205 	lfmmi	f0, 4, [ip], #-20	; 0xffffffec
    3120:	2f03c200 	svccs	0x0003c200
    3124:	67050501 	strvs	r0, [r5, -r1, lsl #10]
    3128:	0105cf08 	tsteq	r5, r8, lsl #30
    312c:	00060267 	andeq	r0, r6, r7, ror #4
    3130:	Address 0x0000000000003130 is out of bounds.


Disassembly of section .debug_str:

00000000 <.debug_str>:
       0:	7478656e 	ldrbtvc	r6, [r8], #-1390	; 0xfffffa92
       4:	62696c00 	rsbvs	r6, r9, #0, 24
       8:	696c5f63 	stmdbvs	ip!, {r0, r1, r5, r6, r8, r9, sl, fp, ip, lr}^
       c:	615f7473 	cmpvs	pc, r3, ror r4	; <UNPREDICTABLE>
      10:	745f6464 	ldrbvc	r6, [pc], #-1124	; 18 <ABT_MODE+0x1>
      14:	006c6961 	rsbeq	r6, ip, r1, ror #18
      18:	20554e47 	subscs	r4, r5, r7, asr #28
      1c:	20373143 	eorscs	r3, r7, r3, asr #2
      20:	332e3031 			; <UNDEFINED> instruction: 0x332e3031
      24:	3220312e 	eorcc	r3, r0, #-2147483637	; 0x8000000b
      28:	30313230 	eorscc	r3, r1, r0, lsr r2
      2c:	20313236 	eorscs	r3, r1, r6, lsr r2
      30:	6c657228 	sfmvs	f7, 2, [r5], #-160	; 0xffffff60
      34:	65736165 	ldrbvs	r6, [r3, #-357]!	; 0xfffffe9b
      38:	6d2d2029 	stcvs	0, cr2, [sp, #-164]!	; 0xffffff5c
      3c:	206d7261 	rsbcs	r7, sp, r1, ror #4
      40:	75746d2d 	ldrbvc	r6, [r4, #-3373]!	; 0xfffff2d3
      44:	633d656e 	teqvs	sp, #461373440	; 0x1b800000
      48:	6574726f 	ldrbvs	r7, [r4, #-623]!	; 0xfffffd91
      4c:	38612d78 	stmdacc	r1!, {r3, r4, r5, r6, r8, sl, fp, sp}^
      50:	666d2d20 	strbtvs	r2, [sp], -r0, lsr #26
      54:	763d7570 			; <UNDEFINED> instruction: 0x763d7570
      58:	33767066 	cmncc	r6, #102	; 0x66
      5c:	3631642d 	ldrtcc	r6, [r1], -sp, lsr #8
      60:	666d2d20 	strbtvs	r2, [sp], -r0, lsr #26
      64:	74616f6c 	strbtvc	r6, [r1], #-3948	; 0xfffff094
      68:	6962612d 	stmdbvs	r2!, {r0, r2, r3, r5, r8, sp, lr}^
      6c:	7261683d 	rsbvc	r6, r1, #3997696	; 0x3d0000
      70:	6d2d2064 	stcvs	0, cr2, [sp, #-400]!	; 0xfffffe70
      74:	752d6f6e 	strvc	r6, [sp, #-3950]!	; 0xfffff092
      78:	696c616e 	stmdbvs	ip!, {r1, r2, r3, r5, r6, r8, sp, lr}^
      7c:	64656e67 	strbtvs	r6, [r5], #-3687	; 0xfffff199
      80:	6363612d 	cmnvs	r3, #1073741835	; 0x4000000b
      84:	20737365 	rsbscs	r7, r3, r5, ror #6
      88:	72616d2d 	rsbvc	r6, r1, #2880	; 0xb40
      8c:	613d6863 	teqvs	sp, r3, ror #16
      90:	37766d72 			; <UNDEFINED> instruction: 0x37766d72
      94:	662b612d 	strtvs	r6, [fp], -sp, lsr #2
      98:	672d2070 			; <UNDEFINED> instruction: 0x672d2070
      9c:	64672d20 	strbtvs	r2, [r7], #-3360	; 0xfffff2e0
      a0:	66726177 			; <UNDEFINED> instruction: 0x66726177
      a4:	2d20322d 	sfmcs	f3, 4, [r0, #-180]!	; 0xffffff4c
      a8:	2d20304f 	stccs	0, cr3, [r0, #-316]!	; 0xfffffec4
      ac:	2d6f6e66 	stclcs	14, cr6, [pc, #-408]!	; ffffff1c <_stack_end+0x3dfd9d1c>
      b0:	6c697562 	cfstr64vs	mvdx7, [r9], #-392	; 0xfffffe78
      b4:	206e6974 	rsbcs	r6, lr, r4, ror r9
      b8:	6164662d 	cmnvs	r4, sp, lsr #12
      bc:	732d6174 			; <UNDEFINED> instruction: 0x732d6174
      c0:	69746365 	ldmdbvs	r4!, {r0, r2, r5, r6, r8, r9, sp, lr}^
      c4:	20736e6f 	rsbscs	r6, r3, pc, ror #28
      c8:	7566662d 	strbvc	r6, [r6, #-1581]!	; 0xfffff9d3
      cc:	6974636e 	ldmdbvs	r4!, {r1, r2, r3, r5, r6, r8, r9, sp, lr}^
      d0:	732d6e6f 			; <UNDEFINED> instruction: 0x732d6e6f
      d4:	69746365 	ldmdbvs	r4!, {r0, r2, r5, r6, r8, r9, sp, lr}^
      d8:	20736e6f 	rsbscs	r6, r3, pc, ror #28
      dc:	6f6e662d 	svcvs	0x006e662d
      e0:	6378652d 	cmnvs	r8, #188743680	; 0xb400000
      e4:	69747065 	ldmdbvs	r4!, {r0, r2, r5, r6, ip, sp, lr}^
      e8:	00736e6f 	rsbseq	r6, r3, pc, ror #28
      ec:	72746e65 	rsbsvc	r6, r4, #1616	; 0x650
      f0:	65003179 	strvs	r3, [r0, #-377]	; 0xfffffe87
      f4:	7972746e 	ldmdbvc	r2!, {r1, r2, r3, r5, r6, sl, ip, sp, lr}^
      f8:	682f0032 	stmdavs	pc!, {r1, r4, r5}	; <UNPREDICTABLE>
      fc:	2f656d6f 	svccs	0x00656d6f
     100:	696c7a63 	stmdbvs	ip!, {r0, r1, r5, r6, r9, fp, ip, sp, lr}^
     104:	632f786d 			; <UNDEFINED> instruction: 0x632f786d
     108:	7365646f 	cmnvc	r5, #1862270976	; 0x6f000000
     10c:	65636170 	strbvs	r6, [r3, #-368]!	; 0xfffffe90
     110:	6d65742f 	cfstrdvs	mvd7, [r5, #-188]!	; 0xffffff44
     114:	61622f70 	smcvs	8944	; 0x22f0
     118:	656d6572 	strbvs	r6, [sp, #-1394]!	; 0xfffffa8e
     11c:	5f6c6174 	svcpl	0x006c6174
     120:	5f726f66 	svcpl	0x00726f66
     124:	6f632f63 	svcvs	0x00632f63
     128:	6c2f6564 	cfstr32vs	mvfx6, [pc], #-400	; ffffffa0 <_stack_end+0x3dfd9da0>
     12c:	2f636269 	svccs	0x00636269
     130:	2f637273 	svccs	0x00637273
     134:	6362696c 	cmnvs	r2, #108, 18	; 0x1b0000
     138:	73696c5f 	cmnvc	r9, #24320	; 0x5f00
     13c:	00632e74 	rsbeq	r2, r3, r4, ror lr
     140:	6362696c 	cmnvs	r2, #108, 18	; 0x1b0000
     144:	73696c5f 	cmnvc	r9, #24320	; 0x5f00
     148:	73695f74 	cmnvc	r9, #116, 30	; 0x1d0
     14c:	706d655f 	rsbvc	r6, sp, pc, asr r5
     150:	5f007974 	svcpl	0x00007974
     154:	6362696c 	cmnvs	r2, #108, 18	; 0x1b0000
     158:	73696c5f 	cmnvc	r9, #24320	; 0x5f00
     15c:	64615f74 	strbtvs	r5, [r1], #-3956	; 0xfffff08c
     160:	68730064 	ldmdavs	r3!, {r2, r5, r6}^
     164:	2074726f 	rsbscs	r7, r4, pc, ror #4
     168:	69736e75 	ldmdbvs	r3!, {r0, r2, r4, r5, r6, r9, sl, fp, sp, lr}^
     16c:	64656e67 	strbtvs	r6, [r5], #-3687	; 0xfffff199
     170:	746e6920 	strbtvc	r6, [lr], #-2336	; 0xfffff6e0
     174:	62696c00 	rsbvs	r6, r9, #0, 24
     178:	696c5f63 	stmdbvs	ip!, {r0, r1, r5, r6, r8, r9, sl, fp, ip, lr}^
     17c:	6d5f7473 	cfldrdvs	mvd7, [pc, #-460]	; ffffffb8 <_stack_end+0x3dfd9db8>
     180:	0065766f 	rsbeq	r7, r5, pc, ror #12
     184:	69736e75 	ldmdbvs	r3!, {r0, r2, r4, r5, r6, r9, sl, fp, sp, lr}^
     188:	64656e67 	strbtvs	r6, [r5], #-3687	; 0xfffff199
     18c:	61686320 	cmnvs	r8, r0, lsr #6
     190:	696c0072 	stmdbvs	ip!, {r1, r4, r5, r6}^
     194:	6c5f6362 	mrrcvs	3, 6, r6, pc, cr2	; <UNPREDICTABLE>
     198:	5f747369 	svcpl	0x00747369
     19c:	70617773 	rsbvc	r7, r1, r3, ror r7
     1a0:	62696c00 	rsbvs	r6, r9, #0, 24
     1a4:	696c5f63 	stmdbvs	ip!, {r0, r1, r5, r6, r8, r9, sl, fp, ip, lr}^
     1a8:	695f7473 	ldmdbvs	pc, {r0, r1, r4, r5, r6, sl, ip, sp, lr}^	; <UNPREDICTABLE>
     1ac:	0074696e 	rsbseq	r6, r4, lr, ror #18
     1b0:	6362696c 	cmnvs	r2, #108, 18	; 0x1b0000
     1b4:	73696c5f 	cmnvc	r9, #24320	; 0x5f00
     1b8:	65725f74 	ldrbvs	r5, [r2, #-3956]!	; 0xfffff08c
     1bc:	63616c70 	cmnvs	r1, #112, 24	; 0x7000
     1c0:	696c0065 	stmdbvs	ip!, {r0, r2, r5, r6}^
     1c4:	6c5f6362 	mrrcvs	3, 6, r6, pc, cr2	; <UNPREDICTABLE>
     1c8:	5f747369 	svcpl	0x00747369
     1cc:	685f7369 	ldmdavs	pc, {r0, r3, r5, r6, r8, r9, ip, sp, lr}^	; <UNPREDICTABLE>
     1d0:	00646165 	rsbeq	r6, r4, r5, ror #2
     1d4:	676e6f6c 	strbvs	r6, [lr, -ip, ror #30]!
     1d8:	6e6f6c20 	cdpvs	12, 6, cr6, cr15, cr0, {1}
     1dc:	6e752067 	cdpvs	0, 7, cr2, cr5, cr7, {3}
     1e0:	6e676973 			; <UNDEFINED> instruction: 0x6e676973
     1e4:	69206465 	stmdbvs	r0!, {r0, r2, r5, r6, sl, sp, lr}
     1e8:	6c00746e 	cfstrsvs	mvf7, [r0], {110}	; 0x6e
     1ec:	5f636269 	svcpl	0x00636269
     1f0:	7473696c 	ldrbtvc	r6, [r3], #-2412	; 0xfffff694
     1f4:	5f73695f 	svcpl	0x0073695f
     1f8:	7473616c 	ldrbtvc	r6, [r3], #-364	; 0xfffffe94
     1fc:	62696c00 	rsbvs	r6, r9, #0, 24
     200:	696c5f63 	stmdbvs	ip!, {r0, r1, r5, r6, r8, r9, sl, fp, ip, lr}^
     204:	745f7473 	ldrbvc	r7, [pc], #-1139	; 20c <SYS_MODE+0x1ed>
     208:	00657079 	rsbeq	r7, r5, r9, ror r0
     20c:	676e6f6c 	strbvs	r6, [lr, -ip, ror #30]!
     210:	6e6f6c20 	cdpvs	12, 6, cr6, cr15, cr0, {1}
     214:	6e692067 	cdpvs	0, 6, cr2, cr9, cr7, {3}
     218:	6c5f0074 	mrrcvs	0, 7, r0, pc, cr4	; <UNPREDICTABLE>
     21c:	5f636269 	svcpl	0x00636269
     220:	7473696c 	ldrbtvc	r6, [r3], #-2412	; 0xfffff694
     224:	6c65645f 	cfstrdvs	mvd6, [r5], #-380	; 0xfffffe84
     228:	62696c00 	rsbvs	r6, r9, #0, 24
     22c:	696c5f63 	stmdbvs	ip!, {r0, r1, r5, r6, r8, r9, sl, fp, ip, lr}^
     230:	6d5f7473 	cfldrdvs	mvd7, [pc, #-460]	; 6c <SYS_MODE+0x4d>
     234:	5f65766f 	svcpl	0x0065766f
     238:	6c696174 	stfvse	f6, [r9], #-464	; 0xfffffe30
     23c:	6f687300 	svcvs	0x00687300
     240:	69207472 	stmdbvs	r0!, {r1, r4, r5, r6, sl, ip, sp, lr}
     244:	6c00746e 	cfstrsvs	mvf7, [r0], {110}	; 0x6e
     248:	5f636269 	svcpl	0x00636269
     24c:	7473696c 	ldrbtvc	r6, [r3], #-2412	; 0xfffff694
     250:	5f73695f 	svcpl	0x0073695f
     254:	73726966 	cmnvc	r2, #1671168	; 0x198000
     258:	656e0074 	strbvs	r0, [lr, #-116]!	; 0xffffff8c
     25c:	5f007377 	svcpl	0x00007377
     260:	6c6f6f42 	stclvs	15, cr6, [pc], #-264	; 160 <SYS_MODE+0x141>
     264:	65727000 	ldrbvs	r7, [r2, #-0]!
     268:	682f0076 	stmdavs	pc!, {r1, r2, r4, r5, r6}	; <UNPREDICTABLE>
     26c:	2f656d6f 	svccs	0x00656d6f
     270:	696c7a63 	stmdbvs	ip!, {r0, r1, r5, r6, r9, fp, ip, sp, lr}^
     274:	632f786d 			; <UNDEFINED> instruction: 0x632f786d
     278:	7365646f 	cmnvc	r5, #1862270976	; 0x6f000000
     27c:	65636170 	strbvs	r6, [r3, #-368]!	; 0xfffffe90
     280:	6d65742f 	cfstrdvs	mvd7, [r5, #-188]!	; 0xffffff44
     284:	61622f70 	smcvs	8944	; 0x22f0
     288:	656d6572 	strbvs	r6, [sp, #-1394]!	; 0xfffffa8e
     28c:	5f6c6174 	svcpl	0x006c6174
     290:	5f726f66 	svcpl	0x00726f66
     294:	75622f63 	strbvc	r2, [r2, #-3939]!	; 0xfffff09d
     298:	2f646c69 	svccs	0x00646c69
     29c:	33336d61 	teqcc	r3, #6208	; 0x1840
     2a0:	6d003835 	stcvs	8, cr3, [r0, #-212]	; 0xffffff2c
     2a4:	6f6d6d65 	svcvs	0x006d6d65
     2a8:	73006576 	movwvc	r6, #1398	; 0x576
     2ac:	5f657a69 	svcpl	0x00657a69
     2b0:	656d0074 	strbvs	r0, [sp, #-116]!	; 0xffffff8c
     2b4:	706d636d 	rsbvc	r6, sp, sp, ror #6
     2b8:	756f6300 	strbvc	r6, [pc, #-768]!	; ffffffc0 <_stack_end+0x3dfd9dc0>
     2bc:	7300746e 	movwvc	r7, #1134	; 0x46e
     2c0:	656c7274 	strbvs	r7, [ip, #-628]!	; 0xfffffd8c
     2c4:	6564006e 	strbvs	r0, [r4, #-110]!	; 0xffffff92
     2c8:	73007473 	movwvc	r7, #1139	; 0x473
     2cc:	70637274 	rsbvc	r7, r3, r4, ror r2
     2d0:	74730079 	ldrbtvc	r0, [r3], #-121	; 0xffffff87
     2d4:	70636e72 	rsbvc	r6, r3, r2, ror lr
     2d8:	656d0079 	strbvs	r0, [sp, #-121]!	; 0xffffff87
     2dc:	7465736d 	strbtvc	r7, [r5], #-877	; 0xfffffc93
     2e0:	6f682f00 	svcvs	0x00682f00
     2e4:	632f656d 			; <UNDEFINED> instruction: 0x632f656d
     2e8:	6d696c7a 	stclvs	12, cr6, [r9, #-488]!	; 0xfffffe18
     2ec:	6f632f78 	svcvs	0x00632f78
     2f0:	70736564 	rsbsvc	r6, r3, r4, ror #10
     2f4:	2f656361 	svccs	0x00656361
     2f8:	706d6574 	rsbvc	r6, sp, r4, ror r5
     2fc:	7261622f 	rsbvc	r6, r1, #-268435454	; 0xf0000002
     300:	74656d65 	strbtvc	r6, [r5], #-3429	; 0xfffff29b
     304:	665f6c61 	ldrbvs	r6, [pc], -r1, ror #24
     308:	635f726f 	cmpvs	pc, #-268435450	; 0xf0000006
     30c:	646f632f 	strbtvs	r6, [pc], #-815	; 314 <SYS_MODE+0x2f5>
     310:	696c2f65 	stmdbvs	ip!, {r0, r2, r5, r6, r8, r9, sl, fp, sp}^
     314:	732f6362 			; <UNDEFINED> instruction: 0x732f6362
     318:	6c2f6372 	stcvs	3, cr6, [pc], #-456	; 158 <SYS_MODE+0x139>
     31c:	5f636269 	svcpl	0x00636269
     320:	6f6d656d 	svcvs	0x006d656d
     324:	632e7972 			; <UNDEFINED> instruction: 0x632e7972
     328:	72747300 	rsbsvc	r7, r4, #0, 6
     32c:	00706d63 	rsbseq	r6, r0, r3, ror #26
     330:	636d656d 	cmnvs	sp, #457179136	; 0x1b400000
     334:	5f007970 	svcpl	0x00007970
     338:	7365725f 	cmnvc	r5, #-268435451	; 0xf0000005
     33c:	776f7000 	strbvc	r7, [pc, -r0]!
     340:	65003031 	strvs	r3, [r0, #-49]	; 0xffffffcf
     344:	00327078 	eorseq	r7, r2, r8, ror r0
     348:	5f74756f 	svcpl	0x0074756f
     34c:	5f746366 	svcpl	0x00746366
     350:	70617277 	rsbvc	r7, r1, r7, ror r2
     354:	66696400 	strbtvs	r6, [r9], -r0, lsl #8
     358:	6f5f0066 	svcvs	0x005f0066
     35c:	625f7475 	subsvs	r7, pc, #1962934272	; 0x75000000
     360:	65666675 	strbvs	r6, [r6, #-1653]!	; 0xfffff98b
     364:	69750072 	ldmdbvs	r5!, {r1, r4, r5, r6}^
     368:	3436746e 	ldrtcc	r7, [r6], #-1134	; 0xfffffb92
     36c:	6d00745f 	cfstrsvs	mvf7, [r0, #-380]	; 0xfffffe84
     370:	69776e69 	ldmdbvs	r7!, {r0, r3, r5, r6, r9, sl, fp, sp, lr}^
     374:	00687464 	rsbeq	r7, r8, r4, ror #8
     378:	6f74655f 	svcvs	0x0074655f
     37c:	6f5f0061 	svcvs	0x005f0061
     380:	635f7475 	cmpvs	pc, #1962934272	; 0x75000000
     384:	00726168 	rsbseq	r6, r2, r8, ror #2
     388:	7378616d 	cmnvc	r8, #1073741851	; 0x4000001b
     38c:	00657a69 	rsbeq	r7, r5, r9, ror #20
     390:	6c6f6877 	stclvs	8, cr6, [pc], #-476	; 1bc <SYS_MODE+0x19d>
     394:	72660065 	rsbvc	r0, r6, #101	; 0x65
     398:	76006361 	strvc	r6, [r0], -r1, ror #6
     39c:	65756c61 	ldrbvs	r6, [r5, #-3169]!	; 0xfffff39f
     3a0:	756f5f00 	strbvc	r5, [pc, #-3840]!	; fffff4a8 <_stack_end+0x3dfd92a8>
     3a4:	63665f74 	cmnvs	r6, #116, 30	; 0x1d0
     3a8:	69750074 	ldmdbvs	r5!, {r2, r4, r5, r6}^
     3ac:	7470746e 	ldrbtvc	r7, [r0], #-1134	; 0xfffffb92
     3b0:	00745f72 	rsbseq	r5, r4, r2, ror pc
     3b4:	72617473 	rsbvc	r7, r1, #1929379840	; 0x73000000
     3b8:	64695f74 	strbtvs	r5, [r9], #-3956	; 0xfffff08c
     3bc:	63660078 	cmnvs	r6, #120	; 0x78
     3c0:	69727074 	ldmdbvs	r2!, {r2, r4, r5, r6, ip, sp, lr}^
     3c4:	0066746e 	rsbeq	r7, r6, lr, ror #8
     3c8:	6167656e 	cmnvs	r7, lr, ror #10
     3cc:	65766974 	ldrbvs	r6, [r6, #-2420]!	; 0xfffff68c
     3d0:	6f682f00 	svcvs	0x00682f00
     3d4:	632f656d 			; <UNDEFINED> instruction: 0x632f656d
     3d8:	6d696c7a 	stclvs	12, cr6, [r9, #-488]!	; 0xfffffe18
     3dc:	6f632f78 	svcvs	0x00632f78
     3e0:	70736564 	rsbsvc	r6, r3, r4, ror #10
     3e4:	2f656361 	svccs	0x00656361
     3e8:	706d6574 	rsbvc	r6, sp, r4, ror r5
     3ec:	7261622f 	rsbvc	r6, r1, #-268435454	; 0xf0000002
     3f0:	74656d65 	strbtvc	r6, [r5], #-3429	; 0xfffff29b
     3f4:	665f6c61 	ldrbvs	r6, [pc], -r1, ror #24
     3f8:	635f726f 	cmpvs	pc, #-268435450	; 0xf0000006
     3fc:	646f632f 	strbtvs	r6, [pc], #-815	; 404 <SYS_MODE+0x3e5>
     400:	696c2f65 	stmdbvs	ip!, {r0, r2, r5, r6, r8, r9, sl, fp, sp}^
     404:	732f6362 			; <UNDEFINED> instruction: 0x732f6362
     408:	6c2f6372 	stcvs	3, cr6, [pc], #-456	; 248 <SYS_MODE+0x229>
     40c:	5f636269 	svcpl	0x00636269
     410:	6e697270 	mcrvs	2, 3, r7, cr9, cr0, {3}
     414:	632e6674 			; <UNDEFINED> instruction: 0x632e6674
     418:	765f5f00 	ldrbvc	r5, [pc], -r0, lsl #30
     41c:	696c5f61 	stmdbvs	ip!, {r0, r5, r6, r8, r9, sl, fp, ip, lr}^
     420:	5f007473 	svcpl	0x00007473
     424:	616f746e 	cmnvs	pc, lr, ror #8
     428:	726f665f 	rsbvc	r6, pc, #99614720	; 0x5f00000
     42c:	0074616d 	rsbseq	r6, r4, sp, ror #2
     430:	6f74665f 	svcvs	0x0074665f
     434:	765f0061 	ldrbvc	r0, [pc], -r1, rrx
     438:	72706e73 	rsbsvc	r6, r0, #1840	; 0x730
     43c:	66746e69 	ldrbtvs	r6, [r4], -r9, ror #28
     440:	756f5f00 	strbvc	r5, [pc, #-3840]!	; fffff548 <_stack_end+0x3dfd9348>
     444:	756e5f74 	strbvc	r5, [lr, #-3956]!	; 0xfffff08c
     448:	65006c6c 	strvs	r6, [r0, #-3180]	; 0xfffff394
     44c:	61767078 	cmnvs	r6, r8, ror r0
     450:	756f006c 	strbvc	r0, [pc, #-108]!	; 3ec <SYS_MODE+0x3cd>
     454:	63665f74 	cmnvs	r6, #116, 30	; 0x1d0
     458:	79745f74 	ldmdbvc	r4!, {r2, r4, r5, r6, r8, r9, sl, fp, ip, lr}^
     45c:	5f006570 	svcpl	0x00006570
     460:	616f746e 	cmnvs	pc, lr, ror #8
     464:	6e6f6c5f 	mcrvs	12, 3, r6, cr15, cr15, {2}
     468:	6c660067 	stclvs	0, cr0, [r6], #-412	; 0xfffffe64
     46c:	00736761 	rsbseq	r6, r3, r1, ror #14
     470:	706e7376 	rsbvc	r7, lr, r6, ror r3
     474:	746e6972 	strbtvc	r6, [lr], #-2418	; 0xfffff68e
     478:	6d005f66 	stcvs	15, cr5, [r0, #-408]	; 0xfffffe68
     47c:	656c7861 	strbvs	r7, [ip, #-2145]!	; 0xfffff79f
     480:	615f006e 	cmpvs	pc, lr, rrx
     484:	00696f74 	rsbeq	r6, r9, r4, ror pc
     488:	7274735f 	rsbsvc	r7, r4, #2080374785	; 0x7c000001
     48c:	6e656c6e 	cdpvs	12, 6, cr6, cr5, cr14, {3}
     490:	5f00735f 	svcpl	0x0000735f
     494:	0070615f 	rsbseq	r6, r0, pc, asr r1
     498:	69727073 	ldmdbvs	r2!, {r0, r1, r4, r5, r6, ip, sp, lr}^
     49c:	5f66746e 	svcpl	0x0066746e
     4a0:	73695f00 	cmnvc	r9, #0, 30
     4a4:	6769645f 			; <UNDEFINED> instruction: 0x6769645f
     4a8:	63007469 	movwvs	r7, #1129	; 0x469
     4ac:	00766e6f 	rsbseq	r6, r6, pc, ror #28
     4b0:	62756f64 	rsbsvs	r6, r5, #100, 30	; 0x190
     4b4:	6300656c 	movwvs	r6, #1388	; 0x56c
     4b8:	61726168 	cmnvs	r2, r8, ror #2
     4bc:	72657463 	rsbvc	r7, r5, #1660944384	; 0x63000000
     4c0:	756f5f00 	strbvc	r5, [pc, #-3840]!	; fffff5c8 <_stack_end+0x3dfd93c8>
     4c4:	65725f74 	ldrbvs	r5, [r2, #-3956]!	; 0xfffff08c
     4c8:	756f0076 	strbvc	r0, [pc, #-118]!	; 45a <SYS_MODE+0x43b>
     4cc:	63665f74 	cmnvs	r6, #116, 30	; 0x1d0
     4d0:	72775f74 	rsbsvc	r5, r7, #116, 30	; 0x1d0
     4d4:	745f7061 	ldrbvc	r7, [pc], #-97	; 4dc <SYS_MODE+0x4bd>
     4d8:	00657079 	rsbeq	r7, r5, r9, ror r0
     4dc:	63657270 	cmnvs	r5, #112, 4
     4e0:	69776600 	ldmdbvs	r7!, {r9, sl, sp, lr}^
     4e4:	00687464 	rsbeq	r7, r8, r4, ror #8
     4e8:	6f746e5f 	svcvs	0x00746e5f
     4ec:	6f6c5f61 	svcvs	0x006c5f61
     4f0:	6c5f676e 	mrrcvs	7, 6, r6, pc, cr14	; <UNPREDICTABLE>
     4f4:	00676e6f 	rsbeq	r6, r7, pc, ror #28
     4f8:	6c5f7369 	mrrcvs	3, 6, r7, pc, cr9	; <UNPREDICTABLE>
     4fc:	7270006c 	rsbsvc	r0, r0, #108	; 0x6c
     500:	73696365 	cmnvc	r9, #-1811939327	; 0x94000001
     504:	006e6f69 	rsbeq	r6, lr, r9, ror #30
     508:	69727076 	ldmdbvs	r2!, {r1, r2, r4, r5, r6, ip, sp, lr}^
     50c:	5f66746e 	svcpl	0x0066746e
     510:	6f682f00 	svcvs	0x00682f00
     514:	632f656d 			; <UNDEFINED> instruction: 0x632f656d
     518:	6d696c7a 	stclvs	12, cr6, [r9, #-488]!	; 0xfffffe18
     51c:	6f632f78 	svcvs	0x00632f78
     520:	70736564 	rsbsvc	r6, r3, r4, ror #10
     524:	2f656361 	svccs	0x00656361
     528:	706d6574 	rsbvc	r6, sp, r4, ror r5
     52c:	7261622f 	rsbvc	r6, r1, #-268435454	; 0xf0000002
     530:	74656d65 	strbtvc	r6, [r5], #-3429	; 0xfffff29b
     534:	665f6c61 	ldrbvs	r6, [pc], -r1, ror #24
     538:	635f726f 	cmpvs	pc, #-268435450	; 0xf0000006
     53c:	646f632f 	strbtvs	r6, [pc], #-815	; 544 <SYS_MODE+0x525>
     540:	72612f65 	rsbvc	r2, r1, #404	; 0x194
     544:	612f6863 			; <UNDEFINED> instruction: 0x612f6863
     548:	37766d72 			; <UNDEFINED> instruction: 0x37766d72
     54c:	732f612d 			; <UNDEFINED> instruction: 0x732f612d
     550:	612f6372 			; <UNDEFINED> instruction: 0x612f6372
     554:	5f686372 	svcpl	0x00686372
     558:	6e617262 	cdpvs	2, 6, cr7, cr1, cr2, {3}
     55c:	705f6863 	subsvc	r6, pc, r3, ror #16
     560:	69646572 	stmdbvs	r4!, {r1, r4, r5, r6, r8, sl, sp, lr}^
     564:	726f7463 	rsbvc	r7, pc, #1660944384	; 0x63000000
     568:	4700732e 	strmi	r7, [r0, -lr, lsr #6]
     56c:	4120554e 			; <UNDEFINED> instruction: 0x4120554e
     570:	2e322053 	mrccs	0, 1, r2, cr2, cr3, {2}
     574:	312e3633 			; <UNDEFINED> instruction: 0x312e3633
     578:	6f682f00 	svcvs	0x00682f00
     57c:	632f656d 			; <UNDEFINED> instruction: 0x632f656d
     580:	6d696c7a 	stclvs	12, cr6, [r9, #-488]!	; 0xfffffe18
     584:	6f632f78 	svcvs	0x00632f78
     588:	70736564 	rsbsvc	r6, r3, r4, ror #10
     58c:	2f656361 	svccs	0x00656361
     590:	706d6574 	rsbvc	r6, sp, r4, ror r5
     594:	7261622f 	rsbvc	r6, r1, #-268435454	; 0xf0000002
     598:	74656d65 	strbtvc	r6, [r5], #-3429	; 0xfffff29b
     59c:	665f6c61 	ldrbvs	r6, [pc], -r1, ror #24
     5a0:	635f726f 	cmpvs	pc, #-268435450	; 0xf0000006
     5a4:	646f632f 	strbtvs	r6, [pc], #-815	; 5ac <SYS_MODE+0x58d>
     5a8:	72612f65 	rsbvc	r2, r1, #404	; 0x194
     5ac:	612f6863 			; <UNDEFINED> instruction: 0x612f6863
     5b0:	37766d72 			; <UNDEFINED> instruction: 0x37766d72
     5b4:	732f612d 			; <UNDEFINED> instruction: 0x732f612d
     5b8:	612f6372 			; <UNDEFINED> instruction: 0x612f6372
     5bc:	5f686372 	svcpl	0x00686372
     5c0:	68636163 	stmdavs	r3!, {r0, r1, r5, r6, r8, sp, lr}^
     5c4:	00732e65 	rsbseq	r2, r3, r5, ror #28
     5c8:	6d6f682f 	stclvs	8, cr6, [pc, #-188]!	; 514 <SYS_MODE+0x4f5>
     5cc:	7a632f65 	bvc	18cc368 <SYS_MODE+0x18cc349>
     5d0:	786d696c 	stmdavc	sp!, {r2, r3, r5, r6, r8, fp, sp, lr}^
     5d4:	646f632f 	strbtvs	r6, [pc], #-815	; 5dc <SYS_MODE+0x5bd>
     5d8:	61707365 	cmnvs	r0, r5, ror #6
     5dc:	742f6563 	strtvc	r6, [pc], #-1379	; 5e4 <SYS_MODE+0x5c5>
     5e0:	2f706d65 	svccs	0x00706d65
     5e4:	65726162 	ldrbvs	r6, [r2, #-354]!	; 0xfffffe9e
     5e8:	6174656d 	cmnvs	r4, sp, ror #10
     5ec:	6f665f6c 	svcvs	0x00665f6c
     5f0:	2f635f72 	svccs	0x00635f72
     5f4:	65646f63 	strbvs	r6, [r4, #-3939]!	; 0xfffff09d
     5f8:	6372612f 	cmnvs	r2, #-1073741813	; 0xc000000b
     5fc:	72612f68 	rsbvc	r2, r1, #104, 30	; 0x1a0
     600:	2d37766d 	ldccs	6, cr7, [r7, #-436]!	; 0xfffffe4c
     604:	72732f61 	rsbsvc	r2, r3, #388	; 0x184
     608:	72612f63 	rsbvc	r2, r1, #396	; 0x18c
     60c:	635f6863 	cmpvs	pc, #6488064	; 0x630000
     610:	65746e6f 	ldrbvs	r6, [r4, #-3695]!	; 0xfffff191
     614:	732e7478 			; <UNDEFINED> instruction: 0x732e7478
     618:	63697400 	cmnvs	r9, #0, 8
     61c:	006f546b 	rsbeq	r5, pc, fp, ror #8
     620:	68637261 	stmdavs	r3!, {r0, r5, r6, r9, ip, sp, lr}^
     624:	696c615f 	stmdbvs	ip!, {r0, r1, r2, r3, r4, r6, r8, sp, lr}^
     628:	656d6e67 	strbvs	r6, [sp, #-3687]!	; 0xfffff199
     62c:	635f746e 	cmpvs	pc, #1845493760	; 0x6e000000
     630:	6b636568 	blvs	18d9bd8 <SYS_MODE+0x18d9bb9>
     634:	616e655f 	cmnvs	lr, pc, asr r5
     638:	00656c62 	rsbeq	r6, r5, r2, ror #24
     63c:	72617473 	rsbvc	r7, r1, #1929379840	; 0x73000000
     640:	63695474 	cmnvs	r9, #116, 8	; 0x74000000
     644:	7261006b 	rsbvc	r0, r1, #107	; 0x6b
     648:	635f6863 	cmpvs	pc, #6488064	; 0x630000
     64c:	675f7570 			; <UNDEFINED> instruction: 0x675f7570
     650:	6d5f7465 	cfldrdvs	mvd7, [pc, #-404]	; 4c4 <SYS_MODE+0x4a5>
     654:	72646970 	rsbvc	r6, r4, #112, 18	; 0x1c0000
     658:	6f682f00 	svcvs	0x00682f00
     65c:	632f656d 			; <UNDEFINED> instruction: 0x632f656d
     660:	6d696c7a 	stclvs	12, cr6, [r9, #-488]!	; 0xfffffe18
     664:	6f632f78 	svcvs	0x00632f78
     668:	70736564 	rsbsvc	r6, r3, r4, ror #10
     66c:	2f656361 	svccs	0x00656361
     670:	706d6574 	rsbvc	r6, sp, r4, ror r5
     674:	7261622f 	rsbvc	r6, r1, #-268435454	; 0xf0000002
     678:	74656d65 	strbtvc	r6, [r5], #-3429	; 0xfffff29b
     67c:	665f6c61 	ldrbvs	r6, [pc], -r1, ror #24
     680:	635f726f 	cmpvs	pc, #-268435450	; 0xf0000006
     684:	646f632f 	strbtvs	r6, [pc], #-815	; 68c <SYS_MODE+0x66d>
     688:	72612f65 	rsbvc	r2, r1, #404	; 0x194
     68c:	612f6863 			; <UNDEFINED> instruction: 0x612f6863
     690:	37766d72 			; <UNDEFINED> instruction: 0x37766d72
     694:	732f612d 			; <UNDEFINED> instruction: 0x732f612d
     698:	612f6372 			; <UNDEFINED> instruction: 0x612f6372
     69c:	5f686372 	svcpl	0x00686372
     6a0:	2e757063 	cdpcs	0, 7, cr7, cr5, cr3, {3}
     6a4:	72610063 	rsbvc	r0, r1, #99	; 0x63
     6a8:	745f6863 	ldrbvc	r6, [pc], #-2147	; 6b0 <SYS_MODE+0x691>
     6ac:	5f6b6369 	svcpl	0x006b6369
     6b0:	616c6564 	cmnvs	ip, r4, ror #10
     6b4:	69750079 	ldmdbvs	r5!, {r0, r3, r4, r5, r6}^
     6b8:	3233746e 	eorscc	r7, r3, #1845493760	; 0x6e000000
     6bc:	6300745f 	movwvs	r7, #1119	; 0x45f
     6c0:	65727275 	ldrbvs	r7, [r2, #-629]!	; 0xfffffd8b
     6c4:	6954746e 	ldmdbvs	r4, {r1, r2, r3, r5, r6, sl, ip, sp, lr}^
     6c8:	2f006b63 	svccs	0x00006b63
     6cc:	656d6f68 	strbvs	r6, [sp, #-3944]!	; 0xfffff098
     6d0:	6c7a632f 	ldclvs	3, cr6, [sl], #-188	; 0xffffff44
     6d4:	2f786d69 	svccs	0x00786d69
     6d8:	65646f63 	strbvs	r6, [r4, #-3939]!	; 0xfffff09d
     6dc:	63617073 	cmnvs	r1, #115	; 0x73
     6e0:	65742f65 	ldrbvs	r2, [r4, #-3941]!	; 0xfffff09b
     6e4:	622f706d 	eorvs	r7, pc, #109	; 0x6d
     6e8:	6d657261 	sfmvs	f7, 2, [r5, #-388]!	; 0xfffffe7c
     6ec:	6c617465 	cfstrdvs	mvd7, [r1], #-404	; 0xfffffe6c
     6f0:	726f665f 	rsbvc	r6, pc, #99614720	; 0x5f00000
     6f4:	632f635f 			; <UNDEFINED> instruction: 0x632f635f
     6f8:	2f65646f 	svccs	0x0065646f
     6fc:	68637261 	stmdavs	r3!, {r0, r5, r6, r9, ip, sp, lr}^
     700:	6d72612f 	ldfvse	f6, [r2, #-188]!	; 0xffffff44
     704:	612d3776 			; <UNDEFINED> instruction: 0x612d3776
     708:	6372732f 	cmnvs	r2, #-1140850688	; 0xbc000000
     70c:	6372612f 	cmnvs	r2, #-1073741813	; 0xc000000b
     710:	78655f68 	stmdavc	r5!, {r3, r5, r6, r8, r9, sl, fp, ip, lr}^
     714:	74706563 	ldrbtvc	r6, [r0], #-1379	; 0xfffffa9d
     718:	2e6e6f69 	cdpcs	15, 6, cr6, cr14, cr9, {3}
     71c:	682f0073 	stmdavs	pc!, {r0, r1, r4, r5, r6}	; <UNPREDICTABLE>
     720:	2f656d6f 	svccs	0x00656d6f
     724:	696c7a63 	stmdbvs	ip!, {r0, r1, r5, r6, r9, fp, ip, sp, lr}^
     728:	632f786d 			; <UNDEFINED> instruction: 0x632f786d
     72c:	7365646f 	cmnvc	r5, #1862270976	; 0x6f000000
     730:	65636170 	strbvs	r6, [r3, #-368]!	; 0xfffffe90
     734:	6d65742f 	cfstrdvs	mvd7, [r5, #-188]!	; 0xffffff44
     738:	61622f70 	smcvs	8944	; 0x22f0
     73c:	656d6572 	strbvs	r6, [sp, #-1394]!	; 0xfffffa8e
     740:	5f6c6174 	svcpl	0x006c6174
     744:	5f726f66 	svcpl	0x00726f66
     748:	6f632f63 	svcvs	0x00632f63
     74c:	612f6564 			; <UNDEFINED> instruction: 0x612f6564
     750:	2f686372 	svccs	0x00686372
     754:	766d7261 	strbtvc	r7, [sp], -r1, ror #4
     758:	2f612d37 	svccs	0x00612d37
     75c:	2f637273 	svccs	0x00637273
     760:	68637261 	stmdavs	r3!, {r0, r5, r6, r9, ip, sp, lr}^
     764:	7570665f 	ldrbvc	r6, [r0, #-1631]!	; 0xfffff9a1
     768:	5f00732e 	svcpl	0x0000732e
     76c:	5f737362 	svcpl	0x00737362
     770:	72617473 	rsbvc	r7, r1, #1929379840	; 0x73000000
     774:	5f005f74 	svcpl	0x00005f74
     778:	6c726165 	ldfvse	f6, [r2], #-404	; 0xfffffe6c
     77c:	72615f79 	rsbvc	r5, r1, #484	; 0x1e4
     780:	695f6863 	ldmdbvs	pc, {r0, r1, r5, r6, fp, sp, lr}^	; <UNPREDICTABLE>
     784:	0074696e 	rsbseq	r6, r4, lr, ror #18
     788:	6d6f682f 	stclvs	8, cr6, [pc, #-188]!	; 6d4 <SYS_MODE+0x6b5>
     78c:	7a632f65 	bvc	18cc528 <SYS_MODE+0x18cc509>
     790:	786d696c 	stmdavc	sp!, {r2, r3, r5, r6, r8, fp, sp, lr}^
     794:	646f632f 	strbtvs	r6, [pc], #-815	; 79c <SYS_MODE+0x77d>
     798:	61707365 	cmnvs	r0, r5, ror #6
     79c:	742f6563 	strtvc	r6, [pc], #-1379	; 7a4 <SYS_MODE+0x785>
     7a0:	2f706d65 	svccs	0x00706d65
     7a4:	65726162 	ldrbvs	r6, [r2, #-354]!	; 0xfffffe9e
     7a8:	6174656d 	cmnvs	r4, sp, ror #10
     7ac:	6f665f6c 	svcvs	0x00665f6c
     7b0:	2f635f72 	svccs	0x00635f72
     7b4:	65646f63 	strbvs	r6, [r4, #-3939]!	; 0xfffff09d
     7b8:	6372612f 	cmnvs	r2, #-1073741813	; 0xc000000b
     7bc:	72612f68 	rsbvc	r2, r1, #104, 30	; 0x1a0
     7c0:	2d37766d 	ldccs	6, cr7, [r7, #-436]!	; 0xfffffe4c
     7c4:	72732f61 	rsbsvc	r2, r3, #388	; 0x184
     7c8:	72612f63 	rsbvc	r2, r1, #396	; 0x18c
     7cc:	695f6863 	ldmdbvs	pc, {r0, r1, r5, r6, fp, sp, lr}^	; <UNPREDICTABLE>
     7d0:	2e74696e 	vsubcs.f16	s13, s8, s29	; <UNPREDICTABLE>
     7d4:	625f0063 	subsvs	r0, pc, #99	; 0x63
     7d8:	655f7373 	ldrbvs	r7, [pc, #-883]	; 46d <SYS_MODE+0x44e>
     7dc:	005f646e 	subseq	r6, pc, lr, ror #8
     7e0:	68637261 	stmdavs	r3!, {r0, r5, r6, r9, ip, sp, lr}^
     7e4:	6665645f 			; <UNDEFINED> instruction: 0x6665645f
     7e8:	746c7561 	strbtvc	r7, [ip], #-1377	; 0xfffffa9f
     7ec:	7172695f 	cmnvc	r2, pc, asr r9
     7f0:	6e61685f 	mcrvs	8, 3, r6, cr1, cr15, {2}
     7f4:	72656c64 	rsbvc	r6, r5, #100, 24	; 0x6400
     7f8:	63726100 	cmnvs	r2, #0, 2
     7fc:	72695f68 	rsbvc	r5, r9, #104, 30	; 0x1a0
     800:	6e695f71 	mcrvs	15, 3, r5, cr9, cr1, {3}
     804:	61007469 	tstvs	r0, r9, ror #8
     808:	5f686372 	svcpl	0x00686372
     80c:	5f717269 	svcpl	0x00717269
     810:	646e6168 	strbtvs	r6, [lr], #-360	; 0xfffffe98
     814:	0072656c 	rsbseq	r6, r2, ip, ror #10
     818:	6d6f682f 	stclvs	8, cr6, [pc, #-188]!	; 764 <SYS_MODE+0x745>
     81c:	7a632f65 	bvc	18cc5b8 <SYS_MODE+0x18cc599>
     820:	786d696c 	stmdavc	sp!, {r2, r3, r5, r6, r8, fp, sp, lr}^
     824:	646f632f 	strbtvs	r6, [pc], #-815	; 82c <SYS_MODE+0x80d>
     828:	61707365 	cmnvs	r0, r5, ror #6
     82c:	742f6563 	strtvc	r6, [pc], #-1379	; 834 <SYS_MODE+0x815>
     830:	2f706d65 	svccs	0x00706d65
     834:	65726162 	ldrbvs	r6, [r2, #-354]!	; 0xfffffe9e
     838:	6174656d 	cmnvs	r4, sp, ror #10
     83c:	6f665f6c 	svcvs	0x00665f6c
     840:	2f635f72 	svccs	0x00635f72
     844:	65646f63 	strbvs	r6, [r4, #-3939]!	; 0xfffff09d
     848:	6372612f 	cmnvs	r2, #-1073741813	; 0xc000000b
     84c:	72612f68 	rsbvc	r2, r1, #104, 30	; 0x1a0
     850:	2d37766d 	ldccs	6, cr7, [r7, #-436]!	; 0xfffffe4c
     854:	72732f61 	rsbsvc	r2, r3, #388	; 0x184
     858:	72612f63 	rsbvc	r2, r1, #396	; 0x18c
     85c:	695f6863 	ldmdbvs	pc, {r0, r1, r5, r6, fp, sp, lr}^	; <UNPREDICTABLE>
     860:	632e7172 			; <UNDEFINED> instruction: 0x632e7172
     864:	63726100 	cmnvs	r2, #0, 2
     868:	72695f68 	rsbvc	r5, r9, #104, 30	; 0x1a0
     86c:	61685f71 	smcvs	34289	; 0x85f1
     870:	656c646e 	strbvs	r6, [ip, #-1134]!	; 0xfffffb92
     874:	79745f72 	ldmdbvc	r4!, {r1, r4, r5, r6, r8, r9, sl, fp, ip, lr}^
     878:	61006570 	tstvs	r0, r0, ror r5
     87c:	5f686372 	svcpl	0x00686372
     880:	5f717269 	svcpl	0x00717269
     884:	65726e75 	ldrbvs	r6, [r2, #-3701]!	; 0xfffff18b
     888:	74736967 	ldrbtvc	r6, [r3], #-2407	; 0xfffff699
     88c:	70007265 	andvc	r7, r0, r5, ror #4
     890:	00617261 	rsbeq	r7, r1, r1, ror #4
     894:	68637261 	stmdavs	r3!, {r0, r5, r6, r9, ip, sp, lr}^
     898:	7172695f 	cmnvc	r2, pc, asr r9
     89c:	6e61685f 	mcrvs	8, 3, r6, cr1, cr15, {2}
     8a0:	72656c64 	rsbvc	r6, r5, #100, 24	; 0x6400
     8a4:	7272615f 	rsbsvc	r6, r2, #-1073741801	; 0xc0000017
     8a8:	61007961 	tstvs	r0, r1, ror #18
     8ac:	5f686372 	svcpl	0x00686372
     8b0:	5f717269 	svcpl	0x00717269
     8b4:	69676572 	stmdbvs	r7!, {r1, r4, r5, r6, r8, sl, sp, lr}^
     8b8:	72657473 	rsbvc	r7, r5, #1929379840	; 0x73000000
     8bc:	6f682f00 	svcvs	0x00682f00
     8c0:	632f656d 			; <UNDEFINED> instruction: 0x632f656d
     8c4:	6d696c7a 	stclvs	12, cr6, [r9, #-488]!	; 0xfffffe18
     8c8:	6f632f78 	svcvs	0x00632f78
     8cc:	70736564 	rsbsvc	r6, r3, r4, ror #10
     8d0:	2f656361 	svccs	0x00656361
     8d4:	706d6574 	rsbvc	r6, sp, r4, ror r5
     8d8:	7261622f 	rsbvc	r6, r1, #-268435454	; 0xf0000002
     8dc:	74656d65 	strbtvc	r6, [r5], #-3429	; 0xfffff29b
     8e0:	665f6c61 	ldrbvs	r6, [pc], -r1, ror #24
     8e4:	635f726f 	cmpvs	pc, #-268435450	; 0xf0000006
     8e8:	646f632f 	strbtvs	r6, [pc], #-815	; 8f0 <SYS_MODE+0x8d1>
     8ec:	72612f65 	rsbvc	r2, r1, #404	; 0x194
     8f0:	612f6863 			; <UNDEFINED> instruction: 0x612f6863
     8f4:	37766d72 			; <UNDEFINED> instruction: 0x37766d72
     8f8:	732f612d 			; <UNDEFINED> instruction: 0x732f612d
     8fc:	612f6372 			; <UNDEFINED> instruction: 0x612f6372
     900:	5f686372 	svcpl	0x00686372
     904:	2e756d6d 	cdpcs	13, 7, cr6, cr5, cr13, {3}
     908:	682f0073 	stmdavs	pc!, {r0, r1, r4, r5, r6}	; <UNPREDICTABLE>
     90c:	2f656d6f 	svccs	0x00656d6f
     910:	696c7a63 	stmdbvs	ip!, {r0, r1, r5, r6, r9, fp, ip, sp, lr}^
     914:	632f786d 			; <UNDEFINED> instruction: 0x632f786d
     918:	7365646f 	cmnvc	r5, #1862270976	; 0x6f000000
     91c:	65636170 	strbvs	r6, [r3, #-368]!	; 0xfffffe90
     920:	6d65742f 	cfstrdvs	mvd7, [r5, #-188]!	; 0xffffff44
     924:	61622f70 	smcvs	8944	; 0x22f0
     928:	656d6572 	strbvs	r6, [sp, #-1394]!	; 0xfffffa8e
     92c:	5f6c6174 	svcpl	0x006c6174
     930:	5f726f66 	svcpl	0x00726f66
     934:	6f632f63 	svcvs	0x00632f63
     938:	612f6564 			; <UNDEFINED> instruction: 0x612f6564
     93c:	2f686372 	svccs	0x00686372
     940:	766d7261 	strbtvc	r7, [sp], -r1, ror #4
     944:	2f612d37 	svccs	0x00612d37
     948:	2f637273 	svccs	0x00637273
     94c:	68637261 	stmdavs	r3!, {r0, r5, r6, r9, ip, sp, lr}^
     950:	626c745f 	rsbvs	r7, ip, #1593835520	; 0x5f000000
     954:	2f00732e 	svccs	0x0000732e
     958:	656d6f68 	strbvs	r6, [sp, #-3944]!	; 0xfffff098
     95c:	6c7a632f 	ldclvs	3, cr6, [sl], #-188	; 0xffffff44
     960:	2f786d69 	svccs	0x00786d69
     964:	65646f63 	strbvs	r6, [r4, #-3939]!	; 0xfffff09d
     968:	63617073 	cmnvs	r1, #115	; 0x73
     96c:	65742f65 	ldrbvs	r2, [r4, #-3941]!	; 0xfffff09b
     970:	622f706d 	eorvs	r7, pc, #109	; 0x6d
     974:	6d657261 	sfmvs	f7, 2, [r5, #-388]!	; 0xfffffe7c
     978:	6c617465 	cfstrdvs	mvd7, [r1], #-404	; 0xfffffe6c
     97c:	726f665f 	rsbvc	r6, pc, #99614720	; 0x5f00000
     980:	632f635f 			; <UNDEFINED> instruction: 0x632f635f
     984:	2f65646f 	svccs	0x0065646f
     988:	68637261 	stmdavs	r3!, {r0, r5, r6, r9, ip, sp, lr}^
     98c:	6d72612f 	ldfvse	f6, [r2, #-188]!	; 0xffffff44
     990:	612d3776 			; <UNDEFINED> instruction: 0x612d3776
     994:	6372732f 	cmnvs	r2, #-1140850688	; 0xbc000000
     998:	6372612f 	cmnvs	r2, #-1073741813	; 0xc000000b
     99c:	6d705f68 	ldclvs	15, cr5, [r0, #-416]!	; 0xfffffe60
     9a0:	00732e75 	rsbseq	r2, r3, r5, ror lr
     9a4:	6d6f682f 	stclvs	8, cr6, [pc, #-188]!	; 8f0 <SYS_MODE+0x8d1>
     9a8:	7a632f65 	bvc	18cc744 <SYS_MODE+0x18cc725>
     9ac:	786d696c 	stmdavc	sp!, {r2, r3, r5, r6, r8, fp, sp, lr}^
     9b0:	646f632f 	strbtvs	r6, [pc], #-815	; 9b8 <SYS_MODE+0x999>
     9b4:	61707365 	cmnvs	r0, r5, ror #6
     9b8:	742f6563 	strtvc	r6, [pc], #-1379	; 9c0 <SYS_MODE+0x9a1>
     9bc:	2f706d65 	svccs	0x00706d65
     9c0:	65726162 	ldrbvs	r6, [r2, #-354]!	; 0xfffffe9e
     9c4:	6174656d 	cmnvs	r4, sp, ror #10
     9c8:	6f665f6c 	svcvs	0x00665f6c
     9cc:	2f635f72 	svccs	0x00635f72
     9d0:	65646f63 	strbvs	r6, [r4, #-3939]!	; 0xfffff09d
     9d4:	6372612f 	cmnvs	r2, #-1073741813	; 0xc000000b
     9d8:	72612f68 	rsbvc	r2, r1, #104, 30	; 0x1a0
     9dc:	2d37766d 	ldccs	6, cr7, [r7, #-436]!	; 0xfffffe4c
     9e0:	72732f61 	rsbsvc	r2, r3, #388	; 0x184
     9e4:	72612f63 	rsbvc	r2, r1, #396	; 0x18c
     9e8:	735f6863 	cmpvc	pc, #6488064	; 0x630000
     9ec:	74726174 	ldrbtvc	r6, [r2], #-372	; 0xfffffe8c
     9f0:	732e7075 			; <UNDEFINED> instruction: 0x732e7075
     9f4:	6f682f00 	svcvs	0x00682f00
     9f8:	632f656d 			; <UNDEFINED> instruction: 0x632f656d
     9fc:	6d696c7a 	stclvs	12, cr6, [r9, #-488]!	; 0xfffffe18
     a00:	6f632f78 	svcvs	0x00632f78
     a04:	70736564 	rsbsvc	r6, r3, r4, ror #10
     a08:	2f656361 	svccs	0x00656361
     a0c:	706d6574 	rsbvc	r6, sp, r4, ror r5
     a10:	7261622f 	rsbvc	r6, r1, #-268435454	; 0xf0000002
     a14:	74656d65 	strbtvc	r6, [r5], #-3429	; 0xfffff29b
     a18:	665f6c61 	ldrbvs	r6, [pc], -r1, ror #24
     a1c:	635f726f 	cmpvs	pc, #-268435450	; 0xf0000006
     a20:	646f632f 	strbtvs	r6, [pc], #-815	; a28 <SYS_MODE+0xa09>
     a24:	72612f65 	rsbvc	r2, r1, #404	; 0x194
     a28:	612f6863 			; <UNDEFINED> instruction: 0x612f6863
     a2c:	37766d72 			; <UNDEFINED> instruction: 0x37766d72
     a30:	732f612d 			; <UNDEFINED> instruction: 0x732f612d
     a34:	612f6372 			; <UNDEFINED> instruction: 0x612f6372
     a38:	5f686372 	svcpl	0x00686372
     a3c:	74636576 	strbtvc	r6, [r3], #-1398	; 0xfffffa8a
     a40:	2e73726f 	cdpcs	2, 7, cr7, cr3, cr15, {3}
     a44:	6f770073 	svcvs	0x00770073
     a48:	656c6472 	strbvs	r6, [ip, #-1138]!	; 0xfffffb8e
     a4c:	6874676e 	ldmdavs	r4!, {r1, r2, r3, r5, r6, r8, r9, sl, sp, lr}^
     a50:	616f6200 	cmnvs	pc, r0, lsl #4
     a54:	695f6472 	ldmdbvs	pc, {r1, r4, r5, r6, sl, sp, lr}^	; <UNPREDICTABLE>
     a58:	0074696e 	rsbseq	r6, r4, lr, ror #18
     a5c:	665f7874 			; <UNDEFINED> instruction: 0x665f7874
     a60:	5f6f6669 	svcpl	0x006f6669
     a64:	6576656c 	ldrbvs	r6, [r6, #-1388]!	; 0xfffffa94
     a68:	4155006c 	cmpmi	r5, ip, rrx
     a6c:	465f5452 			; <UNDEFINED> instruction: 0x465f5452
     a70:	5f4f4649 	svcpl	0x004f4649
     a74:	4556454c 	ldrbmi	r4, [r6, #-1356]	; 0xfffffab4
     a78:	00385f4c 	eorseq	r5, r8, ip, asr #30
     a7c:	76726473 			; <UNDEFINED> instruction: 0x76726473
     a80:	6974645f 	ldmdbvs	r4!, {r0, r1, r2, r3, r4, r6, sl, sp, lr}^
     a84:	5f72656d 	svcpl	0x0072656d
     a88:	65746e69 	ldrbvs	r6, [r4, #-3689]!	; 0xfffff197
     a8c:	70757272 	rsbsvc	r7, r5, r2, ror r2
     a90:	49540074 	ldmdbmi	r4, {r2, r4, r5, r6}^
     a94:	5f52454d 	svcpl	0x0052454d
     a98:	47495254 	smlsldmi	r5, r9, r4, r2
     a9c:	5f524547 	svcpl	0x00524547
     aa0:	004c4c41 	subeq	r4, ip, r1, asr #24
     aa4:	76726473 			; <UNDEFINED> instruction: 0x76726473
     aa8:	6d69745f 	cfstrdvs	mvd7, [r9, #-380]!	; 0xfffffe84
     aac:	695f7265 	ldmdbvs	pc, {r0, r2, r5, r6, r9, ip, sp, lr}^	; <UNPREDICTABLE>
     ab0:	0074696e 	rsbseq	r6, r4, lr, ror #18
     ab4:	76726473 			; <UNDEFINED> instruction: 0x76726473
     ab8:	7261755f 	rsbvc	r7, r1, #398458880	; 0x17c00000
     abc:	6f775f74 	svcvs	0x00775f74
     ac0:	656c6472 	strbvs	r6, [ip, #-1138]!	; 0xfffffb8e
     ac4:	6874676e 	ldmdavs	r4!, {r1, r2, r3, r5, r6, r8, r9, sl, sp, lr}^
     ac8:	7079745f 	rsbsvc	r7, r9, pc, asr r4
     acc:	41550065 	cmpmi	r5, r5, rrx
     ad0:	535f5452 	cmppl	pc, #1375731712	; 0x52000000
     ad4:	42504f54 	subsmi	r4, r0, #84, 30	; 0x150
     ad8:	5f535449 	svcpl	0x00535449
     adc:	5f4f5754 	svcpl	0x004f5754
     ae0:	53544942 	cmppl	r4, #1081344	; 0x108000
     ae4:	616d6400 	cmnvs	sp, r0, lsl #8
     ae8:	616e655f 	cmnvs	lr, pc, asr r5
     aec:	00656c62 	rsbeq	r6, r5, r2, ror #24
     af0:	54524155 	ldrbpl	r4, [r2], #-341	; 0xfffffeab
     af4:	524f575f 	subpl	r5, pc, #24903680	; 0x17c0000
     af8:	4e454c44 	cdpmi	12, 4, cr4, cr5, cr4, {2}
     afc:	5f485447 	svcpl	0x00485447
     b00:	49425f38 	stmdbmi	r2, {r3, r4, r5, r8, r9, sl, fp, ip, lr}^
     b04:	73005354 	movwvc	r5, #852	; 0x354
     b08:	5f767264 	svcpl	0x00767264
     b0c:	74726175 	ldrbtvc	r6, [r2], #-373	; 0xfffffe8b
     b10:	6669665f 			; <UNDEFINED> instruction: 0x6669665f
     b14:	656c5f6f 	strbvs	r5, [ip, #-3951]!	; 0xfffff091
     b18:	5f6c6576 	svcpl	0x006c6576
     b1c:	65707974 	ldrbvs	r7, [r0, #-2420]!	; 0xfffff68c
     b20:	52415500 	subpl	r5, r1, #0, 10
     b24:	54535f54 	ldrbpl	r5, [r3], #-3924	; 0xfffff0ac
     b28:	4942504f 	stmdbmi	r2, {r0, r1, r2, r3, r6, ip, lr}^
     b2c:	4f5f5354 	svcmi	0x005f5354
     b30:	425f454e 	subsmi	r4, pc, #327155712	; 0x13800000
     b34:	00535449 	subseq	r5, r3, r9, asr #8
     b38:	72616f62 	rsbvc	r6, r1, #392	; 0x188
     b3c:	61655f64 	cmnvs	r5, r4, ror #30
     b40:	5f796c72 	svcpl	0x00796c72
     b44:	74696e69 	strbtvc	r6, [r9], #-3689	; 0xfffff197
     b48:	52415500 	subpl	r5, r1, #0, 10
     b4c:	4f575f54 	svcmi	0x00575f54
     b50:	454c4452 	strbmi	r4, [ip, #-1106]	; 0xfffffbae
     b54:	4854474e 	ldmdami	r4, {r1, r2, r3, r6, r8, r9, sl, lr}^
     b58:	425f355f 	subsmi	r3, pc, #398458880	; 0x17c00000
     b5c:	00535449 	subseq	r5, r3, r9, asr #8
     b60:	6f636573 	svcvs	0x00636573
     b64:	665f646e 	ldrbvs	r6, [pc], -lr, ror #8
     b68:	656d6172 	strbvs	r6, [sp, #-370]!	; 0xfffffe8e
     b6c:	52415500 	subpl	r5, r1, #0, 10
     b70:	54535f54 	ldrbpl	r5, [r3], #-3924	; 0xfffff0ac
     b74:	4942504f 	stmdbmi	r2, {r0, r1, r2, r3, r6, ip, lr}^
     b78:	4f5f5354 	svcmi	0x005f5354
     b7c:	4148454e 	cmpmi	r8, lr, asr #10
     b80:	425f464c 	subsmi	r4, pc, #76, 12	; 0x4c00000
     b84:	00535449 	subseq	r5, r3, r9, asr #8
     b88:	454d4954 	strbmi	r4, [sp, #-2388]	; 0xfffff6ac
     b8c:	4e495f52 	mcrmi	15, 2, r5, cr9, cr2, {2}
     b90:	52524554 	subspl	r4, r2, #84, 10	; 0x15000000
     b94:	5f545055 	svcpl	0x00545055
     b98:	0046564f 	subeq	r5, r6, pc, asr #12
     b9c:	54524155 	ldrbpl	r4, [r2], #-341	; 0xfffffeab
     ba0:	4649465f 			; <UNDEFINED> instruction: 0x4649465f
     ba4:	454c5f4f 	strbmi	r5, [ip, #-3919]	; 0xfffff0b1
     ba8:	5f4c4556 	svcpl	0x004c4556
     bac:	65003432 	strvs	r3, [r0, #-1074]	; 0xfffffbce
     bb0:	796c7261 	stmdbvc	ip!, {r0, r5, r6, r9, ip, sp, lr}^
     bb4:	756d6d5f 	strbvc	r6, [sp, #-3423]!	; 0xfffff2a1
     bb8:	6e6f635f 	mcrvs	3, 3, r6, cr15, cr15, {2}
     bbc:	00676966 	rsbeq	r6, r7, r6, ror #18
     bc0:	454d4954 	strbmi	r4, [sp, #-2388]	; 0xfffff6ac
     bc4:	52545f52 	subspl	r5, r4, #328	; 0x148
     bc8:	45474749 	strbmi	r4, [r7, #-1865]	; 0xfffff8b7
     bcc:	4f435f52 	svcmi	0x00435f52
     bd0:	5241504d 	subpl	r5, r1, #77	; 0x4d
     bd4:	61700045 	cmnvs	r0, r5, asr #32
     bd8:	625f6567 	subsvs	r6, pc, #432013312	; 0x19c00000
     bdc:	00657361 	rsbeq	r7, r5, r1, ror #6
     be0:	76726473 			; <UNDEFINED> instruction: 0x76726473
     be4:	7261755f 	rsbvc	r7, r1, #398458880	; 0x17c00000
     be8:	6f635f74 	svcvs	0x00635f74
     bec:	6769666e 	strbvs	r6, [r9, -lr, ror #12]!
     bf0:	7079745f 	rsbsvc	r7, r9, pc, asr r4
     bf4:	64730065 	ldrbtvs	r0, [r3], #-101	; 0xffffff9b
     bf8:	755f7672 	ldrbvc	r7, [pc, #-1650]	; 58e <SYS_MODE+0x56f>
     bfc:	5f747261 	svcpl	0x00747261
     c00:	706f7473 	rsbvc	r7, pc, r3, ror r4	; <UNPREDICTABLE>
     c04:	73746962 	cmnvc	r4, #1605632	; 0x188000
     c08:	7079745f 	rsbsvc	r7, r9, pc, asr r4
     c0c:	41550065 	cmpmi	r5, r5, rrx
     c10:	465f5452 			; <UNDEFINED> instruction: 0x465f5452
     c14:	5f4f4649 	svcpl	0x004f4649
     c18:	4556454c 	ldrbmi	r4, [r6, #-1356]	; 0xfffffab4
     c1c:	36315f4c 	ldrtcc	r5, [r1], -ip, asr #30
     c20:	72647300 	rsbvc	r7, r4, #0, 6
     c24:	61755f76 	cmnvs	r5, r6, ror pc
     c28:	705f7472 	subsvc	r7, pc, r2, ror r4	; <UNPREDICTABLE>
     c2c:	74697261 	strbtvc	r7, [r9], #-609	; 0xfffffd9f
     c30:	79745f79 	ldmdbvc	r4!, {r0, r3, r4, r5, r6, r8, r9, sl, fp, ip, lr}^
     c34:	72006570 	andvc	r6, r0, #112, 10	; 0x1c000000
     c38:	69665f78 	stmdbvs	r6!, {r3, r4, r5, r6, r8, r9, sl, fp, ip, lr}^
     c3c:	6c5f6f66 	mrrcvs	15, 6, r6, pc, cr6	; <UNPREDICTABLE>
     c40:	6c657665 	stclvs	6, cr7, [r5], #-404	; 0xfffffe6c
     c44:	52415500 	subpl	r5, r1, #0, 10
     c48:	41505f54 	cmpmi	r0, r4, asr pc
     c4c:	59544952 	ldmdbpl	r4, {r1, r4, r6, r8, fp, lr}^
     c50:	44444f5f 	strbmi	r4, [r4], #-3935	; 0xfffff0a1
     c54:	66656400 	strbtvs	r6, [r5], -r0, lsl #8
     c58:	746c7561 	strbtvc	r7, [ip], #-1377	; 0xfffffa9f
     c5c:	7261755f 	rsbvc	r7, r1, #398458880	; 0x17c00000
     c60:	49540074 	ldmdbmi	r4, {r2, r4, r5, r6}^
     c64:	5f52454d 	svcpl	0x0052454d
     c68:	45544e49 	ldrbmi	r4, [r4, #-3657]	; 0xfffff1b7
     c6c:	50555252 	subspl	r5, r5, r2, asr r2
     c70:	43545f54 	cmpmi	r4, #84, 30	; 0x150
     c74:	55005241 	strpl	r5, [r0, #-577]	; 0xfffffdbf
     c78:	5f545241 	svcpl	0x00545241
     c7c:	44524f57 	ldrbmi	r4, [r2], #-3927	; 0xfffff0a9
     c80:	474e454c 	strbmi	r4, [lr, -ip, asr #10]
     c84:	365f4854 			; <UNDEFINED> instruction: 0x365f4854
     c88:	5449425f 	strbpl	r4, [r9], #-607	; 0xfffffda1
     c8c:	74610053 	strbtvc	r0, [r1], #-83	; 0xffffffad
     c90:	62697274 	rsbvs	r7, r9, #116, 4	; 0x40000007
     c94:	00657475 	rsbeq	r7, r5, r5, ror r4
     c98:	454d4954 	strbmi	r4, [sp, #-2388]	; 0xfffff6ac
     c9c:	4e495f52 	mcrmi	15, 2, r5, cr9, cr2, {2}
     ca0:	52524554 	subspl	r4, r2, #84, 10	; 0x15000000
     ca4:	5f545055 	svcpl	0x00545055
     ca8:	0054414d 	subseq	r4, r4, sp, asr #2
     cac:	6f666966 	svcvs	0x00666966
     cb0:	616e655f 	cmnvs	lr, pc, asr r5
     cb4:	00656c62 	rsbeq	r6, r5, r2, ror #24
     cb8:	64756162 	ldrbtvs	r6, [r5], #-354	; 0xfffffe9e
     cbc:	65746172 	ldrbvs	r6, [r4, #-370]!	; 0xfffffe8e
     cc0:	6f747300 	svcvs	0x00747300
     cc4:	74696270 	strbtvc	r6, [r9], #-624	; 0xfffffd90
     cc8:	41550073 	cmpmi	r5, r3, ror r0
     ccc:	505f5452 	subspl	r5, pc, r2, asr r4	; <UNPREDICTABLE>
     cd0:	54495241 	strbpl	r5, [r9], #-577	; 0xfffffdbf
     cd4:	56455f59 			; <UNDEFINED> instruction: 0x56455f59
     cd8:	5f004e45 	svcpl	0x00004e45
     cdc:	63747570 	cmnvs	r4, #112, 10	; 0x1c000000
     ce0:	00726168 	rsbseq	r6, r2, r8, ror #2
     ce4:	76726473 			; <UNDEFINED> instruction: 0x76726473
     ce8:	6974645f 	ldmdbvs	r4!, {r0, r1, r2, r3, r4, r6, sl, sp, lr}^
     cec:	5f72656d 	svcpl	0x0072656d
     cf0:	67697274 			; <UNDEFINED> instruction: 0x67697274
     cf4:	5f726567 	svcpl	0x00726567
     cf8:	65646f6d 	strbvs	r6, [r4, #-3949]!	; 0xfffff093
     cfc:	52415500 	subpl	r5, r1, #0, 10
     d00:	4f575f54 	svcmi	0x00575f54
     d04:	454c4452 	strbmi	r4, [ip, #-1106]	; 0xfffffbae
     d08:	4854474e 	ldmdami	r4, {r1, r2, r3, r6, r8, r9, sl, lr}^
     d0c:	425f375f 	subsmi	r3, pc, #24903680	; 0x17c0000
     d10:	00535449 	subseq	r5, r3, r9, asr #8
     d14:	665f6170 			; <UNDEFINED> instruction: 0x665f6170
     d18:	656d6172 	strbvs	r6, [sp, #-370]!	; 0xfffffe8e
     d1c:	52415500 	subpl	r5, r1, #0, 10
     d20:	41505f54 	cmpmi	r0, r4, asr pc
     d24:	59544952 	ldmdbpl	r4, {r1, r4, r6, r8, fp, lr}^
     d28:	004f4e5f 	subeq	r4, pc, pc, asr lr	; <UNPREDICTABLE>
     d2c:	6c626174 	stfvse	f6, [r2], #-464	; 0xfffffe30
     d30:	72665f65 	rsbvc	r5, r6, #404	; 0x194
     d34:	00656d61 	rsbeq	r6, r5, r1, ror #26
     d38:	54524155 	ldrbpl	r4, [r2], #-341	; 0xfffffeab
     d3c:	4649465f 			; <UNDEFINED> instruction: 0x4649465f
     d40:	454c5f4f 	strbmi	r5, [ip, #-3919]	; 0xfffff0b1
     d44:	5f4c4556 	svcpl	0x004c4556
     d48:	70003633 	andvc	r3, r0, r3, lsr r6
     d4c:	74697261 	strbtvc	r7, [r9], #-609	; 0xfffffd9f
     d50:	49540079 	ldmdbmi	r4, {r0, r3, r4, r5, r6}^
     d54:	5f52454d 	svcpl	0x0052454d
     d58:	47495254 	smlsldmi	r5, r9, r4, r2
     d5c:	5f524547 	svcpl	0x00524547
     d60:	4f4c4552 	svcmi	0x004c4552
     d64:	74004441 	strvc	r4, [r0], #-1089	; 0xfffffbbf
     d68:	656c6261 	strbvs	r6, [ip, #-609]!	; 0xfffffd9f
     d6c:	7361625f 	cmnvc	r1, #-268435451	; 0xf0000005
     d70:	682f0065 	stmdavs	pc!, {r0, r2, r5, r6}	; <UNPREDICTABLE>
     d74:	2f656d6f 	svccs	0x00656d6f
     d78:	696c7a63 	stmdbvs	ip!, {r0, r1, r5, r6, r9, fp, ip, sp, lr}^
     d7c:	632f786d 			; <UNDEFINED> instruction: 0x632f786d
     d80:	7365646f 	cmnvc	r5, #1862270976	; 0x6f000000
     d84:	65636170 	strbvs	r6, [r3, #-368]!	; 0xfffffe90
     d88:	6d65742f 	cfstrdvs	mvd7, [r5, #-188]!	; 0xffffff44
     d8c:	61622f70 	smcvs	8944	; 0x22f0
     d90:	656d6572 	strbvs	r6, [sp, #-1394]!	; 0xfffffa8e
     d94:	5f6c6174 	svcpl	0x006c6174
     d98:	5f726f66 	svcpl	0x00726f66
     d9c:	6f632f63 	svcvs	0x00632f63
     da0:	622f6564 	eorvs	r6, pc, #100, 10	; 0x19000000
     da4:	6472616f 	ldrbtvs	r6, [r2], #-367	; 0xfffffe91
     da8:	336d612f 	cmncc	sp, #-1073741813	; 0xc000000b
     dac:	2f383533 	svccs	0x00383533
     db0:	72797274 	rsbsvc	r7, r9, #116, 4	; 0x40000007
     db4:	2f736f74 	svccs	0x00736f74
     db8:	2f637273 	svccs	0x00637273
     dbc:	72616f62 	rsbvc	r6, r1, #392	; 0x188
     dc0:	6e695f64 	cdpvs	15, 6, cr5, cr9, cr4, {3}
     dc4:	632e7469 			; <UNDEFINED> instruction: 0x632e7469
     dc8:	79727400 	ldmdbvc	r2!, {sl, ip, sp, lr}^
     dcc:	736f7472 	cmnvc	pc, #1912602624	; 0x72000000
     dd0:	7268745f 	rsbvc	r7, r8, #1593835520	; 0x5f000000
     dd4:	5f646165 	svcpl	0x00646165
     dd8:	74735f34 	ldrbtvc	r5, [r3], #-3892	; 0xfffff0cc
     ddc:	006b6361 	rsbeq	r6, fp, r1, ror #6
     de0:	616c6564 	cmnvs	ip, r4, ror #10
     de4:	69745f79 	ldmdbvs	r4!, {r0, r3, r4, r5, r6, r8, r9, sl, fp, ip, lr}^
     de8:	74006b63 	strvc	r6, [r0], #-2915	; 0xfffff49d
     dec:	74727972 	ldrbtvc	r7, [r2], #-2418	; 0xfffff68e
     df0:	735f736f 	cmpvc	pc, #-1140850687	; 0xbc000001
     df4:	65746174 	ldrbvs	r6, [r4, #-372]!	; 0xfffffe8c
     df8:	7079745f 	rsbsvc	r7, r9, pc, asr r4
     dfc:	74730065 	ldrbtvc	r0, [r3], #-101	; 0xffffff9b
     e00:	00657461 	rsbeq	r7, r5, r1, ror #8
     e04:	63617473 	cmnvs	r1, #1929379840	; 0x73000000
     e08:	656c5f6b 	strbvs	r5, [ip, #-3947]!	; 0xfffff095
     e0c:	6475006e 	ldrbtvs	r0, [r5], #-110	; 0xffffff92
     e10:	79616c65 	stmdbvc	r1!, {r0, r2, r5, r6, sl, fp, sp, lr}^
     e14:	69616d00 	stmdbvs	r1!, {r8, sl, fp, sp, lr}^
     e18:	5254006e 	subspl	r0, r4, #110	; 0x6e
     e1c:	4f545259 	svcmi	0x00545259
     e20:	48545f53 	ldmdami	r4, {r0, r1, r4, r6, r8, r9, sl, fp, ip, lr}^
     e24:	44414552 	strbmi	r4, [r1], #-1362	; 0xfffffaae
     e28:	494e555f 	stmdbmi	lr, {r0, r1, r2, r3, r4, r6, r8, sl, ip, lr}^
     e2c:	0054494e 	subseq	r4, r4, lr, asr #18
     e30:	746e6975 	strbtvc	r6, [lr], #-2421	; 0xfffff68b
     e34:	00745f38 	rsbseq	r5, r4, r8, lsr pc
     e38:	72797274 	rsbsvc	r7, r9, #116, 4	; 0x40000007
     e3c:	5f736f74 	svcpl	0x00736f74
     e40:	65726874 	ldrbvs	r6, [r2, #-2164]!	; 0xfffff78c
     e44:	305f6461 	subscc	r6, pc, r1, ror #8
     e48:	746e655f 	strbtvc	r6, [lr], #-1375	; 0xfffffaa1
     e4c:	73007972 	movwvc	r7, #2418	; 0x972
     e50:	5f767264 	svcpl	0x00767264
     e54:	656d6974 	strbvs	r6, [sp, #-2420]!	; 0xfffff68c
     e58:	6e695f72 	mcrvs	15, 3, r5, cr9, cr2, {3}
     e5c:	685f6374 	ldmdavs	pc, {r2, r4, r5, r6, r8, r9, sp, lr}^	; <UNPREDICTABLE>
     e60:	6c646e61 	stclvs	14, cr6, [r4], #-388	; 0xfffffe7c
     e64:	73007265 	movwvc	r7, #613	; 0x265
     e68:	6b636174 	blvs	18d9440 <SYS_MODE+0x18d9421>
     e6c:	646e655f 	strbtvs	r6, [lr], #-1375	; 0xfffffaa1
     e70:	79727400 	ldmdbvc	r2!, {sl, ip, sp, lr}^
     e74:	736f7472 	cmnvc	pc, #1912602624	; 0x72000000
     e78:	7268745f 	rsbvc	r7, r8, #1593835520	; 0x5f000000
     e7c:	5f646165 	svcpl	0x00646165
     e80:	6e655f32 	mcrvs	15, 3, r5, cr5, cr2, {1}
     e84:	00797274 	rsbseq	r7, r9, r4, ror r2
     e88:	72797274 	rsbsvc	r7, r9, #116, 4	; 0x40000007
     e8c:	5f736f74 	svcpl	0x00736f74
     e90:	65726874 	ldrbvs	r6, [r2, #-2164]!	; 0xfffff78c
     e94:	745f6461 	ldrbvc	r6, [pc], #-1121	; e9c <SYS_MODE+0xe7d>
     e98:	00657079 	rsbeq	r7, r5, r9, ror r0
     e9c:	72797274 	rsbsvc	r7, r9, #116, 4	; 0x40000007
     ea0:	5f736f74 	svcpl	0x00736f74
     ea4:	65726874 	ldrbvs	r6, [r2, #-2164]!	; 0xfffff78c
     ea8:	315f6461 	cmpcc	pc, r1, ror #8
     eac:	6174735f 	cmnvs	r4, pc, asr r3
     eb0:	74006b63 	strvc	r6, [r0], #-2915	; 0xfffff49d
     eb4:	74727972 	ldrbtvc	r7, [r2], #-2418	; 0xfffff68e
     eb8:	695f736f 	ldmdbvs	pc, {r0, r1, r2, r3, r5, r6, r8, r9, ip, sp, lr}^	; <UNPREDICTABLE>
     ebc:	5f656c64 	svcpl	0x00656c64
     ec0:	72746e65 	rsbsvc	r6, r4, #1616	; 0x650
     ec4:	61635f79 	smcvs	13817	; 0x35f9
     ec8:	625f6c6c 	subsvs	r6, pc, #108, 24	; 0x6c00
     ecc:	006b6361 	rsbeq	r6, fp, r1, ror #6
     ed0:	72797274 	rsbsvc	r7, r9, #116, 4	; 0x40000007
     ed4:	5f736f74 	svcpl	0x00736f74
     ed8:	65726874 	ldrbvs	r6, [r2, #-2164]!	; 0xfffff78c
     edc:	345f6461 	ldrbcc	r6, [pc], #-1121	; ee4 <SYS_MODE+0xec5>
     ee0:	746e655f 	strbtvc	r6, [lr], #-1375	; 0xfffffaa1
     ee4:	74007972 	strvc	r7, [r0], #-2418	; 0xfffff68e
     ee8:	74727972 	ldrbtvc	r7, [r2], #-2418	; 0xfffff68e
     eec:	745f736f 	ldrbvc	r7, [pc], #-879	; ef4 <SYS_MODE+0xed5>
     ef0:	61657268 	cmnvs	r5, r8, ror #4
     ef4:	5f305f64 	svcpl	0x00305f64
     ef8:	646e6168 	strbtvs	r6, [lr], #-360	; 0xfffffe98
     efc:	0072656c 	rsbseq	r6, r2, ip, ror #10
     f00:	65646f6e 	strbvs	r6, [r4, #-3950]!	; 0xfffff092
     f04:	6d616e00 	stclvs	14, cr6, [r1, #-0]
     f08:	72740065 	rsbsvc	r0, r4, #101	; 0x65
     f0c:	6f747279 	svcvs	0x00747279
     f10:	68745f73 	ldmdavs	r4!, {r0, r1, r4, r5, r6, r8, r9, sl, fp, ip, lr}^
     f14:	64616572 	strbtvs	r6, [r1], #-1394	; 0xfffffa8e
     f18:	685f315f 	ldmdavs	pc, {r0, r1, r2, r3, r4, r6, r8, ip, sp}^	; <UNPREDICTABLE>
     f1c:	6c646e61 	stclvs	14, cr6, [r4], #-388	; 0xfffffe7c
     f20:	74007265 	strvc	r7, [r0], #-613	; 0xfffffd9b
     f24:	74727972 	ldrbtvc	r7, [r2], #-2418	; 0xfffff68e
     f28:	745f736f 	ldrbvc	r7, [pc], #-879	; f30 <SYS_MODE+0xf11>
     f2c:	61657268 	cmnvs	r5, r8, ror #4
     f30:	5f335f64 	svcpl	0x00335f64
     f34:	63617473 	cmnvs	r1, #1929379840	; 0x73000000
     f38:	7274006b 	rsbsvc	r0, r4, #107	; 0x6b
     f3c:	6f747279 	svcvs	0x00747279
     f40:	68745f73 	ldmdavs	r4!, {r0, r1, r4, r5, r6, r8, r9, sl, fp, ip, lr}^
     f44:	64616572 	strbtvs	r6, [r1], #-1394	; 0xfffffa8e
     f48:	685f325f 	ldmdavs	pc, {r0, r1, r2, r3, r4, r6, r9, ip, sp}^	; <UNPREDICTABLE>
     f4c:	6c646e61 	stclvs	14, cr6, [r4], #-388	; 0xfffffe7c
     f50:	74007265 	strvc	r7, [r0], #-613	; 0xfffffd9b
     f54:	74727972 	ldrbtvc	r7, [r2], #-2418	; 0xfffff68e
     f58:	745f736f 	ldrbvc	r7, [pc], #-879	; f60 <SYS_MODE+0xf41>
     f5c:	61657268 	cmnvs	r5, r8, ror #4
     f60:	5f335f64 	svcpl	0x00335f64
     f64:	646e6168 	strbtvs	r6, [lr], #-360	; 0xfffffe98
     f68:	0072656c 	rsbseq	r6, r2, ip, ror #10
     f6c:	72797274 	rsbsvc	r7, r9, #116, 4	; 0x40000007
     f70:	5f736f74 	svcpl	0x00736f74
     f74:	65726874 	ldrbvs	r6, [r2, #-2164]!	; 0xfffff78c
     f78:	355f6461 	ldrbcc	r6, [pc, #-1121]	; b1f <SYS_MODE+0xb00>
     f7c:	6174735f 	cmnvs	r4, pc, asr r3
     f80:	74006b63 	strvc	r6, [r0], #-2915	; 0xfffff49d
     f84:	74727972 	ldrbtvc	r7, [r2], #-2418	; 0xfffff68e
     f88:	655f736f 	ldrbvs	r7, [pc, #-879]	; c21 <SYS_MODE+0xc02>
     f8c:	7972746e 	ldmdbvc	r2!, {r1, r2, r3, r5, r6, sl, ip, sp, lr}^
     f90:	79727400 	ldmdbvc	r2!, {sl, ip, sp, lr}^
     f94:	736f7472 	cmnvc	pc, #1912602624	; 0x72000000
     f98:	7268745f 	rsbvc	r7, r8, #1593835520	; 0x5f000000
     f9c:	5f646165 	svcpl	0x00646165
     fa0:	61685f34 	cmnvs	r8, r4, lsr pc
     fa4:	656c646e 	strbvs	r6, [ip, #-1134]!	; 0xfffffb92
     fa8:	6f660072 	svcvs	0x00660072
     fac:	5f6f6772 	svcpl	0x006f6772
     fb0:	6b636974 	blvs	18db588 <SYS_MODE+0x18db569>
     fb4:	79727400 	ldmdbvc	r2!, {sl, ip, sp, lr}^
     fb8:	736f7472 	cmnvc	pc, #1912602624	; 0x72000000
     fbc:	7268745f 	rsbvc	r7, r8, #1593835520	; 0x5f000000
     fc0:	5f646165 	svcpl	0x00646165
     fc4:	61685f35 	cmnvs	r8, r5, lsr pc
     fc8:	656c646e 	strbvs	r6, [ip, #-1134]!	; 0xfffffb92
     fcc:	72740072 	rsbsvc	r0, r4, #114	; 0x72
     fd0:	6f747279 	svcvs	0x00747279
     fd4:	68745f73 	ldmdavs	r4!, {r0, r1, r4, r5, r6, r8, r9, sl, fp, ip, lr}^
     fd8:	64616572 	strbtvs	r6, [r1], #-1394	; 0xfffffa8e
     fdc:	655f335f 	ldrbvs	r3, [pc, #-863]	; c85 <SYS_MODE+0xc66>
     fe0:	7972746e 	ldmdbvc	r2!, {r1, r2, r3, r5, r6, sl, ip, sp, lr}^
     fe4:	6e757200 	cdpvs	2, 7, cr7, cr5, cr0, {0}
     fe8:	676e696e 	strbvs	r6, [lr, -lr, ror #18]!
     fec:	6369745f 	cmnvs	r9, #1593835520	; 0x5f000000
     ff0:	7473006b 	ldrbtvc	r0, [r3], #-107	; 0xffffff95
     ff4:	5f6b6361 	svcpl	0x006b6361
     ff8:	00727470 	rsbseq	r7, r2, r0, ror r4
     ffc:	52595254 	subspl	r5, r9, #84, 4	; 0x40000005
    1000:	5f534f54 	svcpl	0x00534f54
    1004:	45524854 	ldrbmi	r4, [r2, #-2132]	; 0xfffff7ac
    1008:	525f4441 	subspl	r4, pc, #1090519040	; 0x41000000
    100c:	59444145 	stmdbpl	r4, {r0, r2, r6, r8, lr}^
    1010:	59525400 	ldmdbpl	r2, {sl, ip, lr}^
    1014:	534f5452 	movtpl	r5, #62546	; 0xf452
    1018:	5248545f 	subpl	r5, r8, #1593835520	; 0x5f000000
    101c:	5f444145 	svcpl	0x00444145
    1020:	414c4544 	cmpmi	ip, r4, asr #10
    1024:	682f0059 	stmdavs	pc!, {r0, r3, r4, r6}	; <UNPREDICTABLE>
    1028:	2f656d6f 	svccs	0x00656d6f
    102c:	696c7a63 	stmdbvs	ip!, {r0, r1, r5, r6, r9, fp, ip, sp, lr}^
    1030:	632f786d 			; <UNDEFINED> instruction: 0x632f786d
    1034:	7365646f 	cmnvc	r5, #1862270976	; 0x6f000000
    1038:	65636170 	strbvs	r6, [r3, #-368]!	; 0xfffffe90
    103c:	6d65742f 	cfstrdvs	mvd7, [r5, #-188]!	; 0xffffff44
    1040:	61622f70 	smcvs	8944	; 0x22f0
    1044:	656d6572 	strbvs	r6, [sp, #-1394]!	; 0xfffffa8e
    1048:	5f6c6174 	svcpl	0x006c6174
    104c:	5f726f66 	svcpl	0x00726f66
    1050:	6f632f63 	svcvs	0x00632f63
    1054:	622f6564 	eorvs	r6, pc, #100, 10	; 0x19000000
    1058:	6472616f 	ldrbtvs	r6, [r2], #-367	; 0xfffffe91
    105c:	336d612f 	cmncc	sp, #-1073741813	; 0xc000000b
    1060:	2f383533 	svccs	0x00383533
    1064:	72797274 	rsbsvc	r7, r9, #116, 4	; 0x40000007
    1068:	2f736f74 	svccs	0x00736f74
    106c:	2f637273 	svccs	0x00637273
    1070:	6e69616d 	powvsez	f6, f1, #5.0
    1074:	7400632e 	strvc	r6, [r0], #-814	; 0xfffffcd2
    1078:	74727972 	ldrbtvc	r7, [r2], #-2418	; 0xfffff68e
    107c:	745f736f 	ldrbvc	r7, [pc], #-879	; 1084 <SYS_MODE+0x1065>
    1080:	61657268 	cmnvs	r5, r8, ror #4
    1084:	5f315f64 	svcpl	0x00315f64
    1088:	72746e65 	rsbsvc	r6, r4, #1616	; 0x650
    108c:	52540079 	subspl	r0, r4, #121	; 0x79
    1090:	4f545259 	svcmi	0x00545259
    1094:	48545f53 	ldmdami	r4, {r0, r1, r4, r6, r8, r9, sl, fp, ip, lr}^
    1098:	44414552 	strbmi	r4, [r1], #-1362	; 0xfffffaae
    109c:	4e45505f 	mcrmi	0, 2, r5, cr5, cr15, {2}
    10a0:	474e4944 	strbmi	r4, [lr, -r4, asr #18]
    10a4:	79727400 	ldmdbvc	r2!, {sl, ip, sp, lr}^
    10a8:	736f7472 	cmnvc	pc, #1912602624	; 0x72000000
    10ac:	7268745f 	rsbvc	r7, r8, #1593835520	; 0x5f000000
    10b0:	5f646165 	svcpl	0x00646165
    10b4:	74735f30 	ldrbtvc	r5, [r3], #-3888	; 0xfffff0d0
    10b8:	006b6361 	rsbeq	r6, fp, r1, ror #6
    10bc:	706d6574 	rsbvc	r6, sp, r4, ror r5
    10c0:	7261726f 	rsbvc	r7, r1, #-268435450	; 0xf0000006
    10c4:	72705f79 	rsbsvc	r5, r0, #484	; 0x1e4
    10c8:	69726f69 	ldmdbvs	r2!, {r0, r3, r5, r6, r8, r9, sl, fp, sp, lr}^
    10cc:	73007974 	movwvc	r7, #2420	; 0x974
    10d0:	6b636174 	blvs	18d96a8 <SYS_MODE+0x18d9689>
    10d4:	706f745f 	rsbvc	r7, pc, pc, asr r4	; <UNPREDICTABLE>
    10d8:	59525400 	ldmdbpl	r2, {sl, ip, lr}^
    10dc:	534f5452 	movtpl	r5, #62546	; 0xf452
    10e0:	5248545f 	subpl	r5, r8, #1593835520	; 0x5f000000
    10e4:	5f444145 	svcpl	0x00444145
    10e8:	4e4e5552 	mcrmi	5, 2, r5, cr14, cr2, {2}
    10ec:	00474e49 	subeq	r4, r7, r9, asr #28
    10f0:	72797274 	rsbsvc	r7, r9, #116, 4	; 0x40000007
    10f4:	5f736f74 	svcpl	0x00736f74
    10f8:	65726874 	ldrbvs	r6, [r2, #-2164]!	; 0xfffff78c
    10fc:	325f6461 	subscc	r6, pc, #1627389952	; 0x61000000
    1100:	6174735f 	cmnvs	r4, pc, asr r3
    1104:	74006b63 	strvc	r6, [r0], #-2915	; 0xfffff49d
    1108:	74727972 	ldrbtvc	r7, [r2], #-2418	; 0xfffff68e
    110c:	745f736f 	ldrbvc	r7, [pc], #-879	; 1114 <SYS_MODE+0x10f5>
    1110:	61657268 	cmnvs	r5, r8, ror #4
    1114:	5f355f64 	svcpl	0x00355f64
    1118:	72746e65 	rsbsvc	r6, r4, #1616	; 0x650
    111c:	52540079 	subspl	r0, r4, #121	; 0x79
    1120:	4f545259 	svcmi	0x00545259
    1124:	48545f53 	ldmdami	r4, {r0, r1, r4, r6, r8, r9, sl, fp, ip, lr}^
    1128:	44414552 	strbmi	r4, [r1], #-1362	; 0xfffffaae
    112c:	5345445f 	movtpl	r4, #21599	; 0x545f
    1130:	594f5254 	stmdbpl	pc, {r2, r4, r6, r9, ip, lr}^	; <UNPREDICTABLE>
    1134:	72647300 	rsbvc	r7, r4, #0, 6
    1138:	72695f76 	rsbvc	r5, r9, #472	; 0x1d8
    113c:	6e695f71 	mcrvs	15, 3, r5, cr9, cr1, {3}
    1140:	67007469 	strvs	r7, [r0, -r9, ror #8]
    1144:	70756f72 	rsbsvc	r6, r5, r2, ror pc
    1148:	72647300 	rsbvc	r7, r4, #0, 6
    114c:	72695f76 	rsbvc	r5, r9, #472	; 0x1d8
    1150:	69645f71 	stmdbvs	r4!, {r0, r4, r5, r6, r8, r9, sl, fp, ip, lr}^
    1154:	6c626173 	stfvse	f6, [r2], #-460	; 0xfffffe34
    1158:	64730065 	ldrbtvs	r0, [r3], #-101	; 0xffffff9b
    115c:	695f7672 	ldmdbvs	pc, {r1, r4, r5, r6, r9, sl, ip, sp, lr}^	; <UNPREDICTABLE>
    1160:	635f7172 	cmpvs	pc, #-2147483620	; 0x8000001c
    1164:	7261656c 	rsbvc	r6, r1, #108, 10	; 0x1b000000
    1168:	6174735f 	cmnvs	r4, pc, asr r3
    116c:	00737574 	rsbseq	r7, r3, r4, ror r5
    1170:	76726473 			; <UNDEFINED> instruction: 0x76726473
    1174:	7172695f 	cmnvc	r2, pc, asr r9
    1178:	616e655f 	cmnvs	lr, pc, asr r5
    117c:	00656c62 	rsbeq	r6, r5, r2, ror #24
    1180:	76726473 			; <UNDEFINED> instruction: 0x76726473
    1184:	7172695f 	cmnvc	r2, pc, asr r9
    1188:	7465735f 	strbtvc	r7, [r5], #-863	; 0xfffffca1
    118c:	6972705f 	ldmdbvs	r2!, {r0, r1, r2, r3, r4, r6, ip, sp, lr}^
    1190:	7469726f 	strbtvc	r7, [r9], #-623	; 0xfffffd91
    1194:	79730079 	ldmdbvc	r3!, {r0, r3, r4, r5, r6}^
    1198:	6e6f6373 	mcrvs	3, 3, r6, cr15, cr3, {3}
    119c:	00676966 	rsbeq	r6, r7, r6, ror #18
    11a0:	6d6f682f 	stclvs	8, cr6, [pc, #-188]!	; 10ec <SYS_MODE+0x10cd>
    11a4:	7a632f65 	bvc	18ccf40 <SYS_MODE+0x18ccf21>
    11a8:	786d696c 	stmdavc	sp!, {r2, r3, r5, r6, r8, fp, sp, lr}^
    11ac:	646f632f 	strbtvs	r6, [pc], #-815	; 11b4 <SYS_MODE+0x1195>
    11b0:	61707365 	cmnvs	r0, r5, ror #6
    11b4:	742f6563 	strtvc	r6, [pc], #-1379	; 11bc <SYS_MODE+0x119d>
    11b8:	2f706d65 	svccs	0x00706d65
    11bc:	65726162 	ldrbvs	r6, [r2, #-354]!	; 0xfffffe9e
    11c0:	6174656d 	cmnvs	r4, sp, ror #10
    11c4:	6f665f6c 	svcvs	0x00665f6c
    11c8:	2f635f72 	svccs	0x00635f72
    11cc:	65646f63 	strbvs	r6, [r4, #-3939]!	; 0xfffff09d
    11d0:	6972642f 	ldmdbvs	r2!, {r0, r1, r2, r3, r5, sl, sp, lr}^
    11d4:	2f726576 	svccs	0x00726576
    11d8:	33336d61 	teqcc	r3, #6208	; 0x1840
    11dc:	732f7835 			; <UNDEFINED> instruction: 0x732f7835
    11e0:	732f6372 			; <UNDEFINED> instruction: 0x732f6372
    11e4:	5f767264 	svcpl	0x00767264
    11e8:	63746e69 	cmnvs	r4, #1680	; 0x690
    11ec:	632e635f 			; <UNDEFINED> instruction: 0x632e635f
    11f0:	72647300 	rsbvc	r7, r4, #0, 6
    11f4:	72695f76 	rsbvc	r5, r9, #472	; 0x1d8
    11f8:	72745f71 	rsbsvc	r5, r4, #452	; 0x1c4
    11fc:	65676769 	strbvs	r6, [r7, #-1897]!	; 0xfffff897
    1200:	682f0072 	stmdavs	pc!, {r1, r4, r5, r6}	; <UNPREDICTABLE>
    1204:	2f656d6f 	svccs	0x00656d6f
    1208:	696c7a63 	stmdbvs	ip!, {r0, r1, r5, r6, r9, fp, ip, sp, lr}^
    120c:	632f786d 			; <UNDEFINED> instruction: 0x632f786d
    1210:	7365646f 	cmnvc	r5, #1862270976	; 0x6f000000
    1214:	65636170 	strbvs	r6, [r3, #-368]!	; 0xfffffe90
    1218:	6d65742f 	cfstrdvs	mvd7, [r5, #-188]!	; 0xffffff44
    121c:	61622f70 	smcvs	8944	; 0x22f0
    1220:	656d6572 	strbvs	r6, [sp, #-1394]!	; 0xfffffa8e
    1224:	5f6c6174 	svcpl	0x006c6174
    1228:	5f726f66 	svcpl	0x00726f66
    122c:	6f632f63 	svcvs	0x00632f63
    1230:	642f6564 	strtvs	r6, [pc], #-1380	; 1238 <SYS_MODE+0x1219>
    1234:	65766972 	ldrbvs	r6, [r6, #-2418]!	; 0xfffff68e
    1238:	6d612f72 	stclvs	15, cr2, [r1, #-456]!	; 0xfffffe38
    123c:	78353333 	ldmdavc	r5!, {r0, r1, r4, r5, r8, r9, ip, sp}
    1240:	6372732f 	cmnvs	r2, #-1140850688	; 0xbc000000
    1244:	7264732f 	rsbvc	r7, r4, #-1140850688	; 0xbc000000
    1248:	6e695f76 	mcrvs	15, 3, r5, cr9, cr6, {3}
    124c:	735f6374 	cmpvc	pc, #116, 6	; 0xd0000001
    1250:	7300732e 	movwvc	r7, #814	; 0x32e
    1254:	5f767264 	svcpl	0x00767264
    1258:	74726175 	ldrbtvc	r6, [r2], #-373	; 0xfffffe8b
    125c:	696e695f 	stmdbvs	lr!, {r0, r1, r2, r3, r4, r6, r8, fp, sp, lr}^
    1260:	6c6f0074 	stclvs	0, cr0, [pc], #-464	; 1098 <SYS_MODE+0x1079>
    1264:	636c5f64 	cmnvs	ip, #100, 30	; 0x190
    1268:	64730072 	ldrbtvs	r0, [r3], #-114	; 0xffffff8e
    126c:	755f7672 	ldrbvc	r7, [pc, #-1650]	; c02 <SYS_MODE+0xbe3>
    1270:	5f747261 	svcpl	0x00747261
    1274:	666e6f63 	strbtvs	r6, [lr], -r3, ror #30
    1278:	72756769 	rsbsvc	r6, r5, #27525120	; 0x1a40000
    127c:	72705f65 	rsbsvc	r5, r0, #404	; 0x194
    1280:	636f746f 	cmnvs	pc, #1862270976	; 0x6f000000
    1284:	64006c6f 	strvs	r6, [r0], #-3183	; 0xfffff391
    1288:	00617461 	rsbeq	r7, r1, r1, ror #8
    128c:	76746572 			; <UNDEFINED> instruction: 0x76746572
    1290:	6f006c61 	svcvs	0x00006c61
    1294:	655f646c 	ldrbvs	r6, [pc, #-1132]	; e30 <SYS_MODE+0xe11>
    1298:	75007266 	strvc	r7, [r0, #-614]	; 0xfffffd9a
    129c:	5f747261 	svcpl	0x00747261
    12a0:	64756162 	ldrbtvs	r6, [r5], #-354	; 0xfffffe9e
    12a4:	65746172 	ldrbvs	r6, [r4, #-370]!	; 0xfffffe8e
    12a8:	7272615f 	rsbsvc	r6, r2, #-1073741801	; 0xc0000017
    12ac:	6f007961 	svcvs	0x00007961
    12b0:	6d5f646c 	cfldrdvs	mvd6, [pc, #-432]	; 1108 <SYS_MODE+0x10e9>
    12b4:	73007263 	movwvc	r7, #611	; 0x263
    12b8:	5f767264 	svcpl	0x00767264
    12bc:	74726175 	ldrbtvc	r6, [r2], #-373	; 0xfffffe8b
    12c0:	6e65735f 	mcrvs	3, 3, r7, cr5, cr15, {2}
    12c4:	61620064 	cmnvs	r2, r4, rrx
    12c8:	615f6573 	cmpvs	pc, r3, ror r5	; <UNPREDICTABLE>
    12cc:	65726464 	ldrbvs	r6, [r2, #-1124]!	; 0xfffffb9c
    12d0:	2f007373 	svccs	0x00007373
    12d4:	656d6f68 	strbvs	r6, [sp, #-3944]!	; 0xfffff098
    12d8:	6c7a632f 	ldclvs	3, cr6, [sl], #-188	; 0xffffff44
    12dc:	2f786d69 	svccs	0x00786d69
    12e0:	65646f63 	strbvs	r6, [r4, #-3939]!	; 0xfffff09d
    12e4:	63617073 	cmnvs	r1, #115	; 0x73
    12e8:	65742f65 	ldrbvs	r2, [r4, #-3941]!	; 0xfffff09b
    12ec:	622f706d 	eorvs	r7, pc, #109	; 0x6d
    12f0:	6d657261 	sfmvs	f7, 2, [r5, #-388]!	; 0xfffffe7c
    12f4:	6c617465 	cfstrdvs	mvd7, [r1], #-404	; 0xfffffe6c
    12f8:	726f665f 	rsbvc	r6, pc, #99614720	; 0x5f00000
    12fc:	632f635f 			; <UNDEFINED> instruction: 0x632f635f
    1300:	2f65646f 	svccs	0x0065646f
    1304:	76697264 	strbtvc	r7, [r9], -r4, ror #4
    1308:	612f7265 			; <UNDEFINED> instruction: 0x612f7265
    130c:	3533336d 	ldrcc	r3, [r3, #-877]!	; 0xfffffc93
    1310:	72732f78 	rsbsvc	r2, r3, #120, 30	; 0x1e0
    1314:	64732f63 	ldrbtvs	r2, [r3], #-3939	; 0xfffff09d
    1318:	755f7672 	ldrbvc	r7, [pc, #-1650]	; cae <SYS_MODE+0xc8f>
    131c:	2e747261 	cdpcs	2, 7, cr7, cr4, cr1, {3}
    1320:	64730063 	ldrbtvs	r0, [r3], #-99	; 0xffffff9d
    1324:	755f7672 	ldrbvc	r7, [pc, #-1650]	; cba <SYS_MODE+0xc9b>
    1328:	5f747261 	svcpl	0x00747261
    132c:	64756162 	ldrbtvs	r6, [r5], #-354	; 0xfffffe9e
    1330:	65746172 	ldrbvs	r6, [r4, #-370]!	; 0xfffffe8e
    1334:	7079745f 	rsbsvc	r7, r9, pc, asr r4
    1338:	64730065 	ldrbtvs	r0, [r3], #-101	; 0xffffff9b
    133c:	755f7672 	ldrbvc	r7, [pc, #-1650]	; cd2 <SYS_MODE+0xcb3>
    1340:	5f747261 	svcpl	0x00747261
    1344:	666e6f63 	strbtvs	r6, [lr], -r3, ror #30
    1348:	72756769 	rsbsvc	r6, r5, #27525120	; 0x1a40000
    134c:	69665f65 	stmdbvs	r6!, {r0, r2, r5, r6, r8, r9, sl, fp, ip, lr}^
    1350:	615f6f66 	cmpvs	pc, r6, ror #30
    1354:	645f646e 	ldrbvs	r6, [pc], #-1134	; 135c <SYS_MODE+0x133d>
    1358:	6e00616d 	adfvssz	f6, f0, #5.0
    135c:	65626d75 	strbvs	r6, [r2, #-3445]!	; 0xfffff28b
    1360:	64730072 	ldrbtvs	r0, [r3], #-114	; 0xffffff8e
    1364:	755f7672 	ldrbvc	r7, [pc, #-1650]	; cfa <SYS_MODE+0xcdb>
    1368:	5f747261 	svcpl	0x00747261
    136c:	646e6966 	strbtvs	r6, [lr], #-2406	; 0xfffff69a
    1370:	7461725f 	strbtvc	r7, [r1], #-607	; 0xfffffda1
    1374:	64730065 	ldrbtvs	r0, [r3], #-101	; 0xffffff9b
    1378:	755f7672 	ldrbvc	r7, [pc, #-1650]	; d0e <SYS_MODE+0xcef>
    137c:	5f747261 	svcpl	0x00747261
    1380:	65736572 	ldrbvs	r6, [r3, #-1394]!	; 0xfffffa8e
    1384:	64730074 	ldrbtvs	r0, [r3], #-116	; 0xffffff8c
    1388:	645f7672 	ldrbvs	r7, [pc], #-1650	; 1390 <SYS_MODE+0x1371>
    138c:	656d6974 	strbvs	r6, [sp, #-2420]!	; 0xfffff68c
    1390:	6f735f72 	svcvs	0x00735f72
    1394:	725f7466 	subsvc	r7, pc, #1711276032	; 0x66000000
    1398:	74657365 	strbtvc	r7, [r5], #-869	; 0xfffffc9b
    139c:	72647300 	rsbvc	r7, r4, #0, 6
    13a0:	74645f76 	strbtvc	r5, [r4], #-3958	; 0xfffff08a
    13a4:	72656d69 	rsbvc	r6, r5, #6720	; 0x1a40
    13a8:	746e695f 	strbtvc	r6, [lr], #-2399	; 0xfffff6a1
    13ac:	616e655f 	cmnvs	lr, pc, asr r5
    13b0:	00656c62 	rsbeq	r6, r5, r2, ror #24
    13b4:	76726473 			; <UNDEFINED> instruction: 0x76726473
    13b8:	6974645f 	ldmdbvs	r4!, {r0, r1, r2, r3, r4, r6, sl, sp, lr}^
    13bc:	5f72656d 	svcpl	0x0072656d
    13c0:	706d6f63 	rsbvc	r6, sp, r3, ror #30
    13c4:	5f657261 	svcpl	0x00657261
    13c8:	00746573 	rsbseq	r6, r4, r3, ror r5
    13cc:	76726473 			; <UNDEFINED> instruction: 0x76726473
    13d0:	6974645f 	ldmdbvs	r4!, {r0, r1, r2, r3, r4, r6, sl, sp, lr}^
    13d4:	5f72656d 	svcpl	0x0072656d
    13d8:	646e6570 	strbtvs	r6, [lr], #-1392	; 0xfffffa90
    13dc:	6174735f 	cmnvs	r4, pc, asr r3
    13e0:	00737574 	rsbseq	r7, r3, r4, ror r5
    13e4:	454d4954 	strbmi	r4, [sp, #-2388]	; 0xfffff6ac
    13e8:	5f575f52 	svcpl	0x00575f52
    13ec:	444e4550 	strbmi	r4, [lr], #-1360	; 0xfffffab0
    13f0:	444c545f 	strbmi	r5, [ip], #-1119	; 0xfffffba1
    13f4:	64730052 	ldrbtvs	r0, [r3], #-82	; 0xffffffae
    13f8:	645f7672 	ldrbvs	r7, [pc], #-1650	; 1400 <SYS_MODE+0x13e1>
    13fc:	656d6974 	strbvs	r6, [sp, #-2420]!	; 0xfffff68c
    1400:	6e695f72 	mcrvs	15, 3, r5, cr9, cr2, {3}
    1404:	74735f74 	ldrbtvc	r5, [r3], #-3956	; 0xfffff08c
    1408:	73757461 	cmnvc	r5, #1627389952	; 0x61000000
    140c:	656c635f 	strbvs	r6, [ip, #-863]!	; 0xfffffca1
    1410:	61007261 	tstvs	r0, r1, ror #4
    1414:	00726464 	rsbseq	r6, r2, r4, ror #8
    1418:	454d4954 	strbmi	r4, [sp, #-2388]	; 0xfffff6ac
    141c:	5f575f52 	svcpl	0x00575f52
    1420:	444e4550 	strbmi	r4, [lr], #-1360	; 0xfffffab0
    1424:	4c43545f 	cfstrdmi	mvd5, [r3], {95}	; 0x5f
    1428:	6f630052 	svcvs	0x00630052
    142c:	65746e75 	ldrbvs	r6, [r4, #-3701]!	; 0xfffff18b
    1430:	64730072 	ldrbtvs	r0, [r3], #-114	; 0xffffff8e
    1434:	645f7672 	ldrbvs	r7, [pc], #-1650	; 143c <SYS_MODE+0x141d>
    1438:	656d6974 	strbvs	r6, [sp, #-2420]!	; 0xfffff68c
    143c:	6f635f72 	svcvs	0x00635f72
    1440:	65746e75 	ldrbvs	r6, [r4, #-3701]!	; 0xfffff18b
    1444:	65735f72 	ldrbvs	r5, [r3, #-3954]!	; 0xfffff08e
    1448:	49540074 	ldmdbmi	r4, {r2, r4, r5, r6}^
    144c:	5f52454d 	svcpl	0x0052454d
    1450:	45505f57 	ldrbmi	r5, [r0, #-3927]	; 0xfffff0a9
    1454:	545f444e 	ldrbpl	r4, [pc], #-1102	; 145c <SYS_MODE+0x143d>
    1458:	0050414d 	subseq	r4, r0, sp, asr #2
    145c:	6f6c6572 	svcvs	0x006c6572
    1460:	73006461 	movwvc	r6, #1121	; 0x461
    1464:	74726174 	ldrbtvc	r6, [r2], #-372	; 0xfffffe8c
    1468:	00746962 	rsbseq	r6, r4, r2, ror #18
    146c:	454d4954 	strbmi	r4, [sp, #-2388]	; 0xfffff6ac
    1470:	5f575f52 	svcpl	0x00575f52
    1474:	444e4550 	strbmi	r4, [lr], #-1360	; 0xfffffab0
    1478:	5243545f 	subpl	r5, r3, #1593835520	; 0x5f000000
    147c:	64730052 	ldrbtvs	r0, [r3], #-82	; 0xffffffae
    1480:	645f7672 	ldrbvs	r7, [pc], #-1650	; 1488 <SYS_MODE+0x1469>
    1484:	656d6974 	strbvs	r6, [sp, #-2420]!	; 0xfffff68c
    1488:	69645f72 	stmdbvs	r4!, {r1, r4, r5, r6, r8, r9, sl, fp, ip, lr}^
    148c:	6c626173 	stfvse	f6, [r2], #-460	; 0xfffffe34
    1490:	49540065 	ldmdbmi	r4, {r0, r2, r5, r6}^
    1494:	5f52454d 	svcpl	0x0052454d
    1498:	45505f57 	ldrbmi	r5, [r0, #-3927]	; 0xfffff0a9
    149c:	545f444e 	ldrbpl	r4, [pc], #-1102	; 14a4 <SYS_MODE+0x1485>
    14a0:	00524754 	subseq	r4, r2, r4, asr r7
    14a4:	72776d72 	rsbsvc	r6, r7, #7296	; 0x1c80
    14a8:	73003233 	movwvc	r3, #563	; 0x233
    14ac:	5f767264 	svcpl	0x00767264
    14b0:	6d697464 	cfstrdvs	mvd7, [r9, #-400]!	; 0xfffffe70
    14b4:	695f7265 	ldmdbvs	pc, {r0, r2, r5, r6, r9, ip, sp, lr}^	; <UNPREDICTABLE>
    14b8:	645f746e 	ldrbvs	r7, [pc], #-1134	; 14c0 <SYS_MODE+0x14a1>
    14bc:	62617369 	rsbvs	r7, r1, #-1543503871	; 0xa4000001
    14c0:	7300656c 	movwvc	r6, #1388	; 0x56c
    14c4:	5f767264 	svcpl	0x00767264
    14c8:	6d697464 	cfstrdvs	mvd7, [r9, #-400]!	; 0xfffffe70
    14cc:	705f7265 	subsvc	r7, pc, r5, ror #4
    14d0:	63736572 	cmnvs	r3, #478150656	; 0x1c800000
    14d4:	72656c61 	rsbvc	r6, r5, #24832	; 0x6100
    14d8:	6b6c635f 	blvs	1b1a25c <SYS_MODE+0x1b1a23d>
    14dc:	7369645f 	cmnvc	r9, #1593835520	; 0x5f000000
    14e0:	656c6261 	strbvs	r6, [ip, #-609]!	; 0xfffffd9f
    14e4:	72647300 	rsbvc	r7, r4, #0, 6
    14e8:	74645f76 	strbtvc	r5, [r4], #-3958	; 0xfffff08a
    14ec:	72656d69 	rsbvc	r6, r5, #6720	; 0x1a40
    14f0:	6572705f 	ldrbvs	r7, [r2, #-95]!	; 0xffffffa1
    14f4:	6c616373 	stclvs	3, cr6, [r1], #-460	; 0xfffffe34
    14f8:	635f7265 	cmpvs	pc, #1342177286	; 0x50000006
    14fc:	655f6b6c 	ldrbvs	r6, [pc, #-2924]	; 998 <SYS_MODE+0x979>
    1500:	6c62616e 	stfvse	f6, [r2], #-440	; 0xfffffe48
    1504:	64730065 	ldrbtvs	r0, [r3], #-101	; 0xffffff9b
    1508:	645f7672 	ldrbvs	r7, [pc], #-1650	; 1510 <SYS_MODE+0x14f1>
    150c:	656d6974 	strbvs	r6, [sp, #-2420]!	; 0xfffff68c
    1510:	6f6d5f72 	svcvs	0x006d5f72
    1514:	635f6564 	cmpvs	pc, #100, 10	; 0x19000000
    1518:	69666e6f 	stmdbvs	r6!, {r0, r1, r2, r3, r5, r6, r9, sl, fp, sp, lr}^
    151c:	65727567 	ldrbvs	r7, [r2, #-1383]!	; 0xfffffa99
    1520:	72647300 	rsbvc	r7, r4, #0, 6
    1524:	74645f76 	strbtvc	r5, [r4], #-3958	; 0xfffff08a
    1528:	72656d69 	rsbvc	r6, r5, #6720	; 0x1a40
    152c:	6961775f 	stmdbvs	r1!, {r0, r1, r2, r3, r4, r6, r8, r9, sl, ip, sp, lr}^
    1530:	6f665f74 	svcvs	0x00665f74
    1534:	72775f72 	rsbsvc	r5, r7, #456	; 0x1c8
    1538:	6c657469 	cfstrdvs	mvd7, [r5], #-420	; 0xfffffe5c
    153c:	6f682f00 	svcvs	0x00682f00
    1540:	632f656d 			; <UNDEFINED> instruction: 0x632f656d
    1544:	6d696c7a 	stclvs	12, cr6, [r9, #-488]!	; 0xfffffe18
    1548:	6f632f78 	svcvs	0x00632f78
    154c:	70736564 	rsbsvc	r6, r3, r4, ror #10
    1550:	2f656361 	svccs	0x00656361
    1554:	706d6574 	rsbvc	r6, sp, r4, ror r5
    1558:	7261622f 	rsbvc	r6, r1, #-268435454	; 0xf0000002
    155c:	74656d65 	strbtvc	r6, [r5], #-3429	; 0xfffff29b
    1560:	665f6c61 	ldrbvs	r6, [pc], -r1, ror #24
    1564:	635f726f 	cmpvs	pc, #-268435450	; 0xf0000006
    1568:	646f632f 	strbtvs	r6, [pc], #-815	; 1570 <SYS_MODE+0x1551>
    156c:	72642f65 	rsbvc	r2, r4, #404	; 0x194
    1570:	72657669 	rsbvc	r7, r5, #110100480	; 0x6900000
    1574:	336d612f 	cmncc	sp, #-1073741813	; 0xc000000b
    1578:	2f783533 	svccs	0x00783533
    157c:	2f637273 	svccs	0x00637273
    1580:	76726473 			; <UNDEFINED> instruction: 0x76726473
    1584:	6d69745f 	cfstrdvs	mvd7, [r9, #-380]!	; 0xfffffe84
    1588:	632e7265 			; <UNDEFINED> instruction: 0x632e7265
    158c:	6d6f6300 	stclvs	3, cr6, [pc, #-0]	; 1594 <SYS_MODE+0x1575>
    1590:	65726170 	ldrbvs	r6, [r2, #-368]!	; 0xfffffe90
    1594:	72647300 	rsbvc	r7, r4, #0, 6
    1598:	74645f76 	strbtvc	r5, [r4], #-3958	; 0xfffff08a
    159c:	72656d69 	rsbvc	r6, r5, #6720	; 0x1a40
    15a0:	616e655f 	cmnvs	lr, pc, asr r5
    15a4:	00656c62 	rsbeq	r6, r5, r2, ror #24
    15a8:	76726473 			; <UNDEFINED> instruction: 0x76726473
    15ac:	6974645f 	ldmdbvs	r4!, {r0, r1, r2, r3, r4, r6, sl, sp, lr}^
    15b0:	5f72656d 	svcpl	0x0072656d
    15b4:	6f6c6572 	svcvs	0x006c6572
    15b8:	735f6461 	cmpvc	pc, #1627389952	; 0x61000000
    15bc:	74007465 	strvc	r7, [r0], #-1125	; 0xfffffb9b
    15c0:	74727972 	ldrbtvc	r7, [r2], #-2418	; 0xfffff68e
    15c4:	745f736f 	ldrbvc	r7, [pc], #-879	; 15cc <SYS_MODE+0x15ad>
    15c8:	5f6b6369 	svcpl	0x006b6369
    15cc:	00646461 	rsbeq	r6, r4, r1, ror #8
    15d0:	72797274 	rsbsvc	r7, r9, #116, 4	; 0x40000007
    15d4:	5f736f74 	svcpl	0x00736f74
    15d8:	6b636974 	blvs	18dbbb0 <SYS_MODE+0x18dbb91>
    15dc:	6275735f 	rsbsvs	r7, r5, #2080374785	; 0x7c000001
    15e0:	79727400 	ldmdbvc	r2!, {sl, ip, sp, lr}^
    15e4:	736f7472 	cmnvc	pc, #1912602624	; 0x72000000
    15e8:	6369745f 	cmnvs	r9, #1593835520	; 0x5f000000
    15ec:	6c635f6b 	stclvs	15, cr5, [r3], #-428	; 0xfffffe54
    15f0:	00726165 	rsbseq	r6, r2, r5, ror #2
    15f4:	72797274 	rsbsvc	r7, r9, #116, 4	; 0x40000007
    15f8:	5f736f74 	svcpl	0x00736f74
    15fc:	6e72656b 	cdpvs	5, 7, cr6, cr2, cr11, {3}
    1600:	745f6c65 	ldrbvc	r6, [pc], #-3173	; 1608 <SYS_MODE+0x15e9>
    1604:	006b6369 	rsbeq	r6, fp, r9, ror #6
    1608:	6d6f682f 	stclvs	8, cr6, [pc, #-188]!	; 1554 <SYS_MODE+0x1535>
    160c:	7a632f65 	bvc	18cd3a8 <SYS_MODE+0x18cd389>
    1610:	786d696c 	stmdavc	sp!, {r2, r3, r5, r6, r8, fp, sp, lr}^
    1614:	646f632f 	strbtvs	r6, [pc], #-815	; 161c <SYS_MODE+0x15fd>
    1618:	61707365 	cmnvs	r0, r5, ror #6
    161c:	742f6563 	strtvc	r6, [pc], #-1379	; 1624 <SYS_MODE+0x1605>
    1620:	2f706d65 	svccs	0x00706d65
    1624:	65726162 	ldrbvs	r6, [r2, #-354]!	; 0xfffffe9e
    1628:	6174656d 	cmnvs	r4, sp, ror #10
    162c:	6f665f6c 	svcvs	0x00665f6c
    1630:	2f635f72 	svccs	0x00635f72
    1634:	65646f63 	strbvs	r6, [r4, #-3939]!	; 0xfffff09d
    1638:	72656b2f 	rsbvc	r6, r5, #48128	; 0xbc00
    163c:	2f6c656e 	svccs	0x006c656e
    1640:	72797274 	rsbsvc	r7, r9, #116, 4	; 0x40000007
    1644:	2f736f74 	svccs	0x00736f74
    1648:	2f637273 	svccs	0x00637273
    164c:	72797274 	rsbsvc	r7, r9, #116, 4	; 0x40000007
    1650:	5f736f74 	svcpl	0x00736f74
    1654:	6b636974 	blvs	18dbc2c <SYS_MODE+0x18dbc0d>
    1658:	7400632e 	strvc	r6, [r0], #-814	; 0xfffffcd2
    165c:	74727972 	ldrbtvc	r7, [r2], #-2418	; 0xfffff68e
    1660:	745f736f 	ldrbvc	r7, [pc], #-879	; 1668 <SYS_MODE+0x1649>
    1664:	5f6b6369 	svcpl	0x006b6369
    1668:	00746573 	rsbseq	r6, r4, r3, ror r5
    166c:	72797274 	rsbsvc	r7, r9, #116, 4	; 0x40000007
    1670:	5f736f74 	svcpl	0x00736f74
    1674:	65726874 	ldrbvs	r6, [r2, #-2164]!	; 0xfffff78c
    1678:	755f6461 	ldrbvc	r6, [pc, #-1121]	; 121f <SYS_MODE+0x1200>
    167c:	6765726e 	strbvs	r7, [r5, -lr, ror #4]!
    1680:	65747369 	ldrbvs	r7, [r4, #-873]!	; 0xfffffc97
    1684:	682f0072 	stmdavs	pc!, {r1, r4, r5, r6}	; <UNPREDICTABLE>
    1688:	2f656d6f 	svccs	0x00656d6f
    168c:	696c7a63 	stmdbvs	ip!, {r0, r1, r5, r6, r9, fp, ip, sp, lr}^
    1690:	632f786d 			; <UNDEFINED> instruction: 0x632f786d
    1694:	7365646f 	cmnvc	r5, #1862270976	; 0x6f000000
    1698:	65636170 	strbvs	r6, [r3, #-368]!	; 0xfffffe90
    169c:	6d65742f 	cfstrdvs	mvd7, [r5, #-188]!	; 0xffffff44
    16a0:	61622f70 	smcvs	8944	; 0x22f0
    16a4:	656d6572 	strbvs	r6, [sp, #-1394]!	; 0xfffffa8e
    16a8:	5f6c6174 	svcpl	0x006c6174
    16ac:	5f726f66 	svcpl	0x00726f66
    16b0:	6f632f63 	svcvs	0x00632f63
    16b4:	6b2f6564 	blvs	bdac4c <SYS_MODE+0xbdac2d>
    16b8:	656e7265 	strbvs	r7, [lr, #-613]!	; 0xfffffd9b
    16bc:	72742f6c 	rsbsvc	r2, r4, #108, 30	; 0x1b0
    16c0:	6f747279 	svcvs	0x00747279
    16c4:	72732f73 	rsbsvc	r2, r3, #460	; 0x1cc
    16c8:	72742f63 	rsbsvc	r2, r4, #396	; 0x18c
    16cc:	6f747279 	svcvs	0x00747279
    16d0:	68745f73 	ldmdavs	r4!, {r0, r1, r4, r5, r6, r8, r9, sl, fp, ip, lr}^
    16d4:	64616572 	strbtvs	r6, [r1], #-1394	; 0xfffffa8e
    16d8:	7400632e 	strvc	r6, [r0], #-814	; 0xfffffcd2
    16dc:	74727972 	ldrbtvc	r7, [r2], #-2418	; 0xfffff68e
    16e0:	745f736f 	ldrbvc	r7, [pc], #-879	; 16e8 <SYS_MODE+0x16c9>
    16e4:	61657268 	cmnvs	r5, r8, ror #4
    16e8:	72635f64 	rsbvc	r5, r3, #100, 30	; 0x190
    16ec:	65746165 	ldrbvs	r6, [r4, #-357]!	; 0xfffffe9b
    16f0:	6d657400 	cfstrdvs	mvd7, [r5, #-0]
    16f4:	61685f70 	smcvs	34288	; 0x85f0
    16f8:	656c646e 	strbvs	r6, [ip, #-1134]!	; 0xfffffb92
    16fc:	72740072 	rsbsvc	r0, r4, #114	; 0x72
    1700:	6f747279 	svcvs	0x00747279
    1704:	6e695f73 	mcrvs	15, 3, r5, cr9, cr3, {3}
    1708:	72726574 	rsbsvc	r6, r2, #116, 10	; 0x1d000000
    170c:	5f747075 	svcpl	0x00747075
    1710:	6c6c6163 	stfvse	f6, [ip], #-396	; 0xfffffe74
    1714:	6361625f 	cmnvs	r1, #-268435451	; 0xf0000005
    1718:	6168006b 	cmnvs	r8, fp, rrx
    171c:	656c646e 	strbvs	r6, [ip, #-1134]!	; 0xfffffb92
    1720:	6d5f5f00 	ldclvs	15, cr5, [pc, #-0]	; 1728 <SYS_MODE+0x1709>
    1724:	00727470 	rsbseq	r7, r2, r0, ror r4
    1728:	72797274 	rsbsvc	r7, r9, #116, 4	; 0x40000007
    172c:	5f736f74 	svcpl	0x00736f74
    1730:	64616572 	strbtvs	r6, [r1], #-1394	; 0xfffffa8e
    1734:	72615f79 	rsbvc	r5, r1, #484	; 0x1e4
    1738:	00796172 	rsbseq	r6, r9, r2, ror r1
    173c:	72797274 	rsbsvc	r7, r9, #116, 4	; 0x40000007
    1740:	5f736f74 	svcpl	0x00736f74
    1744:	65726874 	ldrbvs	r6, [r2, #-2164]!	; 0xfffff78c
    1748:	6c5f6461 	cfldrdvs	mvd6, [pc], {97}	; 0x61
    174c:	756b6f6f 	strbvc	r6, [fp, #-3951]!	; 0xfffff091
    1750:	72740070 	rsbsvc	r0, r4, #112	; 0x70
    1754:	6f747279 	svcvs	0x00747279
    1758:	68745f73 	ldmdavs	r4!, {r0, r1, r4, r5, r6, r8, r9, sl, fp, ip, lr}^
    175c:	64616572 	strbtvs	r6, [r1], #-1394	; 0xfffffa8e
    1760:	7365645f 	cmnvc	r5, #1593835520	; 0x5f000000
    1764:	796f7274 	stmdbvc	pc!, {r2, r4, r5, r6, r9, ip, sp, lr}^	; <UNPREDICTABLE>
    1768:	79727400 	ldmdbvc	r2!, {sl, ip, sp, lr}^
    176c:	736f7472 	cmnvc	pc, #1912602624	; 0x72000000
    1770:	6c65645f 	cfstrdvs	mvd6, [r5], #-380	; 0xfffffe84
    1774:	685f7961 	ldmdavs	pc, {r0, r5, r6, r8, fp, ip, sp, lr}^	; <UNPREDICTABLE>
    1778:	00646165 	rsbeq	r6, r4, r5, ror #2
    177c:	72797274 	rsbsvc	r7, r9, #116, 4	; 0x40000007
    1780:	5f736f74 	svcpl	0x00736f74
    1784:	5f727563 	svcpl	0x00727563
    1788:	646e6168 	strbtvs	r6, [lr], #-360	; 0xfffffe98
    178c:	0072656c 	rsbseq	r6, r2, ip, ror #10
    1790:	72797274 	rsbsvc	r7, r9, #116, 4	; 0x40000007
    1794:	5f736f74 	svcpl	0x00736f74
    1798:	65726874 	ldrbvs	r6, [r2, #-2164]!	; 0xfffff78c
    179c:	695f6461 	ldmdbvs	pc, {r0, r5, r6, sl, sp, lr}^	; <UNPREDICTABLE>
    17a0:	0074696e 	rsbseq	r6, r4, lr, ror #18
    17a4:	72797274 	rsbsvc	r7, r9, #116, 4	; 0x40000007
    17a8:	5f736f74 	svcpl	0x00736f74
    17ac:	6b636974 	blvs	18dbd84 <SYS_MODE+0x18dbd65>
    17b0:	6e61685f 	mcrvs	8, 3, r6, cr1, cr15, {2}
    17b4:	72656c64 	rsbvc	r6, r5, #100, 24	; 0x6400
    17b8:	79727400 	ldmdbvc	r2!, {sl, ip, sp, lr}^
    17bc:	736f7472 	cmnvc	pc, #1912602624	; 0x72000000
    17c0:	7268745f 	rsbvc	r7, r8, #1593835520	; 0x5f000000
    17c4:	5f646165 	svcpl	0x00646165
    17c8:	74697773 	strbtvc	r7, [r9], #-1907	; 0xfffff88d
    17cc:	74006863 	strvc	r6, [r0], #-2147	; 0xfffff79d
    17d0:	74727972 	ldrbtvc	r7, [r2], #-2418	; 0xfffff68e
    17d4:	745f736f 	ldrbvc	r7, [pc], #-879	; 17dc <SYS_MODE+0x17bd>
    17d8:	61657268 	cmnvs	r5, r8, ror #4
    17dc:	65645f64 	strbvs	r5, [r4, #-3940]!	; 0xfffff09c
    17e0:	0079616c 	rsbseq	r6, r9, ip, ror #2
    17e4:	72797274 	rsbsvc	r7, r9, #116, 4	; 0x40000007
    17e8:	5f736f74 	svcpl	0x00736f74
    17ec:	6465656e 	strbtvs	r6, [r5], #-1390	; 0xfffffa92
    17f0:	7365725f 	cmnvc	r5, #-268435451	; 0xf0000005
    17f4:	64656863 	strbtvs	r6, [r5], #-2147	; 0xfffff79d
    17f8:	00656c75 	rsbeq	r6, r5, r5, ror ip
    17fc:	72797274 	rsbsvc	r7, r9, #116, 4	; 0x40000007
    1800:	5f736f74 	svcpl	0x00736f74
    1804:	65726874 	ldrbvs	r6, [r2, #-2164]!	; 0xfffff78c
    1808:	725f6461 	subsvc	r6, pc, #1627389952	; 0x61000000
    180c:	73696765 	cmnvc	r9, #26476544	; 0x1940000
    1810:	00726574 	rsbseq	r6, r2, r4, ror r5
    1814:	72797274 	rsbsvc	r7, r9, #116, 4	; 0x40000007
    1818:	5f736f74 	svcpl	0x00736f74
    181c:	65726874 	ldrbvs	r6, [r2, #-2164]!	; 0xfffff78c
    1820:	735f6461 	cmpvc	pc, #1627389952	; 0x61000000
    1824:	0074726f 	rsbseq	r7, r4, pc, ror #4
    1828:	72797274 	rsbsvc	r7, r9, #116, 4	; 0x40000007
    182c:	5f736f74 	svcpl	0x00736f74
    1830:	6e72656b 	cdpvs	5, 7, cr6, cr2, cr11, {3}
    1834:	695f6c65 	ldmdbvs	pc, {r0, r2, r5, r6, sl, fp, sp, lr}^	; <UNPREDICTABLE>
    1838:	0074696e 	rsbseq	r6, r4, lr, ror #18
    183c:	5f757063 	svcpl	0x00757063
    1840:	64616f6c 	strbtvs	r6, [r1], #-3948	; 0xfffff094
    1844:	6f682f00 	svcvs	0x00682f00
    1848:	632f656d 			; <UNDEFINED> instruction: 0x632f656d
    184c:	6d696c7a 	stclvs	12, cr6, [r9, #-488]!	; 0xfffffe18
    1850:	6f632f78 	svcvs	0x00632f78
    1854:	70736564 	rsbsvc	r6, r3, r4, ror #10
    1858:	2f656361 	svccs	0x00656361
    185c:	706d6574 	rsbvc	r6, sp, r4, ror r5
    1860:	7261622f 	rsbvc	r6, r1, #-268435454	; 0xf0000002
    1864:	74656d65 	strbtvc	r6, [r5], #-3429	; 0xfffff29b
    1868:	665f6c61 	ldrbvs	r6, [pc], -r1, ror #24
    186c:	635f726f 	cmpvs	pc, #-268435450	; 0xf0000006
    1870:	646f632f 	strbtvs	r6, [pc], #-815	; 1878 <SYS_MODE+0x1859>
    1874:	656b2f65 	strbvs	r2, [fp, #-3941]!	; 0xfffff09b
    1878:	6c656e72 	stclvs	14, cr6, [r5], #-456	; 0xfffffe38
    187c:	7972742f 	ldmdbvc	r2!, {r0, r1, r2, r3, r5, sl, ip, sp, lr}^
    1880:	736f7472 	cmnvc	pc, #1912602624	; 0x72000000
    1884:	6372732f 	cmnvs	r2, #-1140850688	; 0xbc000000
    1888:	7972742f 	ldmdbvc	r2!, {r0, r1, r2, r3, r5, sl, ip, sp, lr}^
    188c:	736f7472 	cmnvc	pc, #1912602624	; 0x72000000
    1890:	72656b5f 	rsbvc	r6, r5, #97280	; 0x17c00
    1894:	2e6c656e 	cdpcs	5, 6, cr6, cr12, cr14, {3}
    1898:	72740063 	rsbsvc	r0, r4, #99	; 0x63
    189c:	6f747279 	svcvs	0x00747279
    18a0:	64695f73 	strbtvs	r5, [r9], #-3955	; 0xfffff08d
    18a4:	685f656c 	ldmdavs	pc, {r2, r3, r5, r6, r8, sl, sp, lr}^	; <UNPREDICTABLE>
    18a8:	6c646e61 	stclvs	14, cr6, [r4], #-388	; 0xfffffe7c
    18ac:	74007265 	strvc	r7, [r0], #-613	; 0xfffffd9b
    18b0:	74727972 	ldrbtvc	r7, [r2], #-2418	; 0xfffff68e
    18b4:	695f736f 	ldmdbvs	pc, {r0, r1, r2, r3, r5, r6, r8, r9, ip, sp, lr}^	; <UNPREDICTABLE>
    18b8:	5f656c64 	svcpl	0x00656c64
    18bc:	72746e65 	rsbsvc	r6, r4, #1616	; 0x650
    18c0:	72740079 	rsbsvc	r0, r4, #121	; 0x79
    18c4:	6f747279 	svcvs	0x00747279
    18c8:	64695f73 	strbtvs	r5, [r9], #-3955	; 0xfffff08d
    18cc:	735f656c 	cmpvc	pc, #108, 10	; 0x1b000000
    18d0:	6b636174 	blvs	18d9ea8 <SYS_MODE+0x18d9e89>
    18d4:	73756200 	cmnvc	r5, #0, 4
    18d8:	69745f79 	ldmdbvs	r4!, {r0, r3, r4, r5, r6, r8, r9, sl, fp, ip, lr}^
    18dc:	74006b63 	strvc	r6, [r0], #-2915	; 0xfffff49d
    18e0:	74727972 	ldrbtvc	r7, [r2], #-2418	; 0xfffff68e
    18e4:	6b5f736f 	blvs	17de6a8 <SYS_MODE+0x17de689>
    18e8:	656e7265 	strbvs	r7, [lr, #-613]!	; 0xfffffd9b
    18ec:	74735f6c 	ldrbtvc	r5, [r3], #-3948	; 0xfffff094
    18f0:	00747261 	rsbseq	r7, r4, r1, ror #4

Disassembly of section .comment:

00000000 <.comment>:
   0:	3a434347 	bcc	10d0d24 <SYS_MODE+0x10d0d05>
   4:	4e472820 	cdpmi	8, 4, cr2, cr7, cr0, {1}
   8:	72412055 	subvc	r2, r1, #85	; 0x55
   c:	6d45206d 	stclvs	0, cr2, [r5, #-436]	; 0xfffffe4c
  10:	64646562 	strbtvs	r6, [r4], #-1378	; 0xfffffa9e
  14:	54206465 	strtpl	r6, [r0], #-1125	; 0xfffffb9b
  18:	636c6f6f 	cmnvs	ip, #444	; 0x1bc
  1c:	6e696168 	powvsez	f6, f1, #0.0
  20:	2e303120 	rsfcssp	f3, f0, f0
  24:	30322d33 	eorscc	r2, r2, r3, lsr sp
  28:	302e3132 	eorcc	r3, lr, r2, lsr r1
  2c:	31202937 			; <UNDEFINED> instruction: 0x31202937
  30:	2e332e30 	mrccs	14, 1, r2, cr3, cr0, {1}
  34:	30322031 	eorscc	r2, r2, r1, lsr r0
  38:	36303132 			; <UNDEFINED> instruction: 0x36303132
  3c:	28203132 	stmdacs	r0!, {r1, r4, r5, r8, ip, sp}
  40:	656c6572 	strbvs	r6, [ip, #-1394]!	; 0xfffffa8e
  44:	29657361 	stmdbcs	r5!, {r0, r5, r6, r8, r9, ip, sp, lr}^
	...

Disassembly of section .ARM.attributes:

00000000 <.ARM.attributes>:
   0:	00003041 	andeq	r3, r0, r1, asr #32
   4:	61656100 	cmnvs	r5, r0, lsl #2
   8:	01006962 	tsteq	r0, r2, ror #18
   c:	00000026 	andeq	r0, r0, r6, lsr #32
  10:	412d3705 			; <UNDEFINED> instruction: 0x412d3705
  14:	070a0600 	streq	r0, [sl, -r0, lsl #12]
  18:	09010841 	stmdbeq	r1, {r0, r6, fp}
  1c:	12040a02 	andne	r0, r4, #8192	; 0x2000
  20:	15011404 	strne	r1, [r1, #-1028]	; 0xfffffbfc
  24:	18031701 	stmdane	r3, {r0, r8, r9, sl, ip}
  28:	1c011a01 			; <UNDEFINED> instruction: 0x1c011a01
  2c:	22061e01 	andcs	r1, r6, #1, 28
  30:	Address 0x0000000000000030 is out of bounds.


Disassembly of section .debug_frame:

00000000 <.debug_frame>:
   0:	0000000c 	andeq	r0, r0, ip
   4:	ffffffff 			; <UNDEFINED> instruction: 0xffffffff
   8:	7c020001 	stcvc	0, cr0, [r2], {1}
   c:	000d0c0e 	andeq	r0, sp, lr, lsl #24
  10:	0000001c 	andeq	r0, r0, ip, lsl r0
  14:	00000000 	andeq	r0, r0, r0
  18:	c200081c 	andgt	r0, r0, #28, 16	; 0x1c0000
  1c:	0000003c 	andeq	r0, r0, ip, lsr r0
  20:	8b040e42 	blhi	103930 <SYS_MODE+0x103911>
  24:	0b0d4201 	bleq	350830 <SYS_MODE+0x350811>
  28:	420d0d56 	andmi	r0, sp, #5504	; 0x1580
  2c:	00000ecb 	andeq	r0, r0, fp, asr #29
  30:	0000001c 	andeq	r0, r0, ip, lsl r0
  34:	00000000 	andeq	r0, r0, r0
  38:	c2000858 	andgt	r0, r0, #88, 16	; 0x580000
  3c:	00000058 	andeq	r0, r0, r8, asr r0
  40:	8b040e42 	blhi	103950 <SYS_MODE+0x103931>
  44:	0b0d4201 	bleq	350850 <SYS_MODE+0x350831>
  48:	420d0d64 	andmi	r0, sp, #100, 26	; 0x1900
  4c:	00000ecb 	andeq	r0, r0, fp, asr #29
  50:	0000001c 	andeq	r0, r0, ip, lsl r0
  54:	00000000 	andeq	r0, r0, r0
  58:	c20008b0 	andgt	r0, r0, #176, 16	; 0xb00000
  5c:	00000038 	andeq	r0, r0, r8, lsr r0
  60:	8b080e42 	blhi	203970 <SYS_MODE+0x203951>
  64:	42018e02 	andmi	r8, r1, #2, 28
  68:	56040b0c 	strpl	r0, [r4], -ip, lsl #22
  6c:	00080d0c 	andeq	r0, r8, ip, lsl #26
  70:	0000001c 	andeq	r0, r0, ip, lsl r0
	...
  7c:	00000038 	andeq	r0, r0, r8, lsr r0
  80:	8b080e42 	blhi	203990 <SYS_MODE+0x203971>
  84:	42018e02 	andmi	r8, r1, #2, 28
  88:	56040b0c 	strpl	r0, [r4], -ip, lsl #22
  8c:	00080d0c 	andeq	r0, r8, ip, lsl #26
  90:	0000001c 	andeq	r0, r0, ip, lsl r0
  94:	00000000 	andeq	r0, r0, r0
  98:	c20008e8 	andgt	r0, r0, #232, 16	; 0xe80000
  9c:	0000003c 	andeq	r0, r0, ip, lsr r0
  a0:	8b040e42 	blhi	1039b0 <SYS_MODE+0x103991>
  a4:	0b0d4201 	bleq	3508b0 <SYS_MODE+0x350891>
  a8:	420d0d56 	andmi	r0, sp, #5504	; 0x1580
  ac:	00000ecb 	andeq	r0, r0, fp, asr #29
  b0:	0000001c 	andeq	r0, r0, ip, lsl r0
	...
  bc:	00000050 	andeq	r0, r0, r0, asr r0
  c0:	8b080e42 	blhi	2039d0 <SYS_MODE+0x2039b1>
  c4:	42018e02 	andmi	r8, r1, #2, 28
  c8:	62040b0c 	andvs	r0, r4, #12, 22	; 0x3000
  cc:	00080d0c 	andeq	r0, r8, ip, lsl #26
  d0:	0000001c 	andeq	r0, r0, ip, lsl r0
	...
  dc:	00000064 	andeq	r0, r0, r4, rrx
  e0:	8b040e42 	blhi	1039f0 <SYS_MODE+0x1039d1>
  e4:	0b0d4201 	bleq	3508f0 <SYS_MODE+0x3508d1>
  e8:	420d0d6a 	andmi	r0, sp, #6784	; 0x1a80
  ec:	00000ecb 	andeq	r0, r0, fp, asr #29
  f0:	0000001c 	andeq	r0, r0, ip, lsl r0
	...
  fc:	00000064 	andeq	r0, r0, r4, rrx
 100:	8b080e42 	blhi	203a10 <SYS_MODE+0x2039f1>
 104:	42018e02 	andmi	r8, r1, #2, 28
 108:	6c040b0c 			; <UNDEFINED> instruction: 0x6c040b0c
 10c:	00080d0c 	andeq	r0, r8, ip, lsl #26
 110:	0000001c 	andeq	r0, r0, ip, lsl r0
 114:	00000000 	andeq	r0, r0, r0
 118:	c2000924 	andgt	r0, r0, #36, 18	; 0x90000
 11c:	00000048 	andeq	r0, r0, r8, asr #32
 120:	8b080e42 	blhi	203a30 <SYS_MODE+0x203a11>
 124:	42018e02 	andmi	r8, r1, #2, 28
 128:	5e040b0c 	vmlapl.f64	d0, d4, d12
 12c:	00080d0c 	andeq	r0, r8, ip, lsl #26
 130:	0000001c 	andeq	r0, r0, ip, lsl r0
	...
 13c:	00000048 	andeq	r0, r0, r8, asr #32
 140:	8b080e42 	blhi	203a50 <SYS_MODE+0x203a31>
 144:	42018e02 	andmi	r8, r1, #2, 28
 148:	5e040b0c 	vmlapl.f64	d0, d4, d12
 14c:	00080d0c 	andeq	r0, r8, ip, lsl #26
 150:	0000001c 	andeq	r0, r0, ip, lsl r0
	...
 15c:	00000040 	andeq	r0, r0, r0, asr #32
 160:	8b040e42 	blhi	103a70 <SYS_MODE+0x103a51>
 164:	0b0d4201 	bleq	350970 <SYS_MODE+0x350951>
 168:	420d0d58 	andmi	r0, sp, #88, 26	; 0x1600
 16c:	00000ecb 	andeq	r0, r0, fp, asr #29
 170:	0000001c 	andeq	r0, r0, ip, lsl r0
	...
 17c:	00000040 	andeq	r0, r0, r0, asr #32
 180:	8b040e42 	blhi	103a90 <SYS_MODE+0x103a71>
 184:	0b0d4201 	bleq	350990 <SYS_MODE+0x350971>
 188:	420d0d58 	andmi	r0, sp, #88, 26	; 0x1600
 18c:	00000ecb 	andeq	r0, r0, fp, asr #29
 190:	0000001c 	andeq	r0, r0, ip, lsl r0
 194:	00000000 	andeq	r0, r0, r0
 198:	c200096c 	andgt	r0, r0, #108, 18	; 0x1b0000
 19c:	0000003c 	andeq	r0, r0, ip, lsr r0
 1a0:	8b040e42 	blhi	103ab0 <SYS_MODE+0x103a91>
 1a4:	0b0d4201 	bleq	3509b0 <SYS_MODE+0x350991>
 1a8:	420d0d56 	andmi	r0, sp, #5504	; 0x1580
 1ac:	00000ecb 	andeq	r0, r0, fp, asr #29
 1b0:	0000001c 	andeq	r0, r0, ip, lsl r0
 1b4:	00000000 	andeq	r0, r0, r0
 1b8:	c20009a8 	andgt	r0, r0, #168, 18	; 0x2a0000
 1bc:	0000003c 	andeq	r0, r0, ip, lsr r0
 1c0:	8b040e42 	blhi	103ad0 <SYS_MODE+0x103ab1>
 1c4:	0b0d4201 	bleq	3509d0 <SYS_MODE+0x3509b1>
 1c8:	420d0d56 	andmi	r0, sp, #5504	; 0x1580
 1cc:	00000ecb 	andeq	r0, r0, fp, asr #29
 1d0:	0000000c 	andeq	r0, r0, ip
 1d4:	ffffffff 			; <UNDEFINED> instruction: 0xffffffff
 1d8:	7c020001 	stcvc	0, cr0, [r2], {1}
 1dc:	000d0c0e 	andeq	r0, sp, lr, lsl #24
 1e0:	0000001c 	andeq	r0, r0, ip, lsl r0
 1e4:	000001d0 	ldrdeq	r0, [r0], -r0	; <UNPREDICTABLE>
 1e8:	00000000 	andeq	r0, r0, r0
 1ec:	00000060 	andeq	r0, r0, r0, rrx
 1f0:	8b040e42 	blhi	103b00 <SYS_MODE+0x103ae1>
 1f4:	0b0d4201 	bleq	350a00 <SYS_MODE+0x3509e1>
 1f8:	420d0d68 	andmi	r0, sp, #104, 26	; 0x1a00
 1fc:	00000ecb 	andeq	r0, r0, fp, asr #29
 200:	0000001c 	andeq	r0, r0, ip, lsl r0
 204:	000001d0 	ldrdeq	r0, [r0], -r0	; <UNPREDICTABLE>
 208:	00000000 	andeq	r0, r0, r0
 20c:	00000078 	andeq	r0, r0, r8, ror r0
 210:	8b040e42 	blhi	103b20 <SYS_MODE+0x103b01>
 214:	0b0d4201 	bleq	350a20 <SYS_MODE+0x350a01>
 218:	420d0d74 	andmi	r0, sp, #116, 26	; 0x1d00
 21c:	00000ecb 	andeq	r0, r0, fp, asr #29
 220:	00000020 	andeq	r0, r0, r0, lsr #32
 224:	000001d0 	ldrdeq	r0, [r0], -r0	; <UNPREDICTABLE>
 228:	00000000 	andeq	r0, r0, r0
 22c:	00000070 	andeq	r0, r0, r0, ror r0
 230:	84080e42 	strhi	r0, [r8], #-3650	; 0xfffff1be
 234:	42018b02 	andmi	r8, r1, #2048	; 0x800
 238:	70040b0c 	andvc	r0, r4, ip, lsl #22
 23c:	42080d0c 	andmi	r0, r8, #12, 26	; 0x300
 240:	000ec4cb 	andeq	ip, lr, fp, asr #9
 244:	0000001c 	andeq	r0, r0, ip, lsl r0
 248:	000001d0 	ldrdeq	r0, [r0], -r0	; <UNPREDICTABLE>
 24c:	c20009e4 	andgt	r0, r0, #228, 18	; 0x390000
 250:	00000054 	andeq	r0, r0, r4, asr r0
 254:	8b040e42 	blhi	103b64 <SYS_MODE+0x103b45>
 258:	0b0d4201 	bleq	350a64 <SYS_MODE+0x350a45>
 25c:	420d0d62 	andmi	r0, sp, #6272	; 0x1880
 260:	00000ecb 	andeq	r0, r0, fp, asr #29
 264:	0000001c 	andeq	r0, r0, ip, lsl r0
 268:	000001d0 	ldrdeq	r0, [r0], -r0	; <UNPREDICTABLE>
 26c:	c2000a38 	andgt	r0, r0, #56, 20	; 0x38000
 270:	00000064 	andeq	r0, r0, r4, rrx
 274:	8b040e42 	blhi	103b84 <SYS_MODE+0x103b65>
 278:	0b0d4201 	bleq	350a84 <SYS_MODE+0x350a65>
 27c:	420d0d6a 	andmi	r0, sp, #6784	; 0x1a80
 280:	00000ecb 	andeq	r0, r0, fp, asr #29
 284:	0000001c 	andeq	r0, r0, ip, lsl r0
 288:	000001d0 	ldrdeq	r0, [r0], -r0	; <UNPREDICTABLE>
 28c:	c2000a9c 	andgt	r0, r0, #156, 20	; 0x9c000
 290:	00000074 	andeq	r0, r0, r4, ror r0
 294:	8b040e42 	blhi	103ba4 <SYS_MODE+0x103b85>
 298:	0b0d4201 	bleq	350aa4 <SYS_MODE+0x350a85>
 29c:	420d0d72 	andmi	r0, sp, #7296	; 0x1c80
 2a0:	00000ecb 	andeq	r0, r0, fp, asr #29
 2a4:	0000001c 	andeq	r0, r0, ip, lsl r0
 2a8:	000001d0 	ldrdeq	r0, [r0], -r0	; <UNPREDICTABLE>
 2ac:	00000000 	andeq	r0, r0, r0
 2b0:	000000e8 	andeq	r0, r0, r8, ror #1
 2b4:	8b040e42 	blhi	103bc4 <SYS_MODE+0x103ba5>
 2b8:	0b0d4201 	bleq	350ac4 <SYS_MODE+0x350aa5>
 2bc:	0d0d6c02 	stceq	12, cr6, [sp, #-8]
 2c0:	000ecb42 	andeq	ip, lr, r2, asr #22
 2c4:	0000001c 	andeq	r0, r0, ip, lsl r0
 2c8:	000001d0 	ldrdeq	r0, [r0], -r0	; <UNPREDICTABLE>
 2cc:	00000000 	andeq	r0, r0, r0
 2d0:	000000a8 	andeq	r0, r0, r8, lsr #1
 2d4:	8b040e42 	blhi	103be4 <SYS_MODE+0x103bc5>
 2d8:	0b0d4201 	bleq	350ae4 <SYS_MODE+0x350ac5>
 2dc:	0d0d4c02 	stceq	12, cr4, [sp, #-8]
 2e0:	000ecb42 	andeq	ip, lr, r2, asr #22
 2e4:	0000000c 	andeq	r0, r0, ip
 2e8:	ffffffff 			; <UNDEFINED> instruction: 0xffffffff
 2ec:	7c020001 	stcvc	0, cr0, [r2], {1}
 2f0:	000d0c0e 	andeq	r0, sp, lr, lsl #24
 2f4:	0000001c 	andeq	r0, r0, ip, lsl r0
 2f8:	000002e4 	andeq	r0, r0, r4, ror #5
 2fc:	00000000 	andeq	r0, r0, r0
 300:	00000054 	andeq	r0, r0, r4, asr r0
 304:	8b040e42 	blhi	103c14 <SYS_MODE+0x103bf5>
 308:	0b0d4201 	bleq	350b14 <SYS_MODE+0x350af5>
 30c:	420d0d62 	andmi	r0, sp, #6272	; 0x1880
 310:	00000ecb 	andeq	r0, r0, fp, asr #29
 314:	0000001c 	andeq	r0, r0, ip, lsl r0
 318:	000002e4 	andeq	r0, r0, r4, ror #5
 31c:	c2000b10 	andgt	r0, r0, #16, 22	; 0x4000
 320:	00000030 	andeq	r0, r0, r0, lsr r0
 324:	8b040e42 	blhi	103c34 <SYS_MODE+0x103c15>
 328:	0b0d4201 	bleq	350b34 <SYS_MODE+0x350b15>
 32c:	420d0d50 	andmi	r0, sp, #80, 26	; 0x1400
 330:	00000ecb 	andeq	r0, r0, fp, asr #29
 334:	0000001c 	andeq	r0, r0, ip, lsl r0
 338:	000002e4 	andeq	r0, r0, r4, ror #5
 33c:	c2000b40 	andgt	r0, r0, #64, 22	; 0x10000
 340:	00000044 	andeq	r0, r0, r4, asr #32
 344:	8b080e42 	blhi	203c54 <SYS_MODE+0x203c35>
 348:	42018e02 	andmi	r8, r1, #2, 28
 34c:	5c040b0c 			; <UNDEFINED> instruction: 0x5c040b0c
 350:	00080d0c 	andeq	r0, r8, ip, lsl #26
 354:	0000001c 	andeq	r0, r0, ip, lsl r0
 358:	000002e4 	andeq	r0, r0, r4, ror #5
 35c:	00000000 	andeq	r0, r0, r0
 360:	00000054 	andeq	r0, r0, r4, asr r0
 364:	8b080e42 	blhi	203c74 <SYS_MODE+0x203c55>
 368:	42018e02 	andmi	r8, r1, #2, 28
 36c:	64040b0c 	strvs	r0, [r4], #-2828	; 0xfffff4f4
 370:	00080d0c 	andeq	r0, r8, ip, lsl #26
 374:	0000001c 	andeq	r0, r0, ip, lsl r0
 378:	000002e4 	andeq	r0, r0, r4, ror #5
 37c:	c2000b84 	andgt	r0, r0, #132, 22	; 0x21000
 380:	0000006c 	andeq	r0, r0, ip, rrx
 384:	8b040e42 	blhi	103c94 <SYS_MODE+0x103c75>
 388:	0b0d4201 	bleq	350b94 <SYS_MODE+0x350b75>
 38c:	420d0d6e 	andmi	r0, sp, #7040	; 0x1b80
 390:	00000ecb 	andeq	r0, r0, fp, asr #29
 394:	0000001c 	andeq	r0, r0, ip, lsl r0
 398:	000002e4 	andeq	r0, r0, r4, ror #5
 39c:	c2000bf0 	andgt	r0, r0, #240, 22	; 0x3c000
 3a0:	00000050 	andeq	r0, r0, r0, asr r0
 3a4:	8b040e42 	blhi	103cb4 <SYS_MODE+0x103c95>
 3a8:	0b0d4201 	bleq	350bb4 <SYS_MODE+0x350b95>
 3ac:	420d0d60 	andmi	r0, sp, #96, 26	; 0x1800
 3b0:	00000ecb 	andeq	r0, r0, fp, asr #29
 3b4:	0000001c 	andeq	r0, r0, ip, lsl r0
 3b8:	000002e4 	andeq	r0, r0, r4, ror #5
 3bc:	c2000c40 	andgt	r0, r0, #64, 24	; 0x4000
 3c0:	0000007c 	andeq	r0, r0, ip, ror r0
 3c4:	8b080e42 	blhi	203cd4 <SYS_MODE+0x203cb5>
 3c8:	42018e02 	andmi	r8, r1, #2, 28
 3cc:	78040b0c 	stmdavc	r4, {r2, r3, r8, r9, fp}
 3d0:	00080d0c 	andeq	r0, r8, ip, lsl #26
 3d4:	00000020 	andeq	r0, r0, r0, lsr #32
 3d8:	000002e4 	andeq	r0, r0, r4, ror #5
 3dc:	c2000cbc 	andgt	r0, r0, #188, 24	; 0xbc00
 3e0:	00000130 	andeq	r0, r0, r0, lsr r1
 3e4:	840c0e42 	strhi	r0, [ip], #-3650	; 0xfffff1be
 3e8:	8e028b03 	vmlahi.f64	d8, d2, d3
 3ec:	0b0c4201 	bleq	310bf8 <SYS_MODE+0x310bd9>
 3f0:	0c920204 	lfmeq	f0, 4, [r2], {4}
 3f4:	00000c0d 	andeq	r0, r0, sp, lsl #24
 3f8:	00000020 	andeq	r0, r0, r0, lsr #32
 3fc:	000002e4 	andeq	r0, r0, r4, ror #5
 400:	c2000dec 	andgt	r0, r0, #236, 26	; 0x3b00
 404:	00000338 	andeq	r0, r0, r8, lsr r3
 408:	8b080e42 	blhi	203d18 <SYS_MODE+0x203cf9>
 40c:	42018e02 	andmi	r8, r1, #2, 28
 410:	03040b0c 	movweq	r0, #19212	; 0x4b0c
 414:	0d0c0196 	stfeqs	f0, [ip, #-600]	; 0xfffffda8
 418:	00000008 	andeq	r0, r0, r8
 41c:	0000001c 	andeq	r0, r0, ip, lsl r0
 420:	000002e4 	andeq	r0, r0, r4, ror #5
 424:	c2001124 	andgt	r1, r0, #36, 2
 428:	0000015c 	andeq	r0, r0, ip, asr r1
 42c:	8b080e42 	blhi	203d3c <SYS_MODE+0x203d1d>
 430:	42018e02 	andmi	r8, r1, #2, 28
 434:	02040b0c 	andeq	r0, r4, #12, 22	; 0x3000
 438:	080d0ca8 	stmdaeq	sp, {r3, r5, r7, sl, fp}
 43c:	0000001c 	andeq	r0, r0, ip, lsl r0
 440:	000002e4 	andeq	r0, r0, r4, ror #5
 444:	c2001280 	andgt	r1, r0, #128, 4
 448:	0000015c 	andeq	r0, r0, ip, asr r1
 44c:	8b080e42 	blhi	203d5c <SYS_MODE+0x203d3d>
 450:	42018e02 	andmi	r8, r1, #2, 28
 454:	02040b0c 	andeq	r0, r4, #12, 22	; 0x3000
 458:	080d0ca8 	stmdaeq	sp, {r3, r5, r7, sl, fp}
 45c:	00000020 	andeq	r0, r0, r0, lsr #32
 460:	000002e4 	andeq	r0, r0, r4, ror #5
 464:	c20013e0 	andgt	r1, r0, #224, 6	; 0x80000003
 468:	00000704 	andeq	r0, r0, r4, lsl #14
 46c:	8b080e42 	blhi	203d7c <SYS_MODE+0x203d5d>
 470:	42018e02 	andmi	r8, r1, #2, 28
 474:	03040b0c 	movweq	r0, #19212	; 0x4b0c
 478:	0d0c037c 	stceq	3, cr0, [ip, #-496]	; 0xfffffe10
 47c:	00000008 	andeq	r0, r0, r8
 480:	0000002c 	andeq	r0, r0, ip, lsr #32
 484:	000002e4 	andeq	r0, r0, r4, ror #5
 488:	c2001ae8 	andgt	r1, r0, #232, 20	; 0xe8000
 48c:	0000057c 	andeq	r0, r0, ip, ror r5
 490:	84200e42 	strthi	r0, [r0], #-3650	; 0xfffff1be
 494:	86078508 	strhi	r8, [r7], -r8, lsl #10
 498:	88058706 	stmdahi	r5, {r1, r2, r8, r9, sl, pc}
 49c:	8b038904 	blhi	e28b4 <SYS_MODE+0xe2895>
 4a0:	42018e02 	andmi	r8, r1, #2, 28
 4a4:	03040b0c 	movweq	r0, #19212	; 0x4b0c
 4a8:	0d0c02b8 	sfmeq	f0, 4, [ip, #-736]	; 0xfffffd20
 4ac:	00000020 	andeq	r0, r0, r0, lsr #32
 4b0:	0000002c 	andeq	r0, r0, ip, lsr #32
 4b4:	000002e4 	andeq	r0, r0, r4, ror #5
 4b8:	c2002064 	andgt	r2, r0, #100	; 0x64
 4bc:	00000f90 	muleq	r0, r0, pc	; <UNPREDICTABLE>
 4c0:	84200e42 	strthi	r0, [r0], #-3650	; 0xfffff1be
 4c4:	86078508 	strhi	r8, [r7], -r8, lsl #10
 4c8:	88058706 	stmdahi	r5, {r1, r2, r8, r9, sl, pc}
 4cc:	8b038904 	blhi	e28e4 <SYS_MODE+0xe28c5>
 4d0:	42018e02 	andmi	r8, r1, #2, 28
 4d4:	03040b0c 	movweq	r0, #19212	; 0x4b0c
 4d8:	0d0c07c2 	stceq	7, cr0, [ip, #-776]	; 0xfffffcf8
 4dc:	00000020 	andeq	r0, r0, r0, lsr #32
 4e0:	00000034 	andeq	r0, r0, r4, lsr r0
 4e4:	000002e4 	andeq	r0, r0, r4, ror #5
 4e8:	c2002ff4 	andgt	r2, r0, #244, 30	; 0x3d0
 4ec:	00000054 	andeq	r0, r0, r4, asr r0
 4f0:	80100e42 	andshi	r0, r0, r2, asr #28
 4f4:	82038104 	andhi	r8, r3, #4, 2
 4f8:	42018302 	andmi	r8, r1, #134217728	; 0x8000000
 4fc:	068b180e 	streq	r1, [fp], lr, lsl #16
 500:	0c42058e 	cfstr64eq	mvdx0, [r2], {142}	; 0x8e
 504:	0c5e140b 	cfldrdeq	mvd1, [lr], {11}
 508:	ce42180d 	cdpgt	8, 4, cr1, cr2, cr13, {0}
 50c:	42100ecb 	andsmi	r0, r0, #3248	; 0xcb0
 510:	c0c1c2c3 	sbcgt	ip, r1, r3, asr #5
 514:	0000000e 	andeq	r0, r0, lr
 518:	00000030 	andeq	r0, r0, r0, lsr r0
 51c:	000002e4 	andeq	r0, r0, r4, ror #5
 520:	00000000 	andeq	r0, r0, r0
 524:	00000058 	andeq	r0, r0, r8, asr r0
 528:	810c0e42 	tsthi	ip, r2, asr #28
 52c:	83028203 	movwhi	r8, #8707	; 0x2203
 530:	140e4201 	strne	r4, [lr], #-513	; 0xfffffdff
 534:	048e058b 	streq	r0, [lr], #1419	; 0x58b
 538:	100b0c42 	andne	r0, fp, r2, asr #24
 53c:	140d0c60 	strne	r0, [sp], #-3168	; 0xfffff3a0
 540:	0ecbce42 	cdpeq	14, 12, cr12, cr11, cr2, {2}
 544:	c2c3420c 	sbcgt	r4, r3, #12, 4	; 0xc0000000
 548:	00000ec1 	andeq	r0, r0, r1, asr #29
 54c:	0000002c 	andeq	r0, r0, ip, lsr #32
 550:	000002e4 	andeq	r0, r0, r4, ror #5
 554:	00000000 	andeq	r0, r0, r0
 558:	0000005c 	andeq	r0, r0, ip, asr r0
 55c:	82080e42 	andhi	r0, r8, #1056	; 0x420
 560:	42018302 	andmi	r8, r1, #134217728	; 0x8000000
 564:	048b100e 	streq	r1, [fp], #14
 568:	0c42038e 	mcrreq	3, 8, r0, r2, cr14
 56c:	0c620c0b 	stcleq	12, cr0, [r2], #-44	; 0xffffffd4
 570:	ce42100d 	cdpgt	0, 4, cr1, cr2, cr13, {0}
 574:	42080ecb 	andmi	r0, r8, #3248	; 0xcb0
 578:	000ec2c3 	andeq	ip, lr, r3, asr #5
 57c:	0000001c 	andeq	r0, r0, ip, lsl r0
 580:	000002e4 	andeq	r0, r0, r4, ror #5
 584:	00000000 	andeq	r0, r0, r0
 588:	00000044 	andeq	r0, r0, r4, asr #32
 58c:	8b080e42 	blhi	203e9c <SYS_MODE+0x203e7d>
 590:	42018e02 	andmi	r8, r1, #2, 28
 594:	5c040b0c 			; <UNDEFINED> instruction: 0x5c040b0c
 598:	00080d0c 	andeq	r0, r8, ip, lsl #26
 59c:	0000001c 	andeq	r0, r0, ip, lsl r0
 5a0:	000002e4 	andeq	r0, r0, r4, ror #5
 5a4:	00000000 	andeq	r0, r0, r0
 5a8:	0000004c 	andeq	r0, r0, ip, asr #32
 5ac:	8b080e42 	blhi	203ebc <SYS_MODE+0x203e9d>
 5b0:	42018e02 	andmi	r8, r1, #2, 28
 5b4:	60040b0c 	andvs	r0, r4, ip, lsl #22
 5b8:	00080d0c 	andeq	r0, r8, ip, lsl #26
 5bc:	0000002c 	andeq	r0, r0, ip, lsr #32
 5c0:	000002e4 	andeq	r0, r0, r4, ror #5
 5c4:	00000000 	andeq	r0, r0, r0
 5c8:	0000006c 	andeq	r0, r0, ip, rrx
 5cc:	82080e42 	andhi	r0, r8, #1056	; 0x420
 5d0:	42018302 	andmi	r8, r1, #134217728	; 0x8000000
 5d4:	048b100e 	streq	r1, [fp], #14
 5d8:	0c42038e 	mcrreq	3, 8, r0, r2, cr14
 5dc:	0c6a0c0b 	stcleq	12, cr0, [sl], #-44	; 0xffffffd4
 5e0:	ce42100d 	cdpgt	0, 4, cr1, cr2, cr13, {0}
 5e4:	42080ecb 	andmi	r0, r8, #3248	; 0xcb0
 5e8:	000ec2c3 	andeq	ip, lr, r3, asr #5
 5ec:	0000000c 	andeq	r0, r0, ip
 5f0:	ffffffff 			; <UNDEFINED> instruction: 0xffffffff
 5f4:	7c020001 	stcvc	0, cr0, [r2], {1}
 5f8:	000d0c0e 	andeq	r0, sp, lr, lsl #24
 5fc:	0000001c 	andeq	r0, r0, ip, lsl r0
 600:	000005ec 	andeq	r0, r0, ip, ror #11
 604:	c2003048 	andgt	r3, r0, #72	; 0x48
 608:	00000024 	andeq	r0, r0, r4, lsr #32
 60c:	8b040e42 	blhi	103f1c <SYS_MODE+0x103efd>
 610:	0b0d4201 	bleq	350e1c <SYS_MODE+0x350dfd>
 614:	420d0d4a 	andmi	r0, sp, #4736	; 0x1280
 618:	00000ecb 	andeq	r0, r0, fp, asr #29
 61c:	0000001c 	andeq	r0, r0, ip, lsl r0
 620:	000005ec 	andeq	r0, r0, ip, ror #11
 624:	00000000 	andeq	r0, r0, r0
 628:	00000030 	andeq	r0, r0, r0, lsr r0
 62c:	8b040e42 	blhi	103f3c <SYS_MODE+0x103f1d>
 630:	0b0d4201 	bleq	350e3c <SYS_MODE+0x350e1d>
 634:	420d0d50 	andmi	r0, sp, #80, 26	; 0x1400
 638:	00000ecb 	andeq	r0, r0, fp, asr #29
 63c:	0000001c 	andeq	r0, r0, ip, lsl r0
 640:	000005ec 	andeq	r0, r0, ip, ror #11
 644:	00000000 	andeq	r0, r0, r0
 648:	000000bc 	strheq	r0, [r0], -ip
 64c:	8b080e42 	blhi	203f5c <SYS_MODE+0x203f3d>
 650:	42018e02 	andmi	r8, r1, #2, 28
 654:	02040b0c 	andeq	r0, r4, #12, 22	; 0x3000
 658:	080d0c58 	stmdaeq	sp, {r3, r4, r6, sl, fp}
 65c:	0000000c 	andeq	r0, r0, ip
 660:	ffffffff 			; <UNDEFINED> instruction: 0xffffffff
 664:	7c020001 	stcvc	0, cr0, [r2], {1}
 668:	000d0c0e 	andeq	r0, sp, lr, lsl #24
 66c:	00000018 	andeq	r0, r0, r8, lsl r0
 670:	0000065c 	andeq	r0, r0, ip, asr r6
 674:	c200306c 	andgt	r3, r0, #108	; 0x6c
 678:	00000080 	andeq	r0, r0, r0, lsl #1
 67c:	8b080e42 	blhi	203f8c <SYS_MODE+0x203f6d>
 680:	42018e02 	andmi	r8, r1, #2, 28
 684:	00040b0c 	andeq	r0, r4, ip, lsl #22
 688:	0000000c 	andeq	r0, r0, ip
 68c:	ffffffff 			; <UNDEFINED> instruction: 0xffffffff
 690:	7c020001 	stcvc	0, cr0, [r2], {1}
 694:	000d0c0e 	andeq	r0, sp, lr, lsl #24
 698:	0000001c 	andeq	r0, r0, ip, lsl r0
 69c:	00000688 	andeq	r0, r0, r8, lsl #13
 6a0:	c20030ec 	andgt	r3, r0, #236	; 0xec
 6a4:	00000020 	andeq	r0, r0, r0, lsr #32
 6a8:	8b040e42 	blhi	103fb8 <SYS_MODE+0x103f99>
 6ac:	0b0d4201 	bleq	350eb8 <SYS_MODE+0x350e99>
 6b0:	420d0d48 	andmi	r0, sp, #72, 26	; 0x1200
 6b4:	00000ecb 	andeq	r0, r0, fp, asr #29
 6b8:	0000001c 	andeq	r0, r0, ip, lsl r0
 6bc:	00000688 	andeq	r0, r0, r8, lsl #13
 6c0:	c200310c 	andgt	r3, r0, #12, 2
 6c4:	00000054 	andeq	r0, r0, r4, asr r0
 6c8:	8b080e42 	blhi	203fd8 <SYS_MODE+0x203fb9>
 6cc:	42018e02 	andmi	r8, r1, #2, 28
 6d0:	64040b0c 	strvs	r0, [r4], #-2828	; 0xfffff4f4
 6d4:	00080d0c 	andeq	r0, r8, ip, lsl #26
 6d8:	0000001c 	andeq	r0, r0, ip, lsl r0
 6dc:	00000688 	andeq	r0, r0, r8, lsl #13
 6e0:	c2003160 	andgt	r3, r0, #96, 2
 6e4:	00000074 	andeq	r0, r0, r4, ror r0
 6e8:	8b080e42 	blhi	203ff8 <SYS_MODE+0x203fd9>
 6ec:	42018e02 	andmi	r8, r1, #2, 28
 6f0:	74040b0c 	strvc	r0, [r4], #-2828	; 0xfffff4f4
 6f4:	00080d0c 	andeq	r0, r8, ip, lsl #26
 6f8:	0000001c 	andeq	r0, r0, ip, lsl r0
 6fc:	00000688 	andeq	r0, r0, r8, lsl #13
 700:	c20031d4 	andgt	r3, r0, #212, 2	; 0x35
 704:	00000090 	muleq	r0, r0, r0
 708:	8b080e42 	blhi	204018 <SYS_MODE+0x203ff9>
 70c:	42018e02 	andmi	r8, r1, #2, 28
 710:	02040b0c 	andeq	r0, r4, #12, 22	; 0x3000
 714:	080d0c42 	stmdaeq	sp, {r1, r6, sl, fp}
 718:	0000001c 	andeq	r0, r0, ip, lsl r0
 71c:	00000688 	andeq	r0, r0, r8, lsl #13
 720:	00000000 	andeq	r0, r0, r0
 724:	00000058 	andeq	r0, r0, r8, asr r0
 728:	8b080e42 	blhi	204038 <SYS_MODE+0x204019>
 72c:	42018e02 	andmi	r8, r1, #2, 28
 730:	66040b0c 	strvs	r0, [r4], -ip, lsl #22
 734:	00080d0c 	andeq	r0, r8, ip, lsl #26
 738:	0000000c 	andeq	r0, r0, ip
 73c:	ffffffff 			; <UNDEFINED> instruction: 0xffffffff
 740:	7c020001 	stcvc	0, cr0, [r2], {1}
 744:	000d0c0e 	andeq	r0, sp, lr, lsl #24
 748:	0000001c 	andeq	r0, r0, ip, lsl r0
 74c:	00000738 	andeq	r0, r0, r8, lsr r7
 750:	c2003264 	andgt	r3, r0, #100, 4	; 0x40000006
 754:	00000034 	andeq	r0, r0, r4, lsr r0
 758:	8b080e42 	blhi	204068 <SYS_MODE+0x204049>
 75c:	42018e02 	andmi	r8, r1, #2, 28
 760:	54040b0c 	strpl	r0, [r4], #-2828	; 0xfffff4f4
 764:	00080d0c 	andeq	r0, r8, ip, lsl #26
 768:	00000020 	andeq	r0, r0, r0, lsr #32
 76c:	00000738 	andeq	r0, r0, r8, lsr r7
 770:	c2003298 	andgt	r3, r0, #152, 4	; 0x80000009
 774:	00000288 	andeq	r0, r0, r8, lsl #5
 778:	8b080e42 	blhi	204088 <SYS_MODE+0x204069>
 77c:	42018e02 	andmi	r8, r1, #2, 28
 780:	03040b0c 	movweq	r0, #19212	; 0x4b0c
 784:	0d0c013e 	stfeqs	f0, [ip, #-248]	; 0xffffff08
 788:	00000008 	andeq	r0, r0, r8
 78c:	00000018 	andeq	r0, r0, r8, lsl r0
 790:	00000738 	andeq	r0, r0, r8, lsr r7
 794:	c2003520 	andgt	r3, r0, #32, 10	; 0x8000000
 798:	00000014 	andeq	r0, r0, r4, lsl r0
 79c:	8b080e42 	blhi	2040ac <SYS_MODE+0x20408d>
 7a0:	42018e02 	andmi	r8, r1, #2, 28
 7a4:	00040b0c 	andeq	r0, r4, ip, lsl #22
 7a8:	0000001c 	andeq	r0, r0, ip, lsl r0
 7ac:	00000738 	andeq	r0, r0, r8, lsr r7
 7b0:	c2003534 	andgt	r3, r0, #52, 10	; 0xd000000
 7b4:	00000084 	andeq	r0, r0, r4, lsl #1
 7b8:	8b080e42 	blhi	2040c8 <SYS_MODE+0x2040a9>
 7bc:	42018e02 	andmi	r8, r1, #2, 28
 7c0:	7c040b0c 			; <UNDEFINED> instruction: 0x7c040b0c
 7c4:	00080d0c 	andeq	r0, r8, ip, lsl #26
 7c8:	00000018 	andeq	r0, r0, r8, lsl r0
 7cc:	00000738 	andeq	r0, r0, r8, lsr r7
 7d0:	c20035b8 	andgt	r3, r0, #184, 10	; 0x2e000000
 7d4:	00000030 	andeq	r0, r0, r0, lsr r0
 7d8:	8b080e42 	blhi	2040e8 <SYS_MODE+0x2040c9>
 7dc:	42018e02 	andmi	r8, r1, #2, 28
 7e0:	00040b0c 	andeq	r0, r4, ip, lsl #22
 7e4:	0000000c 	andeq	r0, r0, ip
 7e8:	ffffffff 			; <UNDEFINED> instruction: 0xffffffff
 7ec:	7c020001 	stcvc	0, cr0, [r2], {1}
 7f0:	000d0c0e 	andeq	r0, sp, lr, lsl #24
 7f4:	0000001c 	andeq	r0, r0, ip, lsl r0
 7f8:	000007e4 	andeq	r0, r0, r4, ror #15
 7fc:	00000000 	andeq	r0, r0, r0
 800:	00000030 	andeq	r0, r0, r0, lsr r0
 804:	8b080e42 	blhi	204114 <SYS_MODE+0x2040f5>
 808:	42018e02 	andmi	r8, r1, #2, 28
 80c:	52040b0c 	andpl	r0, r4, #12, 22	; 0x3000
 810:	00080d0c 	andeq	r0, r8, ip, lsl #26
 814:	0000001c 	andeq	r0, r0, ip, lsl r0
 818:	000007e4 	andeq	r0, r0, r4, ror #15
 81c:	c20035e8 	andgt	r3, r0, #232, 10	; 0x3a000000
 820:	00000030 	andeq	r0, r0, r0, lsr r0
 824:	8b080e42 	blhi	204134 <SYS_MODE+0x204115>
 828:	42018e02 	andmi	r8, r1, #2, 28
 82c:	52040b0c 	andpl	r0, r4, #12, 22	; 0x3000
 830:	00080d0c 	andeq	r0, r8, ip, lsl #26
 834:	0000001c 	andeq	r0, r0, ip, lsl r0
 838:	000007e4 	andeq	r0, r0, r4, ror #15
 83c:	c2003618 	andgt	r3, r0, #24, 12	; 0x1800000
 840:	00000028 	andeq	r0, r0, r8, lsr #32
 844:	8b080e42 	blhi	204154 <SYS_MODE+0x204135>
 848:	42018e02 	andmi	r8, r1, #2, 28
 84c:	4e040b0c 	vmlami.f64	d0, d4, d12
 850:	00080d0c 	andeq	r0, r8, ip, lsl #26
 854:	00000018 	andeq	r0, r0, r8, lsl r0
 858:	000007e4 	andeq	r0, r0, r4, ror #15
 85c:	c2003640 	andgt	r3, r0, #64, 12	; 0x4000000
 860:	00000020 	andeq	r0, r0, r0, lsr #32
 864:	8b080e42 	blhi	204174 <SYS_MODE+0x204155>
 868:	42018e02 	andmi	r8, r1, #2, 28
 86c:	00040b0c 	andeq	r0, r4, ip, lsl #22
 870:	00000018 	andeq	r0, r0, r8, lsl r0
 874:	000007e4 	andeq	r0, r0, r4, ror #15
 878:	c2003660 	andgt	r3, r0, #96, 12	; 0x6000000
 87c:	00000020 	andeq	r0, r0, r0, lsr #32
 880:	8b080e42 	blhi	204190 <SYS_MODE+0x204171>
 884:	42018e02 	andmi	r8, r1, #2, 28
 888:	00040b0c 	andeq	r0, r4, ip, lsl #22
 88c:	00000018 	andeq	r0, r0, r8, lsl r0
 890:	000007e4 	andeq	r0, r0, r4, ror #15
 894:	c2003680 	andgt	r3, r0, #128, 12	; 0x8000000
 898:	00000020 	andeq	r0, r0, r0, lsr #32
 89c:	8b080e42 	blhi	2041ac <SYS_MODE+0x20418d>
 8a0:	42018e02 	andmi	r8, r1, #2, 28
 8a4:	00040b0c 	andeq	r0, r4, ip, lsl #22
 8a8:	00000018 	andeq	r0, r0, r8, lsl r0
 8ac:	000007e4 	andeq	r0, r0, r4, ror #15
 8b0:	c20036a0 	andgt	r3, r0, #160, 12	; 0xa000000
 8b4:	00000020 	andeq	r0, r0, r0, lsr #32
 8b8:	8b080e42 	blhi	2041c8 <SYS_MODE+0x2041a9>
 8bc:	42018e02 	andmi	r8, r1, #2, 28
 8c0:	00040b0c 	andeq	r0, r4, ip, lsl #22
 8c4:	00000018 	andeq	r0, r0, r8, lsl r0
 8c8:	000007e4 	andeq	r0, r0, r4, ror #15
 8cc:	c20036c0 	andgt	r3, r0, #192, 12	; 0xc000000
 8d0:	00000020 	andeq	r0, r0, r0, lsr #32
 8d4:	8b080e42 	blhi	2041e4 <SYS_MODE+0x2041c5>
 8d8:	42018e02 	andmi	r8, r1, #2, 28
 8dc:	00040b0c 	andeq	r0, r4, ip, lsl #22
 8e0:	00000018 	andeq	r0, r0, r8, lsl r0
 8e4:	000007e4 	andeq	r0, r0, r4, ror #15
 8e8:	c20036e0 	andgt	r3, r0, #224, 12	; 0xe000000
 8ec:	00000020 	andeq	r0, r0, r0, lsr #32
 8f0:	8b080e42 	blhi	204200 <SYS_MODE+0x2041e1>
 8f4:	42018e02 	andmi	r8, r1, #2, 28
 8f8:	00040b0c 	andeq	r0, r4, ip, lsl #22
 8fc:	0000001c 	andeq	r0, r0, ip, lsl r0
 900:	000007e4 	andeq	r0, r0, r4, ror #15
 904:	c2003700 	andgt	r3, r0, #0, 14
 908:	0000018c 	andeq	r0, r0, ip, lsl #3
 90c:	8b080e42 	blhi	20421c <SYS_MODE+0x2041fd>
 910:	42018e02 	andmi	r8, r1, #2, 28
 914:	02040b0c 	andeq	r0, r4, #12, 22	; 0x3000
 918:	080d0cc0 	stmdaeq	sp, {r6, r7, sl, fp}
 91c:	0000000c 	andeq	r0, r0, ip
 920:	ffffffff 			; <UNDEFINED> instruction: 0xffffffff
 924:	7c020001 	stcvc	0, cr0, [r2], {1}
 928:	000d0c0e 	andeq	r0, sp, lr, lsl #24
 92c:	0000001c 	andeq	r0, r0, ip, lsl r0
 930:	0000091c 	andeq	r0, r0, ip, lsl r9
 934:	c200388c 	andgt	r3, r0, #140, 16	; 0x8c0000
 938:	00000080 	andeq	r0, r0, r0, lsl #1
 93c:	8b040e42 	blhi	10424c <SYS_MODE+0x10422d>
 940:	0b0d4201 	bleq	35114c <SYS_MODE+0x35112d>
 944:	420d0d78 	andmi	r0, sp, #120, 26	; 0x1e00
 948:	00000ecb 	andeq	r0, r0, fp, asr #29
 94c:	0000001c 	andeq	r0, r0, ip, lsl r0
 950:	0000091c 	andeq	r0, r0, ip, lsl r9
 954:	c200390c 	andgt	r3, r0, #12, 18	; 0x30000
 958:	0000005c 	andeq	r0, r0, ip, asr r0
 95c:	8b040e42 	blhi	10426c <SYS_MODE+0x10424d>
 960:	0b0d4201 	bleq	35116c <SYS_MODE+0x35114d>
 964:	420d0d66 	andmi	r0, sp, #6528	; 0x1980
 968:	00000ecb 	andeq	r0, r0, fp, asr #29
 96c:	0000001c 	andeq	r0, r0, ip, lsl r0
 970:	0000091c 	andeq	r0, r0, ip, lsl r9
 974:	c2003968 	andgt	r3, r0, #104, 18	; 0x1a0000
 978:	00000080 	andeq	r0, r0, r0, lsl #1
 97c:	8b040e42 	blhi	10428c <SYS_MODE+0x10426d>
 980:	0b0d4201 	bleq	35118c <SYS_MODE+0x35116d>
 984:	420d0d78 	andmi	r0, sp, #120, 26	; 0x1e00
 988:	00000ecb 	andeq	r0, r0, fp, asr #29
 98c:	0000001c 	andeq	r0, r0, ip, lsl r0
 990:	0000091c 	andeq	r0, r0, ip, lsl r9
 994:	00000000 	andeq	r0, r0, r0
 998:	00000080 	andeq	r0, r0, r0, lsl #1
 99c:	8b040e42 	blhi	1042ac <SYS_MODE+0x10428d>
 9a0:	0b0d4201 	bleq	3511ac <SYS_MODE+0x35118d>
 9a4:	420d0d78 	andmi	r0, sp, #120, 26	; 0x1e00
 9a8:	00000ecb 	andeq	r0, r0, fp, asr #29
 9ac:	0000001c 	andeq	r0, r0, ip, lsl r0
 9b0:	0000091c 	andeq	r0, r0, ip, lsl r9
 9b4:	c20039e8 	andgt	r3, r0, #232, 18	; 0x3a0000
 9b8:	00000080 	andeq	r0, r0, r0, lsl #1
 9bc:	8b040e42 	blhi	1042cc <SYS_MODE+0x1042ad>
 9c0:	0b0d4201 	bleq	3511cc <SYS_MODE+0x3511ad>
 9c4:	420d0d78 	andmi	r0, sp, #120, 26	; 0x1e00
 9c8:	00000ecb 	andeq	r0, r0, fp, asr #29
 9cc:	0000001c 	andeq	r0, r0, ip, lsl r0
 9d0:	0000091c 	andeq	r0, r0, ip, lsl r9
 9d4:	00000000 	andeq	r0, r0, r0
 9d8:	00000080 	andeq	r0, r0, r0, lsl #1
 9dc:	8b040e42 	blhi	1042ec <SYS_MODE+0x1042cd>
 9e0:	0b0d4201 	bleq	3511ec <SYS_MODE+0x3511cd>
 9e4:	420d0d78 	andmi	r0, sp, #120, 26	; 0x1e00
 9e8:	00000ecb 	andeq	r0, r0, fp, asr #29
 9ec:	0000000c 	andeq	r0, r0, ip
 9f0:	ffffffff 			; <UNDEFINED> instruction: 0xffffffff
 9f4:	7c020001 	stcvc	0, cr0, [r2], {1}
 9f8:	000d0c0e 	andeq	r0, sp, lr, lsl #24
 9fc:	0000001c 	andeq	r0, r0, ip, lsl r0
 a00:	000009ec 	andeq	r0, r0, ip, ror #19
 a04:	c2003ad8 	andgt	r3, r0, #216, 20	; 0xd8000
 a08:	000000fc 	strdeq	r0, [r0], -ip
 a0c:	8b040e42 	blhi	10431c <SYS_MODE+0x1042fd>
 a10:	0b0d4201 	bleq	35121c <SYS_MODE+0x3511fd>
 a14:	0d0d7602 	stceq	6, cr7, [sp, #-8]
 a18:	000ecb42 	andeq	ip, lr, r2, asr #22
 a1c:	0000001c 	andeq	r0, r0, ip, lsl r0
 a20:	000009ec 	andeq	r0, r0, ip, ror #19
 a24:	c2003bd4 	andgt	r3, r0, #212, 22	; 0x35000
 a28:	00000088 	andeq	r0, r0, r8, lsl #1
 a2c:	8b040e42 	blhi	10433c <SYS_MODE+0x10431d>
 a30:	0b0d4201 	bleq	35123c <SYS_MODE+0x35121d>
 a34:	420d0d7c 	andmi	r0, sp, #124, 26	; 0x1f00
 a38:	00000ecb 	andeq	r0, r0, fp, asr #29
 a3c:	00000020 	andeq	r0, r0, r0, lsr #32
 a40:	000009ec 	andeq	r0, r0, ip, ror #19
 a44:	c2003c5c 	andgt	r3, r0, #92, 24	; 0x5c00
 a48:	00000284 	andeq	r0, r0, r4, lsl #5
 a4c:	8b040e42 	blhi	10435c <SYS_MODE+0x10433d>
 a50:	0b0d4201 	bleq	35125c <SYS_MODE+0x35123d>
 a54:	0d013a03 	vstreq	s6, [r1, #-12]
 a58:	0ecb420d 	cdpeq	2, 12, cr4, cr11, cr13, {0}
 a5c:	00000000 	andeq	r0, r0, r0
 a60:	00000020 	andeq	r0, r0, r0, lsr #32
 a64:	000009ec 	andeq	r0, r0, ip, ror #19
 a68:	c2003ee0 	andgt	r3, r0, #224, 28	; 0xe00
 a6c:	000002f4 	strdeq	r0, [r0], -r4
 a70:	8b080e42 	blhi	204380 <SYS_MODE+0x204361>
 a74:	42018e02 	andmi	r8, r1, #2, 28
 a78:	03040b0c 	movweq	r0, #19212	; 0x4b0c
 a7c:	0d0c0174 	stfeqs	f0, [ip, #-464]	; 0xfffffe30
 a80:	00000008 	andeq	r0, r0, r8
 a84:	0000001c 	andeq	r0, r0, ip, lsl r0
 a88:	000009ec 	andeq	r0, r0, ip, ror #19
 a8c:	c20041d4 	andgt	r4, r0, #212, 2	; 0x35
 a90:	00000050 	andeq	r0, r0, r0, asr r0
 a94:	8b080e42 	blhi	2043a4 <SYS_MODE+0x204385>
 a98:	42018e02 	andmi	r8, r1, #2, 28
 a9c:	62040b0c 	andvs	r0, r4, #12, 22	; 0x3000
 aa0:	00080d0c 	andeq	r0, r8, ip, lsl #26
 aa4:	0000001c 	andeq	r0, r0, ip, lsl r0
 aa8:	000009ec 	andeq	r0, r0, ip, ror #19
 aac:	c2004224 	andgt	r4, r0, #36, 4	; 0x40000002
 ab0:	00000064 	andeq	r0, r0, r4, rrx
 ab4:	8b040e42 	blhi	1043c4 <SYS_MODE+0x1043a5>
 ab8:	0b0d4201 	bleq	3512c4 <SYS_MODE+0x3512a5>
 abc:	420d0d6a 	andmi	r0, sp, #6784	; 0x1a80
 ac0:	00000ecb 	andeq	r0, r0, fp, asr #29
 ac4:	0000000c 	andeq	r0, r0, ip
 ac8:	ffffffff 			; <UNDEFINED> instruction: 0xffffffff
 acc:	7c020001 	stcvc	0, cr0, [r2], {1}
 ad0:	000d0c0e 	andeq	r0, sp, lr, lsl #24
 ad4:	0000001c 	andeq	r0, r0, ip, lsl r0
 ad8:	00000ac4 	andeq	r0, r0, r4, asr #21
 adc:	c2004288 	andgt	r4, r0, #136, 4	; 0x80000008
 ae0:	000000a0 	andeq	r0, r0, r0, lsr #1
 ae4:	8b040e42 	blhi	1043f4 <SYS_MODE+0x1043d5>
 ae8:	0b0d4201 	bleq	3512f4 <SYS_MODE+0x3512d5>
 aec:	0d0d4802 	stceq	8, cr4, [sp, #-8]
 af0:	000ecb42 	andeq	ip, lr, r2, asr #22
 af4:	0000001c 	andeq	r0, r0, ip, lsl r0
 af8:	00000ac4 	andeq	r0, r0, r4, asr #21
 afc:	c2004328 	andgt	r4, r0, #40, 6	; 0xa0000000
 b00:	0000007c 	andeq	r0, r0, ip, ror r0
 b04:	8b040e42 	blhi	104414 <SYS_MODE+0x1043f5>
 b08:	0b0d4201 	bleq	351314 <SYS_MODE+0x3512f5>
 b0c:	420d0d76 	andmi	r0, sp, #7552	; 0x1d80
 b10:	00000ecb 	andeq	r0, r0, fp, asr #29
 b14:	0000001c 	andeq	r0, r0, ip, lsl r0
 b18:	00000ac4 	andeq	r0, r0, r4, asr #21
 b1c:	c20043a4 	andgt	r4, r0, #164, 6	; 0x90000002
 b20:	00000064 	andeq	r0, r0, r4, rrx
 b24:	8b080e42 	blhi	204434 <SYS_MODE+0x204415>
 b28:	42018e02 	andmi	r8, r1, #2, 28
 b2c:	6c040b0c 			; <UNDEFINED> instruction: 0x6c040b0c
 b30:	00080d0c 	andeq	r0, r8, ip, lsl #26
 b34:	0000001c 	andeq	r0, r0, ip, lsl r0
 b38:	00000ac4 	andeq	r0, r0, r4, asr #21
 b3c:	c2004408 	andgt	r4, r0, #8, 8	; 0x8000000
 b40:	00000040 	andeq	r0, r0, r0, asr #32
 b44:	8b080e42 	blhi	204454 <SYS_MODE+0x204435>
 b48:	42018e02 	andmi	r8, r1, #2, 28
 b4c:	5a040b0c 	bpl	103784 <SYS_MODE+0x103765>
 b50:	00080d0c 	andeq	r0, r8, ip, lsl #26
 b54:	0000001c 	andeq	r0, r0, ip, lsl r0
 b58:	00000ac4 	andeq	r0, r0, r4, asr #21
 b5c:	00000000 	andeq	r0, r0, r0
 b60:	00000040 	andeq	r0, r0, r0, asr #32
 b64:	8b080e42 	blhi	204474 <SYS_MODE+0x204455>
 b68:	42018e02 	andmi	r8, r1, #2, 28
 b6c:	5a040b0c 	bpl	1037a4 <SYS_MODE+0x103785>
 b70:	00080d0c 	andeq	r0, r8, ip, lsl #26
 b74:	0000001c 	andeq	r0, r0, ip, lsl r0
 b78:	00000ac4 	andeq	r0, r0, r4, asr #21
 b7c:	c2004448 	andgt	r4, r0, #72, 8	; 0x48000000
 b80:	000000f0 	strdeq	r0, [r0], -r0	; <UNPREDICTABLE>
 b84:	8b080e42 	blhi	204494 <SYS_MODE+0x204475>
 b88:	42018e02 	andmi	r8, r1, #2, 28
 b8c:	02040b0c 	andeq	r0, r4, #12, 22	; 0x3000
 b90:	080d0c72 	stmdaeq	sp, {r1, r4, r5, r6, sl, fp}
 b94:	0000001c 	andeq	r0, r0, ip, lsl r0
 b98:	00000ac4 	andeq	r0, r0, r4, asr #21
 b9c:	00000000 	andeq	r0, r0, r0
 ba0:	000000b8 	strheq	r0, [r0], -r8
 ba4:	8b080e42 	blhi	2044b4 <SYS_MODE+0x204495>
 ba8:	42018e02 	andmi	r8, r1, #2, 28
 bac:	02040b0c 	andeq	r0, r4, #12, 22	; 0x3000
 bb0:	080d0c56 	stmdaeq	sp, {r1, r2, r4, r6, sl, fp}
 bb4:	0000001c 	andeq	r0, r0, ip, lsl r0
 bb8:	00000ac4 	andeq	r0, r0, r4, asr #21
 bbc:	00000000 	andeq	r0, r0, r0
 bc0:	00000040 	andeq	r0, r0, r0, asr #32
 bc4:	8b080e42 	blhi	2044d4 <SYS_MODE+0x2044b5>
 bc8:	42018e02 	andmi	r8, r1, #2, 28
 bcc:	5a040b0c 	bpl	103804 <SYS_MODE+0x1037e5>
 bd0:	00080d0c 	andeq	r0, r8, ip, lsl #26
 bd4:	0000001c 	andeq	r0, r0, ip, lsl r0
 bd8:	00000ac4 	andeq	r0, r0, r4, asr #21
 bdc:	c2004538 	andgt	r4, r0, #56, 10	; 0xe000000
 be0:	00000040 	andeq	r0, r0, r0, asr #32
 be4:	8b080e42 	blhi	2044f4 <SYS_MODE+0x2044d5>
 be8:	42018e02 	andmi	r8, r1, #2, 28
 bec:	5a040b0c 	bpl	103824 <SYS_MODE+0x103805>
 bf0:	00080d0c 	andeq	r0, r8, ip, lsl #26
 bf4:	0000001c 	andeq	r0, r0, ip, lsl r0
 bf8:	00000ac4 	andeq	r0, r0, r4, asr #21
 bfc:	c2004578 	andgt	r4, r0, #120, 10	; 0x1e000000
 c00:	00000040 	andeq	r0, r0, r0, asr #32
 c04:	8b080e42 	blhi	204514 <SYS_MODE+0x2044f5>
 c08:	42018e02 	andmi	r8, r1, #2, 28
 c0c:	5a040b0c 	bpl	103844 <SYS_MODE+0x103825>
 c10:	00080d0c 	andeq	r0, r8, ip, lsl #26
 c14:	0000001c 	andeq	r0, r0, ip, lsl r0
 c18:	00000ac4 	andeq	r0, r0, r4, asr #21
 c1c:	00000000 	andeq	r0, r0, r0
 c20:	00000040 	andeq	r0, r0, r0, asr #32
 c24:	8b080e42 	blhi	204534 <SYS_MODE+0x204515>
 c28:	42018e02 	andmi	r8, r1, #2, 28
 c2c:	5a040b0c 	bpl	103864 <SYS_MODE+0x103845>
 c30:	00080d0c 	andeq	r0, r8, ip, lsl #26
 c34:	0000001c 	andeq	r0, r0, ip, lsl r0
 c38:	00000ac4 	andeq	r0, r0, r4, asr #21
 c3c:	c20045b8 	andgt	r4, r0, #184, 10	; 0x2e000000
 c40:	00000048 	andeq	r0, r0, r8, asr #32
 c44:	8b080e42 	blhi	204554 <SYS_MODE+0x204535>
 c48:	42018e02 	andmi	r8, r1, #2, 28
 c4c:	5e040b0c 	vmlapl.f64	d0, d4, d12
 c50:	00080d0c 	andeq	r0, r8, ip, lsl #26
 c54:	0000001c 	andeq	r0, r0, ip, lsl r0
 c58:	00000ac4 	andeq	r0, r0, r4, asr #21
 c5c:	c2004600 	andgt	r4, r0, #0, 12
 c60:	0000003c 	andeq	r0, r0, ip, lsr r0
 c64:	8b080e42 	blhi	204574 <SYS_MODE+0x204555>
 c68:	42018e02 	andmi	r8, r1, #2, 28
 c6c:	58040b0c 	stmdapl	r4, {r2, r3, r8, r9, fp}
 c70:	00080d0c 	andeq	r0, r8, ip, lsl #26
 c74:	0000001c 	andeq	r0, r0, ip, lsl r0
 c78:	00000ac4 	andeq	r0, r0, r4, asr #21
 c7c:	00000000 	andeq	r0, r0, r0
 c80:	0000003c 	andeq	r0, r0, ip, lsr r0
 c84:	8b080e42 	blhi	204594 <SYS_MODE+0x204575>
 c88:	42018e02 	andmi	r8, r1, #2, 28
 c8c:	58040b0c 	stmdapl	r4, {r2, r3, r8, r9, fp}
 c90:	00080d0c 	andeq	r0, r8, ip, lsl #26
 c94:	0000000c 	andeq	r0, r0, ip
 c98:	ffffffff 			; <UNDEFINED> instruction: 0xffffffff
 c9c:	7c020001 	stcvc	0, cr0, [r2], {1}
 ca0:	000d0c0e 	andeq	r0, sp, lr, lsl #24
 ca4:	0000001c 	andeq	r0, r0, ip, lsl r0
 ca8:	00000c94 	muleq	r0, r4, ip
 cac:	00000000 	andeq	r0, r0, r0
 cb0:	00000030 	andeq	r0, r0, r0, lsr r0
 cb4:	8b040e42 	blhi	1045c4 <SYS_MODE+0x1045a5>
 cb8:	0b0d4201 	bleq	3514c4 <SYS_MODE+0x3514a5>
 cbc:	420d0d50 	andmi	r0, sp, #80, 26	; 0x1400
 cc0:	00000ecb 	andeq	r0, r0, fp, asr #29
 cc4:	0000001c 	andeq	r0, r0, ip, lsl r0
 cc8:	00000c94 	muleq	r0, r4, ip
 ccc:	00000000 	andeq	r0, r0, r0
 cd0:	0000002c 	andeq	r0, r0, ip, lsr #32
 cd4:	8b040e42 	blhi	1045e4 <SYS_MODE+0x1045c5>
 cd8:	0b0d4201 	bleq	3514e4 <SYS_MODE+0x3514c5>
 cdc:	420d0d4e 	andmi	r0, sp, #4992	; 0x1380
 ce0:	00000ecb 	andeq	r0, r0, fp, asr #29
 ce4:	0000001c 	andeq	r0, r0, ip, lsl r0
 ce8:	00000c94 	muleq	r0, r4, ip
 cec:	c200463c 	andgt	r4, r0, #60, 12	; 0x3c00000
 cf0:	00000038 	andeq	r0, r0, r8, lsr r0
 cf4:	8b040e42 	blhi	104604 <SYS_MODE+0x1045e5>
 cf8:	0b0d4201 	bleq	351504 <SYS_MODE+0x3514e5>
 cfc:	420d0d54 	andmi	r0, sp, #84, 26	; 0x1500
 d00:	00000ecb 	andeq	r0, r0, fp, asr #29
 d04:	0000001c 	andeq	r0, r0, ip, lsl r0
 d08:	00000c94 	muleq	r0, r4, ip
 d0c:	00000000 	andeq	r0, r0, r0
 d10:	00000038 	andeq	r0, r0, r8, lsr r0
 d14:	8b040e42 	blhi	104624 <SYS_MODE+0x104605>
 d18:	0b0d4201 	bleq	351524 <SYS_MODE+0x351505>
 d1c:	420d0d54 	andmi	r0, sp, #84, 26	; 0x1500
 d20:	00000ecb 	andeq	r0, r0, fp, asr #29
 d24:	0000000c 	andeq	r0, r0, ip
 d28:	ffffffff 			; <UNDEFINED> instruction: 0xffffffff
 d2c:	7c020001 	stcvc	0, cr0, [r2], {1}
 d30:	000d0c0e 	andeq	r0, sp, lr, lsl #24
 d34:	0000001c 	andeq	r0, r0, ip, lsl r0
 d38:	00000d24 	andeq	r0, r0, r4, lsr #26
 d3c:	c2004674 	andgt	r4, r0, #116, 12	; 0x7400000
 d40:	00000054 	andeq	r0, r0, r4, asr r0
 d44:	8b080e42 	blhi	204654 <SYS_MODE+0x204635>
 d48:	42018e02 	andmi	r8, r1, #2, 28
 d4c:	64040b0c 	strvs	r0, [r4], #-2828	; 0xfffff4f4
 d50:	00080d0c 	andeq	r0, r8, ip, lsl #26
 d54:	0000001c 	andeq	r0, r0, ip, lsl r0
 d58:	00000d24 	andeq	r0, r0, r4, lsr #26
 d5c:	00000000 	andeq	r0, r0, r0
 d60:	0000003c 	andeq	r0, r0, ip, lsr r0
 d64:	8b080e42 	blhi	204674 <SYS_MODE+0x204655>
 d68:	42018e02 	andmi	r8, r1, #2, 28
 d6c:	58040b0c 	stmdapl	r4, {r2, r3, r8, r9, fp}
 d70:	00080d0c 	andeq	r0, r8, ip, lsl #26
 d74:	00000020 	andeq	r0, r0, r0, lsr #32
 d78:	00000d24 	andeq	r0, r0, r4, lsr #26
 d7c:	c20046c8 	andgt	r4, r0, #200, 12	; 0xc800000
 d80:	00000180 	andeq	r0, r0, r0, lsl #3
 d84:	840c0e42 	strhi	r0, [ip], #-3650	; 0xfffff1be
 d88:	8e028b03 	vmlahi.f64	d8, d2, d3
 d8c:	0b0c4201 	bleq	311598 <SYS_MODE+0x311579>
 d90:	0cba0204 	lfmeq	f0, 4, [sl], #16
 d94:	00000c0d 	andeq	r0, r0, sp, lsl #24
 d98:	0000001c 	andeq	r0, r0, ip, lsl r0
 d9c:	00000d24 	andeq	r0, r0, r4, lsr #26
 da0:	00000000 	andeq	r0, r0, r0
 da4:	00000054 	andeq	r0, r0, r4, asr r0
 da8:	8b080e42 	blhi	2046b8 <SYS_MODE+0x204699>
 dac:	42018e02 	andmi	r8, r1, #2, 28
 db0:	64040b0c 	strvs	r0, [r4], #-2828	; 0xfffff4f4
 db4:	00080d0c 	andeq	r0, r8, ip, lsl #26
 db8:	0000001c 	andeq	r0, r0, ip, lsl r0
 dbc:	00000d24 	andeq	r0, r0, r4, lsr #26
 dc0:	c2004848 	andgt	r4, r0, #72, 16	; 0x480000
 dc4:	00000074 	andeq	r0, r0, r4, ror r0
 dc8:	8b080e42 	blhi	2046d8 <SYS_MODE+0x2046b9>
 dcc:	42018e02 	andmi	r8, r1, #2, 28
 dd0:	74040b0c 	strvc	r0, [r4], #-2828	; 0xfffff4f4
 dd4:	00080d0c 	andeq	r0, r8, ip, lsl #26
 dd8:	0000001c 	andeq	r0, r0, ip, lsl r0
 ddc:	00000d24 	andeq	r0, r0, r4, lsr #26
 de0:	00000000 	andeq	r0, r0, r0
 de4:	00000084 	andeq	r0, r0, r4, lsl #1
 de8:	8b080e42 	blhi	2046f8 <SYS_MODE+0x2046d9>
 dec:	42018e02 	andmi	r8, r1, #2, 28
 df0:	7c040b0c 			; <UNDEFINED> instruction: 0x7c040b0c
 df4:	00080d0c 	andeq	r0, r8, ip, lsl #26
 df8:	0000001c 	andeq	r0, r0, ip, lsl r0
 dfc:	00000d24 	andeq	r0, r0, r4, lsr #26
 e00:	00000000 	andeq	r0, r0, r0
 e04:	00000020 	andeq	r0, r0, r0, lsr #32
 e08:	8b040e42 	blhi	104718 <SYS_MODE+0x1046f9>
 e0c:	0b0d4201 	bleq	351618 <SYS_MODE+0x3515f9>
 e10:	420d0d48 	andmi	r0, sp, #72, 26	; 0x1200
 e14:	00000ecb 	andeq	r0, r0, fp, asr #29
 e18:	0000001c 	andeq	r0, r0, ip, lsl r0
 e1c:	00000d24 	andeq	r0, r0, r4, lsr #26
 e20:	00000000 	andeq	r0, r0, r0
 e24:	00000020 	andeq	r0, r0, r0, lsr #32
 e28:	8b040e42 	blhi	104738 <SYS_MODE+0x104719>
 e2c:	0b0d4201 	bleq	351638 <SYS_MODE+0x351619>
 e30:	420d0d48 	andmi	r0, sp, #72, 26	; 0x1200
 e34:	00000ecb 	andeq	r0, r0, fp, asr #29
 e38:	0000001c 	andeq	r0, r0, ip, lsl r0
 e3c:	00000d24 	andeq	r0, r0, r4, lsr #26
 e40:	c20048bc 	andgt	r4, r0, #188, 16	; 0xbc0000
 e44:	00000154 	andeq	r0, r0, r4, asr r1
 e48:	8b080e42 	blhi	204758 <SYS_MODE+0x204739>
 e4c:	42018e02 	andmi	r8, r1, #2, 28
 e50:	02040b0c 	andeq	r0, r4, #12, 22	; 0x3000
 e54:	080d0ca4 	stmdaeq	sp, {r2, r5, r7, sl, fp}
 e58:	0000001c 	andeq	r0, r0, ip, lsl r0
 e5c:	00000d24 	andeq	r0, r0, r4, lsr #26
 e60:	00000000 	andeq	r0, r0, r0
 e64:	00000030 	andeq	r0, r0, r0, lsr r0
 e68:	8b040e42 	blhi	104778 <SYS_MODE+0x104759>
 e6c:	0b0d4201 	bleq	351678 <SYS_MODE+0x351659>
 e70:	420d0d50 	andmi	r0, sp, #80, 26	; 0x1400
 e74:	00000ecb 	andeq	r0, r0, fp, asr #29
 e78:	00000028 	andeq	r0, r0, r8, lsr #32
 e7c:	00000d24 	andeq	r0, r0, r4, lsr #26
 e80:	c2004a10 	andgt	r4, r0, #16, 20	; 0x10000
 e84:	000001a0 	andeq	r0, r0, r0, lsr #3
 e88:	84200e42 	strthi	r0, [r0], #-3650	; 0xfffff1be
 e8c:	86078508 	strhi	r8, [r7], -r8, lsl #10
 e90:	88058706 	stmdahi	r5, {r1, r2, r8, r9, sl, pc}
 e94:	8b038904 	blhi	e32ac <SYS_MODE+0xe328d>
 e98:	42018e02 	andmi	r8, r1, #2, 28
 e9c:	02040b0c 	andeq	r0, r4, #12, 22	; 0x3000
 ea0:	200d0cca 	andcs	r0, sp, sl, asr #25
 ea4:	0000000c 	andeq	r0, r0, ip
 ea8:	ffffffff 			; <UNDEFINED> instruction: 0xffffffff
 eac:	7c020001 	stcvc	0, cr0, [r2], {1}
 eb0:	000d0c0e 	andeq	r0, sp, lr, lsl #24
 eb4:	0000001c 	andeq	r0, r0, ip, lsl r0
 eb8:	00000ea4 	andeq	r0, r0, r4, lsr #29
 ebc:	c2004bb0 	andgt	r4, r0, #176, 22	; 0x2c000
 ec0:	00000078 	andeq	r0, r0, r8, ror r0
 ec4:	84100e42 	ldrhi	r0, [r0], #-3650	; 0xfffff1be
 ec8:	8b038504 	blhi	e22e0 <SYS_MODE+0xe22c1>
 ecc:	42018e02 	andmi	r8, r1, #2, 28
 ed0:	00040b0c 	andeq	r0, r4, ip, lsl #22
 ed4:	00000018 	andeq	r0, r0, r8, lsl r0
 ed8:	00000ea4 	andeq	r0, r0, r4, lsr #29
 edc:	c2004c28 	andgt	r4, r0, #40, 24	; 0x2800
 ee0:	00000014 	andeq	r0, r0, r4, lsl r0
 ee4:	8b080e42 	blhi	2047f4 <SYS_MODE+0x2047d5>
 ee8:	42018e02 	andmi	r8, r1, #2, 28
 eec:	00040b0c 	andeq	r0, r4, ip, lsl #22
 ef0:	0000001c 	andeq	r0, r0, ip, lsl r0
 ef4:	00000ea4 	andeq	r0, r0, r4, lsr #29
 ef8:	c2004c3c 	andgt	r4, r0, #60, 24	; 0x3c00
 efc:	00000060 	andeq	r0, r0, r0, rrx
 f00:	8b080e42 	blhi	204810 <SYS_MODE+0x2047f1>
 f04:	42018e02 	andmi	r8, r1, #2, 28
 f08:	6a040b0c 	bvs	103b40 <SYS_MODE+0x103b21>
 f0c:	00080d0c 	andeq	r0, r8, ip, lsl #26
 f10:	0000000c 	andeq	r0, r0, ip
 f14:	ffffffff 			; <UNDEFINED> instruction: 0xffffffff
 f18:	7c010001 	stcvc	0, cr0, [r1], {1}
 f1c:	000d0c0e 	andeq	r0, sp, lr, lsl #24
 f20:	0000000c 	andeq	r0, r0, ip
 f24:	00000f10 	andeq	r0, r0, r0, lsl pc
 f28:	c2004ca1 	andgt	r4, r0, #41216	; 0xa100
 f2c:	0000025c 	andeq	r0, r0, ip, asr r2
 f30:	0000000c 	andeq	r0, r0, ip
 f34:	ffffffff 			; <UNDEFINED> instruction: 0xffffffff
 f38:	7c020001 	stcvc	0, cr0, [r2], {1}
 f3c:	000d0c0e 	andeq	r0, sp, lr, lsl #24
 f40:	00000018 	andeq	r0, r0, r8, lsl r0
 f44:	00000f30 	andeq	r0, r0, r0, lsr pc
 f48:	c2004f1c 	andgt	r4, r0, #28, 30	; 0x70
 f4c:	00000030 	andeq	r0, r0, r0, lsr r0
 f50:	8e100e50 	mrchi	14, 0, r0, cr0, cr0, {2}
 f54:	0ece4703 	cdpeq	7, 12, cr4, cr14, cr3, {0}
 f58:	00000010 	andeq	r0, r0, r0, lsl r0
 f5c:	0000000c 	andeq	r0, r0, ip
 f60:	ffffffff 			; <UNDEFINED> instruction: 0xffffffff
 f64:	7c020001 	stcvc	0, cr0, [r2], {1}
 f68:	000d0c0e 	andeq	r0, sp, lr, lsl #24
 f6c:	00000020 	andeq	r0, r0, r0, lsr #32
 f70:	00000f5c 	andeq	r0, r0, ip, asr pc
 f74:	c2004f4c 	andgt	r4, r0, #76, 30	; 0x130
 f78:	00000112 	andeq	r0, r0, r2, lsl r1
 f7c:	84200e43 	strthi	r0, [r0], #-3651	; 0xfffff1bd
 f80:	86078508 	strhi	r8, [r7], -r8, lsl #10
 f84:	88058706 	stmdahi	r5, {r1, r2, r8, r9, sl, pc}
 f88:	8a038904 	bhi	e33a0 <SYS_MODE+0xe3381>
 f8c:	00018e02 	andeq	r8, r1, r2, lsl #28
