
/home/czlimx/codespace/temp/baremetal_for_c/bin/am3358/tryrtos/trycode:     file format elf32-littlearm


Disassembly of section .text:

c2000000 <_vector_table>:
c2000000:	e59ff018 	ldr	pc, [pc, #24]	; c2000020 <_reset_handle>
c2000004:	e59ff018 	ldr	pc, [pc, #24]	; c2000024 <_undefined_instruction_handle>
c2000008:	e59ff018 	ldr	pc, [pc, #24]	; c2000028 <_software_interrupt_handle>
c200000c:	e59ff018 	ldr	pc, [pc, #24]	; c200002c <_prefetch_abort_handle>
c2000010:	e59ff018 	ldr	pc, [pc, #24]	; c2000030 <_data_abort_handle>
c2000014:	e59ff018 	ldr	pc, [pc, #24]	; c2000034 <_not_used_handle>
c2000018:	e59ff018 	ldr	pc, [pc, #24]	; c2000038 <_irq_handle>
c200001c:	e59ff018 	ldr	pc, [pc, #24]	; c200003c <_fiq_handle>

c2000020 <_reset_handle>:
c2000020:	c200005c 	andgt	r0, r0, #92	; 0x5c

c2000024 <_undefined_instruction_handle>:
c2000024:	c2000040 	andgt	r0, r0, #64	; 0x40

c2000028 <_software_interrupt_handle>:
c2000028:	c2000044 	andgt	r0, r0, #68	; 0x44

c200002c <_prefetch_abort_handle>:
c200002c:	c20004a0 	andgt	r0, r0, #160, 8	; 0xa0000000

c2000030 <_data_abort_handle>:
c2000030:	c20004a4 	andgt	r0, r0, #164, 8	; 0xa4000000

c2000034 <_not_used_handle>:
c2000034:	c2000050 	andgt	r0, r0, #80	; 0x50

c2000038 <_irq_handle>:
c2000038:	c20004a8 	andgt	r0, r0, #168, 8	; 0xa8000000

c200003c <_fiq_handle>:
c200003c:	c2000054 	andgt	r0, r0, #84	; 0x54

c2000040 <do_undefined_instruction>:
c2000040:	eafffffe 	b	c2000040 <do_undefined_instruction>

c2000044 <do_software_interrupt>:
c2000044:	eafffffe 	b	c2000044 <do_software_interrupt>
c2000048:	ea000114 	b	c20004a0 <do_prefetch_abort>
c200004c:	ea000114 	b	c20004a4 <do_data_abort>

c2000050 <do_not_used>:
c2000050:	eafffffe 	b	c2000050 <do_not_used>

c2000054 <do_fiq>:
c2000054:	eafffffe 	b	c2000054 <do_fiq>
c2000058:	ea000112 	b	c20004a8 <do_irq>

c200005c <_start>:
c200005c:	f10e01d3 	cpsid	aif,#19
c2000060:	ee110f10 	mrc	15, 0, r0, cr1, cr0, {0}
c2000064:	e3c00a02 	bic	r0, r0, #8192	; 0x2000
c2000068:	ee010f10 	mcr	15, 0, r0, cr1, cr0, {0}
c200006c:	e59f0078 	ldr	r0, [pc, #120]	; c20000ec <loop+0x4>
c2000070:	ee0c0f10 	mcr	15, 0, r0, cr12, cr0, {0}
c2000074:	ee110f10 	mrc	15, 0, r0, cr1, cr0, {0}
c2000078:	e3c00001 	bic	r0, r0, #1
c200007c:	ee010f10 	mcr	15, 0, r0, cr1, cr0, {0}
c2000080:	ee110f10 	mrc	15, 0, r0, cr1, cr0, {0}
c2000084:	e3c00b02 	bic	r0, r0, #2048	; 0x800
c2000088:	ee010f10 	mcr	15, 0, r0, cr1, cr0, {0}
c200008c:	ee110f10 	mrc	15, 0, r0, cr1, cr0, {0}
c2000090:	e3c00a01 	bic	r0, r0, #4096	; 0x1000
c2000094:	ee010f10 	mcr	15, 0, r0, cr1, cr0, {0}
c2000098:	ee110f10 	mrc	15, 0, r0, cr1, cr0, {0}
c200009c:	e3c00004 	bic	r0, r0, #4
c20000a0:	ee010f10 	mcr	15, 0, r0, cr1, cr0, {0}
c20000a4:	ee110f10 	mrc	15, 0, r0, cr1, cr0, {0}
c20000a8:	e3c00002 	bic	r0, r0, #2
c20000ac:	ee010f10 	mcr	15, 0, r0, cr1, cr0, {0}
c20000b0:	f1020017 	cps	#23
c20000b4:	e59f0034 	ldr	r0, [pc, #52]	; c20000f0 <loop+0x8>
c20000b8:	e1a0d000 	mov	sp, r0
c20000bc:	f1020012 	cps	#18
c20000c0:	e2400a01 	sub	r0, r0, #4096	; 0x1000
c20000c4:	e1a0d000 	mov	sp, r0
c20000c8:	f1020013 	cps	#19
c20000cc:	e2400a01 	sub	r0, r0, #4096	; 0x1000
c20000d0:	e1a0d000 	mov	sp, r0
c20000d4:	f102001f 	cps	#31
c20000d8:	e2400a01 	sub	r0, r0, #4096	; 0x1000
c20000dc:	e1a0d000 	mov	sp, r0
c20000e0:	f1020013 	cps	#19
c20000e4:	eb00079c 	bl	c2001f5c <_early_arch_init>

c20000e8 <loop>:
c20000e8:	eafffffe 	b	c20000e8 <loop>
c20000ec:	c2000000 	andgt	r0, r0, #0
c20000f0:	c2007000 	andgt	r7, r0, #0

c20000f4 <arch_branch_predictor_enable>:
c20000f4:	ee110f10 	mrc	15, 0, r0, cr1, cr0, {0}
c20000f8:	e3800b02 	orr	r0, r0, #2048	; 0x800
c20000fc:	ee010f10 	mcr	15, 0, r0, cr1, cr0, {0}
c2000100:	e12fff1e 	bx	lr

c2000104 <arch_branch_predictor_disable>:
c2000104:	ee110f10 	mrc	15, 0, r0, cr1, cr0, {0}
c2000108:	e3c00b02 	bic	r0, r0, #2048	; 0x800
c200010c:	ee010f10 	mcr	15, 0, r0, cr1, cr0, {0}
c2000110:	e12fff1e 	bx	lr

c2000114 <arch_branch_predictor_invalidate_all>:
c2000114:	e3a00000 	mov	r0, #0
c2000118:	ee070fd5 	mcr	15, 0, r0, cr7, cr5, {6}
c200011c:	e12fff1e 	bx	lr

c2000120 <arch_branch_predictor_invalidate_range>:
c2000120:	e92d1ff0 	push	{r4, r5, r6, r7, r8, r9, sl, fp, ip}
c2000124:	e3a02000 	mov	r2, #0
c2000128:	ee402f10 	mcr	15, 2, r2, cr0, cr0, {0}
c200012c:	f57ff06f 	isb	sy
c2000130:	ee302f10 	mrc	15, 1, r2, cr0, cr0, {0}
c2000134:	e2022007 	and	r2, r2, #7
c2000138:	e2822002 	add	r2, r2, #2
c200013c:	e3a03001 	mov	r3, #1
c2000140:	e1a03213 	lsl	r3, r3, r2
c2000144:	e0802001 	add	r2, r0, r1
c2000148:	e2434001 	sub	r4, r3, #1
c200014c:	e1c00004 	bic	r0, r0, r4
c2000150:	ee070ff5 	mcr	15, 0, r0, cr7, cr5, {7}
c2000154:	e0800003 	add	r0, r0, r3
c2000158:	e1500002 	cmp	r0, r2
c200015c:	3afffffb 	bcc	c2000150 <arch_branch_predictor_invalidate_range+0x30>
c2000160:	f57ff04f 	dsb	sy
c2000164:	e8bd1ff0 	pop	{r4, r5, r6, r7, r8, r9, sl, fp, ip}
c2000168:	e12fff1e 	bx	lr

c200016c <arch_icache_enable>:
c200016c:	ee110f10 	mrc	15, 0, r0, cr1, cr0, {0}
c2000170:	e3800a01 	orr	r0, r0, #4096	; 0x1000
c2000174:	ee010f10 	mcr	15, 0, r0, cr1, cr0, {0}
c2000178:	e12fff1e 	bx	lr

c200017c <arch_icache_disable>:
c200017c:	ee110f10 	mrc	15, 0, r0, cr1, cr0, {0}
c2000180:	e3c00a01 	bic	r0, r0, #4096	; 0x1000
c2000184:	ee010f10 	mcr	15, 0, r0, cr1, cr0, {0}
c2000188:	e12fff1e 	bx	lr

c200018c <arch_dcache_enable>:
c200018c:	ee110f10 	mrc	15, 0, r0, cr1, cr0, {0}
c2000190:	e3800004 	orr	r0, r0, #4
c2000194:	ee010f10 	mcr	15, 0, r0, cr1, cr0, {0}
c2000198:	e12fff1e 	bx	lr

c200019c <arch_dcache_disable>:
c200019c:	ee110f10 	mrc	15, 0, r0, cr1, cr0, {0}
c20001a0:	e3c00004 	bic	r0, r0, #4
c20001a4:	ee010f10 	mcr	15, 0, r0, cr1, cr0, {0}
c20001a8:	e12fff1e 	bx	lr

c20001ac <arch_icache_invalidate_all>:
c20001ac:	e3a00000 	mov	r0, #0
c20001b0:	ee070f15 	mcr	15, 0, r0, cr7, cr5, {0}
c20001b4:	e12fff1e 	bx	lr

c20001b8 <arch_icache_invalidate_range>:
c20001b8:	e92d1ff0 	push	{r4, r5, r6, r7, r8, r9, sl, fp, ip}
c20001bc:	e3a02001 	mov	r2, #1
c20001c0:	ee402f10 	mcr	15, 2, r2, cr0, cr0, {0}
c20001c4:	f57ff06f 	isb	sy
c20001c8:	ee302f10 	mrc	15, 1, r2, cr0, cr0, {0}
c20001cc:	e2022007 	and	r2, r2, #7
c20001d0:	e2822002 	add	r2, r2, #2
c20001d4:	e3a03001 	mov	r3, #1
c20001d8:	e1a03213 	lsl	r3, r3, r2
c20001dc:	e0802001 	add	r2, r0, r1
c20001e0:	e2434001 	sub	r4, r3, #1
c20001e4:	e1c00004 	bic	r0, r0, r4
c20001e8:	ee070f35 	mcr	15, 0, r0, cr7, cr5, {1}
c20001ec:	e0800003 	add	r0, r0, r3
c20001f0:	e1500002 	cmp	r0, r2
c20001f4:	3afffffb 	bcc	c20001e8 <arch_icache_invalidate_range+0x30>
c20001f8:	f57ff04f 	dsb	sy
c20001fc:	e8bd1ff0 	pop	{r4, r5, r6, r7, r8, r9, sl, fp, ip}
c2000200:	e12fff1e 	bx	lr

c2000204 <arch_dcache_invalidate_all>:
c2000204:	e92d1fff 	push	{r0, r1, r2, r3, r4, r5, r6, r7, r8, r9, sl, fp, ip}
c2000208:	f57ff05f 	dmb	sy
c200020c:	ee300f30 	mrc	15, 1, r0, cr0, cr0, {1}
c2000210:	e2103407 	ands	r3, r0, #117440512	; 0x7000000
c2000214:	e1a03ba3 	lsr	r3, r3, #23
c2000218:	0a00001b 	beq	c200028c <arch_dcache_invalidate_all+0x88>
c200021c:	e3a0a000 	mov	sl, #0
c2000220:	e08a20aa 	add	r2, sl, sl, lsr #1
c2000224:	e1a01230 	lsr	r1, r0, r2
c2000228:	e2011007 	and	r1, r1, #7
c200022c:	e3510002 	cmp	r1, #2
c2000230:	ba000011 	blt	c200027c <arch_dcache_invalidate_all+0x78>
c2000234:	ee40af10 	mcr	15, 2, sl, cr0, cr0, {0}
c2000238:	f57ff06f 	isb	sy
c200023c:	ee301f10 	mrc	15, 1, r1, cr0, cr0, {0}
c2000240:	e2012007 	and	r2, r1, #7
c2000244:	e2822004 	add	r2, r2, #4
c2000248:	e59f4248 	ldr	r4, [pc, #584]	; c2000498 <arch_dcache_flush_range+0x4c>
c200024c:	e01441a1 	ands	r4, r4, r1, lsr #3
c2000250:	e16f5f14 	clz	r5, r4
c2000254:	e1a09004 	mov	r9, r4
c2000258:	e59f723c 	ldr	r7, [pc, #572]	; c200049c <arch_dcache_flush_range+0x50>
c200025c:	e01776a1 	ands	r7, r7, r1, lsr #13
c2000260:	e18ab519 	orr	fp, sl, r9, lsl r5
c2000264:	e18bb217 	orr	fp, fp, r7, lsl r2
c2000268:	ee07bf56 	mcr	15, 0, fp, cr7, cr6, {2}
c200026c:	e2577001 	subs	r7, r7, #1
c2000270:	aafffffa 	bge	c2000260 <arch_dcache_invalidate_all+0x5c>
c2000274:	e2599001 	subs	r9, r9, #1
c2000278:	aafffff6 	bge	c2000258 <arch_dcache_invalidate_all+0x54>
c200027c:	e28aa002 	add	sl, sl, #2
c2000280:	e153000a 	cmp	r3, sl
c2000284:	caffffe5 	bgt	c2000220 <arch_dcache_invalidate_all+0x1c>
c2000288:	f57ff04f 	dsb	sy
c200028c:	e8bd1fff 	pop	{r0, r1, r2, r3, r4, r5, r6, r7, r8, r9, sl, fp, ip}
c2000290:	e12fff1e 	bx	lr

c2000294 <arch_dcache_clean_all>:
c2000294:	e92d1fff 	push	{r0, r1, r2, r3, r4, r5, r6, r7, r8, r9, sl, fp, ip}
c2000298:	f57ff05f 	dmb	sy
c200029c:	ee300f30 	mrc	15, 1, r0, cr0, cr0, {1}
c20002a0:	e2103407 	ands	r3, r0, #117440512	; 0x7000000
c20002a4:	e1a03ba3 	lsr	r3, r3, #23
c20002a8:	0a00001b 	beq	c200031c <arch_dcache_clean_all+0x88>
c20002ac:	e3a0a000 	mov	sl, #0
c20002b0:	e08a20aa 	add	r2, sl, sl, lsr #1
c20002b4:	e1a01230 	lsr	r1, r0, r2
c20002b8:	e2011007 	and	r1, r1, #7
c20002bc:	e3510002 	cmp	r1, #2
c20002c0:	ba000011 	blt	c200030c <arch_dcache_clean_all+0x78>
c20002c4:	ee40af10 	mcr	15, 2, sl, cr0, cr0, {0}
c20002c8:	f57ff06f 	isb	sy
c20002cc:	ee301f10 	mrc	15, 1, r1, cr0, cr0, {0}
c20002d0:	e2012007 	and	r2, r1, #7
c20002d4:	e2822004 	add	r2, r2, #4
c20002d8:	e59f41b8 	ldr	r4, [pc, #440]	; c2000498 <arch_dcache_flush_range+0x4c>
c20002dc:	e01441a1 	ands	r4, r4, r1, lsr #3
c20002e0:	e16f5f14 	clz	r5, r4
c20002e4:	e1a09004 	mov	r9, r4
c20002e8:	e59f71ac 	ldr	r7, [pc, #428]	; c200049c <arch_dcache_flush_range+0x50>
c20002ec:	e01776a1 	ands	r7, r7, r1, lsr #13
c20002f0:	e18ab519 	orr	fp, sl, r9, lsl r5
c20002f4:	e18bb217 	orr	fp, fp, r7, lsl r2
c20002f8:	ee07bf5a 	mcr	15, 0, fp, cr7, cr10, {2}
c20002fc:	e2577001 	subs	r7, r7, #1
c2000300:	aafffffa 	bge	c20002f0 <arch_dcache_clean_all+0x5c>
c2000304:	e2599001 	subs	r9, r9, #1
c2000308:	aafffff6 	bge	c20002e8 <arch_dcache_clean_all+0x54>
c200030c:	e28aa002 	add	sl, sl, #2
c2000310:	e153000a 	cmp	r3, sl
c2000314:	caffffe5 	bgt	c20002b0 <arch_dcache_clean_all+0x1c>
c2000318:	f57ff04f 	dsb	sy
c200031c:	e8bd1fff 	pop	{r0, r1, r2, r3, r4, r5, r6, r7, r8, r9, sl, fp, ip}
c2000320:	e12fff1e 	bx	lr

c2000324 <arch_dcache_flush_all>:
c2000324:	e92d1fff 	push	{r0, r1, r2, r3, r4, r5, r6, r7, r8, r9, sl, fp, ip}
c2000328:	f57ff05f 	dmb	sy
c200032c:	ee300f30 	mrc	15, 1, r0, cr0, cr0, {1}
c2000330:	e2103407 	ands	r3, r0, #117440512	; 0x7000000
c2000334:	e1a03ba3 	lsr	r3, r3, #23
c2000338:	0a00001b 	beq	c20003ac <arch_dcache_flush_all+0x88>
c200033c:	e3a0a000 	mov	sl, #0
c2000340:	e08a20aa 	add	r2, sl, sl, lsr #1
c2000344:	e1a01230 	lsr	r1, r0, r2
c2000348:	e2011007 	and	r1, r1, #7
c200034c:	e3510002 	cmp	r1, #2
c2000350:	ba000011 	blt	c200039c <arch_dcache_flush_all+0x78>
c2000354:	ee40af10 	mcr	15, 2, sl, cr0, cr0, {0}
c2000358:	f57ff06f 	isb	sy
c200035c:	ee301f10 	mrc	15, 1, r1, cr0, cr0, {0}
c2000360:	e2012007 	and	r2, r1, #7
c2000364:	e2822004 	add	r2, r2, #4
c2000368:	e59f4128 	ldr	r4, [pc, #296]	; c2000498 <arch_dcache_flush_range+0x4c>
c200036c:	e01441a1 	ands	r4, r4, r1, lsr #3
c2000370:	e16f5f14 	clz	r5, r4
c2000374:	e1a09004 	mov	r9, r4
c2000378:	e59f711c 	ldr	r7, [pc, #284]	; c200049c <arch_dcache_flush_range+0x50>
c200037c:	e01776a1 	ands	r7, r7, r1, lsr #13
c2000380:	e18ab519 	orr	fp, sl, r9, lsl r5
c2000384:	e18bb217 	orr	fp, fp, r7, lsl r2
c2000388:	ee07bf5e 	mcr	15, 0, fp, cr7, cr14, {2}
c200038c:	e2577001 	subs	r7, r7, #1
c2000390:	aafffffa 	bge	c2000380 <arch_dcache_flush_all+0x5c>
c2000394:	e2599001 	subs	r9, r9, #1
c2000398:	aafffff6 	bge	c2000378 <arch_dcache_flush_all+0x54>
c200039c:	e28aa002 	add	sl, sl, #2
c20003a0:	e153000a 	cmp	r3, sl
c20003a4:	caffffe5 	bgt	c2000340 <arch_dcache_flush_all+0x1c>
c20003a8:	f57ff04f 	dsb	sy
c20003ac:	e8bd1fff 	pop	{r0, r1, r2, r3, r4, r5, r6, r7, r8, r9, sl, fp, ip}
c20003b0:	e12fff1e 	bx	lr

c20003b4 <arch_dcache_invalidate_range>:
c20003b4:	e92d1ff0 	push	{r4, r5, r6, r7, r8, r9, sl, fp, ip}
c20003b8:	e3a02000 	mov	r2, #0
c20003bc:	ee402f10 	mcr	15, 2, r2, cr0, cr0, {0}
c20003c0:	f57ff06f 	isb	sy
c20003c4:	ee302f10 	mrc	15, 1, r2, cr0, cr0, {0}
c20003c8:	e2022007 	and	r2, r2, #7
c20003cc:	e2822002 	add	r2, r2, #2
c20003d0:	e3a03001 	mov	r3, #1
c20003d4:	e1a03213 	lsl	r3, r3, r2
c20003d8:	e0802001 	add	r2, r0, r1
c20003dc:	e2434001 	sub	r4, r3, #1
c20003e0:	e1c00004 	bic	r0, r0, r4
c20003e4:	ee070f36 	mcr	15, 0, r0, cr7, cr6, {1}
c20003e8:	e0800003 	add	r0, r0, r3
c20003ec:	e1500002 	cmp	r0, r2
c20003f0:	3afffffb 	bcc	c20003e4 <arch_dcache_invalidate_range+0x30>
c20003f4:	f57ff04f 	dsb	sy
c20003f8:	e8bd1ff0 	pop	{r4, r5, r6, r7, r8, r9, sl, fp, ip}
c20003fc:	e12fff1e 	bx	lr

c2000400 <arch_dcache_clean_range>:
c2000400:	e92d1ff0 	push	{r4, r5, r6, r7, r8, r9, sl, fp, ip}
c2000404:	e3a02000 	mov	r2, #0
c2000408:	ee402f10 	mcr	15, 2, r2, cr0, cr0, {0}
c200040c:	f57ff06f 	isb	sy
c2000410:	ee302f10 	mrc	15, 1, r2, cr0, cr0, {0}
c2000414:	e2022007 	and	r2, r2, #7
c2000418:	e2822002 	add	r2, r2, #2
c200041c:	e3a03001 	mov	r3, #1
c2000420:	e1a03213 	lsl	r3, r3, r2
c2000424:	e0802001 	add	r2, r0, r1
c2000428:	e2434001 	sub	r4, r3, #1
c200042c:	e1c00004 	bic	r0, r0, r4
c2000430:	ee070f3a 	mcr	15, 0, r0, cr7, cr10, {1}
c2000434:	e0800003 	add	r0, r0, r3
c2000438:	e1500002 	cmp	r0, r2
c200043c:	3afffffb 	bcc	c2000430 <arch_dcache_clean_range+0x30>
c2000440:	f57ff04f 	dsb	sy
c2000444:	e8bd1ff0 	pop	{r4, r5, r6, r7, r8, r9, sl, fp, ip}
c2000448:	e12fff1e 	bx	lr

c200044c <arch_dcache_flush_range>:
c200044c:	e92d1ff0 	push	{r4, r5, r6, r7, r8, r9, sl, fp, ip}
c2000450:	e3a02000 	mov	r2, #0
c2000454:	ee402f10 	mcr	15, 2, r2, cr0, cr0, {0}
c2000458:	f57ff06f 	isb	sy
c200045c:	ee302f10 	mrc	15, 1, r2, cr0, cr0, {0}
c2000460:	e2022007 	and	r2, r2, #7
c2000464:	e2822002 	add	r2, r2, #2
c2000468:	e3a03001 	mov	r3, #1
c200046c:	e1a03213 	lsl	r3, r3, r2
c2000470:	e0802001 	add	r2, r0, r1
c2000474:	e2434001 	sub	r4, r3, #1
c2000478:	e1c00004 	bic	r0, r0, r4
c200047c:	ee070f3e 	mcr	15, 0, r0, cr7, cr14, {1}
c2000480:	e0800003 	add	r0, r0, r3
c2000484:	e1500002 	cmp	r0, r2
c2000488:	3afffffb 	bcc	c200047c <arch_dcache_flush_range+0x30>
c200048c:	f57ff04f 	dsb	sy
c2000490:	e8bd1ff0 	pop	{r4, r5, r6, r7, r8, r9, sl, fp, ip}
c2000494:	e12fff1e 	bx	lr
c2000498:	000003ff 	strdeq	r0, [r0], -pc	; <UNPREDICTABLE>
c200049c:	00007fff 	strdeq	r7, [r0], -pc	; <UNPREDICTABLE>

c20004a0 <do_prefetch_abort>:
c20004a0:	eafffffe 	b	c20004a0 <do_prefetch_abort>

c20004a4 <do_data_abort>:
c20004a4:	eafffffe 	b	c20004a4 <do_data_abort>

c20004a8 <do_irq>:
c20004a8:	e24ee004 	sub	lr, lr, #4
c20004ac:	e92d5fff 	push	{r0, r1, r2, r3, r4, r5, r6, r7, r8, r9, sl, fp, ip, lr}
c20004b0:	eb0006f8 	bl	c2002098 <sdrv_irq_handler>
c20004b4:	e8fd9fff 	ldm	sp!, {r0, r1, r2, r3, r4, r5, r6, r7, r8, r9, sl, fp, ip, pc}^

c20004b8 <arch_fpu_enable>:
c20004b8:	ee110f50 	mrc	15, 0, r0, cr1, cr0, {2}
c20004bc:	e380060f 	orr	r0, r0, #15728640	; 0xf00000
c20004c0:	ee010f50 	mcr	15, 0, r0, cr1, cr0, {2}
c20004c4:	eef80a10 	vmrs	r0, fpexc
c20004c8:	e3800101 	orr	r0, r0, #1073741824	; 0x40000000
c20004cc:	eee80a10 	vmsr	fpexc, r0
c20004d0:	eef80a10 	vmrs	r0, fpexc
c20004d4:	e3800102 	orr	r0, r0, #-2147483648	; 0x80000000
c20004d8:	eee80a10 	vmsr	fpexc, r0
c20004dc:	e12fff1e 	bx	lr

c20004e0 <arch_fpu_disable>:
c20004e0:	eef80a10 	vmrs	r0, fpexc
c20004e4:	e3c00102 	bic	r0, r0, #-2147483648	; 0x80000000
c20004e8:	eee80a10 	vmsr	fpexc, r0
c20004ec:	eef80a10 	vmrs	r0, fpexc
c20004f0:	e3c00101 	bic	r0, r0, #1073741824	; 0x40000000
c20004f4:	eee80a10 	vmsr	fpexc, r0
c20004f8:	e12fff1e 	bx	lr

c20004fc <MMU_AP_CLIENTD>:
c20004fc:	55555555 	ldrbpl	r5, [r5, #-1365]	; 0xfffffaab

c2000500 <arch_mmu_enable>:
c2000500:	ee110f10 	mrc	15, 0, r0, cr1, cr0, {0}
c2000504:	e3c00201 	bic	r0, r0, #268435456	; 0x10000000
c2000508:	ee010f10 	mcr	15, 0, r0, cr1, cr0, {0}
c200050c:	ee110f10 	mrc	15, 0, r0, cr1, cr0, {0}
c2000510:	e3c00202 	bic	r0, r0, #536870912	; 0x20000000
c2000514:	ee010f10 	mcr	15, 0, r0, cr1, cr0, {0}
c2000518:	e51f0024 	ldr	r0, [pc, #-36]	; c20004fc <MMU_AP_CLIENTD>
c200051c:	ee030f10 	mcr	15, 0, r0, cr3, cr0, {0}
c2000520:	f57ff04f 	dsb	sy
c2000524:	ee110f10 	mrc	15, 0, r0, cr1, cr0, {0}
c2000528:	e3800001 	orr	r0, r0, #1
c200052c:	ee010f10 	mcr	15, 0, r0, cr1, cr0, {0}
c2000530:	e12fff1e 	bx	lr

c2000534 <arch_mmu_disable>:
c2000534:	ee110f10 	mrc	15, 0, r0, cr1, cr0, {0}
c2000538:	e3c00001 	bic	r0, r0, #1
c200053c:	ee010f10 	mcr	15, 0, r0, cr1, cr0, {0}
c2000540:	e12fff1e 	bx	lr

c2000544 <arch_tlb_config_ttbr0>:
c2000544:	ee020f10 	mcr	15, 0, r0, cr2, cr0, {0}
c2000548:	e12fff1e 	bx	lr

c200054c <arch_tlb_config_ttbr1>:
c200054c:	ee020f30 	mcr	15, 0, r0, cr2, cr0, {1}
c2000550:	e12fff1e 	bx	lr

c2000554 <arch_tlb_config_ttbcr>:
c2000554:	ee020f50 	mcr	15, 0, r0, cr2, cr0, {2}
c2000558:	e12fff1e 	bx	lr

c200055c <arch_tlb_invalidate_all>:
c200055c:	ee080f17 	mcr	15, 0, r0, cr8, cr7, {0}
c2000560:	e12fff1e 	bx	lr

c2000564 <arch_tlb_invalidate_data_all>:
c2000564:	ee080f16 	mcr	15, 0, r0, cr8, cr6, {0}
c2000568:	e12fff1e 	bx	lr

c200056c <arch_tlb_invalidate_data_asid>:
c200056c:	ee080f56 	mcr	15, 0, r0, cr8, cr6, {2}
c2000570:	e12fff1e 	bx	lr

c2000574 <arch_tlb_invalidate_data_page>:
c2000574:	ee080f36 	mcr	15, 0, r0, cr8, cr6, {1}
c2000578:	e12fff1e 	bx	lr

c200057c <arch_tlb_invalidate_instruction_all>:
c200057c:	ee080f15 	mcr	15, 0, r0, cr8, cr5, {0}
c2000580:	e12fff1e 	bx	lr

c2000584 <arch_tlb_invalidate_instruction_asid>:
c2000584:	ee080f55 	mcr	15, 0, r0, cr8, cr5, {2}
c2000588:	e12fff1e 	bx	lr

c200058c <arch_tlb_invalidate_instruction_page>:
c200058c:	ee080f35 	mcr	15, 0, r0, cr8, cr5, {1}
c2000590:	e12fff1e 	bx	lr

c2000594 <arch_pmu_user_access_enable>:
c2000594:	ee190f1e 	mrc	15, 0, r0, cr9, cr14, {0}
c2000598:	e3800001 	orr	r0, r0, #1
c200059c:	ee090f1e 	mcr	15, 0, r0, cr9, cr14, {0}
c20005a0:	e12fff1e 	bx	lr

c20005a4 <arch_pmu_user_access_disable>:
c20005a4:	ee190f1e 	mrc	15, 0, r0, cr9, cr14, {0}
c20005a8:	e3c00001 	bic	r0, r0, #1
c20005ac:	ee090f1e 	mcr	15, 0, r0, cr9, cr14, {0}
c20005b0:	e12fff1e 	bx	lr

c20005b4 <arch_pmu_cycle_counter_enable>:
c20005b4:	ee190f3c 	mrc	15, 0, r0, cr9, cr12, {1}
c20005b8:	e3800102 	orr	r0, r0, #-2147483648	; 0x80000000
c20005bc:	ee090f3c 	mcr	15, 0, r0, cr9, cr12, {1}
c20005c0:	e12fff1e 	bx	lr

c20005c4 <arch_pmu_cycle_counter_disable>:
c20005c4:	ee190f5c 	mrc	15, 0, r0, cr9, cr12, {2}
c20005c8:	e3800102 	orr	r0, r0, #-2147483648	; 0x80000000
c20005cc:	ee090f5c 	mcr	15, 0, r0, cr9, cr12, {2}
c20005d0:	e12fff1e 	bx	lr

c20005d4 <arch_pmu_cycle_counter_init>:
c20005d4:	ee190f1c 	mrc	15, 0, r0, cr9, cr12, {0}
c20005d8:	e3800004 	orr	r0, r0, #4
c20005dc:	ee090f1c 	mcr	15, 0, r0, cr9, cr12, {0}
c20005e0:	ee190f1c 	mrc	15, 0, r0, cr9, cr12, {0}
c20005e4:	e3c00008 	bic	r0, r0, #8
c20005e8:	ee090f1c 	mcr	15, 0, r0, cr9, cr12, {0}
c20005ec:	ee190f1c 	mrc	15, 0, r0, cr9, cr12, {0}
c20005f0:	e3800001 	orr	r0, r0, #1
c20005f4:	ee090f1c 	mcr	15, 0, r0, cr9, cr12, {0}
c20005f8:	e12fff1e 	bx	lr

c20005fc <arch_pmu_cycle_counter_enable_irq>:
c20005fc:	ee190f3e 	mrc	15, 0, r0, cr9, cr14, {1}
c2000600:	e3800102 	orr	r0, r0, #-2147483648	; 0x80000000
c2000604:	ee090f3e 	mcr	15, 0, r0, cr9, cr14, {1}
c2000608:	e12fff1e 	bx	lr

c200060c <arch_pmu_cycle_counter_disable_irq>:
c200060c:	ee190f5e 	mrc	15, 0, r0, cr9, cr14, {2}
c2000610:	e3800102 	orr	r0, r0, #-2147483648	; 0x80000000
c2000614:	ee090f5e 	mcr	15, 0, r0, cr9, cr14, {2}
c2000618:	e12fff1e 	bx	lr

c200061c <arch_pmu_cycle_counter_set_counter>:
c200061c:	ee090f1d 	mcr	15, 0, r0, cr9, cr13, {0}
c2000620:	e12fff1e 	bx	lr

c2000624 <arch_pmu_cycle_counter_get_counter>:
c2000624:	ee190f1d 	mrc	15, 0, r0, cr9, cr13, {0}
c2000628:	e12fff1e 	bx	lr

c200062c <arch_pmu_event_counter_enable>:
c200062c:	e3a02001 	mov	r2, #1
c2000630:	ee191f3c 	mrc	15, 0, r1, cr9, cr12, {1}
c2000634:	e1811012 	orr	r1, r1, r2, lsl r0
c2000638:	ee091f3c 	mcr	15, 0, r1, cr9, cr12, {1}
c200063c:	e12fff1e 	bx	lr

c2000640 <arch_pmu_event_counter_disable>:
c2000640:	e3a02001 	mov	r2, #1
c2000644:	ee191f5c 	mrc	15, 0, r1, cr9, cr12, {2}
c2000648:	e1811012 	orr	r1, r1, r2, lsl r0
c200064c:	ee091f5c 	mcr	15, 0, r1, cr9, cr12, {2}
c2000650:	e12fff1e 	bx	lr

c2000654 <arch_pmu_event_counter_init>:
c2000654:	ee190f1c 	mrc	15, 0, r0, cr9, cr12, {0}
c2000658:	e3800002 	orr	r0, r0, #2
c200065c:	ee090f1c 	mcr	15, 0, r0, cr9, cr12, {0}
c2000660:	e12fff1e 	bx	lr

c2000664 <arch_pmu_event_counter_increment>:
c2000664:	e3a01001 	mov	r1, #1
c2000668:	e1a01011 	lsl	r1, r1, r0
c200066c:	ee091f9c 	mcr	15, 0, r1, cr9, cr12, {4}
c2000670:	e12fff1e 	bx	lr

c2000674 <arch_pmu_event_counter_select>:
c2000674:	ee090fbc 	mcr	15, 0, r0, cr9, cr12, {5}
c2000678:	ee091f3d 	mcr	15, 0, r1, cr9, cr13, {1}
c200067c:	e12fff1e 	bx	lr

c2000680 <arch_pmu_event_counter_read>:
c2000680:	ee090fbc 	mcr	15, 0, r0, cr9, cr12, {5}
c2000684:	ee190f5d 	mrc	15, 0, r0, cr9, cr13, {2}
c2000688:	e3a01000 	mov	r1, #0
c200068c:	ee091f5d 	mcr	15, 0, r1, cr9, cr13, {2}
c2000690:	e12fff1e 	bx	lr

c2000694 <arch_pmu_event_counter_enable_irq>:
c2000694:	e3a01001 	mov	r1, #1
c2000698:	e1a01011 	lsl	r1, r1, r0
c200069c:	ee190f3e 	mrc	15, 0, r0, cr9, cr14, {1}
c20006a0:	e1800001 	orr	r0, r0, r1
c20006a4:	ee090f3e 	mcr	15, 0, r0, cr9, cr14, {1}
c20006a8:	e12fff1e 	bx	lr

c20006ac <arch_pmu_event_counter_disable_irq>:
c20006ac:	e3a01001 	mov	r1, #1
c20006b0:	e1a01011 	lsl	r1, r1, r0
c20006b4:	ee190f5e 	mrc	15, 0, r0, cr9, cr14, {2}
c20006b8:	e1800001 	orr	r0, r0, r1
c20006bc:	ee090f5e 	mcr	15, 0, r0, cr9, cr14, {2}
c20006c0:	e12fff1e 	bx	lr

c20006c4 <arch_pmu_irq_handler>:
c20006c4:	e92d4000 	stmfd	sp!, {lr}
c20006c8:	ee190f7c 	mrc	15, 0, r0, cr9, cr12, {3}
c20006cc:	ee090f7c 	mcr	15, 0, r0, cr9, cr12, {3}
c20006d0:	eb000001 	bl	c20006dc <arch_pmu_irq_call_back>
c20006d4:	e8bd4000 	ldmfd	sp!, {lr}
c20006d8:	e12fff1e 	bx	lr

c20006dc <arch_pmu_irq_call_back>:
c20006dc:	e12fff1e 	bx	lr

c20006e0 <memset>:
c20006e0:	e1a03000 	mov	r3, r0
c20006e4:	ea000001 	b	c20006f0 <memset+0x10>
c20006e8:	e4c31001 	strb	r1, [r3], #1
c20006ec:	e1a0200c 	mov	r2, ip
c20006f0:	e242c001 	sub	ip, r2, #1
c20006f4:	e3520000 	cmp	r2, #0
c20006f8:	1afffffa 	bne	c20006e8 <memset+0x8>
c20006fc:	e12fff1e 	bx	lr

c2000700 <_out_null>:
c2000700:	e12fff1e 	bx	lr

c2000704 <_atoi>:
c2000704:	e1a01000 	mov	r1, r0
c2000708:	e3a00000 	mov	r0, #0
c200070c:	ea000005 	b	c2000728 <_atoi+0x24>
c2000710:	e2823001 	add	r3, r2, #1
c2000714:	e5813000 	str	r3, [r1]
c2000718:	e5d23000 	ldrb	r3, [r2]
c200071c:	e3a0200a 	mov	r2, #10
c2000720:	e0203092 	mla	r0, r2, r0, r3
c2000724:	e2400030 	sub	r0, r0, #48	; 0x30
c2000728:	e5912000 	ldr	r2, [r1]
c200072c:	e5d23000 	ldrb	r3, [r2]
c2000730:	e2433030 	sub	r3, r3, #48	; 0x30
c2000734:	e6ef3073 	uxtb	r3, r3
c2000738:	e3530009 	cmp	r3, #9
c200073c:	9afffff3 	bls	c2000710 <_atoi+0xc>
c2000740:	e12fff1e 	bx	lr

c2000744 <_out_rev>:
c2000744:	e92d4ff0 	push	{r4, r5, r6, r7, r8, r9, sl, fp, lr}
c2000748:	e24dd00c 	sub	sp, sp, #12
c200074c:	e1a05000 	mov	r5, r0
c2000750:	e1a06001 	mov	r6, r1
c2000754:	e1a0b002 	mov	fp, r2
c2000758:	e1a07003 	mov	r7, r3
c200075c:	e59da030 	ldr	sl, [sp, #48]	; 0x30
c2000760:	e59d4034 	ldr	r4, [sp, #52]	; 0x34
c2000764:	e59d9038 	ldr	r9, [sp, #56]	; 0x38
c2000768:	e59d303c 	ldr	r3, [sp, #60]	; 0x3c
c200076c:	e3130003 	tst	r3, #3
c2000770:	1a000014 	bne	c20007c8 <_out_rev+0x84>
c2000774:	e1a08004 	mov	r8, r4
c2000778:	e58d2004 	str	r2, [sp, #4]
c200077c:	e1580009 	cmp	r8, r9
c2000780:	2a000007 	bcs	c20007a4 <_out_rev+0x60>
c2000784:	e282b001 	add	fp, r2, #1
c2000788:	e1a03007 	mov	r3, r7
c200078c:	e1a01006 	mov	r1, r6
c2000790:	e3a00020 	mov	r0, #32
c2000794:	e12fff35 	blx	r5
c2000798:	e2888001 	add	r8, r8, #1
c200079c:	e1a0200b 	mov	r2, fp
c20007a0:	eafffff5 	b	c200077c <_out_rev+0x38>
c20007a4:	e59db004 	ldr	fp, [sp, #4]
c20007a8:	ea000006 	b	c20007c8 <_out_rev+0x84>
c20007ac:	e2444001 	sub	r4, r4, #1
c20007b0:	e2828001 	add	r8, r2, #1
c20007b4:	e1a03007 	mov	r3, r7
c20007b8:	e1a01006 	mov	r1, r6
c20007bc:	e7da0004 	ldrb	r0, [sl, r4]
c20007c0:	e12fff35 	blx	r5
c20007c4:	e1a02008 	mov	r2, r8
c20007c8:	e3540000 	cmp	r4, #0
c20007cc:	1afffff6 	bne	c20007ac <_out_rev+0x68>
c20007d0:	e59d303c 	ldr	r3, [sp, #60]	; 0x3c
c20007d4:	e3130002 	tst	r3, #2
c20007d8:	1a000002 	bne	c20007e8 <_out_rev+0xa4>
c20007dc:	e1a00002 	mov	r0, r2
c20007e0:	e28dd00c 	add	sp, sp, #12
c20007e4:	e8bd8ff0 	pop	{r4, r5, r6, r7, r8, r9, sl, fp, pc}
c20007e8:	e042300b 	sub	r3, r2, fp
c20007ec:	e1530009 	cmp	r3, r9
c20007f0:	2afffff9 	bcs	c20007dc <_out_rev+0x98>
c20007f4:	e2824001 	add	r4, r2, #1
c20007f8:	e1a03007 	mov	r3, r7
c20007fc:	e1a01006 	mov	r1, r6
c2000800:	e3a00020 	mov	r0, #32
c2000804:	e12fff35 	blx	r5
c2000808:	e1a02004 	mov	r2, r4
c200080c:	eafffff5 	b	c20007e8 <_out_rev+0xa4>

c2000810 <_ntoa_format>:
c2000810:	e92d43f0 	push	{r4, r5, r6, r7, r8, r9, lr}
c2000814:	e24dd014 	sub	sp, sp, #20
c2000818:	e59de030 	ldr	lr, [sp, #48]	; 0x30
c200081c:	e59dc034 	ldr	ip, [sp, #52]	; 0x34
c2000820:	e5dd9038 	ldrb	r9, [sp, #56]	; 0x38
c2000824:	e59d803c 	ldr	r8, [sp, #60]	; 0x3c
c2000828:	e59d7040 	ldr	r7, [sp, #64]	; 0x40
c200082c:	e59d6044 	ldr	r6, [sp, #68]	; 0x44
c2000830:	e59d4048 	ldr	r4, [sp, #72]	; 0x48
c2000834:	e3140002 	tst	r4, #2
c2000838:	1a000018 	bne	c20008a0 <_ntoa_format+0x90>
c200083c:	e3560000 	cmp	r6, #0
c2000840:	0a00000a 	beq	c2000870 <_ntoa_format+0x60>
c2000844:	e3140001 	tst	r4, #1
c2000848:	0a000008 	beq	c2000870 <_ntoa_format+0x60>
c200084c:	e3590000 	cmp	r9, #0
c2000850:	1a000001 	bne	c200085c <_ntoa_format+0x4c>
c2000854:	e314000c 	tst	r4, #12
c2000858:	0a000004 	beq	c2000870 <_ntoa_format+0x60>
c200085c:	e2466001 	sub	r6, r6, #1
c2000860:	ea000002 	b	c2000870 <_ntoa_format+0x60>
c2000864:	e3a05030 	mov	r5, #48	; 0x30
c2000868:	e7ce500c 	strb	r5, [lr, ip]
c200086c:	e28cc001 	add	ip, ip, #1
c2000870:	e35c001f 	cmp	ip, #31
c2000874:	915c0007 	cmpls	ip, r7
c2000878:	3afffff9 	bcc	c2000864 <_ntoa_format+0x54>
c200087c:	ea000002 	b	c200088c <_ntoa_format+0x7c>
c2000880:	e3a05030 	mov	r5, #48	; 0x30
c2000884:	e7ce500c 	strb	r5, [lr, ip]
c2000888:	e28cc001 	add	ip, ip, #1
c200088c:	e3140001 	tst	r4, #1
c2000890:	0a000002 	beq	c20008a0 <_ntoa_format+0x90>
c2000894:	e35c001f 	cmp	ip, #31
c2000898:	915c0006 	cmpls	ip, r6
c200089c:	3afffff7 	bcc	c2000880 <_ntoa_format+0x70>
c20008a0:	e3140010 	tst	r4, #16
c20008a4:	0a00001c 	beq	c200091c <_ntoa_format+0x10c>
c20008a8:	e3140b01 	tst	r4, #1024	; 0x400
c20008ac:	1a00000d 	bne	c20008e8 <_ntoa_format+0xd8>
c20008b0:	e35c0000 	cmp	ip, #0
c20008b4:	0a00000b 	beq	c20008e8 <_ntoa_format+0xd8>
c20008b8:	e15c0006 	cmp	ip, r6
c20008bc:	115c0007 	cmpne	ip, r7
c20008c0:	1a000008 	bne	c20008e8 <_ntoa_format+0xd8>
c20008c4:	e25c7001 	subs	r7, ip, #1
c20008c8:	13a05001 	movne	r5, #1
c20008cc:	03a05000 	moveq	r5, #0
c20008d0:	e3580010 	cmp	r8, #16
c20008d4:	13a05000 	movne	r5, #0
c20008d8:	02055001 	andeq	r5, r5, #1
c20008dc:	e3550000 	cmp	r5, #0
c20008e0:	0a00001b 	beq	c2000954 <_ntoa_format+0x144>
c20008e4:	e24cc002 	sub	ip, ip, #2
c20008e8:	e3580010 	cmp	r8, #16
c20008ec:	0a00001a 	beq	c200095c <_ntoa_format+0x14c>
c20008f0:	e3580010 	cmp	r8, #16
c20008f4:	0a000020 	beq	c200097c <_ntoa_format+0x16c>
c20008f8:	e35c001f 	cmp	ip, #31
c20008fc:	93580002 	cmpls	r8, #2
c2000900:	03a05062 	moveq	r5, #98	; 0x62
c2000904:	07ce500c 	strbeq	r5, [lr, ip]
c2000908:	028cc001 	addeq	ip, ip, #1
c200090c:	e35c001f 	cmp	ip, #31
c2000910:	93a05030 	movls	r5, #48	; 0x30
c2000914:	97ce500c 	strbls	r5, [lr, ip]
c2000918:	928cc001 	addls	ip, ip, #1
c200091c:	e35c001f 	cmp	ip, #31
c2000920:	8a000004 	bhi	c2000938 <_ntoa_format+0x128>
c2000924:	e3590000 	cmp	r9, #0
c2000928:	0a00001b 	beq	c200099c <_ntoa_format+0x18c>
c200092c:	e3a0502d 	mov	r5, #45	; 0x2d
c2000930:	e7ce500c 	strb	r5, [lr, ip]
c2000934:	e28cc001 	add	ip, ip, #1
c2000938:	e58d400c 	str	r4, [sp, #12]
c200093c:	e58d6008 	str	r6, [sp, #8]
c2000940:	e58dc004 	str	ip, [sp, #4]
c2000944:	e58de000 	str	lr, [sp]
c2000948:	ebffff7d 	bl	c2000744 <_out_rev>
c200094c:	e28dd014 	add	sp, sp, #20
c2000950:	e8bd83f0 	pop	{r4, r5, r6, r7, r8, r9, pc}
c2000954:	e1a0c007 	mov	ip, r7
c2000958:	eaffffe2 	b	c20008e8 <_ntoa_format+0xd8>
c200095c:	e3140020 	tst	r4, #32
c2000960:	1affffe2 	bne	c20008f0 <_ntoa_format+0xe0>
c2000964:	e35c001f 	cmp	ip, #31
c2000968:	8affffe0 	bhi	c20008f0 <_ntoa_format+0xe0>
c200096c:	e3a05078 	mov	r5, #120	; 0x78
c2000970:	e7ce500c 	strb	r5, [lr, ip]
c2000974:	e28cc001 	add	ip, ip, #1
c2000978:	eaffffe3 	b	c200090c <_ntoa_format+0xfc>
c200097c:	e3140020 	tst	r4, #32
c2000980:	0affffdc 	beq	c20008f8 <_ntoa_format+0xe8>
c2000984:	e35c001f 	cmp	ip, #31
c2000988:	8affffda 	bhi	c20008f8 <_ntoa_format+0xe8>
c200098c:	e3a05058 	mov	r5, #88	; 0x58
c2000990:	e7ce500c 	strb	r5, [lr, ip]
c2000994:	e28cc001 	add	ip, ip, #1
c2000998:	eaffffdb 	b	c200090c <_ntoa_format+0xfc>
c200099c:	e3140004 	tst	r4, #4
c20009a0:	13a0502b 	movne	r5, #43	; 0x2b
c20009a4:	17ce500c 	strbne	r5, [lr, ip]
c20009a8:	128cc001 	addne	ip, ip, #1
c20009ac:	1affffe1 	bne	c2000938 <_ntoa_format+0x128>
c20009b0:	e3140008 	tst	r4, #8
c20009b4:	13a05020 	movne	r5, #32
c20009b8:	17ce500c 	strbne	r5, [lr, ip]
c20009bc:	128cc001 	addne	ip, ip, #1
c20009c0:	eaffffdc 	b	c2000938 <_ntoa_format+0x128>

c20009c4 <_ntoa_long>:
c20009c4:	e92d4ff0 	push	{r4, r5, r6, r7, r8, r9, sl, fp, lr}
c20009c8:	e24dd04c 	sub	sp, sp, #76	; 0x4c
c20009cc:	e1a09000 	mov	r9, r0
c20009d0:	e1a0a001 	mov	sl, r1
c20009d4:	e58d2024 	str	r2, [sp, #36]	; 0x24
c20009d8:	e1a0b003 	mov	fp, r3
c20009dc:	e59d4070 	ldr	r4, [sp, #112]	; 0x70
c20009e0:	e59d6078 	ldr	r6, [sp, #120]	; 0x78
c20009e4:	e59d8084 	ldr	r8, [sp, #132]	; 0x84
c20009e8:	e3540000 	cmp	r4, #0
c20009ec:	03c88010 	biceq	r8, r8, #16
c20009f0:	e2185b01 	ands	r5, r8, #1024	; 0x400
c20009f4:	0a000015 	beq	c2000a50 <_ntoa_long+0x8c>
c20009f8:	e3540000 	cmp	r4, #0
c20009fc:	0a000023 	beq	c2000a90 <_ntoa_long+0xcc>
c2000a00:	e3a05000 	mov	r5, #0
c2000a04:	ea000011 	b	c2000a50 <_ntoa_long+0x8c>
c2000a08:	e2831030 	add	r1, r3, #48	; 0x30
c2000a0c:	e6ef1071 	uxtb	r1, r1
c2000a10:	e2857001 	add	r7, r5, #1
c2000a14:	e2853048 	add	r3, r5, #72	; 0x48
c2000a18:	e08d5003 	add	r5, sp, r3
c2000a1c:	e5451020 	strb	r1, [r5, #-32]	; 0xffffffe0
c2000a20:	e1a01006 	mov	r1, r6
c2000a24:	e1a00004 	mov	r0, r4
c2000a28:	fa0006d8 	blx	c2002590 <__udivsi3>
c2000a2c:	e1540006 	cmp	r4, r6
c2000a30:	33a04000 	movcc	r4, #0
c2000a34:	23a04001 	movcs	r4, #1
c2000a38:	e357001f 	cmp	r7, #31
c2000a3c:	83a04000 	movhi	r4, #0
c2000a40:	e3540000 	cmp	r4, #0
c2000a44:	0a000012 	beq	c2000a94 <_ntoa_long+0xd0>
c2000a48:	e1a05007 	mov	r5, r7
c2000a4c:	e1a04000 	mov	r4, r0
c2000a50:	e1a01006 	mov	r1, r6
c2000a54:	e1a00004 	mov	r0, r4
c2000a58:	fa000763 	blx	c20027ec <__aeabi_uidivmod>
c2000a5c:	e6ef3071 	uxtb	r3, r1
c2000a60:	e3530009 	cmp	r3, #9
c2000a64:	9affffe7 	bls	c2000a08 <_ntoa_long+0x44>
c2000a68:	e3180020 	tst	r8, #32
c2000a6c:	0a000005 	beq	c2000a88 <_ntoa_long+0xc4>
c2000a70:	e3a01041 	mov	r1, #65	; 0x41
c2000a74:	e0811003 	add	r1, r1, r3
c2000a78:	e6ef1071 	uxtb	r1, r1
c2000a7c:	e241100a 	sub	r1, r1, #10
c2000a80:	e6ef1071 	uxtb	r1, r1
c2000a84:	eaffffe1 	b	c2000a10 <_ntoa_long+0x4c>
c2000a88:	e3a01061 	mov	r1, #97	; 0x61
c2000a8c:	eafffff8 	b	c2000a74 <_ntoa_long+0xb0>
c2000a90:	e1a07004 	mov	r7, r4
c2000a94:	e58d8018 	str	r8, [sp, #24]
c2000a98:	e59d3080 	ldr	r3, [sp, #128]	; 0x80
c2000a9c:	e58d3014 	str	r3, [sp, #20]
c2000aa0:	e59d307c 	ldr	r3, [sp, #124]	; 0x7c
c2000aa4:	e58d3010 	str	r3, [sp, #16]
c2000aa8:	e58d600c 	str	r6, [sp, #12]
c2000aac:	e5dd3074 	ldrb	r3, [sp, #116]	; 0x74
c2000ab0:	e58d3008 	str	r3, [sp, #8]
c2000ab4:	e58d7004 	str	r7, [sp, #4]
c2000ab8:	e28d3028 	add	r3, sp, #40	; 0x28
c2000abc:	e58d3000 	str	r3, [sp]
c2000ac0:	e1a0300b 	mov	r3, fp
c2000ac4:	e59d2024 	ldr	r2, [sp, #36]	; 0x24
c2000ac8:	e1a0100a 	mov	r1, sl
c2000acc:	e1a00009 	mov	r0, r9
c2000ad0:	ebffff4e 	bl	c2000810 <_ntoa_format>
c2000ad4:	e28dd04c 	add	sp, sp, #76	; 0x4c
c2000ad8:	e8bd8ff0 	pop	{r4, r5, r6, r7, r8, r9, sl, fp, pc}

c2000adc <_ntoa_long_long>:
c2000adc:	e92d4ff0 	push	{r4, r5, r6, r7, r8, r9, sl, fp, lr}
c2000ae0:	e24dd054 	sub	sp, sp, #84	; 0x54
c2000ae4:	e58d0024 	str	r0, [sp, #36]	; 0x24
c2000ae8:	e58d1028 	str	r1, [sp, #40]	; 0x28
c2000aec:	e58d202c 	str	r2, [sp, #44]	; 0x2c
c2000af0:	e1a0b003 	mov	fp, r3
c2000af4:	e59d5078 	ldr	r5, [sp, #120]	; 0x78
c2000af8:	e59d607c 	ldr	r6, [sp, #124]	; 0x7c
c2000afc:	e59d7088 	ldr	r7, [sp, #136]	; 0x88
c2000b00:	e59d808c 	ldr	r8, [sp, #140]	; 0x8c
c2000b04:	e59da098 	ldr	sl, [sp, #152]	; 0x98
c2000b08:	e1953006 	orrs	r3, r5, r6
c2000b0c:	03caa010 	biceq	sl, sl, #16
c2000b10:	e21a4b01 	ands	r4, sl, #1024	; 0x400
c2000b14:	0a00001a 	beq	c2000b84 <_ntoa_long_long+0xa8>
c2000b18:	e1953006 	orrs	r3, r5, r6
c2000b1c:	0a00002a 	beq	c2000bcc <_ntoa_long_long+0xf0>
c2000b20:	e3a04000 	mov	r4, #0
c2000b24:	ea000016 	b	c2000b84 <_ntoa_long_long+0xa8>
c2000b28:	e2832030 	add	r2, r3, #48	; 0x30
c2000b2c:	e6ef2072 	uxtb	r2, r2
c2000b30:	e2849001 	add	r9, r4, #1
c2000b34:	e2843050 	add	r3, r4, #80	; 0x50
c2000b38:	e08d4003 	add	r4, sp, r3
c2000b3c:	e5442020 	strb	r2, [r4, #-32]	; 0xffffffe0
c2000b40:	e1a02007 	mov	r2, r7
c2000b44:	e1a03008 	mov	r3, r8
c2000b48:	e1a00005 	mov	r0, r5
c2000b4c:	e1a01006 	mov	r1, r6
c2000b50:	fa00072d 	blx	c200280c <__aeabi_uldivmod>
c2000b54:	e1550007 	cmp	r5, r7
c2000b58:	e0d63008 	sbcs	r3, r6, r8
c2000b5c:	23a03001 	movcs	r3, #1
c2000b60:	33a03000 	movcc	r3, #0
c2000b64:	e359001f 	cmp	r9, #31
c2000b68:	83a03000 	movhi	r3, #0
c2000b6c:	92033001 	andls	r3, r3, #1
c2000b70:	e3530000 	cmp	r3, #0
c2000b74:	0a000015 	beq	c2000bd0 <_ntoa_long_long+0xf4>
c2000b78:	e1a04009 	mov	r4, r9
c2000b7c:	e1a05000 	mov	r5, r0
c2000b80:	e1a06001 	mov	r6, r1
c2000b84:	e1a02007 	mov	r2, r7
c2000b88:	e1a03008 	mov	r3, r8
c2000b8c:	e1a00005 	mov	r0, r5
c2000b90:	e1a01006 	mov	r1, r6
c2000b94:	fa00071c 	blx	c200280c <__aeabi_uldivmod>
c2000b98:	e6ef3072 	uxtb	r3, r2
c2000b9c:	e3530009 	cmp	r3, #9
c2000ba0:	9affffe0 	bls	c2000b28 <_ntoa_long_long+0x4c>
c2000ba4:	e31a0020 	tst	sl, #32
c2000ba8:	0a000005 	beq	c2000bc4 <_ntoa_long_long+0xe8>
c2000bac:	e3a02041 	mov	r2, #65	; 0x41
c2000bb0:	e0822003 	add	r2, r2, r3
c2000bb4:	e6ef2072 	uxtb	r2, r2
c2000bb8:	e242200a 	sub	r2, r2, #10
c2000bbc:	e6ef2072 	uxtb	r2, r2
c2000bc0:	eaffffda 	b	c2000b30 <_ntoa_long_long+0x54>
c2000bc4:	e3a02061 	mov	r2, #97	; 0x61
c2000bc8:	eafffff8 	b	c2000bb0 <_ntoa_long_long+0xd4>
c2000bcc:	e3a09000 	mov	r9, #0
c2000bd0:	e58da018 	str	sl, [sp, #24]
c2000bd4:	e59d3094 	ldr	r3, [sp, #148]	; 0x94
c2000bd8:	e58d3014 	str	r3, [sp, #20]
c2000bdc:	e59d3090 	ldr	r3, [sp, #144]	; 0x90
c2000be0:	e58d3010 	str	r3, [sp, #16]
c2000be4:	e58d700c 	str	r7, [sp, #12]
c2000be8:	e5dd3080 	ldrb	r3, [sp, #128]	; 0x80
c2000bec:	e58d3008 	str	r3, [sp, #8]
c2000bf0:	e58d9004 	str	r9, [sp, #4]
c2000bf4:	e28d3030 	add	r3, sp, #48	; 0x30
c2000bf8:	e58d3000 	str	r3, [sp]
c2000bfc:	e1a0300b 	mov	r3, fp
c2000c00:	e59d202c 	ldr	r2, [sp, #44]	; 0x2c
c2000c04:	e59d1028 	ldr	r1, [sp, #40]	; 0x28
c2000c08:	e59d0024 	ldr	r0, [sp, #36]	; 0x24
c2000c0c:	ebfffeff 	bl	c2000810 <_ntoa_format>
c2000c10:	e28dd054 	add	sp, sp, #84	; 0x54
c2000c14:	e8bd8ff0 	pop	{r4, r5, r6, r7, r8, r9, sl, fp, pc}

c2000c18 <_etoa>:
c2000c18:	e92d4ff0 	push	{r4, r5, r6, r7, r8, r9, sl, fp, lr}
c2000c1c:	e24dd024 	sub	sp, sp, #36	; 0x24
c2000c20:	e1a04000 	mov	r4, r0
c2000c24:	e1a05001 	mov	r5, r1
c2000c28:	e1a07002 	mov	r7, r2
c2000c2c:	e1a06003 	mov	r6, r3
c2000c30:	e59d1048 	ldr	r1, [sp, #72]	; 0x48
c2000c34:	e59da04c 	ldr	sl, [sp, #76]	; 0x4c
c2000c38:	e59d9050 	ldr	r9, [sp, #80]	; 0x50
c2000c3c:	eeb40b40 	vcmp.f64	d0, d0
c2000c40:	eef1fa10 	vmrs	APSR_nzcv, fpscr
c2000c44:	1a00005b 	bne	c2000db8 <_etoa+0x1a0>
c2000c48:	ed9f7bbc 	vldr	d7, [pc, #752]	; c2000f40 <_etoa+0x328>
c2000c4c:	eeb40bc7 	vcmpe.f64	d0, d7
c2000c50:	eef1fa10 	vmrs	APSR_nzcv, fpscr
c2000c54:	ca000057 	bgt	c2000db8 <_etoa+0x1a0>
c2000c58:	ed9f7bba 	vldr	d7, [pc, #744]	; c2000f48 <_etoa+0x330>
c2000c5c:	eeb40bc7 	vcmpe.f64	d0, d7
c2000c60:	eef1fa10 	vmrs	APSR_nzcv, fpscr
c2000c64:	4a000053 	bmi	c2000db8 <_etoa+0x1a0>
c2000c68:	eeb50bc0 	vcmpe.f64	d0, #0.0
c2000c6c:	eef1fa10 	vmrs	APSR_nzcv, fpscr
c2000c70:	4a00005a 	bmi	c2000de0 <_etoa+0x1c8>
c2000c74:	eeb05b40 	vmov.f64	d5, d0
c2000c78:	e2190b01 	ands	r0, r9, #1024	; 0x400
c2000c7c:	03a01006 	moveq	r1, #6
c2000c80:	ee153a90 	vmov	r3, s11
c2000c84:	e7eaca53 	ubfx	ip, r3, #20, #11
c2000c88:	e24ccfff 	sub	ip, ip, #1020	; 0x3fc
c2000c8c:	e24cc003 	sub	ip, ip, #3
c2000c90:	e7f3e053 	ubfx	lr, r3, #0, #20
c2000c94:	ee152a10 	vmov	r2, s10
c2000c98:	e38e35ff 	orr	r3, lr, #1069547520	; 0x3fc00000
c2000c9c:	e3833603 	orr	r3, r3, #3145728	; 0x300000
c2000ca0:	ee07ca90 	vmov	s15, ip
c2000ca4:	eeb87be7 	vcvt.f64.s32	d7, s15
c2000ca8:	ed9f4ba8 	vldr	d4, [pc, #672]	; c2000f50 <_etoa+0x338>
c2000cac:	ed9f6ba9 	vldr	d6, [pc, #676]	; c2000f58 <_etoa+0x340>
c2000cb0:	ee076b04 	vmla.f64	d6, d7, d4
c2000cb4:	eeb77b08 	vmov.f64	d7, #120	; 0x3fc00000  1.5
c2000cb8:	ec432b14 	vmov	d4, r2, r3
c2000cbc:	ee347b47 	vsub.f64	d7, d4, d7
c2000cc0:	ed9f4ba6 	vldr	d4, [pc, #664]	; c2000f60 <_etoa+0x348>
c2000cc4:	ee076b04 	vmla.f64	d6, d7, d4
c2000cc8:	eefd7bc6 	vcvt.s32.f64	s15, d6
c2000ccc:	ee178a90 	vmov	r8, s15
c2000cd0:	eeb84be7 	vcvt.f64.s32	d4, s15
c2000cd4:	ed9f6ba3 	vldr	d6, [pc, #652]	; c2000f68 <_etoa+0x350>
c2000cd8:	eeb67b00 	vmov.f64	d7, #96	; 0x3f000000  0.5
c2000cdc:	ee047b06 	vmla.f64	d7, d4, d6
c2000ce0:	eebd7bc7 	vcvt.s32.f64	s14, d7
c2000ce4:	eeb86bc7 	vcvt.f64.s32	d6, s14
c2000ce8:	ed9f3ba0 	vldr	d3, [pc, #640]	; c2000f70 <_etoa+0x358>
c2000cec:	ee266b03 	vmul.f64	d6, d6, d3
c2000cf0:	ed9f3ba0 	vldr	d3, [pc, #640]	; c2000f78 <_etoa+0x360>
c2000cf4:	ee146b03 	vnmls.f64	d6, d4, d3
c2000cf8:	ee262b06 	vmul.f64	d2, d6, d6
c2000cfc:	ee173a10 	vmov	r3, s14
c2000d00:	e2833fff 	add	r3, r3, #1020	; 0x3fc
c2000d04:	e2833003 	add	r3, r3, #3
c2000d08:	ed9f7b9c 	vldr	d7, [pc, #624]	; c2000f80 <_etoa+0x368>
c2000d0c:	e1a03a03 	lsl	r3, r3, #20
c2000d10:	ee073a90 	vmov	s15, r3
c2000d14:	ee361b06 	vadd.f64	d1, d6, d6
c2000d18:	eeb04b00 	vmov.f64	d4, #0	; 0x40000000  2.0
c2000d1c:	ee346b46 	vsub.f64	d6, d4, d6
c2000d20:	eeb23b0c 	vmov.f64	d3, #44	; 0x41600000  14.0
c2000d24:	ee824b03 	vdiv.f64	d4, d2, d3
c2000d28:	eeb23b04 	vmov.f64	d3, #36	; 0x41200000  10.0
c2000d2c:	ee344b03 	vadd.f64	d4, d4, d3
c2000d30:	ee823b04 	vdiv.f64	d3, d2, d4
c2000d34:	eeb14b08 	vmov.f64	d4, #24	; 0x40c00000  6.0
c2000d38:	ee333b04 	vadd.f64	d3, d3, d4
c2000d3c:	ee824b03 	vdiv.f64	d4, d2, d3
c2000d40:	ee364b04 	vadd.f64	d4, d6, d4
c2000d44:	ee816b04 	vdiv.f64	d6, d1, d4
c2000d48:	eeb74b00 	vmov.f64	d4, #112	; 0x3f800000  1.0
c2000d4c:	ee366b04 	vadd.f64	d6, d6, d4
c2000d50:	ee267b07 	vmul.f64	d7, d6, d7
c2000d54:	eeb06b47 	vmov.f64	d6, d7
c2000d58:	eeb47bc5 	vcmpe.f64	d7, d5
c2000d5c:	eef1fa10 	vmrs	APSR_nzcv, fpscr
c2000d60:	c2488001 	subgt	r8, r8, #1
c2000d64:	ceb24b04 	vmovgt.f64	d4, #36	; 0x41200000  10.0
c2000d68:	ce876b04 	vdivgt.f64	d6, d7, d4
c2000d6c:	e2883063 	add	r3, r8, #99	; 0x63
c2000d70:	e35300c6 	cmp	r3, #198	; 0xc6
c2000d74:	8a00001b 	bhi	c2000de8 <_etoa+0x1d0>
c2000d78:	e3a0b004 	mov	fp, #4
c2000d7c:	e3190b02 	tst	r9, #2048	; 0x800
c2000d80:	0a00001e 	beq	c2000e00 <_etoa+0x1e8>
c2000d84:	ed9f7b7f 	vldr	d7, [pc, #508]	; c2000f88 <_etoa+0x370>
c2000d88:	eeb45bc7 	vcmpe.f64	d5, d7
c2000d8c:	eef1fa10 	vmrs	APSR_nzcv, fpscr
c2000d90:	ba00001e 	blt	c2000e10 <_etoa+0x1f8>
c2000d94:	ed9f7b7d 	vldr	d7, [pc, #500]	; c2000f90 <_etoa+0x378>
c2000d98:	eeb45bc7 	vcmpe.f64	d5, d7
c2000d9c:	eef1fa10 	vmrs	APSR_nzcv, fpscr
c2000da0:	5a00001a 	bpl	c2000e10 <_etoa+0x1f8>
c2000da4:	e1510008 	cmp	r1, r8
c2000da8:	da000010 	ble	c2000df0 <_etoa+0x1d8>
c2000dac:	e0411008 	sub	r1, r1, r8
c2000db0:	e2411001 	sub	r1, r1, #1
c2000db4:	ea00000e 	b	c2000df4 <_etoa+0x1dc>
c2000db8:	e58d9008 	str	r9, [sp, #8]
c2000dbc:	e58da004 	str	sl, [sp, #4]
c2000dc0:	e58d1000 	str	r1, [sp]
c2000dc4:	e1a03006 	mov	r3, r6
c2000dc8:	e1a02007 	mov	r2, r7
c2000dcc:	e1a01005 	mov	r1, r5
c2000dd0:	e1a00004 	mov	r0, r4
c2000dd4:	eb00006f 	bl	c2000f98 <_ftoa>
c2000dd8:	e28dd024 	add	sp, sp, #36	; 0x24
c2000ddc:	e8bd8ff0 	pop	{r4, r5, r6, r7, r8, r9, sl, fp, pc}
c2000de0:	eeb15b40 	vneg.f64	d5, d0
c2000de4:	eaffffa3 	b	c2000c78 <_etoa+0x60>
c2000de8:	e3a0b005 	mov	fp, #5
c2000dec:	eaffffe2 	b	c2000d7c <_etoa+0x164>
c2000df0:	e3a01000 	mov	r1, #0
c2000df4:	e3899b01 	orr	r9, r9, #1024	; 0x400
c2000df8:	e3a0b000 	mov	fp, #0
c2000dfc:	e1a0800b 	mov	r8, fp
c2000e00:	e15b000a 	cmp	fp, sl
c2000e04:	2a000006 	bcs	c2000e24 <_etoa+0x20c>
c2000e08:	e04a300b 	sub	r3, sl, fp
c2000e0c:	ea000005 	b	c2000e28 <_etoa+0x210>
c2000e10:	e3510000 	cmp	r1, #0
c2000e14:	0afffff9 	beq	c2000e00 <_etoa+0x1e8>
c2000e18:	e3500000 	cmp	r0, #0
c2000e1c:	12411001 	subne	r1, r1, #1
c2000e20:	eafffff6 	b	c2000e00 <_etoa+0x1e8>
c2000e24:	e3a03000 	mov	r3, #0
c2000e28:	e2192002 	ands	r2, r9, #2
c2000e2c:	e58d201c 	str	r2, [sp, #28]
c2000e30:	0a000001 	beq	c2000e3c <_etoa+0x224>
c2000e34:	e35b0000 	cmp	fp, #0
c2000e38:	13a03000 	movne	r3, #0
c2000e3c:	e3580000 	cmp	r8, #0
c2000e40:	1e855b06 	vdivne.f64	d5, d5, d6
c2000e44:	eeb50bc0 	vcmpe.f64	d0, #0.0
c2000e48:	eef1fa10 	vmrs	APSR_nzcv, fpscr
c2000e4c:	4a00002b 	bmi	c2000f00 <_etoa+0x2e8>
c2000e50:	e3c92b02 	bic	r2, r9, #2048	; 0x800
c2000e54:	e58d2008 	str	r2, [sp, #8]
c2000e58:	e58d3004 	str	r3, [sp, #4]
c2000e5c:	e58d1000 	str	r1, [sp]
c2000e60:	eeb00b45 	vmov.f64	d0, d5
c2000e64:	e1a03006 	mov	r3, r6
c2000e68:	e1a02007 	mov	r2, r7
c2000e6c:	e1a01005 	mov	r1, r5
c2000e70:	e1a00004 	mov	r0, r4
c2000e74:	eb000047 	bl	c2000f98 <_ftoa>
c2000e78:	e35b0000 	cmp	fp, #0
c2000e7c:	0affffd5 	beq	c2000dd8 <_etoa+0x1c0>
c2000e80:	e3190020 	tst	r9, #32
c2000e84:	0a00001f 	beq	c2000f08 <_etoa+0x2f0>
c2000e88:	e3a0c045 	mov	ip, #69	; 0x45
c2000e8c:	e2809001 	add	r9, r0, #1
c2000e90:	e1a03006 	mov	r3, r6
c2000e94:	e1a02000 	mov	r2, r0
c2000e98:	e1a01005 	mov	r1, r5
c2000e9c:	e1a0000c 	mov	r0, ip
c2000ea0:	e12fff34 	blx	r4
c2000ea4:	e0283fc8 	eor	r3, r8, r8, asr #31
c2000ea8:	e0433fc8 	sub	r3, r3, r8, asr #31
c2000eac:	e3a02005 	mov	r2, #5
c2000eb0:	e58d2014 	str	r2, [sp, #20]
c2000eb4:	e24bb001 	sub	fp, fp, #1
c2000eb8:	e58db010 	str	fp, [sp, #16]
c2000ebc:	e3a02000 	mov	r2, #0
c2000ec0:	e58d200c 	str	r2, [sp, #12]
c2000ec4:	e3a0200a 	mov	r2, #10
c2000ec8:	e58d2008 	str	r2, [sp, #8]
c2000ecc:	e1a08fa8 	lsr	r8, r8, #31
c2000ed0:	e58d8004 	str	r8, [sp, #4]
c2000ed4:	e58d3000 	str	r3, [sp]
c2000ed8:	e1a03006 	mov	r3, r6
c2000edc:	e1a02009 	mov	r2, r9
c2000ee0:	e1a01005 	mov	r1, r5
c2000ee4:	e1a00004 	mov	r0, r4
c2000ee8:	ebfffeb5 	bl	c20009c4 <_ntoa_long>
c2000eec:	e59d301c 	ldr	r3, [sp, #28]
c2000ef0:	e3530000 	cmp	r3, #0
c2000ef4:	0affffb7 	beq	c2000dd8 <_etoa+0x1c0>
c2000ef8:	e1a02000 	mov	r2, r0
c2000efc:	ea000009 	b	c2000f28 <_etoa+0x310>
c2000f00:	eeb15b45 	vneg.f64	d5, d5
c2000f04:	eaffffd1 	b	c2000e50 <_etoa+0x238>
c2000f08:	e3a0c065 	mov	ip, #101	; 0x65
c2000f0c:	eaffffde 	b	c2000e8c <_etoa+0x274>
c2000f10:	e2828001 	add	r8, r2, #1
c2000f14:	e1a03006 	mov	r3, r6
c2000f18:	e1a01005 	mov	r1, r5
c2000f1c:	e3a00020 	mov	r0, #32
c2000f20:	e12fff34 	blx	r4
c2000f24:	e1a02008 	mov	r2, r8
c2000f28:	e0423007 	sub	r3, r2, r7
c2000f2c:	e153000a 	cmp	r3, sl
c2000f30:	3afffff6 	bcc	c2000f10 <_etoa+0x2f8>
c2000f34:	e1a00002 	mov	r0, r2
c2000f38:	eaffffa6 	b	c2000dd8 <_etoa+0x1c0>
c2000f3c:	e320f000 	nop	{0}
c2000f40:	ffffffff 			; <UNDEFINED> instruction: 0xffffffff
c2000f44:	7fefffff 	svcvc	0x00efffff
c2000f48:	ffffffff 			; <UNDEFINED> instruction: 0xffffffff
c2000f4c:	ffefffff 			; <UNDEFINED> instruction: 0xffefffff
c2000f50:	509f79fb 			; <UNDEFINED> instruction: 0x509f79fb
c2000f54:	3fd34413 	svccc	0x00d34413
c2000f58:	8b60c8b3 	blhi	c383322c <_stack_end+0x182c22c>
c2000f5c:	3fc68a28 	svccc	0x00c68a28
c2000f60:	636f4361 	cmnvs	pc, #-2080374783	; 0x84000001
c2000f64:	3fd287a7 	svccc	0x00d287a7
c2000f68:	0979a371 	ldmdbeq	r9!, {r0, r4, r5, r6, r8, r9, sp, pc}^
c2000f6c:	400a934f 	andmi	r9, sl, pc, asr #6
c2000f70:	fefa39ef 			; <UNDEFINED> instruction: 0xfefa39ef
c2000f74:	3fe62e42 	svccc	0x00e62e42
c2000f78:	bbb55516 	bllt	c0d563d8 <SYS_MODE+0xc0d563b9>
c2000f7c:	40026bb1 			; <UNDEFINED> instruction: 0x40026bb1
	...
c2000f88:	eb1c432d 	bl	c2711c44 <_stack_end+0x70ac44>
c2000f8c:	3f1a36e2 	svccc	0x001a36e2
c2000f90:	00000000 	andeq	r0, r0, r0
c2000f94:	412e8480 	smlawbmi	lr, r0, r4, r8

c2000f98 <_ftoa>:
c2000f98:	e92d4ff0 	push	{r4, r5, r6, r7, r8, r9, sl, fp, lr}
c2000f9c:	e24dd034 	sub	sp, sp, #52	; 0x34
c2000fa0:	e59de058 	ldr	lr, [sp, #88]	; 0x58
c2000fa4:	e59d605c 	ldr	r6, [sp, #92]	; 0x5c
c2000fa8:	e59d5060 	ldr	r5, [sp, #96]	; 0x60
c2000fac:	eeb40b40 	vcmp.f64	d0, d0
c2000fb0:	eef1fa10 	vmrs	APSR_nzcv, fpscr
c2000fb4:	1a000017 	bne	c2001018 <_ftoa+0x80>
c2000fb8:	ed9f7bf2 	vldr	d7, [pc, #968]	; c2001388 <_ftoa+0x3f0>
c2000fbc:	eeb40bc7 	vcmpe.f64	d0, d7
c2000fc0:	eef1fa10 	vmrs	APSR_nzcv, fpscr
c2000fc4:	4a00001c 	bmi	c200103c <_ftoa+0xa4>
c2000fc8:	ed9f7bf0 	vldr	d7, [pc, #960]	; c2001390 <_ftoa+0x3f8>
c2000fcc:	eeb40bc7 	vcmpe.f64	d0, d7
c2000fd0:	eef1fa10 	vmrs	APSR_nzcv, fpscr
c2000fd4:	ca000021 	bgt	c2001060 <_ftoa+0xc8>
c2000fd8:	ed9f7bee 	vldr	d7, [pc, #952]	; c2001398 <_ftoa+0x400>
c2000fdc:	eeb40bc7 	vcmpe.f64	d0, d7
c2000fe0:	eef1fa10 	vmrs	APSR_nzcv, fpscr
c2000fe4:	ca00002f 	bgt	c20010a8 <_ftoa+0x110>
c2000fe8:	ed9f7bec 	vldr	d7, [pc, #944]	; c20013a0 <_ftoa+0x408>
c2000fec:	eeb40bc7 	vcmpe.f64	d0, d7
c2000ff0:	eef1fa10 	vmrs	APSR_nzcv, fpscr
c2000ff4:	4a00002b 	bmi	c20010a8 <_ftoa+0x110>
c2000ff8:	eeb50bc0 	vcmpe.f64	d0, #0.0
c2000ffc:	eef1fa10 	vmrs	APSR_nzcv, fpscr
c2001000:	4a00002d 	bmi	c20010bc <_ftoa+0x124>
c2001004:	e3a07000 	mov	r7, #0
c2001008:	e3150b01 	tst	r5, #1024	; 0x400
c200100c:	0a000060 	beq	c2001194 <_ftoa+0x1fc>
c2001010:	e3a0c000 	mov	ip, #0
c2001014:	ea000032 	b	c20010e4 <_ftoa+0x14c>
c2001018:	e58d500c 	str	r5, [sp, #12]
c200101c:	e58d6008 	str	r6, [sp, #8]
c2001020:	e3a0c003 	mov	ip, #3
c2001024:	e58dc004 	str	ip, [sp, #4]
c2001028:	e302ca0c 	movw	ip, #10764	; 0x2a0c
c200102c:	e34cc200 	movt	ip, #49664	; 0xc200
c2001030:	e58dc000 	str	ip, [sp]
c2001034:	ebfffdc2 	bl	c2000744 <_out_rev>
c2001038:	ea0000af 	b	c20012fc <_ftoa+0x364>
c200103c:	e58d500c 	str	r5, [sp, #12]
c2001040:	e58d6008 	str	r6, [sp, #8]
c2001044:	e3a0c004 	mov	ip, #4
c2001048:	e58dc004 	str	ip, [sp, #4]
c200104c:	e302ca10 	movw	ip, #10768	; 0x2a10
c2001050:	e34cc200 	movt	ip, #49664	; 0xc200
c2001054:	e58dc000 	str	ip, [sp]
c2001058:	ebfffdb9 	bl	c2000744 <_out_rev>
c200105c:	ea0000a6 	b	c20012fc <_ftoa+0x364>
c2001060:	e215e004 	ands	lr, r5, #4
c2001064:	0a00000a 	beq	c2001094 <_ftoa+0xfc>
c2001068:	e302ca04 	movw	ip, #10756	; 0x2a04
c200106c:	e34cc200 	movt	ip, #49664	; 0xc200
c2001070:	e35e0000 	cmp	lr, #0
c2001074:	0a000009 	beq	c20010a0 <_ftoa+0x108>
c2001078:	e3a0e004 	mov	lr, #4
c200107c:	e58d500c 	str	r5, [sp, #12]
c2001080:	e58d6008 	str	r6, [sp, #8]
c2001084:	e58de004 	str	lr, [sp, #4]
c2001088:	e58dc000 	str	ip, [sp]
c200108c:	ebfffdac 	bl	c2000744 <_out_rev>
c2001090:	ea000099 	b	c20012fc <_ftoa+0x364>
c2001094:	e302ca00 	movw	ip, #10752	; 0x2a00
c2001098:	e34cc200 	movt	ip, #49664	; 0xc200
c200109c:	eafffff3 	b	c2001070 <_ftoa+0xd8>
c20010a0:	e3a0e003 	mov	lr, #3
c20010a4:	eafffff4 	b	c200107c <_ftoa+0xe4>
c20010a8:	e58d5008 	str	r5, [sp, #8]
c20010ac:	e58d6004 	str	r6, [sp, #4]
c20010b0:	e58de000 	str	lr, [sp]
c20010b4:	ebfffed7 	bl	c2000c18 <_etoa>
c20010b8:	ea00008f 	b	c20012fc <_ftoa+0x364>
c20010bc:	ed9f7bb9 	vldr	d7, [pc, #740]	; c20013a8 <_ftoa+0x410>
c20010c0:	ee370b40 	vsub.f64	d0, d7, d0
c20010c4:	e3a07001 	mov	r7, #1
c20010c8:	eaffffce 	b	c2001008 <_ftoa+0x70>
c20010cc:	e28c4030 	add	r4, ip, #48	; 0x30
c20010d0:	e08d4004 	add	r4, sp, r4
c20010d4:	e3a08030 	mov	r8, #48	; 0x30
c20010d8:	e5448020 	strb	r8, [r4, #-32]	; 0xffffffe0
c20010dc:	e24ee001 	sub	lr, lr, #1
c20010e0:	e28cc001 	add	ip, ip, #1
c20010e4:	e35c001f 	cmp	ip, #31
c20010e8:	83a04000 	movhi	r4, #0
c20010ec:	93a04001 	movls	r4, #1
c20010f0:	e35e0009 	cmp	lr, #9
c20010f4:	93a04000 	movls	r4, #0
c20010f8:	e3540000 	cmp	r4, #0
c20010fc:	1afffff2 	bne	c20010cc <_ftoa+0x134>
c2001100:	eefd7bc0 	vcvt.s32.f64	s15, d0
c2001104:	ee178a90 	vmov	r8, s15
c2001108:	eeb87be7 	vcvt.f64.s32	d7, s15
c200110c:	ee307b47 	vsub.f64	d7, d0, d7
c2001110:	e3024a18 	movw	r4, #10776	; 0x2a18
c2001114:	e34c4200 	movt	r4, #49664	; 0xc200
c2001118:	e084418e 	add	r4, r4, lr, lsl #3
c200111c:	ed946b00 	vldr	d6, [r4]
c2001120:	ee277b06 	vmul.f64	d7, d7, d6
c2001124:	eefc5bc7 	vcvt.u32.f64	s11, d7
c2001128:	ee159a90 	vmov	r9, s11
c200112c:	eeb85b65 	vcvt.f64.u32	d5, s11
c2001130:	ee377b45 	vsub.f64	d7, d7, d5
c2001134:	eeb65b00 	vmov.f64	d5, #96	; 0x3f000000  0.5
c2001138:	eeb47bc5 	vcmpe.f64	d7, d5
c200113c:	eef1fa10 	vmrs	APSR_nzcv, fpscr
c2001140:	da000015 	ble	c200119c <_ftoa+0x204>
c2001144:	e2899001 	add	r9, r9, #1
c2001148:	ee079a90 	vmov	s15, r9
c200114c:	eeb87b67 	vcvt.f64.u32	d7, s15
c2001150:	eeb46bc7 	vcmpe.f64	d6, d7
c2001154:	eef1fa10 	vmrs	APSR_nzcv, fpscr
c2001158:	92888001 	addls	r8, r8, #1
c200115c:	93a09000 	movls	r9, #0
c2001160:	e35e0000 	cmp	lr, #0
c2001164:	1a000016 	bne	c20011c4 <_ftoa+0x22c>
c2001168:	ee078a90 	vmov	s15, r8
c200116c:	eeb87be7 	vcvt.f64.s32	d7, s15
c2001170:	ee300b47 	vsub.f64	d0, d0, d7
c2001174:	eeb67b00 	vmov.f64	d7, #96	; 0x3f000000  0.5
c2001178:	eeb40bc7 	vcmpe.f64	d0, d7
c200117c:	eef1fa10 	vmrs	APSR_nzcv, fpscr
c2001180:	5a000000 	bpl	c2001188 <_ftoa+0x1f0>
c2001184:	da000034 	ble	c200125c <_ftoa+0x2c4>
c2001188:	e3180001 	tst	r8, #1
c200118c:	12888001 	addne	r8, r8, #1
c2001190:	ea000031 	b	c200125c <_ftoa+0x2c4>
c2001194:	e3a0e006 	mov	lr, #6
c2001198:	eaffff9c 	b	c2001010 <_ftoa+0x78>
c200119c:	eeb66b00 	vmov.f64	d6, #96	; 0x3f000000  0.5
c20011a0:	eeb47bc6 	vcmpe.f64	d7, d6
c20011a4:	eef1fa10 	vmrs	APSR_nzcv, fpscr
c20011a8:	4affffec 	bmi	c2001160 <_ftoa+0x1c8>
c20011ac:	e3590000 	cmp	r9, #0
c20011b0:	0a000001 	beq	c20011bc <_ftoa+0x224>
c20011b4:	e3190001 	tst	r9, #1
c20011b8:	0affffe8 	beq	c2001160 <_ftoa+0x1c8>
c20011bc:	e2899001 	add	r9, r9, #1
c20011c0:	eaffffe6 	b	c2001160 <_ftoa+0x1c8>
c20011c4:	e35c001f 	cmp	ip, #31
c20011c8:	8a000017 	bhi	c200122c <_ftoa+0x294>
c20011cc:	e24ee001 	sub	lr, lr, #1
c20011d0:	e30c4ccd 	movw	r4, #52429	; 0xcccd
c20011d4:	e34c4ccc 	movt	r4, #52428	; 0xcccc
c20011d8:	e084a994 	umull	sl, r4, r4, r9
c20011dc:	e1a0b1a4 	lsr	fp, r4, #3
c20011e0:	e3a0a00a 	mov	sl, #10
c20011e4:	e06b9b9a 	mls	fp, sl, fp, r9
c20011e8:	e28ca001 	add	sl, ip, #1
c20011ec:	e28bb030 	add	fp, fp, #48	; 0x30
c20011f0:	e28cc030 	add	ip, ip, #48	; 0x30
c20011f4:	e08dc00c 	add	ip, sp, ip
c20011f8:	e54cb020 	strb	fp, [ip, #-32]	; 0xffffffe0
c20011fc:	e1a0c1a4 	lsr	ip, r4, #3
c2001200:	e3590009 	cmp	r9, #9
c2001204:	9a000027 	bls	c20012a8 <_ftoa+0x310>
c2001208:	e1a0900c 	mov	r9, ip
c200120c:	e1a0c00a 	mov	ip, sl
c2001210:	eaffffeb 	b	c20011c4 <_ftoa+0x22c>
c2001214:	e28ce030 	add	lr, ip, #48	; 0x30
c2001218:	e08de00e 	add	lr, sp, lr
c200121c:	e3a09030 	mov	r9, #48	; 0x30
c2001220:	e54e9020 	strb	r9, [lr, #-32]	; 0xffffffe0
c2001224:	e1a0e004 	mov	lr, r4
c2001228:	e28cc001 	add	ip, ip, #1
c200122c:	e35c001f 	cmp	ip, #31
c2001230:	8a000002 	bhi	c2001240 <_ftoa+0x2a8>
c2001234:	e24e4001 	sub	r4, lr, #1
c2001238:	e35e0000 	cmp	lr, #0
c200123c:	1afffff4 	bne	c2001214 <_ftoa+0x27c>
c2001240:	e35c001f 	cmp	ip, #31
c2001244:	8a000004 	bhi	c200125c <_ftoa+0x2c4>
c2001248:	e28ce030 	add	lr, ip, #48	; 0x30
c200124c:	e08de00e 	add	lr, sp, lr
c2001250:	e3a0402e 	mov	r4, #46	; 0x2e
c2001254:	e54e4020 	strb	r4, [lr, #-32]	; 0xffffffe0
c2001258:	e28cc001 	add	ip, ip, #1
c200125c:	e35c001f 	cmp	ip, #31
c2001260:	8a000013 	bhi	c20012b4 <_ftoa+0x31c>
c2001264:	e306e667 	movw	lr, #26215	; 0x6667
c2001268:	e346e666 	movt	lr, #26214	; 0x6666
c200126c:	e0ce489e 	smull	r4, lr, lr, r8
c2001270:	e1a0e14e 	asr	lr, lr, #2
c2001274:	e1a09fc8 	asr	r9, r8, #31
c2001278:	e04e4009 	sub	r4, lr, r9
c200127c:	e3a0a00a 	mov	sl, #10
c2001280:	e064849a 	mls	r4, sl, r4, r8
c2001284:	e28ca001 	add	sl, ip, #1
c2001288:	e2844030 	add	r4, r4, #48	; 0x30
c200128c:	e28cc030 	add	ip, ip, #48	; 0x30
c2001290:	e08dc00c 	add	ip, sp, ip
c2001294:	e54c4020 	strb	r4, [ip, #-32]	; 0xffffffe0
c2001298:	e05e8009 	subs	r8, lr, r9
c200129c:	0a000003 	beq	c20012b0 <_ftoa+0x318>
c20012a0:	e1a0c00a 	mov	ip, sl
c20012a4:	eaffffec 	b	c200125c <_ftoa+0x2c4>
c20012a8:	e1a0c00a 	mov	ip, sl
c20012ac:	eaffffde 	b	c200122c <_ftoa+0x294>
c20012b0:	e1a0c00a 	mov	ip, sl
c20012b4:	e205e003 	and	lr, r5, #3
c20012b8:	e35e0001 	cmp	lr, #1
c20012bc:	0a000010 	beq	c2001304 <_ftoa+0x36c>
c20012c0:	e35c001f 	cmp	ip, #31
c20012c4:	8a000006 	bhi	c20012e4 <_ftoa+0x34c>
c20012c8:	e3570000 	cmp	r7, #0
c20012cc:	0a00001d 	beq	c2001348 <_ftoa+0x3b0>
c20012d0:	e28ce030 	add	lr, ip, #48	; 0x30
c20012d4:	e08de00e 	add	lr, sp, lr
c20012d8:	e3a0402d 	mov	r4, #45	; 0x2d
c20012dc:	e54e4020 	strb	r4, [lr, #-32]	; 0xffffffe0
c20012e0:	e28cc001 	add	ip, ip, #1
c20012e4:	e58d500c 	str	r5, [sp, #12]
c20012e8:	e58d6008 	str	r6, [sp, #8]
c20012ec:	e58dc004 	str	ip, [sp, #4]
c20012f0:	e28dc010 	add	ip, sp, #16
c20012f4:	e58dc000 	str	ip, [sp]
c20012f8:	ebfffd11 	bl	c2000744 <_out_rev>
c20012fc:	e28dd034 	add	sp, sp, #52	; 0x34
c2001300:	e8bd8ff0 	pop	{r4, r5, r6, r7, r8, r9, sl, fp, pc}
c2001304:	e3560000 	cmp	r6, #0
c2001308:	0a00000a 	beq	c2001338 <_ftoa+0x3a0>
c200130c:	e3570000 	cmp	r7, #0
c2001310:	1a000001 	bne	c200131c <_ftoa+0x384>
c2001314:	e315000c 	tst	r5, #12
c2001318:	0a000006 	beq	c2001338 <_ftoa+0x3a0>
c200131c:	e2466001 	sub	r6, r6, #1
c2001320:	ea000004 	b	c2001338 <_ftoa+0x3a0>
c2001324:	e28ce030 	add	lr, ip, #48	; 0x30
c2001328:	e08de00e 	add	lr, sp, lr
c200132c:	e3a04030 	mov	r4, #48	; 0x30
c2001330:	e54e4020 	strb	r4, [lr, #-32]	; 0xffffffe0
c2001334:	e28cc001 	add	ip, ip, #1
c2001338:	e35c001f 	cmp	ip, #31
c200133c:	915c0006 	cmpls	ip, r6
c2001340:	3afffff7 	bcc	c2001324 <_ftoa+0x38c>
c2001344:	eaffffdd 	b	c20012c0 <_ftoa+0x328>
c2001348:	e3150004 	tst	r5, #4
c200134c:	0a000005 	beq	c2001368 <_ftoa+0x3d0>
c2001350:	e28ce030 	add	lr, ip, #48	; 0x30
c2001354:	e08de00e 	add	lr, sp, lr
c2001358:	e3a0402b 	mov	r4, #43	; 0x2b
c200135c:	e54e4020 	strb	r4, [lr, #-32]	; 0xffffffe0
c2001360:	e28cc001 	add	ip, ip, #1
c2001364:	eaffffde 	b	c20012e4 <_ftoa+0x34c>
c2001368:	e3150008 	tst	r5, #8
c200136c:	0affffdc 	beq	c20012e4 <_ftoa+0x34c>
c2001370:	e28ce030 	add	lr, ip, #48	; 0x30
c2001374:	e08de00e 	add	lr, sp, lr
c2001378:	e3a04020 	mov	r4, #32
c200137c:	e54e4020 	strb	r4, [lr, #-32]	; 0xffffffe0
c2001380:	e28cc001 	add	ip, ip, #1
c2001384:	eaffffd6 	b	c20012e4 <_ftoa+0x34c>
c2001388:	ffffffff 			; <UNDEFINED> instruction: 0xffffffff
c200138c:	ffefffff 			; <UNDEFINED> instruction: 0xffefffff
c2001390:	ffffffff 			; <UNDEFINED> instruction: 0xffffffff
c2001394:	7fefffff 	svcvc	0x00efffff
c2001398:	00000000 	andeq	r0, r0, r0
c200139c:	41cdcd65 	bicmi	ip, sp, r5, ror #26
c20013a0:	00000000 	andeq	r0, r0, r0
c20013a4:	c1cdcd65 	bicgt	ip, sp, r5, ror #26
	...

c20013b0 <_vsnprintf>:
c20013b0:	e92d4ff0 	push	{r4, r5, r6, r7, r8, r9, sl, fp, lr}
c20013b4:	e24dd03c 	sub	sp, sp, #60	; 0x3c
c20013b8:	e1a08000 	mov	r8, r0
c20013bc:	e1a06002 	mov	r6, r2
c20013c0:	e58d3034 	str	r3, [sp, #52]	; 0x34
c20013c4:	e2517000 	subs	r7, r1, #0
c20013c8:	0a0002bd 	beq	c2001ec4 <_vsnprintf+0xb14>
c20013cc:	e3a04000 	mov	r4, #0
c20013d0:	e59d3034 	ldr	r3, [sp, #52]	; 0x34
c20013d4:	e5d30000 	ldrb	r0, [r3]
c20013d8:	e3500000 	cmp	r0, #0
c20013dc:	0a0002bb 	beq	c2001ed0 <_vsnprintf+0xb20>
c20013e0:	e3500025 	cmp	r0, #37	; 0x25
c20013e4:	0a000009 	beq	c2001410 <_vsnprintf+0x60>
c20013e8:	e2845001 	add	r5, r4, #1
c20013ec:	e1a03006 	mov	r3, r6
c20013f0:	e1a02004 	mov	r2, r4
c20013f4:	e1a01007 	mov	r1, r7
c20013f8:	e12fff38 	blx	r8
c20013fc:	e59d3034 	ldr	r3, [sp, #52]	; 0x34
c2001400:	e2833001 	add	r3, r3, #1
c2001404:	e58d3034 	str	r3, [sp, #52]	; 0x34
c2001408:	e1a04005 	mov	r4, r5
c200140c:	eaffffef 	b	c20013d0 <_vsnprintf+0x20>
c2001410:	e2833001 	add	r3, r3, #1
c2001414:	e58d3034 	str	r3, [sp, #52]	; 0x34
c2001418:	e3a05000 	mov	r5, #0
c200141c:	e59d3034 	ldr	r3, [sp, #52]	; 0x34
c2001420:	e5d31000 	ldrb	r1, [r3]
c2001424:	e2412020 	sub	r2, r1, #32
c2001428:	e3520010 	cmp	r2, #16
c200142c:	979ff102 	ldrls	pc, [pc, r2, lsl #2]
c2001430:	ea000010 	b	c2001478 <_vsnprintf+0xc8>
c2001434:	c2001540 	andgt	r1, r0, #64, 10	; 0x10000000
c2001438:	c2001478 	andgt	r1, r0, #120, 8	; 0x78000000
c200143c:	c2001478 	andgt	r1, r0, #120, 8	; 0x78000000
c2001440:	c2001550 	andgt	r1, r0, #80, 10	; 0x14000000
c2001444:	c2001478 	andgt	r1, r0, #120, 8	; 0x78000000
c2001448:	c2001478 	andgt	r1, r0, #120, 8	; 0x78000000
c200144c:	c2001478 	andgt	r1, r0, #120, 8	; 0x78000000
c2001450:	c2001478 	andgt	r1, r0, #120, 8	; 0x78000000
c2001454:	c2001478 	andgt	r1, r0, #120, 8	; 0x78000000
c2001458:	c2001478 	andgt	r1, r0, #120, 8	; 0x78000000
c200145c:	c2001478 	andgt	r1, r0, #120, 8	; 0x78000000
c2001460:	c2001530 	andgt	r1, r0, #48, 10	; 0xc000000
c2001464:	c2001478 	andgt	r1, r0, #120, 8	; 0x78000000
c2001468:	c2001520 	andgt	r1, r0, #32, 10	; 0x8000000
c200146c:	c2001478 	andgt	r1, r0, #120, 8	; 0x78000000
c2001470:	c2001478 	andgt	r1, r0, #120, 8	; 0x78000000
c2001474:	c2001510 	andgt	r1, r0, #16, 10	; 0x4000000
c2001478:	e2413030 	sub	r3, r1, #48	; 0x30
c200147c:	e6ef3073 	uxtb	r3, r3
c2001480:	e3530009 	cmp	r3, #9
c2001484:	9a000035 	bls	c2001560 <_vsnprintf+0x1b0>
c2001488:	e351002a 	cmp	r1, #42	; 0x2a
c200148c:	0a000037 	beq	c2001570 <_vsnprintf+0x1c0>
c2001490:	e3a03000 	mov	r3, #0
c2001494:	e58d3028 	str	r3, [sp, #40]	; 0x28
c2001498:	e59d3034 	ldr	r3, [sp, #52]	; 0x34
c200149c:	e5d32000 	ldrb	r2, [r3]
c20014a0:	e352002e 	cmp	r2, #46	; 0x2e
c20014a4:	0a000040 	beq	c20015ac <_vsnprintf+0x1fc>
c20014a8:	e3a0b000 	mov	fp, #0
c20014ac:	e59d2034 	ldr	r2, [sp, #52]	; 0x34
c20014b0:	e5d23000 	ldrb	r3, [r2]
c20014b4:	e2433068 	sub	r3, r3, #104	; 0x68
c20014b8:	e3530012 	cmp	r3, #18
c20014bc:	979ff103 	ldrls	pc, [pc, r3, lsl #2]
c20014c0:	ea00006b 	b	c2001674 <_vsnprintf+0x2c4>
c20014c4:	c200163c 	andgt	r1, r0, #60, 12	; 0x3c00000
c20014c8:	c2001674 	andgt	r1, r0, #116, 12	; 0x7400000
c20014cc:	c20017dc 	andgt	r1, r0, #220, 14	; 0x3700000
c20014d0:	c2001674 	andgt	r1, r0, #116, 12	; 0x7400000
c20014d4:	c2001610 	andgt	r1, r0, #16, 12	; 0x1000000
c20014d8:	c2001674 	andgt	r1, r0, #116, 12	; 0x7400000
c20014dc:	c2001674 	andgt	r1, r0, #116, 12	; 0x7400000
c20014e0:	c2001674 	andgt	r1, r0, #116, 12	; 0x7400000
c20014e4:	c2001674 	andgt	r1, r0, #116, 12	; 0x7400000
c20014e8:	c2001674 	andgt	r1, r0, #116, 12	; 0x7400000
c20014ec:	c2001674 	andgt	r1, r0, #116, 12	; 0x7400000
c20014f0:	c2001674 	andgt	r1, r0, #116, 12	; 0x7400000
c20014f4:	c2001668 	andgt	r1, r0, #104, 12	; 0x6800000
c20014f8:	c2001674 	andgt	r1, r0, #116, 12	; 0x7400000
c20014fc:	c2001674 	andgt	r1, r0, #116, 12	; 0x7400000
c2001500:	c2001674 	andgt	r1, r0, #116, 12	; 0x7400000
c2001504:	c2001674 	andgt	r1, r0, #116, 12	; 0x7400000
c2001508:	c2001674 	andgt	r1, r0, #116, 12	; 0x7400000
c200150c:	c20017ec 	andgt	r1, r0, #236, 14	; 0x3b00000
c2001510:	e3855001 	orr	r5, r5, #1
c2001514:	e2833001 	add	r3, r3, #1
c2001518:	e58d3034 	str	r3, [sp, #52]	; 0x34
c200151c:	eaffffbe 	b	c200141c <_vsnprintf+0x6c>
c2001520:	e3855002 	orr	r5, r5, #2
c2001524:	e2833001 	add	r3, r3, #1
c2001528:	e58d3034 	str	r3, [sp, #52]	; 0x34
c200152c:	eaffffba 	b	c200141c <_vsnprintf+0x6c>
c2001530:	e3855004 	orr	r5, r5, #4
c2001534:	e2833001 	add	r3, r3, #1
c2001538:	e58d3034 	str	r3, [sp, #52]	; 0x34
c200153c:	eaffffb6 	b	c200141c <_vsnprintf+0x6c>
c2001540:	e3855008 	orr	r5, r5, #8
c2001544:	e2833001 	add	r3, r3, #1
c2001548:	e58d3034 	str	r3, [sp, #52]	; 0x34
c200154c:	eaffffb2 	b	c200141c <_vsnprintf+0x6c>
c2001550:	e3855010 	orr	r5, r5, #16
c2001554:	e2833001 	add	r3, r3, #1
c2001558:	e58d3034 	str	r3, [sp, #52]	; 0x34
c200155c:	eaffffae 	b	c200141c <_vsnprintf+0x6c>
c2001560:	e28d0034 	add	r0, sp, #52	; 0x34
c2001564:	ebfffc66 	bl	c2000704 <_atoi>
c2001568:	e58d0028 	str	r0, [sp, #40]	; 0x28
c200156c:	eaffffc9 	b	c2001498 <_vsnprintf+0xe8>
c2001570:	e59d3060 	ldr	r3, [sp, #96]	; 0x60
c2001574:	e2832004 	add	r2, r3, #4
c2001578:	e58d2060 	str	r2, [sp, #96]	; 0x60
c200157c:	e5930000 	ldr	r0, [r3]
c2001580:	e3500000 	cmp	r0, #0
c2001584:	ba000004 	blt	c200159c <_vsnprintf+0x1ec>
c2001588:	e58d0028 	str	r0, [sp, #40]	; 0x28
c200158c:	e59d3034 	ldr	r3, [sp, #52]	; 0x34
c2001590:	e2833001 	add	r3, r3, #1
c2001594:	e58d3034 	str	r3, [sp, #52]	; 0x34
c2001598:	eaffffbe 	b	c2001498 <_vsnprintf+0xe8>
c200159c:	e3855002 	orr	r5, r5, #2
c20015a0:	e2603000 	rsb	r3, r0, #0
c20015a4:	e58d3028 	str	r3, [sp, #40]	; 0x28
c20015a8:	eafffff7 	b	c200158c <_vsnprintf+0x1dc>
c20015ac:	e3855b01 	orr	r5, r5, #1024	; 0x400
c20015b0:	e2832001 	add	r2, r3, #1
c20015b4:	e58d2034 	str	r2, [sp, #52]	; 0x34
c20015b8:	e5d32001 	ldrb	r2, [r3, #1]
c20015bc:	e2423030 	sub	r3, r2, #48	; 0x30
c20015c0:	e6ef3073 	uxtb	r3, r3
c20015c4:	e3530009 	cmp	r3, #9
c20015c8:	9a000003 	bls	c20015dc <_vsnprintf+0x22c>
c20015cc:	e352002a 	cmp	r2, #42	; 0x2a
c20015d0:	0a000005 	beq	c20015ec <_vsnprintf+0x23c>
c20015d4:	e3a0b000 	mov	fp, #0
c20015d8:	eaffffb3 	b	c20014ac <_vsnprintf+0xfc>
c20015dc:	e28d0034 	add	r0, sp, #52	; 0x34
c20015e0:	ebfffc47 	bl	c2000704 <_atoi>
c20015e4:	e1a0b000 	mov	fp, r0
c20015e8:	eaffffaf 	b	c20014ac <_vsnprintf+0xfc>
c20015ec:	e59d3060 	ldr	r3, [sp, #96]	; 0x60
c20015f0:	e2832004 	add	r2, r3, #4
c20015f4:	e58d2060 	str	r2, [sp, #96]	; 0x60
c20015f8:	e593b000 	ldr	fp, [r3]
c20015fc:	e1cbbfcb 	bic	fp, fp, fp, asr #31
c2001600:	e59d3034 	ldr	r3, [sp, #52]	; 0x34
c2001604:	e2833001 	add	r3, r3, #1
c2001608:	e58d3034 	str	r3, [sp, #52]	; 0x34
c200160c:	eaffffa6 	b	c20014ac <_vsnprintf+0xfc>
c2001610:	e3851c01 	orr	r1, r5, #256	; 0x100
c2001614:	e2823001 	add	r3, r2, #1
c2001618:	e58d3034 	str	r3, [sp, #52]	; 0x34
c200161c:	e5d22001 	ldrb	r2, [r2, #1]
c2001620:	e352006c 	cmp	r2, #108	; 0x6c
c2001624:	11a05001 	movne	r5, r1
c2001628:	1a000011 	bne	c2001674 <_vsnprintf+0x2c4>
c200162c:	e3855c03 	orr	r5, r5, #768	; 0x300
c2001630:	e2833001 	add	r3, r3, #1
c2001634:	e58d3034 	str	r3, [sp, #52]	; 0x34
c2001638:	ea00000d 	b	c2001674 <_vsnprintf+0x2c4>
c200163c:	e3851080 	orr	r1, r5, #128	; 0x80
c2001640:	e2823001 	add	r3, r2, #1
c2001644:	e58d3034 	str	r3, [sp, #52]	; 0x34
c2001648:	e5d22001 	ldrb	r2, [r2, #1]
c200164c:	e3520068 	cmp	r2, #104	; 0x68
c2001650:	11a05001 	movne	r5, r1
c2001654:	1a000006 	bne	c2001674 <_vsnprintf+0x2c4>
c2001658:	e38550c0 	orr	r5, r5, #192	; 0xc0
c200165c:	e2833001 	add	r3, r3, #1
c2001660:	e58d3034 	str	r3, [sp, #52]	; 0x34
c2001664:	ea000002 	b	c2001674 <_vsnprintf+0x2c4>
c2001668:	e3855c01 	orr	r5, r5, #256	; 0x100
c200166c:	e2822001 	add	r2, r2, #1
c2001670:	e58d2034 	str	r2, [sp, #52]	; 0x34
c2001674:	e59d3034 	ldr	r3, [sp, #52]	; 0x34
c2001678:	e5d30000 	ldrb	r0, [r3]
c200167c:	e2403025 	sub	r3, r0, #37	; 0x25
c2001680:	e3530053 	cmp	r3, #83	; 0x53
c2001684:	979ff103 	ldrls	pc, [pc, r3, lsl #2]
c2001688:	ea000203 	b	c2001e9c <_vsnprintf+0xaec>
c200168c:	c2001e70 	andgt	r1, r0, #112, 28	; 0x700
c2001690:	c2001e9c 	andgt	r1, r0, #156, 28	; 0x9c0
c2001694:	c2001e9c 	andgt	r1, r0, #156, 28	; 0x9c0
c2001698:	c2001e9c 	andgt	r1, r0, #156, 28	; 0x9c0
c200169c:	c2001e9c 	andgt	r1, r0, #156, 28	; 0x9c0
c20016a0:	c2001e9c 	andgt	r1, r0, #156, 28	; 0x9c0
c20016a4:	c2001e9c 	andgt	r1, r0, #156, 28	; 0x9c0
c20016a8:	c2001e9c 	andgt	r1, r0, #156, 28	; 0x9c0
c20016ac:	c2001e9c 	andgt	r1, r0, #156, 28	; 0x9c0
c20016b0:	c2001e9c 	andgt	r1, r0, #156, 28	; 0x9c0
c20016b4:	c2001e9c 	andgt	r1, r0, #156, 28	; 0x9c0
c20016b8:	c2001e9c 	andgt	r1, r0, #156, 28	; 0x9c0
c20016bc:	c2001e9c 	andgt	r1, r0, #156, 28	; 0x9c0
c20016c0:	c2001e9c 	andgt	r1, r0, #156, 28	; 0x9c0
c20016c4:	c2001e9c 	andgt	r1, r0, #156, 28	; 0x9c0
c20016c8:	c2001e9c 	andgt	r1, r0, #156, 28	; 0x9c0
c20016cc:	c2001e9c 	andgt	r1, r0, #156, 28	; 0x9c0
c20016d0:	c2001e9c 	andgt	r1, r0, #156, 28	; 0x9c0
c20016d4:	c2001e9c 	andgt	r1, r0, #156, 28	; 0x9c0
c20016d8:	c2001e9c 	andgt	r1, r0, #156, 28	; 0x9c0
c20016dc:	c2001e9c 	andgt	r1, r0, #156, 28	; 0x9c0
c20016e0:	c2001e9c 	andgt	r1, r0, #156, 28	; 0x9c0
c20016e4:	c2001e9c 	andgt	r1, r0, #156, 28	; 0x9c0
c20016e8:	c2001e9c 	andgt	r1, r0, #156, 28	; 0x9c0
c20016ec:	c2001e9c 	andgt	r1, r0, #156, 28	; 0x9c0
c20016f0:	c2001e9c 	andgt	r1, r0, #156, 28	; 0x9c0
c20016f4:	c2001e9c 	andgt	r1, r0, #156, 28	; 0x9c0
c20016f8:	c2001e9c 	andgt	r1, r0, #156, 28	; 0x9c0
c20016fc:	c2001e9c 	andgt	r1, r0, #156, 28	; 0x9c0
c2001700:	c2001e9c 	andgt	r1, r0, #156, 28	; 0x9c0
c2001704:	c2001e9c 	andgt	r1, r0, #156, 28	; 0x9c0
c2001708:	c2001e9c 	andgt	r1, r0, #156, 28	; 0x9c0
c200170c:	c2001b74 	andgt	r1, r0, #116, 22	; 0x1d000
c2001710:	c2001b14 	andgt	r1, r0, #20, 22	; 0x5000
c2001714:	c2001b74 	andgt	r1, r0, #116, 22	; 0x1d000
c2001718:	c2001e9c 	andgt	r1, r0, #156, 28	; 0x9c0
c200171c:	c2001e9c 	andgt	r1, r0, #156, 28	; 0x9c0
c2001720:	c2001e9c 	andgt	r1, r0, #156, 28	; 0x9c0
c2001724:	c2001e9c 	andgt	r1, r0, #156, 28	; 0x9c0
c2001728:	c2001e9c 	andgt	r1, r0, #156, 28	; 0x9c0
c200172c:	c2001e9c 	andgt	r1, r0, #156, 28	; 0x9c0
c2001730:	c2001e9c 	andgt	r1, r0, #156, 28	; 0x9c0
c2001734:	c2001e9c 	andgt	r1, r0, #156, 28	; 0x9c0
c2001738:	c2001e9c 	andgt	r1, r0, #156, 28	; 0x9c0
c200173c:	c2001e9c 	andgt	r1, r0, #156, 28	; 0x9c0
c2001740:	c2001e9c 	andgt	r1, r0, #156, 28	; 0x9c0
c2001744:	c2001e9c 	andgt	r1, r0, #156, 28	; 0x9c0
c2001748:	c2001e9c 	andgt	r1, r0, #156, 28	; 0x9c0
c200174c:	c2001e9c 	andgt	r1, r0, #156, 28	; 0x9c0
c2001750:	c2001e9c 	andgt	r1, r0, #156, 28	; 0x9c0
c2001754:	c2001e9c 	andgt	r1, r0, #156, 28	; 0x9c0
c2001758:	c20017fc 	andgt	r1, r0, #252, 14	; 0x3f00000
c200175c:	c2001e9c 	andgt	r1, r0, #156, 28	; 0x9c0
c2001760:	c2001e9c 	andgt	r1, r0, #156, 28	; 0x9c0
c2001764:	c2001e9c 	andgt	r1, r0, #156, 28	; 0x9c0
c2001768:	c2001e9c 	andgt	r1, r0, #156, 28	; 0x9c0
c200176c:	c2001e9c 	andgt	r1, r0, #156, 28	; 0x9c0
c2001770:	c2001e9c 	andgt	r1, r0, #156, 28	; 0x9c0
c2001774:	c2001e9c 	andgt	r1, r0, #156, 28	; 0x9c0
c2001778:	c2001e9c 	andgt	r1, r0, #156, 28	; 0x9c0
c200177c:	c2001e9c 	andgt	r1, r0, #156, 28	; 0x9c0
c2001780:	c20017fc 	andgt	r1, r0, #252, 14	; 0x3f00000
c2001784:	c2001bf4 	andgt	r1, r0, #244, 22	; 0x3d000
c2001788:	c20017fc 	andgt	r1, r0, #252, 14	; 0x3f00000
c200178c:	c2001b74 	andgt	r1, r0, #116, 22	; 0x1d000
c2001790:	c2001b14 	andgt	r1, r0, #20, 22	; 0x5000
c2001794:	c2001b74 	andgt	r1, r0, #116, 22	; 0x1d000
c2001798:	c2001e9c 	andgt	r1, r0, #156, 28	; 0x9c0
c200179c:	c20017fc 	andgt	r1, r0, #252, 14	; 0x3f00000
c20017a0:	c2001e9c 	andgt	r1, r0, #156, 28	; 0x9c0
c20017a4:	c2001e9c 	andgt	r1, r0, #156, 28	; 0x9c0
c20017a8:	c2001e9c 	andgt	r1, r0, #156, 28	; 0x9c0
c20017ac:	c2001e9c 	andgt	r1, r0, #156, 28	; 0x9c0
c20017b0:	c2001e9c 	andgt	r1, r0, #156, 28	; 0x9c0
c20017b4:	c20017fc 	andgt	r1, r0, #252, 14	; 0x3f00000
c20017b8:	c2001e10 	andgt	r1, r0, #16, 28	; 0x100
c20017bc:	c2001e9c 	andgt	r1, r0, #156, 28	; 0x9c0
c20017c0:	c2001e9c 	andgt	r1, r0, #156, 28	; 0x9c0
c20017c4:	c2001cbc 	andgt	r1, r0, #188, 24	; 0xbc00
c20017c8:	c2001e9c 	andgt	r1, r0, #156, 28	; 0x9c0
c20017cc:	c20017fc 	andgt	r1, r0, #252, 14	; 0x3f00000
c20017d0:	c2001e9c 	andgt	r1, r0, #156, 28	; 0x9c0
c20017d4:	c2001e9c 	andgt	r1, r0, #156, 28	; 0x9c0
c20017d8:	c20017fc 	andgt	r1, r0, #252, 14	; 0x3f00000
c20017dc:	e3855c02 	orr	r5, r5, #512	; 0x200
c20017e0:	e2822001 	add	r2, r2, #1
c20017e4:	e58d2034 	str	r2, [sp, #52]	; 0x34
c20017e8:	eaffffa1 	b	c2001674 <_vsnprintf+0x2c4>
c20017ec:	e3855c01 	orr	r5, r5, #256	; 0x100
c20017f0:	e2822001 	add	r2, r2, #1
c20017f4:	e58d2034 	str	r2, [sp, #52]	; 0x34
c20017f8:	eaffff9d 	b	c2001674 <_vsnprintf+0x2c4>
c20017fc:	e3500058 	cmp	r0, #88	; 0x58
c2001800:	13500078 	cmpne	r0, #120	; 0x78
c2001804:	0a000006 	beq	c2001824 <_vsnprintf+0x474>
c2001808:	e350006f 	cmp	r0, #111	; 0x6f
c200180c:	0a00002d 	beq	c20018c8 <_vsnprintf+0x518>
c2001810:	e3500062 	cmp	r0, #98	; 0x62
c2001814:	0a00002d 	beq	c20018d0 <_vsnprintf+0x520>
c2001818:	e3c55010 	bic	r5, r5, #16
c200181c:	e3a0300a 	mov	r3, #10
c2001820:	ea000000 	b	c2001828 <_vsnprintf+0x478>
c2001824:	e3a03010 	mov	r3, #16
c2001828:	e3500058 	cmp	r0, #88	; 0x58
c200182c:	0a000029 	beq	c20018d8 <_vsnprintf+0x528>
c2001830:	e3500069 	cmp	r0, #105	; 0x69
c2001834:	13500064 	cmpne	r0, #100	; 0x64
c2001838:	13c5500c 	bicne	r5, r5, #12
c200183c:	e3150b01 	tst	r5, #1024	; 0x400
c2001840:	13c55001 	bicne	r5, r5, #1
c2001844:	e3500064 	cmp	r0, #100	; 0x64
c2001848:	13500069 	cmpne	r0, #105	; 0x69
c200184c:	1a000062 	bne	c20019dc <_vsnprintf+0x62c>
c2001850:	e3150c02 	tst	r5, #512	; 0x200
c2001854:	1a000021 	bne	c20018e0 <_vsnprintf+0x530>
c2001858:	e3150c01 	tst	r5, #256	; 0x100
c200185c:	1a00003d 	bne	c2001958 <_vsnprintf+0x5a8>
c2001860:	e3150040 	tst	r5, #64	; 0x40
c2001864:	0a000050 	beq	c20019ac <_vsnprintf+0x5fc>
c2001868:	e59d2060 	ldr	r2, [sp, #96]	; 0x60
c200186c:	e2821004 	add	r1, r2, #4
c2001870:	e58d1060 	str	r1, [sp, #96]	; 0x60
c2001874:	e5d22000 	ldrb	r2, [r2]
c2001878:	e0221fc2 	eor	r1, r2, r2, asr #31
c200187c:	e0411fc2 	sub	r1, r1, r2, asr #31
c2001880:	e58d5014 	str	r5, [sp, #20]
c2001884:	e59d0028 	ldr	r0, [sp, #40]	; 0x28
c2001888:	e58d0010 	str	r0, [sp, #16]
c200188c:	e58db00c 	str	fp, [sp, #12]
c2001890:	e58d3008 	str	r3, [sp, #8]
c2001894:	e1a02fa2 	lsr	r2, r2, #31
c2001898:	e58d2004 	str	r2, [sp, #4]
c200189c:	e58d1000 	str	r1, [sp]
c20018a0:	e1a03006 	mov	r3, r6
c20018a4:	e1a02004 	mov	r2, r4
c20018a8:	e1a01007 	mov	r1, r7
c20018ac:	e1a00008 	mov	r0, r8
c20018b0:	ebfffc43 	bl	c20009c4 <_ntoa_long>
c20018b4:	e1a04000 	mov	r4, r0
c20018b8:	e59d3034 	ldr	r3, [sp, #52]	; 0x34
c20018bc:	e2833001 	add	r3, r3, #1
c20018c0:	e58d3034 	str	r3, [sp, #52]	; 0x34
c20018c4:	eafffec1 	b	c20013d0 <_vsnprintf+0x20>
c20018c8:	e3a03008 	mov	r3, #8
c20018cc:	eaffffd5 	b	c2001828 <_vsnprintf+0x478>
c20018d0:	e3a03002 	mov	r3, #2
c20018d4:	eaffffd3 	b	c2001828 <_vsnprintf+0x478>
c20018d8:	e3855020 	orr	r5, r5, #32
c20018dc:	eaffffd3 	b	c2001830 <_vsnprintf+0x480>
c20018e0:	e59d2060 	ldr	r2, [sp, #96]	; 0x60
c20018e4:	e2822007 	add	r2, r2, #7
c20018e8:	e3c22007 	bic	r2, r2, #7
c20018ec:	e2821008 	add	r1, r2, #8
c20018f0:	e58d1060 	str	r1, [sp, #96]	; 0x60
c20018f4:	e5921000 	ldr	r1, [r2]
c20018f8:	e5920004 	ldr	r0, [r2, #4]
c20018fc:	e1a02fc0 	asr	r2, r0, #31
c2001900:	e0211002 	eor	r1, r1, r2
c2001904:	e022c000 	eor	ip, r2, r0
c2001908:	e0511002 	subs	r1, r1, r2
c200190c:	e0cc2002 	sbc	r2, ip, r2
c2001910:	e58d5020 	str	r5, [sp, #32]
c2001914:	e59dc028 	ldr	ip, [sp, #40]	; 0x28
c2001918:	e58dc01c 	str	ip, [sp, #28]
c200191c:	e58db018 	str	fp, [sp, #24]
c2001920:	e58d3010 	str	r3, [sp, #16]
c2001924:	e3a03000 	mov	r3, #0
c2001928:	e58d3014 	str	r3, [sp, #20]
c200192c:	e1a03fa0 	lsr	r3, r0, #31
c2001930:	e58d3008 	str	r3, [sp, #8]
c2001934:	e58d1000 	str	r1, [sp]
c2001938:	e58d2004 	str	r2, [sp, #4]
c200193c:	e1a03006 	mov	r3, r6
c2001940:	e1a02004 	mov	r2, r4
c2001944:	e1a01007 	mov	r1, r7
c2001948:	e1a00008 	mov	r0, r8
c200194c:	ebfffc62 	bl	c2000adc <_ntoa_long_long>
c2001950:	e1a04000 	mov	r4, r0
c2001954:	eaffffd7 	b	c20018b8 <_vsnprintf+0x508>
c2001958:	e59d2060 	ldr	r2, [sp, #96]	; 0x60
c200195c:	e2821004 	add	r1, r2, #4
c2001960:	e58d1060 	str	r1, [sp, #96]	; 0x60
c2001964:	e5922000 	ldr	r2, [r2]
c2001968:	e0221fc2 	eor	r1, r2, r2, asr #31
c200196c:	e0411fc2 	sub	r1, r1, r2, asr #31
c2001970:	e58d5014 	str	r5, [sp, #20]
c2001974:	e59d0028 	ldr	r0, [sp, #40]	; 0x28
c2001978:	e58d0010 	str	r0, [sp, #16]
c200197c:	e58db00c 	str	fp, [sp, #12]
c2001980:	e58d3008 	str	r3, [sp, #8]
c2001984:	e1a02fa2 	lsr	r2, r2, #31
c2001988:	e58d2004 	str	r2, [sp, #4]
c200198c:	e58d1000 	str	r1, [sp]
c2001990:	e1a03006 	mov	r3, r6
c2001994:	e1a02004 	mov	r2, r4
c2001998:	e1a01007 	mov	r1, r7
c200199c:	e1a00008 	mov	r0, r8
c20019a0:	ebfffc07 	bl	c20009c4 <_ntoa_long>
c20019a4:	e1a04000 	mov	r4, r0
c20019a8:	eaffffc2 	b	c20018b8 <_vsnprintf+0x508>
c20019ac:	e3150080 	tst	r5, #128	; 0x80
c20019b0:	0a000004 	beq	c20019c8 <_vsnprintf+0x618>
c20019b4:	e59d2060 	ldr	r2, [sp, #96]	; 0x60
c20019b8:	e2821004 	add	r1, r2, #4
c20019bc:	e58d1060 	str	r1, [sp, #96]	; 0x60
c20019c0:	e1d220f0 	ldrsh	r2, [r2]
c20019c4:	eaffffab 	b	c2001878 <_vsnprintf+0x4c8>
c20019c8:	e59d2060 	ldr	r2, [sp, #96]	; 0x60
c20019cc:	e2821004 	add	r1, r2, #4
c20019d0:	e58d1060 	str	r1, [sp, #96]	; 0x60
c20019d4:	e5922000 	ldr	r2, [r2]
c20019d8:	eaffffa6 	b	c2001878 <_vsnprintf+0x4c8>
c20019dc:	e3150c02 	tst	r5, #512	; 0x200
c20019e0:	1a000016 	bne	c2001a40 <_vsnprintf+0x690>
c20019e4:	e3150c01 	tst	r5, #256	; 0x100
c20019e8:	1a00002a 	bne	c2001a98 <_vsnprintf+0x6e8>
c20019ec:	e3150040 	tst	r5, #64	; 0x40
c20019f0:	0a00003b 	beq	c2001ae4 <_vsnprintf+0x734>
c20019f4:	e59d2060 	ldr	r2, [sp, #96]	; 0x60
c20019f8:	e2821004 	add	r1, r2, #4
c20019fc:	e58d1060 	str	r1, [sp, #96]	; 0x60
c2001a00:	e5d22000 	ldrb	r2, [r2]
c2001a04:	e58d5014 	str	r5, [sp, #20]
c2001a08:	e59d1028 	ldr	r1, [sp, #40]	; 0x28
c2001a0c:	e58d1010 	str	r1, [sp, #16]
c2001a10:	e58db00c 	str	fp, [sp, #12]
c2001a14:	e58d3008 	str	r3, [sp, #8]
c2001a18:	e3a03000 	mov	r3, #0
c2001a1c:	e58d3004 	str	r3, [sp, #4]
c2001a20:	e58d2000 	str	r2, [sp]
c2001a24:	e1a03006 	mov	r3, r6
c2001a28:	e1a02004 	mov	r2, r4
c2001a2c:	e1a01007 	mov	r1, r7
c2001a30:	e1a00008 	mov	r0, r8
c2001a34:	ebfffbe2 	bl	c20009c4 <_ntoa_long>
c2001a38:	e1a04000 	mov	r4, r0
c2001a3c:	eaffff9d 	b	c20018b8 <_vsnprintf+0x508>
c2001a40:	e59d2060 	ldr	r2, [sp, #96]	; 0x60
c2001a44:	e2822007 	add	r2, r2, #7
c2001a48:	e3c22007 	bic	r2, r2, #7
c2001a4c:	e2821008 	add	r1, r2, #8
c2001a50:	e58d1060 	str	r1, [sp, #96]	; 0x60
c2001a54:	e58d5020 	str	r5, [sp, #32]
c2001a58:	e59d1028 	ldr	r1, [sp, #40]	; 0x28
c2001a5c:	e58d101c 	str	r1, [sp, #28]
c2001a60:	e58db018 	str	fp, [sp, #24]
c2001a64:	e3a01000 	mov	r1, #0
c2001a68:	e58d3010 	str	r3, [sp, #16]
c2001a6c:	e58d1014 	str	r1, [sp, #20]
c2001a70:	e58d1008 	str	r1, [sp, #8]
c2001a74:	e1c220d0 	ldrd	r2, [r2]
c2001a78:	e1cd20f0 	strd	r2, [sp]
c2001a7c:	e1a03006 	mov	r3, r6
c2001a80:	e1a02004 	mov	r2, r4
c2001a84:	e1a01007 	mov	r1, r7
c2001a88:	e1a00008 	mov	r0, r8
c2001a8c:	ebfffc12 	bl	c2000adc <_ntoa_long_long>
c2001a90:	e1a04000 	mov	r4, r0
c2001a94:	eaffff87 	b	c20018b8 <_vsnprintf+0x508>
c2001a98:	e59d2060 	ldr	r2, [sp, #96]	; 0x60
c2001a9c:	e2821004 	add	r1, r2, #4
c2001aa0:	e58d1060 	str	r1, [sp, #96]	; 0x60
c2001aa4:	e58d5014 	str	r5, [sp, #20]
c2001aa8:	e59d1028 	ldr	r1, [sp, #40]	; 0x28
c2001aac:	e58d1010 	str	r1, [sp, #16]
c2001ab0:	e58db00c 	str	fp, [sp, #12]
c2001ab4:	e58d3008 	str	r3, [sp, #8]
c2001ab8:	e3a03000 	mov	r3, #0
c2001abc:	e58d3004 	str	r3, [sp, #4]
c2001ac0:	e5923000 	ldr	r3, [r2]
c2001ac4:	e58d3000 	str	r3, [sp]
c2001ac8:	e1a03006 	mov	r3, r6
c2001acc:	e1a02004 	mov	r2, r4
c2001ad0:	e1a01007 	mov	r1, r7
c2001ad4:	e1a00008 	mov	r0, r8
c2001ad8:	ebfffbb9 	bl	c20009c4 <_ntoa_long>
c2001adc:	e1a04000 	mov	r4, r0
c2001ae0:	eaffff74 	b	c20018b8 <_vsnprintf+0x508>
c2001ae4:	e3150080 	tst	r5, #128	; 0x80
c2001ae8:	0a000004 	beq	c2001b00 <_vsnprintf+0x750>
c2001aec:	e59d2060 	ldr	r2, [sp, #96]	; 0x60
c2001af0:	e2821004 	add	r1, r2, #4
c2001af4:	e58d1060 	str	r1, [sp, #96]	; 0x60
c2001af8:	e1d220b0 	ldrh	r2, [r2]
c2001afc:	eaffffc0 	b	c2001a04 <_vsnprintf+0x654>
c2001b00:	e59d2060 	ldr	r2, [sp, #96]	; 0x60
c2001b04:	e2821004 	add	r1, r2, #4
c2001b08:	e58d1060 	str	r1, [sp, #96]	; 0x60
c2001b0c:	e5922000 	ldr	r2, [r2]
c2001b10:	eaffffbb 	b	c2001a04 <_vsnprintf+0x654>
c2001b14:	e3500046 	cmp	r0, #70	; 0x46
c2001b18:	0a000013 	beq	c2001b6c <_vsnprintf+0x7bc>
c2001b1c:	e59d3060 	ldr	r3, [sp, #96]	; 0x60
c2001b20:	e2833007 	add	r3, r3, #7
c2001b24:	e3c33007 	bic	r3, r3, #7
c2001b28:	e2832008 	add	r2, r3, #8
c2001b2c:	e58d2060 	str	r2, [sp, #96]	; 0x60
c2001b30:	ed930b00 	vldr	d0, [r3]
c2001b34:	e58d5008 	str	r5, [sp, #8]
c2001b38:	e59d3028 	ldr	r3, [sp, #40]	; 0x28
c2001b3c:	e58d3004 	str	r3, [sp, #4]
c2001b40:	e58db000 	str	fp, [sp]
c2001b44:	e1a03006 	mov	r3, r6
c2001b48:	e1a02004 	mov	r2, r4
c2001b4c:	e1a01007 	mov	r1, r7
c2001b50:	e1a00008 	mov	r0, r8
c2001b54:	ebfffd0f 	bl	c2000f98 <_ftoa>
c2001b58:	e1a04000 	mov	r4, r0
c2001b5c:	e59d3034 	ldr	r3, [sp, #52]	; 0x34
c2001b60:	e2833001 	add	r3, r3, #1
c2001b64:	e58d3034 	str	r3, [sp, #52]	; 0x34
c2001b68:	eafffe18 	b	c20013d0 <_vsnprintf+0x20>
c2001b6c:	e3855020 	orr	r5, r5, #32
c2001b70:	eaffffe9 	b	c2001b1c <_vsnprintf+0x76c>
c2001b74:	e3500047 	cmp	r0, #71	; 0x47
c2001b78:	13a03000 	movne	r3, #0
c2001b7c:	03a03001 	moveq	r3, #1
c2001b80:	e3500067 	cmp	r0, #103	; 0x67
c2001b84:	11a02003 	movne	r2, r3
c2001b88:	03832001 	orreq	r2, r3, #1
c2001b8c:	e3520000 	cmp	r2, #0
c2001b90:	13855b02 	orrne	r5, r5, #2048	; 0x800
c2001b94:	e3500045 	cmp	r0, #69	; 0x45
c2001b98:	03833001 	orreq	r3, r3, #1
c2001b9c:	e3530000 	cmp	r3, #0
c2001ba0:	13855020 	orrne	r5, r5, #32
c2001ba4:	e59d3060 	ldr	r3, [sp, #96]	; 0x60
c2001ba8:	e2833007 	add	r3, r3, #7
c2001bac:	e3c33007 	bic	r3, r3, #7
c2001bb0:	e2832008 	add	r2, r3, #8
c2001bb4:	e58d2060 	str	r2, [sp, #96]	; 0x60
c2001bb8:	ed930b00 	vldr	d0, [r3]
c2001bbc:	e58d5008 	str	r5, [sp, #8]
c2001bc0:	e59d3028 	ldr	r3, [sp, #40]	; 0x28
c2001bc4:	e58d3004 	str	r3, [sp, #4]
c2001bc8:	e58db000 	str	fp, [sp]
c2001bcc:	e1a03006 	mov	r3, r6
c2001bd0:	e1a02004 	mov	r2, r4
c2001bd4:	e1a01007 	mov	r1, r7
c2001bd8:	e1a00008 	mov	r0, r8
c2001bdc:	ebfffc0d 	bl	c2000c18 <_etoa>
c2001be0:	e1a04000 	mov	r4, r0
c2001be4:	e59d3034 	ldr	r3, [sp, #52]	; 0x34
c2001be8:	e2833001 	add	r3, r3, #1
c2001bec:	e58d3034 	str	r3, [sp, #52]	; 0x34
c2001bf0:	eafffdf6 	b	c20013d0 <_vsnprintf+0x20>
c2001bf4:	e2155002 	ands	r5, r5, #2
c2001bf8:	0a00001c 	beq	c2001c70 <_vsnprintf+0x8c0>
c2001bfc:	e3a09001 	mov	r9, #1
c2001c00:	e59d0060 	ldr	r0, [sp, #96]	; 0x60
c2001c04:	e2803004 	add	r3, r0, #4
c2001c08:	e58d3060 	str	r3, [sp, #96]	; 0x60
c2001c0c:	e284a001 	add	sl, r4, #1
c2001c10:	e1a03006 	mov	r3, r6
c2001c14:	e1a02004 	mov	r2, r4
c2001c18:	e1a01007 	mov	r1, r7
c2001c1c:	e5d00000 	ldrb	r0, [r0]
c2001c20:	e12fff38 	blx	r8
c2001c24:	e3550000 	cmp	r5, #0
c2001c28:	1a000014 	bne	c2001c80 <_vsnprintf+0x8d0>
c2001c2c:	e59d3034 	ldr	r3, [sp, #52]	; 0x34
c2001c30:	e2833001 	add	r3, r3, #1
c2001c34:	e58d3034 	str	r3, [sp, #52]	; 0x34
c2001c38:	e1a0400a 	mov	r4, sl
c2001c3c:	eafffde3 	b	c20013d0 <_vsnprintf+0x20>
c2001c40:	e282a001 	add	sl, r2, #1
c2001c44:	e1a03006 	mov	r3, r6
c2001c48:	e1a01007 	mov	r1, r7
c2001c4c:	e3a00020 	mov	r0, #32
c2001c50:	e12fff38 	blx	r8
c2001c54:	e1a03009 	mov	r3, r9
c2001c58:	e1a0200a 	mov	r2, sl
c2001c5c:	e2839001 	add	r9, r3, #1
c2001c60:	e15b0003 	cmp	fp, r3
c2001c64:	8afffff5 	bhi	c2001c40 <_vsnprintf+0x890>
c2001c68:	e1a04002 	mov	r4, r2
c2001c6c:	eaffffe3 	b	c2001c00 <_vsnprintf+0x850>
c2001c70:	e3a03001 	mov	r3, #1
c2001c74:	e59db028 	ldr	fp, [sp, #40]	; 0x28
c2001c78:	e1a02004 	mov	r2, r4
c2001c7c:	eafffff6 	b	c2001c5c <_vsnprintf+0x8ac>
c2001c80:	e1a0200a 	mov	r2, sl
c2001c84:	e59da028 	ldr	sl, [sp, #40]	; 0x28
c2001c88:	ea000006 	b	c2001ca8 <_vsnprintf+0x8f8>
c2001c8c:	e2825001 	add	r5, r2, #1
c2001c90:	e1a03006 	mov	r3, r6
c2001c94:	e1a01007 	mov	r1, r7
c2001c98:	e3a00020 	mov	r0, #32
c2001c9c:	e12fff38 	blx	r8
c2001ca0:	e1a09004 	mov	r9, r4
c2001ca4:	e1a02005 	mov	r2, r5
c2001ca8:	e2894001 	add	r4, r9, #1
c2001cac:	e15a0009 	cmp	sl, r9
c2001cb0:	8afffff5 	bhi	c2001c8c <_vsnprintf+0x8dc>
c2001cb4:	e1a0a002 	mov	sl, r2
c2001cb8:	eaffffdb 	b	c2001c2c <_vsnprintf+0x87c>
c2001cbc:	e59d3060 	ldr	r3, [sp, #96]	; 0x60
c2001cc0:	e2832004 	add	r2, r3, #4
c2001cc4:	e58d2060 	str	r2, [sp, #96]	; 0x60
c2001cc8:	e593a000 	ldr	sl, [r3]
c2001ccc:	e35b0000 	cmp	fp, #0
c2001cd0:	1a000016 	bne	c2001d30 <_vsnprintf+0x980>
c2001cd4:	e3e03000 	mvn	r3, #0
c2001cd8:	e1a0900a 	mov	r9, sl
c2001cdc:	ea000001 	b	c2001ce8 <_vsnprintf+0x938>
c2001ce0:	e2899001 	add	r9, r9, #1
c2001ce4:	e1a03002 	mov	r3, r2
c2001ce8:	e5d92000 	ldrb	r2, [r9]
c2001cec:	e3520000 	cmp	r2, #0
c2001cf0:	0a000002 	beq	c2001d00 <_vsnprintf+0x950>
c2001cf4:	e2432001 	sub	r2, r3, #1
c2001cf8:	e3530000 	cmp	r3, #0
c2001cfc:	1afffff7 	bne	c2001ce0 <_vsnprintf+0x930>
c2001d00:	e049900a 	sub	r9, r9, sl
c2001d04:	e2153b01 	ands	r3, r5, #1024	; 0x400
c2001d08:	e58d302c 	str	r3, [sp, #44]	; 0x2c
c2001d0c:	0a000001 	beq	c2001d18 <_vsnprintf+0x968>
c2001d10:	e159000b 	cmp	r9, fp
c2001d14:	21a0900b 	movcs	r9, fp
c2001d18:	e2153002 	ands	r3, r5, #2
c2001d1c:	e58d3030 	str	r3, [sp, #48]	; 0x30
c2001d20:	0a000004 	beq	c2001d38 <_vsnprintf+0x988>
c2001d24:	e1a02004 	mov	r2, r4
c2001d28:	e59d402c 	ldr	r4, [sp, #44]	; 0x2c
c2001d2c:	ea000019 	b	c2001d98 <_vsnprintf+0x9e8>
c2001d30:	e1a0300b 	mov	r3, fp
c2001d34:	eaffffe7 	b	c2001cd8 <_vsnprintf+0x928>
c2001d38:	e1a02004 	mov	r2, r4
c2001d3c:	e59d4028 	ldr	r4, [sp, #40]	; 0x28
c2001d40:	e1a03009 	mov	r3, r9
c2001d44:	ea000006 	b	c2001d64 <_vsnprintf+0x9b4>
c2001d48:	e2829001 	add	r9, r2, #1
c2001d4c:	e1a03006 	mov	r3, r6
c2001d50:	e1a01007 	mov	r1, r7
c2001d54:	e3a00020 	mov	r0, #32
c2001d58:	e12fff38 	blx	r8
c2001d5c:	e1a03005 	mov	r3, r5
c2001d60:	e1a02009 	mov	r2, r9
c2001d64:	e2835001 	add	r5, r3, #1
c2001d68:	e1540003 	cmp	r4, r3
c2001d6c:	8afffff5 	bhi	c2001d48 <_vsnprintf+0x998>
c2001d70:	e1a09005 	mov	r9, r5
c2001d74:	e59d402c 	ldr	r4, [sp, #44]	; 0x2c
c2001d78:	ea000006 	b	c2001d98 <_vsnprintf+0x9e8>
c2001d7c:	e1a0b003 	mov	fp, r3
c2001d80:	e28aa001 	add	sl, sl, #1
c2001d84:	e2825001 	add	r5, r2, #1
c2001d88:	e1a03006 	mov	r3, r6
c2001d8c:	e1a01007 	mov	r1, r7
c2001d90:	e12fff38 	blx	r8
c2001d94:	e1a02005 	mov	r2, r5
c2001d98:	e5da0000 	ldrb	r0, [sl]
c2001d9c:	e3500000 	cmp	r0, #0
c2001da0:	0a000004 	beq	c2001db8 <_vsnprintf+0xa08>
c2001da4:	e3540000 	cmp	r4, #0
c2001da8:	0afffff4 	beq	c2001d80 <_vsnprintf+0x9d0>
c2001dac:	e24b3001 	sub	r3, fp, #1
c2001db0:	e35b0000 	cmp	fp, #0
c2001db4:	1afffff0 	bne	c2001d7c <_vsnprintf+0x9cc>
c2001db8:	e1a04002 	mov	r4, r2
c2001dbc:	e59d3030 	ldr	r3, [sp, #48]	; 0x30
c2001dc0:	e3530000 	cmp	r3, #0
c2001dc4:	1a000003 	bne	c2001dd8 <_vsnprintf+0xa28>
c2001dc8:	e59d3034 	ldr	r3, [sp, #52]	; 0x34
c2001dcc:	e2833001 	add	r3, r3, #1
c2001dd0:	e58d3034 	str	r3, [sp, #52]	; 0x34
c2001dd4:	eafffd7d 	b	c20013d0 <_vsnprintf+0x20>
c2001dd8:	e59da028 	ldr	sl, [sp, #40]	; 0x28
c2001ddc:	ea000006 	b	c2001dfc <_vsnprintf+0xa4c>
c2001de0:	e2825001 	add	r5, r2, #1
c2001de4:	e1a03006 	mov	r3, r6
c2001de8:	e1a01007 	mov	r1, r7
c2001dec:	e3a00020 	mov	r0, #32
c2001df0:	e12fff38 	blx	r8
c2001df4:	e1a09004 	mov	r9, r4
c2001df8:	e1a02005 	mov	r2, r5
c2001dfc:	e2894001 	add	r4, r9, #1
c2001e00:	e15a0009 	cmp	sl, r9
c2001e04:	8afffff5 	bhi	c2001de0 <_vsnprintf+0xa30>
c2001e08:	e1a04002 	mov	r4, r2
c2001e0c:	eaffffed 	b	c2001dc8 <_vsnprintf+0xa18>
c2001e10:	e3855021 	orr	r5, r5, #33	; 0x21
c2001e14:	e59d3060 	ldr	r3, [sp, #96]	; 0x60
c2001e18:	e2832004 	add	r2, r3, #4
c2001e1c:	e58d2060 	str	r2, [sp, #96]	; 0x60
c2001e20:	e5933000 	ldr	r3, [r3]
c2001e24:	e58d5014 	str	r5, [sp, #20]
c2001e28:	e3a02008 	mov	r2, #8
c2001e2c:	e58d2010 	str	r2, [sp, #16]
c2001e30:	e58db00c 	str	fp, [sp, #12]
c2001e34:	e3a02010 	mov	r2, #16
c2001e38:	e58d2008 	str	r2, [sp, #8]
c2001e3c:	e3a02000 	mov	r2, #0
c2001e40:	e58d2004 	str	r2, [sp, #4]
c2001e44:	e58d3000 	str	r3, [sp]
c2001e48:	e1a03006 	mov	r3, r6
c2001e4c:	e1a02004 	mov	r2, r4
c2001e50:	e1a01007 	mov	r1, r7
c2001e54:	e1a00008 	mov	r0, r8
c2001e58:	ebfffad9 	bl	c20009c4 <_ntoa_long>
c2001e5c:	e1a04000 	mov	r4, r0
c2001e60:	e59d3034 	ldr	r3, [sp, #52]	; 0x34
c2001e64:	e2833001 	add	r3, r3, #1
c2001e68:	e58d3034 	str	r3, [sp, #52]	; 0x34
c2001e6c:	eafffd57 	b	c20013d0 <_vsnprintf+0x20>
c2001e70:	e2845001 	add	r5, r4, #1
c2001e74:	e1a03006 	mov	r3, r6
c2001e78:	e1a02004 	mov	r2, r4
c2001e7c:	e1a01007 	mov	r1, r7
c2001e80:	e3a00025 	mov	r0, #37	; 0x25
c2001e84:	e12fff38 	blx	r8
c2001e88:	e59d3034 	ldr	r3, [sp, #52]	; 0x34
c2001e8c:	e2833001 	add	r3, r3, #1
c2001e90:	e58d3034 	str	r3, [sp, #52]	; 0x34
c2001e94:	e1a04005 	mov	r4, r5
c2001e98:	eafffd4c 	b	c20013d0 <_vsnprintf+0x20>
c2001e9c:	e2845001 	add	r5, r4, #1
c2001ea0:	e1a03006 	mov	r3, r6
c2001ea4:	e1a02004 	mov	r2, r4
c2001ea8:	e1a01007 	mov	r1, r7
c2001eac:	e12fff38 	blx	r8
c2001eb0:	e59d3034 	ldr	r3, [sp, #52]	; 0x34
c2001eb4:	e2833001 	add	r3, r3, #1
c2001eb8:	e58d3034 	str	r3, [sp, #52]	; 0x34
c2001ebc:	e1a04005 	mov	r4, r5
c2001ec0:	eafffd42 	b	c20013d0 <_vsnprintf+0x20>
c2001ec4:	e3008700 	movw	r8, #1792	; 0x700
c2001ec8:	e34c8200 	movt	r8, #49664	; 0xc200
c2001ecc:	eafffd3e 	b	c20013cc <_vsnprintf+0x1c>
c2001ed0:	e1540006 	cmp	r4, r6
c2001ed4:	22462001 	subcs	r2, r6, #1
c2001ed8:	31a02004 	movcc	r2, r4
c2001edc:	e1a03006 	mov	r3, r6
c2001ee0:	e1a01007 	mov	r1, r7
c2001ee4:	e3a00000 	mov	r0, #0
c2001ee8:	e12fff38 	blx	r8
c2001eec:	e1a00004 	mov	r0, r4
c2001ef0:	e28dd03c 	add	sp, sp, #60	; 0x3c
c2001ef4:	e8bd8ff0 	pop	{r4, r5, r6, r7, r8, r9, sl, fp, pc}

c2001ef8 <_out_char>:
c2001ef8:	e3500000 	cmp	r0, #0
c2001efc:	012fff1e 	bxeq	lr
c2001f00:	e92d4010 	push	{r4, lr}
c2001f04:	eb00018c 	bl	c200253c <_putchar>
c2001f08:	e8bd8010 	pop	{r4, pc}

c2001f0c <printf_>:
c2001f0c:	e92d000f 	push	{r0, r1, r2, r3}
c2001f10:	e52de004 	push	{lr}		; (str lr, [sp, #-4]!)
c2001f14:	e24dd014 	sub	sp, sp, #20
c2001f18:	e28d301c 	add	r3, sp, #28
c2001f1c:	e58d300c 	str	r3, [sp, #12]
c2001f20:	e58d3000 	str	r3, [sp]
c2001f24:	e59d3018 	ldr	r3, [sp, #24]
c2001f28:	e3e02000 	mvn	r2, #0
c2001f2c:	e28d1008 	add	r1, sp, #8
c2001f30:	e3010ef8 	movw	r0, #7928	; 0x1ef8
c2001f34:	e34c0200 	movt	r0, #49664	; 0xc200
c2001f38:	ebfffd1c 	bl	c20013b0 <_vsnprintf>
c2001f3c:	e28dd014 	add	sp, sp, #20
c2001f40:	e49de004 	pop	{lr}		; (ldr lr, [sp], #4)
c2001f44:	e28dd010 	add	sp, sp, #16
c2001f48:	e12fff1e 	bx	lr

c2001f4c <arch_alignment_check_enable>:
c2001f4c:	ee110f10 	mrc	15, 0, r0, cr1, cr0, {0}
c2001f50:	e3800002 	orr	r0, r0, #2
c2001f54:	ee010f10 	mcr	15, 0, r0, cr1, cr0, {0}
c2001f58:	e12fff1e 	bx	lr

c2001f5c <_early_arch_init>:
c2001f5c:	e92d4010 	push	{r4, lr}
c2001f60:	e3032000 	movw	r2, #12288	; 0x3000
c2001f64:	e34c2200 	movt	r2, #49664	; 0xc200
c2001f68:	e3020c00 	movw	r0, #11264	; 0x2c00
c2001f6c:	e34c0200 	movt	r0, #49664	; 0xc200
c2001f70:	e0422000 	sub	r2, r2, r0
c2001f74:	e1a02142 	asr	r2, r2, #2
c2001f78:	e3a01000 	mov	r1, #0
c2001f7c:	ebfff9d7 	bl	c20006e0 <memset>
c2001f80:	eb000173 	bl	c2002554 <board_early_init>
c2001f84:	ebfff974 	bl	c200055c <arch_tlb_invalidate_all>
c2001f88:	ebfff95c 	bl	c2000500 <arch_mmu_enable>
c2001f8c:	ebfff89c 	bl	c2000204 <arch_dcache_invalidate_all>
c2001f90:	ebfff87d 	bl	c200018c <arch_dcache_enable>
c2001f94:	ebfff884 	bl	c20001ac <arch_icache_invalidate_all>
c2001f98:	ebfff873 	bl	c200016c <arch_icache_enable>
c2001f9c:	ebfff85c 	bl	c2000114 <arch_branch_predictor_invalidate_all>
c2001fa0:	ebfff853 	bl	c20000f4 <arch_branch_predictor_enable>
c2001fa4:	ebffffe8 	bl	c2001f4c <arch_alignment_check_enable>
c2001fa8:	f1080100 	cpsie	a
c2001fac:	eb000011 	bl	c2001ff8 <arch_irq_init>
c2001fb0:	ebfff977 	bl	c2000594 <arch_pmu_user_access_enable>
c2001fb4:	ebfff986 	bl	c20005d4 <arch_pmu_cycle_counter_init>
c2001fb8:	ebfff97d 	bl	c20005b4 <arch_pmu_cycle_counter_enable>
c2001fbc:	ebfff93d 	bl	c20004b8 <arch_fpu_enable>
c2001fc0:	eb000166 	bl	c2002560 <board_init>
c2001fc4:	eb00016f 	bl	c2002588 <main>
c2001fc8:	e8bd8010 	pop	{r4, pc}

c2001fcc <arch_default_irq_handler>:
c2001fcc:	e12fff1e 	bx	lr

c2001fd0 <arch_irq_handler>:
c2001fd0:	e92d4010 	push	{r4, lr}
c2001fd4:	e1a04000 	mov	r4, r0
c2001fd8:	eb000024 	bl	c2002070 <sdrv_irq_clear_status>
c2001fdc:	e3023c00 	movw	r3, #11264	; 0x2c00
c2001fe0:	e34c3200 	movt	r3, #49664	; 0xc200
c2001fe4:	e7932184 	ldr	r2, [r3, r4, lsl #3]
c2001fe8:	e0833184 	add	r3, r3, r4, lsl #3
c2001fec:	e5930004 	ldr	r0, [r3, #4]
c2001ff0:	e12fff32 	blx	r2
c2001ff4:	e8bd8010 	pop	{r4, pc}

c2001ff8 <arch_irq_init>:
c2001ff8:	e92d4010 	push	{r4, lr}
c2001ffc:	e3a03000 	mov	r3, #0
c2002000:	ea000008 	b	c2002028 <arch_irq_init+0x30>
c2002004:	e3022c00 	movw	r2, #11264	; 0x2c00
c2002008:	e34c2200 	movt	r2, #49664	; 0xc200
c200200c:	e0821183 	add	r1, r2, r3, lsl #3
c2002010:	e3a00000 	mov	r0, #0
c2002014:	e5810004 	str	r0, [r1, #4]
c2002018:	e3011fcc 	movw	r1, #8140	; 0x1fcc
c200201c:	e34c1200 	movt	r1, #49664	; 0xc200
c2002020:	e7821183 	str	r1, [r2, r3, lsl #3]
c2002024:	e2833001 	add	r3, r3, #1
c2002028:	e353007f 	cmp	r3, #127	; 0x7f
c200202c:	9afffff4 	bls	c2002004 <arch_irq_init+0xc>
c2002030:	eb000000 	bl	c2002038 <sdrv_irq_init>
c2002034:	e8bd8010 	pop	{r4, pc}

c2002038 <sdrv_irq_init>:
c2002038:	e3a03000 	mov	r3, #0
c200203c:	e3443820 	movt	r3, #18464	; 0x4820
c2002040:	e5932010 	ldr	r2, [r3, #16]
c2002044:	e3822002 	orr	r2, r2, #2
c2002048:	e5832010 	str	r2, [r3, #16]
c200204c:	e3a03000 	mov	r3, #0
c2002050:	ea000003 	b	c2002064 <sdrv_irq_init+0x2c>
c2002054:	e3a03000 	mov	r3, #0
c2002058:	e3443820 	movt	r3, #18464	; 0x4820
c200205c:	e5933014 	ldr	r3, [r3, #20]
c2002060:	e2033001 	and	r3, r3, #1
c2002064:	e3530000 	cmp	r3, #0
c2002068:	0afffff9 	beq	c2002054 <sdrv_irq_init+0x1c>
c200206c:	e12fff1e 	bx	lr

c2002070 <sdrv_irq_clear_status>:
c2002070:	e350007f 	cmp	r0, #127	; 0x7f
c2002074:	812fff1e 	bxhi	lr
c2002078:	e200201f 	and	r2, r0, #31
c200207c:	e3a03001 	mov	r3, #1
c2002080:	e1a03213 	lsl	r3, r3, r2
c2002084:	e3c0001f 	bic	r0, r0, #31
c2002088:	e3a02094 	mov	r2, #148	; 0x94
c200208c:	e3442820 	movt	r2, #18464	; 0x4820
c2002090:	e7803002 	str	r3, [r0, r2]
c2002094:	e12fff1e 	bx	lr

c2002098 <sdrv_irq_handler>:
c2002098:	e14fb000 	mrs	fp, SPSR
c200209c:	e59f0054 	ldr	r0, [pc, #84]	; c20020f8 <sdrv_irq_handler+0x60>
c20020a0:	e590c000 	ldr	ip, [r0]
c20020a4:	e59f1050 	ldr	r1, [pc, #80]	; c20020fc <sdrv_irq_handler+0x64>
c20020a8:	e5912000 	ldr	r2, [r1]
c20020ac:	e202203f 	and	r2, r2, #63	; 0x3f
c20020b0:	e5802000 	str	r2, [r0]
c20020b4:	e59f1044 	ldr	r1, [pc, #68]	; c2002100 <sdrv_irq_handler+0x68>
c20020b8:	e5910000 	ldr	r0, [r1]
c20020bc:	e200007f 	and	r0, r0, #127	; 0x7f
c20020c0:	e59f103c 	ldr	r1, [pc, #60]	; c2002104 <sdrv_irq_handler+0x6c>
c20020c4:	e5912000 	ldr	r2, [r1]
c20020c8:	e3822001 	orr	r2, r2, #1
c20020cc:	e5812000 	str	r2, [r1]
c20020d0:	e92d5800 	push	{fp, ip, lr}
c20020d4:	f57ff04f 	dsb	sy
c20020d8:	f1080080 	cpsie	i
c20020dc:	ebffffbb 	bl	c2001fd0 <arch_irq_handler>
c20020e0:	f10c0080 	cpsid	i
c20020e4:	e8bd5800 	pop	{fp, ip, lr}
c20020e8:	e59f0008 	ldr	r0, [pc, #8]	; c20020f8 <sdrv_irq_handler+0x60>
c20020ec:	e580c000 	str	ip, [r0]
c20020f0:	e16ff00b 	msr	SPSR_fsxc, fp
c20020f4:	e12fff1e 	bx	lr
c20020f8:	48200068 	stmdami	r0!, {r3, r5, r6}
c20020fc:	48200060 	stmdami	r0!, {r5, r6}
c2002100:	48200040 	stmdami	r0!, {r6}
c2002104:	48200048 	stmdami	r0!, {r3, r6}

c2002108 <sdrv_uart_find_rate>:
c2002108:	e92d4070 	push	{r4, r5, r6, lr}
c200210c:	e1a04000 	mov	r4, r0
c2002110:	e3520000 	cmp	r2, #0
c2002114:	13510000 	cmpne	r1, #0
c2002118:	03a00001 	moveq	r0, #1
c200211c:	13a00000 	movne	r0, #0
c2002120:	0a000014 	beq	c2002178 <sdrv_uart_find_rate+0x70>
c2002124:	e1a06001 	mov	r6, r1
c2002128:	e1a05002 	mov	r5, r2
c200212c:	e3a03000 	mov	r3, #0
c2002130:	e353000b 	cmp	r3, #11
c2002134:	88bd8070 	pophi	{r4, r5, r6, pc}
c2002138:	e302ea68 	movw	lr, #10856	; 0x2a68
c200213c:	e34ce200 	movt	lr, #49664	; 0xc200
c2002140:	e3a0c00c 	mov	ip, #12
c2002144:	e00c039c 	mul	ip, ip, r3
c2002148:	e79ec00c 	ldr	ip, [lr, ip]
c200214c:	e15c0004 	cmp	ip, r4
c2002150:	12833001 	addne	r3, r3, #1
c2002154:	1afffff5 	bne	c2002130 <sdrv_uart_find_rate+0x28>
c2002158:	e3a0100c 	mov	r1, #12
c200215c:	e023e391 	mla	r3, r1, r3, lr
c2002160:	e5932004 	ldr	r2, [r3, #4]
c2002164:	e5862000 	str	r2, [r6]
c2002168:	e5933008 	ldr	r3, [r3, #8]
c200216c:	e5853000 	str	r3, [r5]
c2002170:	e3a00001 	mov	r0, #1
c2002174:	e8bd8070 	pop	{r4, r5, r6, pc}
c2002178:	e3a00000 	mov	r0, #0
c200217c:	e8bd8070 	pop	{r4, r5, r6, pc}

c2002180 <sdrv_uart_reset>:
c2002180:	e5903054 	ldr	r3, [r0, #84]	; 0x54
c2002184:	e3c33002 	bic	r3, r3, #2
c2002188:	e5803054 	str	r3, [r0, #84]	; 0x54
c200218c:	e3a03000 	mov	r3, #0
c2002190:	ea000000 	b	c2002198 <sdrv_uart_reset+0x18>
c2002194:	e5903058 	ldr	r3, [r0, #88]	; 0x58
c2002198:	e3130001 	tst	r3, #1
c200219c:	0afffffc 	beq	c2002194 <sdrv_uart_reset+0x14>
c20021a0:	e12fff1e 	bx	lr

c20021a4 <sdrv_uart_configure_fifo_and_dma>:
c20021a4:	e92d4010 	push	{r4, lr}
c20021a8:	e590c00c 	ldr	ip, [r0, #12]
c20021ac:	e3a030bf 	mov	r3, #191	; 0xbf
c20021b0:	e580300c 	str	r3, [r0, #12]
c20021b4:	e5903008 	ldr	r3, [r0, #8]
c20021b8:	e7e04253 	ubfx	r4, r3, #4, #1
c20021bc:	e3833010 	orr	r3, r3, #16
c20021c0:	e5803008 	str	r3, [r0, #8]
c20021c4:	e3a03080 	mov	r3, #128	; 0x80
c20021c8:	e580300c 	str	r3, [r0, #12]
c20021cc:	e5903010 	ldr	r3, [r0, #16]
c20021d0:	e7e0e353 	ubfx	lr, r3, #6, #1
c20021d4:	e3833040 	orr	r3, r3, #64	; 0x40
c20021d8:	e5803010 	str	r3, [r0, #16]
c20021dc:	e5d13001 	ldrb	r3, [r1, #1]
c20021e0:	e3530000 	cmp	r3, #0
c20021e4:	1a00001f 	bne	c2002268 <sdrv_uart_configure_fifo_and_dma+0xc4>
c20021e8:	e3a02006 	mov	r2, #6
c20021ec:	e5d13000 	ldrb	r3, [r1]
c20021f0:	e3530000 	cmp	r3, #0
c20021f4:	13822008 	orrne	r2, r2, #8
c20021f8:	e5d13008 	ldrb	r3, [r1, #8]
c20021fc:	e1a03303 	lsl	r3, r3, #6
c2002200:	e6ef3073 	uxtb	r3, r3
c2002204:	e1832002 	orr	r2, r3, r2
c2002208:	e5d13009 	ldrb	r3, [r1, #9]
c200220c:	e1a03203 	lsl	r3, r3, #4
c2002210:	e2033030 	and	r3, r3, #48	; 0x30
c2002214:	e1833002 	orr	r3, r3, r2
c2002218:	e5803008 	str	r3, [r0, #8]
c200221c:	e3a030bf 	mov	r3, #191	; 0xbf
c2002220:	e580300c 	str	r3, [r0, #12]
c2002224:	e3a03000 	mov	r3, #0
c2002228:	e580301c 	str	r3, [r0, #28]
c200222c:	e5803040 	str	r3, [r0, #64]	; 0x40
c2002230:	e5903008 	ldr	r3, [r0, #8]
c2002234:	e3540000 	cmp	r4, #0
c2002238:	0a00000c 	beq	c2002270 <sdrv_uart_configure_fifo_and_dma+0xcc>
c200223c:	e3833010 	orr	r3, r3, #16
c2002240:	e5803008 	str	r3, [r0, #8]
c2002244:	e3a03080 	mov	r3, #128	; 0x80
c2002248:	e580300c 	str	r3, [r0, #12]
c200224c:	e5903010 	ldr	r3, [r0, #16]
c2002250:	e35e0000 	cmp	lr, #0
c2002254:	0a000007 	beq	c2002278 <sdrv_uart_configure_fifo_and_dma+0xd4>
c2002258:	e3833040 	orr	r3, r3, #64	; 0x40
c200225c:	e5803010 	str	r3, [r0, #16]
c2002260:	e580c00c 	str	ip, [r0, #12]
c2002264:	e8bd8010 	pop	{r4, pc}
c2002268:	e3a02007 	mov	r2, #7
c200226c:	eaffffde 	b	c20021ec <sdrv_uart_configure_fifo_and_dma+0x48>
c2002270:	e3c33010 	bic	r3, r3, #16
c2002274:	eafffff1 	b	c2002240 <sdrv_uart_configure_fifo_and_dma+0x9c>
c2002278:	e3c33040 	bic	r3, r3, #64	; 0x40
c200227c:	eafffff6 	b	c200225c <sdrv_uart_configure_fifo_and_dma+0xb8>

c2002280 <sdrv_uart_configure_protocol>:
c2002280:	e92d4030 	push	{r4, r5, lr}
c2002284:	e24dd00c 	sub	sp, sp, #12
c2002288:	e1a04000 	mov	r4, r0
c200228c:	e1a05001 	mov	r5, r1
c2002290:	e3a03000 	mov	r3, #0
c2002294:	e58d3004 	str	r3, [sp, #4]
c2002298:	e58d3000 	str	r3, [sp]
c200229c:	e1a0200d 	mov	r2, sp
c20022a0:	e28d1004 	add	r1, sp, #4
c20022a4:	e5950004 	ldr	r0, [r5, #4]
c20022a8:	ebffff96 	bl	c2002108 <sdrv_uart_find_rate>
c20022ac:	e3500000 	cmp	r0, #0
c20022b0:	0a000026 	beq	c2002350 <sdrv_uart_configure_protocol+0xd0>
c20022b4:	e3a03007 	mov	r3, #7
c20022b8:	e5843020 	str	r3, [r4, #32]
c20022bc:	e3a020bf 	mov	r2, #191	; 0xbf
c20022c0:	e584200c 	str	r2, [r4, #12]
c20022c4:	e5941008 	ldr	r1, [r4, #8]
c20022c8:	e3813010 	orr	r3, r1, #16
c20022cc:	e5843008 	str	r3, [r4, #8]
c20022d0:	e3a03000 	mov	r3, #0
c20022d4:	e584300c 	str	r3, [r4, #12]
c20022d8:	e5843004 	str	r3, [r4, #4]
c20022dc:	e584200c 	str	r2, [r4, #12]
c20022e0:	e59d0004 	ldr	r0, [sp, #4]
c20022e4:	e5840004 	str	r0, [r4, #4]
c20022e8:	e59d0000 	ldr	r0, [sp]
c20022ec:	e5840000 	str	r0, [r4]
c20022f0:	e584300c 	str	r3, [r4, #12]
c20022f4:	e5843004 	str	r3, [r4, #4]
c20022f8:	e584200c 	str	r2, [r4, #12]
c20022fc:	e5943008 	ldr	r3, [r4, #8]
c2002300:	e3110010 	tst	r1, #16
c2002304:	0a000013 	beq	c2002358 <sdrv_uart_configure_protocol+0xd8>
c2002308:	e3833010 	orr	r3, r3, #16
c200230c:	e5843008 	str	r3, [r4, #8]
c2002310:	e5d5100c 	ldrb	r1, [r5, #12]
c2002314:	e2013003 	and	r3, r1, #3
c2002318:	e5d5200b 	ldrb	r2, [r5, #11]
c200231c:	e3520001 	cmp	r2, #1
c2002320:	0a00000e 	beq	c2002360 <sdrv_uart_configure_protocol+0xe0>
c2002324:	e3520002 	cmp	r2, #2
c2002328:	0a000010 	beq	c2002370 <sdrv_uart_configure_protocol+0xf0>
c200232c:	e3c33004 	bic	r3, r3, #4
c2002330:	e5d5200a 	ldrb	r2, [r5, #10]
c2002334:	e3520000 	cmp	r2, #0
c2002338:	1a000010 	bne	c2002380 <sdrv_uart_configure_protocol+0x100>
c200233c:	e3c33008 	bic	r3, r3, #8
c2002340:	e3c330c0 	bic	r3, r3, #192	; 0xc0
c2002344:	e584300c 	str	r3, [r4, #12]
c2002348:	e3a03000 	mov	r3, #0
c200234c:	e5843020 	str	r3, [r4, #32]
c2002350:	e28dd00c 	add	sp, sp, #12
c2002354:	e8bd8030 	pop	{r4, r5, pc}
c2002358:	e3c33010 	bic	r3, r3, #16
c200235c:	eaffffea 	b	c200230c <sdrv_uart_configure_protocol+0x8c>
c2002360:	e3510000 	cmp	r1, #0
c2002364:	1affffee 	bne	c2002324 <sdrv_uart_configure_protocol+0xa4>
c2002368:	e3833004 	orr	r3, r3, #4
c200236c:	eaffffef 	b	c2002330 <sdrv_uart_configure_protocol+0xb0>
c2002370:	e3510000 	cmp	r1, #0
c2002374:	0affffec 	beq	c200232c <sdrv_uart_configure_protocol+0xac>
c2002378:	e3833004 	orr	r3, r3, #4
c200237c:	eaffffeb 	b	c2002330 <sdrv_uart_configure_protocol+0xb0>
c2002380:	e3520001 	cmp	r2, #1
c2002384:	13833018 	orrne	r3, r3, #24
c2002388:	1affffec 	bne	c2002340 <sdrv_uart_configure_protocol+0xc0>
c200238c:	e3833008 	orr	r3, r3, #8
c2002390:	eaffffea 	b	c2002340 <sdrv_uart_configure_protocol+0xc0>

c2002394 <sdrv_uart_init>:
c2002394:	e92d4070 	push	{r4, r5, r6, lr}
c2002398:	e2514000 	subs	r4, r1, #0
c200239c:	08bd8070 	popeq	{r4, r5, r6, pc}
c20023a0:	e1a05000 	mov	r5, r0
c20023a4:	ebffff75 	bl	c2002180 <sdrv_uart_reset>
c20023a8:	e1a01004 	mov	r1, r4
c20023ac:	e1a00005 	mov	r0, r5
c20023b0:	ebffff7b 	bl	c20021a4 <sdrv_uart_configure_fifo_and_dma>
c20023b4:	e1a01004 	mov	r1, r4
c20023b8:	e1a00005 	mov	r0, r5
c20023bc:	ebffffaf 	bl	c2002280 <sdrv_uart_configure_protocol>
c20023c0:	e8bd8070 	pop	{r4, r5, r6, pc}

c20023c4 <sdrv_uart_send>:
c20023c4:	e5903014 	ldr	r3, [r0, #20]
c20023c8:	e3130020 	tst	r3, #32
c20023cc:	0afffffc 	beq	c20023c4 <sdrv_uart_send>
c20023d0:	e5801000 	str	r1, [r0]
c20023d4:	e12fff1e 	bx	lr

c20023d8 <early_mmu_config>:
c20023d8:	e92d4010 	push	{r4, lr}
c20023dc:	e3a00102 	mov	r0, #-2147483648	; 0x80000000
c20023e0:	ebfff857 	bl	c2000544 <arch_tlb_config_ttbr0>
c20023e4:	e3a00901 	mov	r0, #16384	; 0x4000
c20023e8:	e3480000 	movt	r0, #32768	; 0x8000
c20023ec:	ebfff856 	bl	c200054c <arch_tlb_config_ttbr1>
c20023f0:	e3a00001 	mov	r0, #1
c20023f4:	ebfff856 	bl	c2000554 <arch_tlb_config_ttbcr>
c20023f8:	e3a01000 	mov	r1, #0
c20023fc:	e1a02001 	mov	r2, r1
c2002400:	ea00000d 	b	c200243c <early_mmu_config+0x64>
c2002404:	e3520000 	cmp	r2, #0
c2002408:	ba000019 	blt	c2002474 <early_mmu_config+0x9c>
c200240c:	e372021e 	cmn	r2, #-536870911	; 0xe0000001
c2002410:	8a000010 	bhi	c2002458 <early_mmu_config+0x80>
c2002414:	e3000c12 	movw	r0, #3090	; 0xc12
c2002418:	e3400009 	movt	r0, #9
c200241c:	e1a03a22 	lsr	r3, r2, #20
c2002420:	e1a03a03 	lsl	r3, r3, #20
c2002424:	e1a0c101 	lsl	ip, r1, #2
c2002428:	e28cc102 	add	ip, ip, #-2147483648	; 0x80000000
c200242c:	e1833000 	orr	r3, r3, r0
c2002430:	e58c3000 	str	r3, [ip]
c2002434:	e2822601 	add	r2, r2, #1048576	; 0x100000
c2002438:	e2811001 	add	r1, r1, #1
c200243c:	e3510a01 	cmp	r1, #4096	; 0x1000
c2002440:	3affffef 	bcc	c2002404 <early_mmu_config+0x2c>
c2002444:	e3a02000 	mov	r2, #0
c2002448:	e3a0c902 	mov	ip, #32768	; 0x8000
c200244c:	e7dfc81c 	bfi	ip, ip, #16, #16
c2002450:	e1a01002 	mov	r1, r2
c2002454:	ea000015 	b	c20024b0 <early_mmu_config+0xd8>
c2002458:	e372036f 	cmn	r2, #-1140850687	; 0xbc000001
c200245c:	93a00012 	movls	r0, #18
c2002460:	93400009 	movtls	r0, #9
c2002464:	9affffec 	bls	c200241c <early_mmu_config+0x44>
c2002468:	e3000c16 	movw	r0, #3094	; 0xc16
c200246c:	e3400009 	movt	r0, #9
c2002470:	eaffffe9 	b	c200241c <early_mmu_config+0x44>
c2002474:	e1a03101 	lsl	r3, r1, #2
c2002478:	e2833102 	add	r3, r3, #-2147483648	; 0x80000000
c200247c:	e3a00000 	mov	r0, #0
c2002480:	e5830000 	str	r0, [r3]
c2002484:	eaffffea 	b	c2002434 <early_mmu_config+0x5c>
c2002488:	e2813101 	add	r3, r1, #1073741824	; 0x40000000
c200248c:	e373021e 	cmn	r3, #-536870911	; 0xe0000001
c2002490:	9a00000b 	bls	c20024c4 <early_mmu_config+0xec>
c2002494:	e1a03102 	lsl	r3, r2, #2
c2002498:	e2833102 	add	r3, r3, #-2147483648	; 0x80000000
c200249c:	e2833901 	add	r3, r3, #16384	; 0x4000
c20024a0:	e3a00000 	mov	r0, #0
c20024a4:	e5830000 	str	r0, [r3]
c20024a8:	e2811601 	add	r1, r1, #1048576	; 0x100000
c20024ac:	e2822001 	add	r2, r2, #1
c20024b0:	e3520a01 	cmp	r2, #4096	; 0x1000
c20024b4:	3afffff3 	bcc	c2002488 <early_mmu_config+0xb0>
c20024b8:	e3a00000 	mov	r0, #0
c20024bc:	e3a01102 	mov	r1, #-2147483648	; 0x80000000
c20024c0:	ea000016 	b	c2002520 <early_mmu_config+0x148>
c20024c4:	e3cc0fff 	bic	r0, ip, #1020	; 0x3fc
c20024c8:	e3c00003 	bic	r0, r0, #3
c20024cc:	e1a03102 	lsl	r3, r2, #2
c20024d0:	e2833102 	add	r3, r3, #-2147483648	; 0x80000000
c20024d4:	e2833901 	add	r3, r3, #16384	; 0x4000
c20024d8:	e3800009 	orr	r0, r0, #9
c20024dc:	e5830000 	str	r0, [r3]
c20024e0:	e28ccb01 	add	ip, ip, #1024	; 0x400
c20024e4:	eaffffef 	b	c20024a8 <early_mmu_config+0xd0>
c20024e8:	e3510481 	cmp	r1, #-2130706432	; 0x81000000
c20024ec:	3a000010 	bcc	c2002534 <early_mmu_config+0x15c>
c20024f0:	e3510482 	cmp	r1, #-2113929216	; 0x82000000
c20024f4:	3a00000c 	bcc	c200252c <early_mmu_config+0x154>
c20024f8:	e300c87e 	movw	ip, #2174	; 0x87e
c20024fc:	e3c12eff 	bic	r2, r1, #4080	; 0xff0
c2002500:	e3c2200f 	bic	r2, r2, #15
c2002504:	e1a03100 	lsl	r3, r0, #2
c2002508:	e2833102 	add	r3, r3, #-2147483648	; 0x80000000
c200250c:	e2833902 	add	r3, r3, #32768	; 0x8000
c2002510:	e182200c 	orr	r2, r2, ip
c2002514:	e5832000 	str	r2, [r3]
c2002518:	e2811a01 	add	r1, r1, #4096	; 0x1000
c200251c:	e2800001 	add	r0, r0, #1
c2002520:	e3500802 	cmp	r0, #131072	; 0x20000
c2002524:	3affffef 	bcc	c20024e8 <early_mmu_config+0x110>
c2002528:	e8bd8010 	pop	{r4, pc}
c200252c:	e300c43b 	movw	ip, #1083	; 0x43b
c2002530:	eafffff1 	b	c20024fc <early_mmu_config+0x124>
c2002534:	e300c403 	movw	ip, #1027	; 0x403
c2002538:	eaffffef 	b	c20024fc <early_mmu_config+0x124>

c200253c <_putchar>:
c200253c:	e92d4010 	push	{r4, lr}
c2002540:	e1a01000 	mov	r1, r0
c2002544:	e3a00a09 	mov	r0, #36864	; 0x9000
c2002548:	e34404e0 	movt	r0, #17632	; 0x44e0
c200254c:	ebffff9c 	bl	c20023c4 <sdrv_uart_send>
c2002550:	e8bd8010 	pop	{r4, pc}

c2002554 <board_early_init>:
c2002554:	e92d4010 	push	{r4, lr}
c2002558:	ebffff9e 	bl	c20023d8 <early_mmu_config>
c200255c:	e8bd8010 	pop	{r4, pc}

c2002560 <board_init>:
c2002560:	e92d4010 	push	{r4, lr}
c2002564:	e3021b28 	movw	r1, #11048	; 0x2b28
c2002568:	e34c1200 	movt	r1, #49664	; 0xc200
c200256c:	e3a00a09 	mov	r0, #36864	; 0x9000
c2002570:	e34404e0 	movt	r0, #17632	; 0x44e0
c2002574:	ebffff86 	bl	c2002394 <sdrv_uart_init>
c2002578:	e3020af8 	movw	r0, #11000	; 0x2af8
c200257c:	e34c0200 	movt	r0, #49664	; 0xc200
c2002580:	ebfffe61 	bl	c2001f0c <printf_>
c2002584:	e8bd8010 	pop	{r4, pc}

c2002588 <main>:
c2002588:	e3a00000 	mov	r0, #0
c200258c:	e12fff1e 	bx	lr

c2002590 <__udivsi3>:
c2002590:	1e4a      	subs	r2, r1, #1
c2002592:	bf08      	it	eq
c2002594:	4770      	bxeq	lr
c2002596:	f0c0 8124 	bcc.w	c20027e2 <__udivsi3+0x252>
c200259a:	4288      	cmp	r0, r1
c200259c:	f240 8116 	bls.w	c20027cc <__udivsi3+0x23c>
c20025a0:	4211      	tst	r1, r2
c20025a2:	f000 8117 	beq.w	c20027d4 <__udivsi3+0x244>
c20025a6:	fab0 f380 	clz	r3, r0
c20025aa:	fab1 f281 	clz	r2, r1
c20025ae:	eba2 0303 	sub.w	r3, r2, r3
c20025b2:	f1c3 031f 	rsb	r3, r3, #31
c20025b6:	a204      	add	r2, pc, #16	; (adr r2, c20025c8 <__udivsi3+0x38>)
c20025b8:	eb02 1303 	add.w	r3, r2, r3, lsl #4
c20025bc:	f04f 0200 	mov.w	r2, #0
c20025c0:	469f      	mov	pc, r3
c20025c2:	bf00      	nop
c20025c4:	f3af 8000 	nop.w
c20025c8:	ebb0 7fc1 	cmp.w	r0, r1, lsl #31
c20025cc:	bf00      	nop
c20025ce:	eb42 0202 	adc.w	r2, r2, r2
c20025d2:	bf28      	it	cs
c20025d4:	eba0 70c1 	subcs.w	r0, r0, r1, lsl #31
c20025d8:	ebb0 7f81 	cmp.w	r0, r1, lsl #30
c20025dc:	bf00      	nop
c20025de:	eb42 0202 	adc.w	r2, r2, r2
c20025e2:	bf28      	it	cs
c20025e4:	eba0 7081 	subcs.w	r0, r0, r1, lsl #30
c20025e8:	ebb0 7f41 	cmp.w	r0, r1, lsl #29
c20025ec:	bf00      	nop
c20025ee:	eb42 0202 	adc.w	r2, r2, r2
c20025f2:	bf28      	it	cs
c20025f4:	eba0 7041 	subcs.w	r0, r0, r1, lsl #29
c20025f8:	ebb0 7f01 	cmp.w	r0, r1, lsl #28
c20025fc:	bf00      	nop
c20025fe:	eb42 0202 	adc.w	r2, r2, r2
c2002602:	bf28      	it	cs
c2002604:	eba0 7001 	subcs.w	r0, r0, r1, lsl #28
c2002608:	ebb0 6fc1 	cmp.w	r0, r1, lsl #27
c200260c:	bf00      	nop
c200260e:	eb42 0202 	adc.w	r2, r2, r2
c2002612:	bf28      	it	cs
c2002614:	eba0 60c1 	subcs.w	r0, r0, r1, lsl #27
c2002618:	ebb0 6f81 	cmp.w	r0, r1, lsl #26
c200261c:	bf00      	nop
c200261e:	eb42 0202 	adc.w	r2, r2, r2
c2002622:	bf28      	it	cs
c2002624:	eba0 6081 	subcs.w	r0, r0, r1, lsl #26
c2002628:	ebb0 6f41 	cmp.w	r0, r1, lsl #25
c200262c:	bf00      	nop
c200262e:	eb42 0202 	adc.w	r2, r2, r2
c2002632:	bf28      	it	cs
c2002634:	eba0 6041 	subcs.w	r0, r0, r1, lsl #25
c2002638:	ebb0 6f01 	cmp.w	r0, r1, lsl #24
c200263c:	bf00      	nop
c200263e:	eb42 0202 	adc.w	r2, r2, r2
c2002642:	bf28      	it	cs
c2002644:	eba0 6001 	subcs.w	r0, r0, r1, lsl #24
c2002648:	ebb0 5fc1 	cmp.w	r0, r1, lsl #23
c200264c:	bf00      	nop
c200264e:	eb42 0202 	adc.w	r2, r2, r2
c2002652:	bf28      	it	cs
c2002654:	eba0 50c1 	subcs.w	r0, r0, r1, lsl #23
c2002658:	ebb0 5f81 	cmp.w	r0, r1, lsl #22
c200265c:	bf00      	nop
c200265e:	eb42 0202 	adc.w	r2, r2, r2
c2002662:	bf28      	it	cs
c2002664:	eba0 5081 	subcs.w	r0, r0, r1, lsl #22
c2002668:	ebb0 5f41 	cmp.w	r0, r1, lsl #21
c200266c:	bf00      	nop
c200266e:	eb42 0202 	adc.w	r2, r2, r2
c2002672:	bf28      	it	cs
c2002674:	eba0 5041 	subcs.w	r0, r0, r1, lsl #21
c2002678:	ebb0 5f01 	cmp.w	r0, r1, lsl #20
c200267c:	bf00      	nop
c200267e:	eb42 0202 	adc.w	r2, r2, r2
c2002682:	bf28      	it	cs
c2002684:	eba0 5001 	subcs.w	r0, r0, r1, lsl #20
c2002688:	ebb0 4fc1 	cmp.w	r0, r1, lsl #19
c200268c:	bf00      	nop
c200268e:	eb42 0202 	adc.w	r2, r2, r2
c2002692:	bf28      	it	cs
c2002694:	eba0 40c1 	subcs.w	r0, r0, r1, lsl #19
c2002698:	ebb0 4f81 	cmp.w	r0, r1, lsl #18
c200269c:	bf00      	nop
c200269e:	eb42 0202 	adc.w	r2, r2, r2
c20026a2:	bf28      	it	cs
c20026a4:	eba0 4081 	subcs.w	r0, r0, r1, lsl #18
c20026a8:	ebb0 4f41 	cmp.w	r0, r1, lsl #17
c20026ac:	bf00      	nop
c20026ae:	eb42 0202 	adc.w	r2, r2, r2
c20026b2:	bf28      	it	cs
c20026b4:	eba0 4041 	subcs.w	r0, r0, r1, lsl #17
c20026b8:	ebb0 4f01 	cmp.w	r0, r1, lsl #16
c20026bc:	bf00      	nop
c20026be:	eb42 0202 	adc.w	r2, r2, r2
c20026c2:	bf28      	it	cs
c20026c4:	eba0 4001 	subcs.w	r0, r0, r1, lsl #16
c20026c8:	ebb0 3fc1 	cmp.w	r0, r1, lsl #15
c20026cc:	bf00      	nop
c20026ce:	eb42 0202 	adc.w	r2, r2, r2
c20026d2:	bf28      	it	cs
c20026d4:	eba0 30c1 	subcs.w	r0, r0, r1, lsl #15
c20026d8:	ebb0 3f81 	cmp.w	r0, r1, lsl #14
c20026dc:	bf00      	nop
c20026de:	eb42 0202 	adc.w	r2, r2, r2
c20026e2:	bf28      	it	cs
c20026e4:	eba0 3081 	subcs.w	r0, r0, r1, lsl #14
c20026e8:	ebb0 3f41 	cmp.w	r0, r1, lsl #13
c20026ec:	bf00      	nop
c20026ee:	eb42 0202 	adc.w	r2, r2, r2
c20026f2:	bf28      	it	cs
c20026f4:	eba0 3041 	subcs.w	r0, r0, r1, lsl #13
c20026f8:	ebb0 3f01 	cmp.w	r0, r1, lsl #12
c20026fc:	bf00      	nop
c20026fe:	eb42 0202 	adc.w	r2, r2, r2
c2002702:	bf28      	it	cs
c2002704:	eba0 3001 	subcs.w	r0, r0, r1, lsl #12
c2002708:	ebb0 2fc1 	cmp.w	r0, r1, lsl #11
c200270c:	bf00      	nop
c200270e:	eb42 0202 	adc.w	r2, r2, r2
c2002712:	bf28      	it	cs
c2002714:	eba0 20c1 	subcs.w	r0, r0, r1, lsl #11
c2002718:	ebb0 2f81 	cmp.w	r0, r1, lsl #10
c200271c:	bf00      	nop
c200271e:	eb42 0202 	adc.w	r2, r2, r2
c2002722:	bf28      	it	cs
c2002724:	eba0 2081 	subcs.w	r0, r0, r1, lsl #10
c2002728:	ebb0 2f41 	cmp.w	r0, r1, lsl #9
c200272c:	bf00      	nop
c200272e:	eb42 0202 	adc.w	r2, r2, r2
c2002732:	bf28      	it	cs
c2002734:	eba0 2041 	subcs.w	r0, r0, r1, lsl #9
c2002738:	ebb0 2f01 	cmp.w	r0, r1, lsl #8
c200273c:	bf00      	nop
c200273e:	eb42 0202 	adc.w	r2, r2, r2
c2002742:	bf28      	it	cs
c2002744:	eba0 2001 	subcs.w	r0, r0, r1, lsl #8
c2002748:	ebb0 1fc1 	cmp.w	r0, r1, lsl #7
c200274c:	bf00      	nop
c200274e:	eb42 0202 	adc.w	r2, r2, r2
c2002752:	bf28      	it	cs
c2002754:	eba0 10c1 	subcs.w	r0, r0, r1, lsl #7
c2002758:	ebb0 1f81 	cmp.w	r0, r1, lsl #6
c200275c:	bf00      	nop
c200275e:	eb42 0202 	adc.w	r2, r2, r2
c2002762:	bf28      	it	cs
c2002764:	eba0 1081 	subcs.w	r0, r0, r1, lsl #6
c2002768:	ebb0 1f41 	cmp.w	r0, r1, lsl #5
c200276c:	bf00      	nop
c200276e:	eb42 0202 	adc.w	r2, r2, r2
c2002772:	bf28      	it	cs
c2002774:	eba0 1041 	subcs.w	r0, r0, r1, lsl #5
c2002778:	ebb0 1f01 	cmp.w	r0, r1, lsl #4
c200277c:	bf00      	nop
c200277e:	eb42 0202 	adc.w	r2, r2, r2
c2002782:	bf28      	it	cs
c2002784:	eba0 1001 	subcs.w	r0, r0, r1, lsl #4
c2002788:	ebb0 0fc1 	cmp.w	r0, r1, lsl #3
c200278c:	bf00      	nop
c200278e:	eb42 0202 	adc.w	r2, r2, r2
c2002792:	bf28      	it	cs
c2002794:	eba0 00c1 	subcs.w	r0, r0, r1, lsl #3
c2002798:	ebb0 0f81 	cmp.w	r0, r1, lsl #2
c200279c:	bf00      	nop
c200279e:	eb42 0202 	adc.w	r2, r2, r2
c20027a2:	bf28      	it	cs
c20027a4:	eba0 0081 	subcs.w	r0, r0, r1, lsl #2
c20027a8:	ebb0 0f41 	cmp.w	r0, r1, lsl #1
c20027ac:	bf00      	nop
c20027ae:	eb42 0202 	adc.w	r2, r2, r2
c20027b2:	bf28      	it	cs
c20027b4:	eba0 0041 	subcs.w	r0, r0, r1, lsl #1
c20027b8:	ebb0 0f01 	cmp.w	r0, r1
c20027bc:	bf00      	nop
c20027be:	eb42 0202 	adc.w	r2, r2, r2
c20027c2:	bf28      	it	cs
c20027c4:	eba0 0001 	subcs.w	r0, r0, r1
c20027c8:	4610      	mov	r0, r2
c20027ca:	4770      	bx	lr
c20027cc:	bf0c      	ite	eq
c20027ce:	2001      	moveq	r0, #1
c20027d0:	2000      	movne	r0, #0
c20027d2:	4770      	bx	lr
c20027d4:	fab1 f281 	clz	r2, r1
c20027d8:	f1c2 021f 	rsb	r2, r2, #31
c20027dc:	fa20 f002 	lsr.w	r0, r0, r2
c20027e0:	4770      	bx	lr
c20027e2:	b108      	cbz	r0, c20027e8 <__udivsi3+0x258>
c20027e4:	f04f 30ff 	mov.w	r0, #4294967295	; 0xffffffff
c20027e8:	f000 b80e 	b.w	c2002808 <__aeabi_idiv0>

c20027ec <__aeabi_uidivmod>:
c20027ec:	2900      	cmp	r1, #0
c20027ee:	d0f8      	beq.n	c20027e2 <__udivsi3+0x252>
c20027f0:	e92d 4003 	stmdb	sp!, {r0, r1, lr}
c20027f4:	f7ff fecc 	bl	c2002590 <__udivsi3>
c20027f8:	e8bd 4006 	ldmia.w	sp!, {r1, r2, lr}
c20027fc:	fb02 f300 	mul.w	r3, r2, r0
c2002800:	eba1 0103 	sub.w	r1, r1, r3
c2002804:	4770      	bx	lr
c2002806:	bf00      	nop

c2002808 <__aeabi_idiv0>:
c2002808:	4770      	bx	lr
c200280a:	bf00      	nop

c200280c <__aeabi_uldivmod>:
c200280c:	b953      	cbnz	r3, c2002824 <__aeabi_uldivmod+0x18>
c200280e:	b94a      	cbnz	r2, c2002824 <__aeabi_uldivmod+0x18>
c2002810:	2900      	cmp	r1, #0
c2002812:	bf08      	it	eq
c2002814:	2800      	cmpeq	r0, #0
c2002816:	bf1c      	itt	ne
c2002818:	f04f 31ff 	movne.w	r1, #4294967295	; 0xffffffff
c200281c:	f04f 30ff 	movne.w	r0, #4294967295	; 0xffffffff
c2002820:	f7ff bff2 	b.w	c2002808 <__aeabi_idiv0>
c2002824:	f1ad 0c08 	sub.w	ip, sp, #8
c2002828:	e96d ce04 	strd	ip, lr, [sp, #-16]!
c200282c:	f000 f806 	bl	c200283c <__udivmoddi4>
c2002830:	f8dd e004 	ldr.w	lr, [sp, #4]
c2002834:	e9dd 2302 	ldrd	r2, r3, [sp, #8]
c2002838:	b004      	add	sp, #16
c200283a:	4770      	bx	lr

c200283c <__udivmoddi4>:
c200283c:	4290      	cmp	r0, r2
c200283e:	e92d 47f0 	stmdb	sp!, {r4, r5, r6, r7, r8, r9, sl, lr}
c2002842:	eb71 0403 	sbcs.w	r4, r1, r3
c2002846:	bf38      	it	cc
c2002848:	2500      	movcc	r5, #0
c200284a:	9f08      	ldr	r7, [sp, #32]
c200284c:	bf38      	it	cc
c200284e:	462e      	movcc	r6, r5
c2002850:	d369      	bcc.n	c2002926 <__udivmoddi4+0xea>
c2002852:	fab3 f583 	clz	r5, r3
c2002856:	2b00      	cmp	r3, #0
c2002858:	d070      	beq.n	c200293c <__udivmoddi4+0x100>
c200285a:	fab1 f481 	clz	r4, r1
c200285e:	2900      	cmp	r1, #0
c2002860:	d068      	beq.n	c2002934 <__udivmoddi4+0xf8>
c2002862:	1b2c      	subs	r4, r5, r4
c2002864:	f1a4 0820 	sub.w	r8, r4, #32
c2002868:	f1c4 0920 	rsb	r9, r4, #32
c200286c:	40a3      	lsls	r3, r4
c200286e:	fa02 f508 	lsl.w	r5, r2, r8
c2002872:	fa02 fe04 	lsl.w	lr, r2, r4
c2002876:	432b      	orrs	r3, r5
c2002878:	fa22 f209 	lsr.w	r2, r2, r9
c200287c:	4570      	cmp	r0, lr
c200287e:	ea43 0302 	orr.w	r3, r3, r2
c2002882:	eb71 0203 	sbcs.w	r2, r1, r3
c2002886:	bf3c      	itt	cc
c2002888:	2500      	movcc	r5, #0
c200288a:	462e      	movcc	r6, r5
c200288c:	d30a      	bcc.n	c20028a4 <__udivmoddi4+0x68>
c200288e:	2501      	movs	r5, #1
c2002890:	ebb0 000e 	subs.w	r0, r0, lr
c2002894:	eb61 0103 	sbc.w	r1, r1, r3
c2002898:	fa05 f608 	lsl.w	r6, r5, r8
c200289c:	fa25 f209 	lsr.w	r2, r5, r9
c20028a0:	4316      	orrs	r6, r2
c20028a2:	40a5      	lsls	r5, r4
c20028a4:	2c00      	cmp	r4, #0
c20028a6:	d03e      	beq.n	c2002926 <__udivmoddi4+0xea>
c20028a8:	ea4f 0e5e 	mov.w	lr, lr, lsr #1
c20028ac:	ea4f 0c53 	mov.w	ip, r3, lsr #1
c20028b0:	ea4e 7ec3 	orr.w	lr, lr, r3, lsl #31
c20028b4:	46a2      	mov	sl, r4
c20028b6:	e00c      	b.n	c20028d2 <__udivmoddi4+0x96>
c20028b8:	ebb0 030e 	subs.w	r3, r0, lr
c20028bc:	eb61 020c 	sbc.w	r2, r1, ip
c20028c0:	18db      	adds	r3, r3, r3
c20028c2:	eb42 0102 	adc.w	r1, r2, r2
c20028c6:	1c58      	adds	r0, r3, #1
c20028c8:	f141 0100 	adc.w	r1, r1, #0
c20028cc:	f1ba 0a01 	subs.w	sl, sl, #1
c20028d0:	d008      	beq.n	c20028e4 <__udivmoddi4+0xa8>
c20028d2:	4570      	cmp	r0, lr
c20028d4:	eb71 030c 	sbcs.w	r3, r1, ip
c20028d8:	d2ee      	bcs.n	c20028b8 <__udivmoddi4+0x7c>
c20028da:	1800      	adds	r0, r0, r0
c20028dc:	4149      	adcs	r1, r1
c20028de:	f1ba 0a01 	subs.w	sl, sl, #1
c20028e2:	d1f6      	bne.n	c20028d2 <__udivmoddi4+0x96>
c20028e4:	182d      	adds	r5, r5, r0
c20028e6:	fa01 f909 	lsl.w	r9, r1, r9
c20028ea:	fa20 f004 	lsr.w	r0, r0, r4
c20028ee:	eb46 0601 	adc.w	r6, r6, r1
c20028f2:	fa21 f808 	lsr.w	r8, r1, r8
c20028f6:	ea40 0009 	orr.w	r0, r0, r9
c20028fa:	ea40 0008 	orr.w	r0, r0, r8
c20028fe:	40e1      	lsrs	r1, r4
c2002900:	f1a4 0e20 	sub.w	lr, r4, #32
c2002904:	f1c4 0c20 	rsb	ip, r4, #32
c2002908:	fa01 f204 	lsl.w	r2, r1, r4
c200290c:	fa00 fe0e 	lsl.w	lr, r0, lr
c2002910:	fa20 fc0c 	lsr.w	ip, r0, ip
c2002914:	ea42 020e 	orr.w	r2, r2, lr
c2002918:	fa00 f304 	lsl.w	r3, r0, r4
c200291c:	ea42 020c 	orr.w	r2, r2, ip
c2002920:	1aed      	subs	r5, r5, r3
c2002922:	eb66 0602 	sbc.w	r6, r6, r2
c2002926:	b10f      	cbz	r7, c200292c <__udivmoddi4+0xf0>
c2002928:	e9c7 0100 	strd	r0, r1, [r7]
c200292c:	4628      	mov	r0, r5
c200292e:	4631      	mov	r1, r6
c2002930:	e8bd 87f0 	ldmia.w	sp!, {r4, r5, r6, r7, r8, r9, sl, pc}
c2002934:	fab0 f480 	clz	r4, r0
c2002938:	3420      	adds	r4, #32
c200293a:	e792      	b.n	c2002862 <__udivmoddi4+0x26>
c200293c:	fab2 f482 	clz	r4, r2
c2002940:	f104 0520 	add.w	r5, r4, #32
c2002944:	fab1 f481 	clz	r4, r1
c2002948:	2900      	cmp	r1, #0
c200294a:	d18a      	bne.n	c2002862 <__udivmoddi4+0x26>
c200294c:	e7f2      	b.n	c2002934 <__udivmoddi4+0xf8>
c200294e:	bf00      	nop

Disassembly of section .rodata:

c2002950 <pow10.0-0xc8>:
	...
c2002a00:	00696e66 	rsbeq	r6, r9, r6, ror #28
c2002a04:	2b696e66 	blcs	c3a5e3a4 <_stack_end+0x1a573a4>
c2002a08:	00000000 	andeq	r0, r0, r0
c2002a0c:	006e616e 	rsbeq	r6, lr, lr, ror #2
c2002a10:	2d696e66 	stclcs	14, cr6, [r9, #-408]!	; 0xfffffe68
c2002a14:	00000000 	andeq	r0, r0, r0

c2002a18 <pow10.0>:
c2002a18:	00000000 	andeq	r0, r0, r0
c2002a1c:	3ff00000 	svccc	0x00f00000	; IMB
c2002a20:	00000000 	andeq	r0, r0, r0
c2002a24:	40240000 	eormi	r0, r4, r0
c2002a28:	00000000 	andeq	r0, r0, r0
c2002a2c:	40590000 	subsmi	r0, r9, r0
c2002a30:	00000000 	andeq	r0, r0, r0
c2002a34:	408f4000 	addmi	r4, pc, r0
c2002a38:	00000000 	andeq	r0, r0, r0
c2002a3c:	40c38800 	sbcmi	r8, r3, r0, lsl #16
c2002a40:	00000000 	andeq	r0, r0, r0
c2002a44:	40f86a00 	rscsmi	r6, r8, r0, lsl #20
c2002a48:	00000000 	andeq	r0, r0, r0
c2002a4c:	412e8480 	smlawbmi	lr, r0, r4, r8
c2002a50:	00000000 	andeq	r0, r0, r0
c2002a54:	416312d0 	ldrdmi	r1, [r3, #-32]!	; 0xffffffe0
c2002a58:	00000000 	andeq	r0, r0, r0
c2002a5c:	4197d784 	orrsmi	sp, r7, r4, lsl #15
c2002a60:	00000000 	andeq	r0, r0, r0
c2002a64:	41cdcd65 	bicmi	ip, sp, r5, ror #26

c2002a68 <uart_baudrate_array>:
c2002a68:	0000012c 	andeq	r0, r0, ip, lsr #2
c2002a6c:	00000027 	andeq	r0, r0, r7, lsr #32
c2002a70:	00000010 	andeq	r0, r0, r0, lsl r0
c2002a74:	00000258 	andeq	r0, r0, r8, asr r2
c2002a78:	00000013 	andeq	r0, r0, r3, lsl r0
c2002a7c:	00000088 	andeq	r0, r0, r8, lsl #1
c2002a80:	000004b0 			; <UNDEFINED> instruction: 0x000004b0
c2002a84:	00000009 	andeq	r0, r0, r9
c2002a88:	000000c4 	andeq	r0, r0, r4, asr #1
c2002a8c:	00000960 	andeq	r0, r0, r0, ror #18
c2002a90:	00000004 	andeq	r0, r0, r4
c2002a94:	000000e2 	andeq	r0, r0, r2, ror #1
c2002a98:	000012c0 	andeq	r1, r0, r0, asr #5
c2002a9c:	00000002 	andeq	r0, r0, r2
c2002aa0:	00000071 	andeq	r0, r0, r1, ror r0
c2002aa4:	00002580 	andeq	r2, r0, r0, lsl #11
c2002aa8:	00000001 	andeq	r0, r0, r1
c2002aac:	00000038 	andeq	r0, r0, r8, lsr r0
c2002ab0:	00003840 	andeq	r3, r0, r0, asr #16
c2002ab4:	00000000 	andeq	r0, r0, r0
c2002ab8:	000000d0 	ldrdeq	r0, [r0], -r0	; <UNPREDICTABLE>
c2002abc:	00004b00 	andeq	r4, r0, r0, lsl #22
c2002ac0:	00000000 	andeq	r0, r0, r0
c2002ac4:	0000009c 	muleq	r0, ip, r0
c2002ac8:	00007080 	andeq	r7, r0, r0, lsl #1
c2002acc:	00000000 	andeq	r0, r0, r0
c2002ad0:	00000068 	andeq	r0, r0, r8, rrx
c2002ad4:	00009600 	andeq	r9, r0, r0, lsl #12
c2002ad8:	00000000 	andeq	r0, r0, r0
c2002adc:	0000004e 	andeq	r0, r0, lr, asr #32
c2002ae0:	0000e100 	andeq	lr, r0, r0, lsl #2
c2002ae4:	00000000 	andeq	r0, r0, r0
c2002ae8:	00000034 	andeq	r0, r0, r4, lsr r0
c2002aec:	0001c200 	andeq	ip, r1, r0, lsl #4
c2002af0:	00000000 	andeq	r0, r0, r0
c2002af4:	0000001a 	andeq	r0, r0, sl, lsl r0
c2002af8:	65680a0d 	strbvs	r0, [r8, #-2573]!	; 0xfffff5f3
c2002afc:	2c6f6c6c 	stclcs	12, cr6, [pc], #-432	; c2002954 <__udivmoddi4+0x118>
c2002b00:	65687420 	strbvs	r7, [r8, #-1056]!	; 0xfffffbe0
c2002b04:	616f6220 	cmnvs	pc, r0, lsr #4
c2002b08:	73206472 			; <UNDEFINED> instruction: 0x73206472
c2002b0c:	74726174 	ldrbtvc	r6, [r2], #-372	; 0xfffffe8c
c2002b10:	73206465 			; <UNDEFINED> instruction: 0x73206465
c2002b14:	65636375 	strbvs	r6, [r3, #-885]!	; 0xfffffc8b
c2002b18:	75667373 	strbvc	r7, [r6, #-883]!	; 0xfffffc8d
c2002b1c:	21796c6c 	cmncs	r9, ip, ror #24
c2002b20:	0a0d2121 	beq	c234afac <_stack_end+0x343fac>
c2002b24:	00000000 	andeq	r0, r0, r0

c2002b28 <default_uart>:
c2002b28:	00000100 	andeq	r0, r0, r0, lsl #2
c2002b2c:	0001c200 	andeq	ip, r1, r0, lsl #4
c2002b30:	00000300 	andeq	r0, r0, r0, lsl #6
c2002b34:	00000003 	andeq	r0, r0, r3

Disassembly of section .ARM.exidx:

c2002b38 <.ARM.exidx>:
c2002b38:	7ffffd04 	svcvc	0x00fffd04
c2002b3c:	00000001 	andeq	r0, r0, r1

Disassembly of section .data:

c2002b40 <.data>:
	...

Disassembly of section .bss:

c2002c00 <arch_irq_handler_array>:
	...

Disassembly of section .stack:

c2003000 <_stack_end-0x4000>:
	...

Disassembly of section .debug_info:

00000000 <.debug_info>:
       0:	000003f0 	strdeq	r0, [r0], -r0	; <UNPREDICTABLE>
       4:	00000002 	andeq	r0, r0, r2
       8:	01040000 	mrseq	r0, (UNDEF: 4)
       c:	0000005f 	andeq	r0, r0, pc, asr r0
      10:	0001330c 	andeq	r3, r1, ip, lsl #6
      14:	0001be00 	andeq	fp, r1, r0, lsl #28
	...
      28:	06010200 	streq	r0, [r1], -r0, lsl #4
      2c:	0000002a 	andeq	r0, r0, sl, lsr #32
      30:	ae050202 	cdpge	2, 0, cr0, cr5, cr2, {0}
      34:	02000001 	andeq	r0, r0, #1
      38:	019e0504 	orrseq	r0, lr, r4, lsl #10
      3c:	08020000 	stmdaeq	r2, {}	; <UNPREDICTABLE>
      40:	00019905 	andeq	r9, r1, r5, lsl #18
      44:	08010200 	stmdaeq	r1, {r9}
      48:	00000028 	andeq	r0, r0, r8, lsr #32
      4c:	00004503 	andeq	r4, r0, r3, lsl #10
      50:	07020200 	streq	r0, [r2, -r0, lsl #4]
      54:	0000003d 	andeq	r0, r0, sp, lsr r0
      58:	80070402 	andhi	r0, r7, r2, lsl #8
      5c:	02000001 	andeq	r0, r0, #1
      60:	017b0708 	cmneq	fp, r8, lsl #14
      64:	08040000 	stmdaeq	r4, {}	; <UNPREDICTABLE>
      68:	02000000 	andeq	r0, r0, #0
      6c:	00721d25 	rsbseq	r1, r2, r5, lsr #26
      70:	04020000 	streq	r0, [r2], #-0
      74:	00018507 	andeq	r8, r1, r7, lsl #10
      78:	06040500 	streq	r0, [r4], -r0, lsl #10
      7c:	6e690504 	cdpvs	5, 6, cr0, cr9, cr4, {0}
      80:	01070074 	tsteq	r7, r4, ror r0
      84:	0000000f 	andeq	r0, r0, pc
      88:	01058a01 	tsteq	r5, r1, lsl #20
      8c:	0000007b 	andeq	r0, r0, fp, ror r0
	...
      98:	01007d02 	tsteq	r0, r2, lsl #26
      9c:	00000117 	andeq	r0, r0, r7, lsl r1
      a0:	00736308 	rsbseq	r6, r3, r8, lsl #6
      a4:	17198a01 	ldrne	r8, [r9, -r1, lsl #20]
      a8:	06000001 	streq	r0, [r0], -r1
      ac:	00000000 	andeq	r0, r0, r0
      b0:	08000000 	stmdaeq	r0, {}	; <UNPREDICTABLE>
      b4:	01007463 	tsteq	r0, r3, ror #8
      b8:	01172a8a 	tsteq	r7, sl, lsl #21
      bc:	00360000 	eorseq	r0, r6, r0
      c0:	00320000 	eorseq	r0, r2, r0
      c4:	16090000 	strne	r0, [r9], -r0
      c8:	01000000 	mrseq	r0, (UNDEF: 0)
      cc:	0066358a 	rsbeq	r3, r6, sl, lsl #11
      d0:	005b0000 	subseq	r0, fp, r0
      d4:	00570000 	subseq	r0, r7, r0
      d8:	730a0000 	movwvc	r0, #40960	; 0xa000
      dc:	01003175 	tsteq	r0, r5, ror r1
      e0:	011e178c 	tsteq	lr, ip, lsl #15
      e4:	007d0000 	rsbseq	r0, sp, r0
      e8:	00790000 	rsbseq	r0, r9, r0
      ec:	730a0000 	movwvc	r0, #40960	; 0xa000
      f0:	01003275 	tsteq	r0, r5, ror r2
      f4:	011e1d8c 	tsteq	lr, ip, lsl #27
      f8:	009d0000 	addseq	r0, sp, r0
      fc:	009b0000 	addseq	r0, fp, r0
     100:	720a0000 	andvc	r0, sl, #0
     104:	01007365 	tsteq	r0, r5, ror #6
     108:	007b068d 	rsbseq	r0, fp, sp, lsl #13
     10c:	00b80000 	adcseq	r0, r8, r0
     110:	00b00000 	adcseq	r0, r0, r0
     114:	0b000000 	bleq	11c <SYS_MODE+0xfd>
     118:	00011d04 	andeq	r1, r1, r4, lsl #26
     11c:	040b0c00 	streq	r0, [fp], #-3072	; 0xfffff400
     120:	0000004c 	andeq	r0, r0, ip, asr #32
     124:	00000107 	andeq	r0, r0, r7, lsl #2
     128:	70010000 	andvc	r0, r1, r0
     12c:	00790107 	rsbseq	r0, r9, r7, lsl #2
	...
     138:	7d020000 	stcvc	0, cr0, [r2, #-0]
     13c:	019f0100 	orrseq	r0, pc, r0, lsl #2
     140:	230d0000 	movwcs	r0, #53248	; 0xd000
     144:	01000000 	mrseq	r0, (UNDEF: 0)
     148:	00791670 	rsbseq	r1, r9, r0, ror r6
     14c:	50010000 	andpl	r0, r1, r0
     150:	63727308 	cmnvs	r2, #8, 6	; 0x20000000
     154:	22700100 	rsbscs	r0, r0, #0, 2
     158:	00000079 	andeq	r0, r0, r9, ror r0
     15c:	000000fa 	strdeq	r0, [r0], -sl
     160:	000000f2 	strdeq	r0, [r0], -r2
     164:	00001609 	andeq	r1, r0, r9, lsl #12
     168:	2e700100 	rpwcss	f0, f0, f0
     16c:	00000066 	andeq	r0, r0, r6, rrx
     170:	00000144 	andeq	r0, r0, r4, asr #2
     174:	00000134 	andeq	r0, r0, r4, lsr r1
     178:	706d740a 	rsbvc	r7, sp, sl, lsl #8
     17c:	08720100 	ldmdaeq	r2!, {r8}^
     180:	0000019f 	muleq	r0, pc, r1	; <UNPREDICTABLE>
     184:	000001b0 			; <UNDEFINED> instruction: 0x000001b0
     188:	000001a4 	andeq	r0, r0, r4, lsr #3
     18c:	0100730a 	tsteq	r0, sl, lsl #6
     190:	019f0e72 	orrseq	r0, pc, r2, ror lr	; <UNPREDICTABLE>
     194:	020a0000 	andeq	r0, sl, #0
     198:	01fe0000 	mvnseq	r0, r0
     19c:	0b000000 	bleq	1a4 <SYS_MODE+0x185>
     1a0:	0001a504 	andeq	sl, r1, r4, lsl #10
     1a4:	08010200 	stmdaeq	r1, {r9}
     1a8:	00000031 	andeq	r0, r0, r1, lsr r0
     1ac:	0001a503 	andeq	sl, r1, r3, lsl #10
     1b0:	a7010700 	strge	r0, [r1, -r0, lsl #14]
     1b4:	01000001 	tsteq	r0, r1
     1b8:	7901075e 	stmdbvc	r1, {r1, r2, r3, r4, r6, r8, r9, sl}
	...
     1c4:	02000000 	andeq	r0, r0, #0
     1c8:	2c01007d 	stccs	0, cr0, [r1], {125}	; 0x7d
     1cc:	0d000002 	stceq	0, cr0, [r0, #-8]
     1d0:	00000023 	andeq	r0, r0, r3, lsr #32
     1d4:	79155e01 	ldmdbvc	r5, {r0, r9, sl, fp, ip, lr}
     1d8:	01000000 	mrseq	r0, (UNDEF: 0)
     1dc:	72730850 	rsbsvc	r0, r3, #80, 16	; 0x500000
     1e0:	5e010063 	cdppl	0, 0, cr0, cr1, cr3, {3}
     1e4:	00007921 	andeq	r7, r0, r1, lsr #18
     1e8:	00025c00 	andeq	r5, r2, r0, lsl #24
     1ec:	00025800 	andeq	r5, r2, r0, lsl #16
     1f0:	00160900 	andseq	r0, r6, r0, lsl #18
     1f4:	5e010000 	cdppl	0, 0, cr0, cr1, cr0, {0}
     1f8:	0000662d 	andeq	r6, r0, sp, lsr #12
     1fc:	00028500 	andeq	r8, r2, r0, lsl #10
     200:	00027d00 	andeq	r7, r2, r0, lsl #26
     204:	6d740a00 	vldmdbvs	r4!, {s1-s0}
     208:	60010070 	andvs	r0, r1, r0, ror r0
     20c:	00019f08 	andeq	r9, r1, r8, lsl #30
     210:	0002c100 	andeq	ip, r2, r0, lsl #2
     214:	0002b900 	andeq	fp, r2, r0, lsl #18
     218:	00730a00 	rsbseq	r0, r3, r0, lsl #20
     21c:	9f1d6001 	svcls	0x001d6001
     220:	fd000001 	stc2	0, cr0, [r0, #-4]
     224:	f7000002 			; <UNDEFINED> instruction: 0xf7000002
     228:	00000002 	andeq	r0, r0, r2
     22c:	00580107 	subseq	r0, r8, r7, lsl #2
     230:	4b010000 	blmi	40238 <SYS_MODE+0x40219>
     234:	00790107 	rsbseq	r0, r9, r7, lsl #2
     238:	06e00000 	strbteq	r0, [r0], r0
     23c:	0700c200 	streq	ip, [r0, -r0, lsl #4]
     240:	7d02c200 	sfmvc	f4, 1, [r2, #-0]
     244:	028a0100 	addeq	r0, sl, #0, 2
     248:	730e0000 	movwvc	r0, #57344	; 0xe000
     24c:	154b0100 	strbne	r0, [fp, #-256]	; 0xffffff00
     250:	00000079 	andeq	r0, r0, r9, ror r0
     254:	630e5001 	movwvs	r5, #57345	; 0xe001
     258:	1c4b0100 	stfnee	f0, [fp], {-0}
     25c:	0000007b 	andeq	r0, r0, fp, ror r0
     260:	16095101 	strne	r5, [r9], -r1, lsl #2
     264:	01000000 	mrseq	r0, (UNDEF: 0)
     268:	0066264b 	rsbeq	r2, r6, fp, asr #12
     26c:	03300000 	teqeq	r0, #0
     270:	03280000 			; <UNDEFINED> instruction: 0x03280000
     274:	780a0000 	stmdavc	sl, {}	; <UNPREDICTABLE>
     278:	4d010073 	stcmi	0, cr0, [r1, #-460]	; 0xfffffe34
     27c:	00019f08 	andeq	r9, r1, r8, lsl #30
     280:	00036c00 	andeq	r6, r3, r0, lsl #24
     284:	00036400 	andeq	r6, r3, r0, lsl #8
     288:	01070000 	mrseq	r0, (UNDEF: 7)
     28c:	0000001c 	andeq	r0, r0, ip, lsl r0
     290:	01083a01 	tsteq	r8, r1, lsl #20
     294:	00000066 	andeq	r0, r0, r6, rrx
	...
     2a0:	01007d02 	tsteq	r0, r2, lsl #26
     2a4:	000002ce 	andeq	r0, r0, lr, asr #5
     2a8:	01007308 	tsteq	r0, r8, lsl #6
     2ac:	02ce1c3a 	sbceq	r1, lr, #14848	; 0x3a00
     2b0:	03a60000 			; <UNDEFINED> instruction: 0x03a60000
     2b4:	03a20000 			; <UNDEFINED> instruction: 0x03a20000
     2b8:	730a0000 	movwvc	r0, #40960	; 0xa000
     2bc:	3c010063 	stccc	0, cr0, [r1], {99}	; 0x63
     2c0:	0002ce0e 	andeq	ip, r2, lr, lsl #28
     2c4:	0003cb00 	andeq	ip, r3, r0, lsl #22
     2c8:	0003c700 	andeq	ip, r3, r0, lsl #14
     2cc:	040b0000 	streq	r0, [fp], #-0
     2d0:	000001ac 	andeq	r0, r0, ip, lsr #3
     2d4:	01920107 	orrseq	r0, r2, r7, lsl #2
     2d8:	2a010000 	bcs	402e0 <SYS_MODE+0x402c1>
     2dc:	007b0105 	rsbseq	r0, fp, r5, lsl #2
	...
     2e8:	7d020000 	stcvc	0, cr0, [r2, #-0]
     2ec:	032d0100 			; <UNDEFINED> instruction: 0x032d0100
     2f0:	63080000 	movwvs	r0, #32768	; 0x8000
     2f4:	2a010073 	bcs	404c8 <SYS_MODE+0x404a9>
     2f8:	0002ce18 	andeq	ip, r2, r8, lsl lr
     2fc:	0003ed00 	andeq	lr, r3, r0, lsl #26
     300:	0003e900 	andeq	lr, r3, r0, lsl #18
     304:	74630800 	strbtvc	r0, [r3], #-2048	; 0xfffff800
     308:	282a0100 	stmdacs	sl!, {r8}
     30c:	000002ce 	andeq	r0, r0, lr, asr #5
     310:	00000411 	andeq	r0, r0, r1, lsl r4
     314:	0000040b 	andeq	r0, r0, fp, lsl #8
     318:	0001b80f 	andeq	fp, r1, pc, lsl #16
     31c:	172c0100 	strne	r0, [ip, -r0, lsl #2]!
     320:	00000029 	andeq	r0, r0, r9, lsr #32
     324:	0000043e 	andeq	r0, r0, lr, lsr r4
     328:	0000043c 	andeq	r0, r0, ip, lsr r4
     32c:	50010700 	andpl	r0, r1, r0, lsl #14
     330:	01000000 	mrseq	r0, (UNDEF: 0)
     334:	9f01071b 	svcls	0x0001071b
     338:	00000001 	andeq	r0, r0, r1
     33c:	00000000 	andeq	r0, r0, r0
     340:	02000000 	andeq	r0, r0, #0
     344:	9c01007d 	stcls	0, cr0, [r1], {125}	; 0x7d
     348:	09000003 	stmdbeq	r0, {r0, r1}
     34c:	00000023 	andeq	r0, r0, r3, lsr #32
     350:	9f151b01 	svcls	0x00151b01
     354:	59000001 	stmdbpl	r0, {r0}
     358:	51000004 	tstpl	r0, r4
     35c:	08000004 	stmdaeq	r0, {r2}
     360:	00637273 	rsbeq	r7, r3, r3, ror r2
     364:	ce271b01 	vmulgt.f64	d1, d7, d1
     368:	95000002 	strls	r0, [r0, #-2]
     36c:	8f000004 	svchi	0x00000004
     370:	09000004 	stmdbeq	r0, {r2}
     374:	00000016 	andeq	r0, r0, r6, lsl r0
     378:	66331b01 	ldrtvs	r1, [r3], -r1, lsl #22
     37c:	c6000000 	strgt	r0, [r0], -r0
     380:	c0000004 	andgt	r0, r0, r4
     384:	0a000004 	beq	39c <SYS_MODE+0x37d>
     388:	00706d74 	rsbseq	r6, r0, r4, ror sp
     38c:	9f081d01 	svcls	0x00081d01
     390:	f3000001 	vhadd.u8	d0, d0, d1
     394:	f1000004 	cps	#4
     398:	00000004 	andeq	r0, r0, r4
     39c:	00360110 	eorseq	r0, r6, r0, lsl r1
     3a0:	08010000 	stmdaeq	r1, {}	; <UNPREDICTABLE>
     3a4:	019f0107 	orrseq	r0, pc, r7, lsl #2
	...
     3b0:	7d020000 	stcvc	0, cr0, [r2, #-0]
     3b4:	23090100 	movwcs	r0, #37120	; 0x9100
     3b8:	01000000 	mrseq	r0, (UNDEF: 0)
     3bc:	019f1408 	orrseq	r1, pc, r8, lsl #8
     3c0:	050c0000 	streq	r0, [ip, #-0]
     3c4:	05060000 	streq	r0, [r6, #-0]
     3c8:	73080000 	movwvc	r0, #32768	; 0x8000
     3cc:	01006372 	tsteq	r0, r2, ror r3
     3d0:	02ce2608 	sbceq	r2, lr, #8, 12	; 0x800000
     3d4:	053d0000 	ldreq	r0, [sp, #-0]!
     3d8:	05370000 	ldreq	r0, [r7, #-0]!
     3dc:	740a0000 	strvc	r0, [sl], #-0
     3e0:	0100706d 	tsteq	r0, sp, rrx
     3e4:	019f080a 	orrseq	r0, pc, sl, lsl #16
     3e8:	056a0000 	strbeq	r0, [sl, #-0]!
     3ec:	05680000 	strbeq	r0, [r8, #-0]!
     3f0:	00000000 	andeq	r0, r0, r0
     3f4:	00001827 	andeq	r1, r0, r7, lsr #16
     3f8:	01030002 	tsteq	r3, r2
     3fc:	01040000 	mrseq	r0, (UNDEF: 4)
     400:	0000005f 	andeq	r0, r0, pc, asr r0
     404:	0002850c 	andeq	r8, r2, ip, lsl #10
     408:	0001be00 	andeq	fp, r1, r0, lsl #28
     40c:	00010000 	andeq	r0, r1, r0
	...
     418:	0002e300 	andeq	lr, r2, r0, lsl #6
     41c:	04080200 	streq	r0, [r8], #-512	; 0xfffffe00
     420:	00000370 	andeq	r0, r0, r0, ror r3
     424:	69050403 	stmdbvs	r5, {r0, r1, sl}
     428:	0200746e 	andeq	r7, r0, #1845493760	; 0x6e000000
     42c:	01850704 	orreq	r0, r5, r4, lsl #14
     430:	01020000 	mrseq	r0, (UNDEF: 2)
     434:	00002a06 	andeq	r2, r0, r6, lsl #20
     438:	05020200 	streq	r0, [r2, #-512]	; 0xfffffe00
     43c:	000001ae 	andeq	r0, r0, lr, lsr #3
     440:	9e050402 	cdpls	4, 0, cr0, cr5, cr2, {0}
     444:	04000001 	streq	r0, [r0], #-1
     448:	0000004c 	andeq	r0, r0, ip, asr #32
     44c:	99050802 	stmdbls	r5, {r1, fp}
     450:	04000001 	streq	r0, [r0], #-1
     454:	00000058 	andeq	r0, r0, r8, asr r0
     458:	28080102 	stmdacs	r8, {r1, r8}
     45c:	02000000 	andeq	r0, r0, #0
     460:	003d0702 	eorseq	r0, sp, r2, lsl #14
     464:	04020000 	streq	r0, [r2], #-0
     468:	00018007 	andeq	r8, r1, r7
     46c:	02200500 	eoreq	r0, r0, #0, 10
     470:	22020000 	andcs	r0, r2, #0
     474:	0000851d 	andeq	r8, r0, sp, lsl r5
     478:	07080200 	streq	r0, [r8, -r0, lsl #4]
     47c:	0000017b 	andeq	r0, r0, fp, ror r1
     480:	00000805 	andeq	r0, r0, r5, lsl #16
     484:	1d250200 	sfmne	f0, 4, [r5, #-0]
     488:	00000037 	andeq	r0, r0, r7, lsr r0
     48c:	00008c04 	andeq	r8, r0, r4, lsl #24
     490:	00370400 	eorseq	r0, r7, r0, lsl #8
     494:	cf050000 	svcgt	0x00050000
     498:	02000002 	andeq	r0, r0, #2
     49c:	00ae1d29 	adceq	r1, lr, r9, lsr #26
     4a0:	cd060000 	stcgt	0, cr0, [r6, #-0]
     4a4:	04000002 	streq	r0, [r0], #-2
     4a8:	00c80003 	sbceq	r0, r8, r3
     4ac:	4d070000 	stcmi	0, cr0, [r7, #-0]
     4b0:	c8000003 	stmdagt	r0, {r0, r1}
     4b4:	02000000 	andeq	r0, r0, #0
     4b8:	00010023 	andeq	r0, r1, r3, lsr #32
     4bc:	30040408 	andcc	r0, r4, r8, lsl #8
     4c0:	05000000 	streq	r0, [r0, #-0]
     4c4:	0000025e 	andeq	r0, r0, lr, asr r2
     4c8:	371d4002 	ldrcc	r4, [sp, -r2]
     4cc:	05000000 	streq	r0, [r0, #-0]
     4d0:	00000306 	andeq	r0, r0, r6, lsl #6
     4d4:	e7107501 	ldr	r7, [r0, -r1, lsl #10]
     4d8:	09000000 	stmdbeq	r0, {}	; <UNPREDICTABLE>
     4dc:	0000ed04 	andeq	lr, r0, r4, lsl #26
     4e0:	08010a00 	stmdaeq	r1, {r9, fp}
     4e4:	0b000001 	bleq	4f0 <SYS_MODE+0x4d1>
     4e8:	00000108 	andeq	r0, r0, r8, lsl #2
     4ec:	0000c80b 	andeq	ip, r0, fp, lsl #16
     4f0:	008c0b00 	addeq	r0, ip, r0, lsl #22
     4f4:	8c0b0000 	stchi	0, cr0, [fp], {-0}
     4f8:	00000000 	andeq	r0, r0, r0
     4fc:	31080102 	tstcc	r8, r2, lsl #2
     500:	04000000 	streq	r0, [r0], #-0
     504:	00000108 	andeq	r0, r0, r8, lsl #2
     508:	7901080c 	stmdbvc	r1, {r2, r3, fp}
     50c:	00013c09 	andeq	r3, r1, r9, lsl #24
     510:	63660d00 	cmnvs	r6, #0, 26
     514:	7a010074 	bvc	406ec <SYS_MODE+0x406cd>
     518:	00014d0b 	andeq	r4, r1, fp, lsl #26
     51c:	00230200 	eoreq	r0, r3, r0, lsl #4
     520:	6772610d 	ldrbvs	r6, [r2, -sp, lsl #2]!
     524:	097b0100 	ldmdbeq	fp!, {r8}^
     528:	000000c8 	andeq	r0, r0, r8, asr #1
     52c:	00042302 	andeq	r2, r4, r2, lsl #6
     530:	014d010a 	cmpeq	sp, sl, lsl #2
     534:	080b0000 	stmdaeq	fp, {}	; <UNPREDICTABLE>
     538:	0b000001 	bleq	544 <SYS_MODE+0x525>
     53c:	000000c8 	andeq	r0, r0, r8, asr #1
     540:	3c040900 			; <UNDEFINED> instruction: 0x3c040900
     544:	05000001 	streq	r0, [r0, #-1]
     548:	000003a4 	andeq	r0, r0, r4, lsr #7
     54c:	14037c01 	strne	r7, [r3], #-3073	; 0xfffff3ff
     550:	04000001 	streq	r0, [r0], #-1
     554:	00000153 	andeq	r0, r0, r3, asr r1
     558:	0272010e 	rsbseq	r0, r2, #-2147483645	; 0x80000003
     55c:	85010000 	strhi	r0, [r1, #-0]
     560:	30010503 	andcc	r0, r1, r3, lsl #10
	...
     56c:	7d000000 	stcvc	0, cr0, [r0, #-0]
     570:	01000005 	tsteq	r0, r5
     574:	00000221 	andeq	r0, r0, r1, lsr #4
     578:	74756f0f 	ldrbtvc	r6, [r5], #-3855	; 0xfffff0f1
     57c:	03850100 	orreq	r0, r5, #0, 2
     580:	00014d16 	andeq	r4, r1, r6, lsl sp
     584:	0005df00 	andeq	sp, r5, r0, lsl #30
     588:	0005d900 	andeq	sp, r5, r0, lsl #18
     58c:	72610f00 	rsbvc	r0, r1, #0, 30
     590:	85010067 	strhi	r0, [r1, #-103]	; 0xffffff99
     594:	00c83d03 	sbceq	r3, r8, r3, lsl #26
     598:	06100000 	ldreq	r0, [r0], -r0
     59c:	060c0000 	streq	r0, [ip], -r0
     5a0:	dd100000 	ldcle	0, cr0, [r0, #-0]
     5a4:	01000002 	tsteq	r0, r2
     5a8:	214e0385 	smlalbbcs	r0, lr, r5, r3
     5ac:	02000002 	andeq	r0, r0, #2
     5b0:	12117891 	andsne	r7, r1, #9502720	; 0x910000
     5b4:	01006176 	tsteq	r0, r6, ror r1
     5b8:	a20b0387 	andge	r0, fp, #469762050	; 0x1c000002
     5bc:	02000000 	andeq	r0, r0, #0
     5c0:	02136c91 	andseq	r6, r3, #37120	; 0x9100
     5c4:	01000002 	tsteq	r0, r2
     5c8:	5f1b0389 	svcpl	0x001b0389
     5cc:	02000001 	andeq	r0, r0, #1
     5d0:	72146491 	andsvc	r6, r4, #-1862270976	; 0x91000000
     5d4:	01007465 	tsteq	r0, r5, ror #8
     5d8:	ca0d038a 	bgt	341408 <SYS_MODE+0x3413e9>
     5dc:	33000000 	movwcc	r0, #0
     5e0:	31000006 	tstcc	r0, r6
     5e4:	15000006 	strne	r0, [r0, #-6]
     5e8:	00000000 	andeq	r0, r0, r0
     5ec:	00000535 	andeq	r0, r0, r5, lsr r5
     5f0:	05500116 	ldrbeq	r0, [r0, #-278]	; 0xfffffeea
     5f4:	00000003 	andeq	r0, r0, r3
     5f8:	51011600 	tstpl	r1, r0, lsl #12
     5fc:	164c9102 	strbne	r9, [ip], -r2, lsl #2
     600:	09025201 	stmdbeq	r2, {r0, r9, ip, lr}
     604:	530116ff 	movwpl	r1, #5887	; 0x16ff
     608:	06609103 	strbteq	r9, [r0], -r3, lsl #2
     60c:	007d0216 	rsbseq	r0, sp, r6, lsl r2
     610:	00649102 	rsbeq	r9, r4, r2, lsl #2
     614:	0f040900 	svceq	0x00040900
     618:	0e000001 	cdpeq	0, 0, cr0, cr0, cr1, {0}
     61c:	00032401 	andeq	r2, r3, r1, lsl #8
     620:	037f0100 	cmneq	pc, #0, 2
     624:	00300105 	eorseq	r0, r0, r5, lsl #2
	...
     630:	06460000 	strbeq	r0, [r6], -r0
     634:	c3010000 	movwgt	r0, #4096	; 0x1000
     638:	17000002 	strne	r0, [r0, -r2]
     63c:	00000219 	andeq	r0, r0, r9, lsl r2
     640:	16037f01 	strne	r7, [r3], -r1, lsl #30
     644:	000002c3 	andeq	r0, r0, r3, asr #5
     648:	00000684 	andeq	r0, r0, r4, lsl #13
     64c:	0000067e 	andeq	r0, r0, lr, ror r6
     650:	00001617 	andeq	r1, r0, r7, lsl r6
     654:	037f0100 	cmneq	pc, #0, 2
     658:	00008c25 	andeq	r8, r0, r5, lsr #24
     65c:	0006b600 	andeq	fp, r6, r0, lsl #12
     660:	0006b000 	andeq	fp, r6, r0
     664:	02dd1700 	sbcseq	r1, sp, #0, 14
     668:	7f010000 	svcvc	0x00010000
     66c:	02213803 	eoreq	r3, r1, #196608	; 0x30000
     670:	06e80000 	strbteq	r0, [r8], r0
     674:	06e20000 	strbteq	r0, [r2], r0
     678:	760f0000 	strvc	r0, [pc], -r0
     67c:	7f010061 	svcvc	0x00010061
     680:	00a24803 	adceq	r4, r2, r3, lsl #16
     684:	07160000 	ldreq	r0, [r6, -r0]
     688:	07140000 	ldreq	r0, [r4, -r0]
     68c:	00150000 	andseq	r0, r5, r0
     690:	35000000 	strcc	r0, [r0, #-0]
     694:	16000005 	strne	r0, [r0], -r5
     698:	03055001 	movweq	r5, #20481	; 0x5001
     69c:	00000000 	andeq	r0, r0, r0
     6a0:	03510116 	cmpeq	r1, #-2147483643	; 0x80000005
     6a4:	165001f3 			; <UNDEFINED> instruction: 0x165001f3
     6a8:	f3035201 	vhsub.u8	d5, d3, d1
     6ac:	01165101 	tsteq	r6, r1, lsl #2
     6b0:	01f30353 	mvnseq	r0, r3, asr r3
     6b4:	09000052 	stmdbeq	r0, {r1, r4, r6}
     6b8:	00010804 	andeq	r0, r1, r4, lsl #16
     6bc:	01010e00 	tsteq	r1, r0, lsl #28
     6c0:	01000004 	tsteq	r0, r4
     6c4:	01050378 	tsteq	r5, r8, ror r3
     6c8:	00000030 	andeq	r0, r0, r0, lsr r0
	...
     6d4:	00000729 	andeq	r0, r0, r9, lsr #14
     6d8:	00034901 	andeq	r4, r3, r1, lsl #18
     6dc:	02dd1700 	sbcseq	r1, sp, #0, 14
     6e0:	78010000 	stmdavc	r1, {}	; <UNPREDICTABLE>
     6e4:	02211a03 	eoreq	r1, r1, #12288	; 0x3000
     6e8:	07670000 	strbeq	r0, [r7, -r0]!
     6ec:	07610000 	strbeq	r0, [r1, -r0]!
     6f0:	760f0000 	strvc	r0, [pc], -r0
     6f4:	78010061 	stmdavc	r1, {r0, r5, r6}
     6f8:	00a22a03 	adceq	r2, r2, r3, lsl #20
     6fc:	07950000 	ldreq	r0, [r5, r0]
     700:	07930000 	ldreq	r0, [r3, r0]
     704:	19130000 	ldmdbne	r3, {}	; <UNPREDICTABLE>
     708:	01000002 	tsteq	r0, r2
     70c:	4908037a 	stmdbmi	r8, {r1, r3, r4, r5, r6, r8, r9}
     710:	02000003 	andeq	r0, r0, #3
     714:	00157491 	mulseq	r5, r1, r4
     718:	35000000 	strcc	r0, [r0, #-0]
     71c:	16000005 	strne	r0, [r0], -r5
     720:	03055001 	movweq	r5, #20481	; 0x5001
     724:	c2001ef8 	andgt	r1, r0, #248, 28	; 0xf80
     728:	02510116 	subseq	r0, r1, #-2147483643	; 0x80000005
     72c:	01166c91 			; <UNDEFINED> instruction: 0x01166c91
     730:	ff090252 			; <UNDEFINED> instruction: 0xff090252
     734:	03530116 	cmpeq	r3, #-2147483643	; 0x80000005
     738:	005001f3 	ldrsheq	r0, [r0], #-19	; 0xffffffed
     73c:	01081800 	tsteq	r8, r0, lsl #16
     740:	03590000 	cmpeq	r9, #0
     744:	37190000 	ldrcc	r0, [r9, -r0]
     748:	00000000 	andeq	r0, r0, r0
     74c:	25010e00 	strcs	r0, [r1, #-3584]	; 0xfffff200
     750:	01000003 	tsteq	r0, r3
     754:	0105036e 	tsteq	r5, lr, ror #6
     758:	00000030 	andeq	r0, r0, r0, lsr r0
	...
     764:	000007a8 	andeq	r0, r0, r8, lsr #15
     768:	00040801 	andeq	r0, r4, r1, lsl #16
     76c:	02191700 	andseq	r1, r9, #0, 14
     770:	6e010000 	cdpvs	0, 0, cr0, cr1, cr0, {0}
     774:	02c31503 	sbceq	r1, r3, #12582912	; 0xc00000
     778:	080a0000 	stmdaeq	sl, {}	; <UNPREDICTABLE>
     77c:	08040000 	stmdaeq	r4, {}	; <UNPREDICTABLE>
     780:	16170000 	ldrne	r0, [r7], -r0
     784:	01000000 	mrseq	r0, (UNDEF: 0)
     788:	8c24036e 	stchi	3, cr0, [r4], #-440	; 0xfffffe48
     78c:	3c000000 	stccc	0, cr0, [r0], {-0}
     790:	36000008 	strcc	r0, [r0], -r8
     794:	10000008 	andne	r0, r0, r8
     798:	000002dd 	ldrdeq	r0, [r0], -sp
     79c:	37036e01 	strcc	r6, [r3, -r1, lsl #28]
     7a0:	00000221 	andeq	r0, r0, r1, lsr #4
     7a4:	11789102 	cmnne	r8, r2, lsl #2
     7a8:	00617612 	rsbeq	r7, r1, r2, lsl r6
     7ac:	0b037001 	bleq	dc7b8 <SYS_MODE+0xdc799>
     7b0:	000000a2 	andeq	r0, r0, r2, lsr #1
     7b4:	146c9102 	strbtne	r9, [ip], #-258	; 0xfffffefe
     7b8:	00746572 	rsbseq	r6, r4, r2, ror r5
     7bc:	0d037201 	sfmeq	f7, 4, [r3, #-4]
     7c0:	000000ca 	andeq	r0, r0, sl, asr #1
     7c4:	0000086a 	andeq	r0, r0, sl, ror #16
     7c8:	00000868 	andeq	r0, r0, r8, ror #16
     7cc:	00000015 	andeq	r0, r0, r5, lsl r0
     7d0:	00053500 	andeq	r3, r5, r0, lsl #10
     7d4:	50011600 	andpl	r1, r1, r0, lsl #12
     7d8:	00000305 	andeq	r0, r0, r5, lsl #6
     7dc:	01160000 	tsteq	r6, r0
     7e0:	01f30351 	mvnseq	r0, r1, asr r3
     7e4:	52011650 	andpl	r1, r1, #80, 12	; 0x5000000
     7e8:	5101f303 	tstpl	r1, r3, lsl #6	; <UNPREDICTABLE>
     7ec:	03530116 	cmpeq	r3, #-2147483643	; 0x80000005
     7f0:	16066091 			; <UNDEFINED> instruction: 0x16066091
     7f4:	02007d02 	andeq	r7, r0, #2, 26	; 0x80
     7f8:	00006491 	muleq	r0, r1, r4
     7fc:	0358010e 	cmpeq	r8, #-2147483645	; 0x80000003
     800:	64010000 	strvs	r0, [r1], #-0
     804:	30010503 	andcc	r0, r1, r3, lsl #10
	...
     810:	7d000000 	stcvc	0, cr0, [r0, #-0]
     814:	01000008 	tsteq	r0, r8
     818:	000004a1 	andeq	r0, r0, r1, lsr #9
     81c:	00021917 	andeq	r1, r2, r7, lsl r9
     820:	03640100 	cmneq	r4, #0, 2
     824:	0002c314 	andeq	ip, r2, r4, lsl r3
     828:	0008df00 	andeq	sp, r8, r0, lsl #30
     82c:	0008d900 	andeq	sp, r8, r0, lsl #18
     830:	02dd1000 	sbcseq	r1, sp, #0
     834:	64010000 	strvs	r0, [r1], #-0
     838:	02212803 	eoreq	r2, r1, #196608	; 0x30000
     83c:	91020000 	mrsls	r0, (UNDEF: 2)
     840:	76121174 			; <UNDEFINED> instruction: 0x76121174
     844:	66010061 	strvs	r0, [r1], -r1, rrx
     848:	00a20b03 	adceq	r0, r2, r3, lsl #22
     84c:	91020000 	mrsls	r0, (UNDEF: 2)
     850:	6572146c 	ldrbvs	r1, [r2, #-1132]!	; 0xfffffb94
     854:	68010074 	stmdavs	r1, {r2, r4, r5, r6}
     858:	00ca0d03 	sbceq	r0, sl, r3, lsl #26
     85c:	090d0000 	stmdbeq	sp, {}	; <UNPREDICTABLE>
     860:	090b0000 	stmdbeq	fp, {}	; <UNPREDICTABLE>
     864:	00150000 	andseq	r0, r5, r0
     868:	35000000 	strcc	r0, [r0, #-0]
     86c:	16000005 	strne	r0, [r0], -r5
     870:	03055001 	movweq	r5, #20481	; 0x5001
     874:	00000000 	andeq	r0, r0, r0
     878:	03510116 	cmpeq	r1, #-2147483643	; 0x80000005
     87c:	165001f3 			; <UNDEFINED> instruction: 0x165001f3
     880:	09025201 	stmdbeq	r2, {r0, r9, ip, lr}
     884:	530116ff 	movwpl	r1, #5887	; 0x16ff
     888:	06549103 	ldrbeq	r9, [r4], -r3, lsl #2
     88c:	007d0216 	rsbseq	r0, sp, r6, lsl r2
     890:	00589102 	subseq	r9, r8, r2, lsl #2
     894:	27010e00 	strcs	r0, [r1, -r0, lsl #28]
     898:	01000003 	tsteq	r0, r3
     89c:	01050359 	tsteq	r5, r9, asr r3
     8a0:	00000030 	andeq	r0, r0, r0, lsr r0
     8a4:	c2001f0c 	andgt	r1, r0, #12, 30	; 0x30
     8a8:	c2001f4c 	andgt	r1, r0, #76, 30	; 0x130
     8ac:	00000920 	andeq	r0, r0, r0, lsr #18
     8b0:	00053501 	andeq	r3, r5, r1, lsl #10
     8b4:	02dd1000 	sbcseq	r1, sp, #0
     8b8:	59010000 	stmdbpl	r1, {}	; <UNPREDICTABLE>
     8bc:	02211903 	eoreq	r1, r1, #49152	; 0xc000
     8c0:	91020000 	mrsls	r0, (UNDEF: 2)
     8c4:	76121170 			; <UNDEFINED> instruction: 0x76121170
     8c8:	5b010061 	blpl	40a54 <SYS_MODE+0x40a35>
     8cc:	00a20b03 	adceq	r0, r2, r3, lsl #22
     8d0:	91020000 	mrsls	r0, (UNDEF: 2)
     8d4:	02191364 	andseq	r1, r9, #100, 6	; 0x90000001
     8d8:	5d010000 	stcpl	0, cr0, [r1, #-0]
     8dc:	03490803 	movteq	r0, #38915	; 0x9803
     8e0:	91020000 	mrsls	r0, (UNDEF: 2)
     8e4:	65721460 	ldrbvs	r1, [r2, #-1120]!	; 0xfffffba0
     8e8:	5e010074 	mcrpl	0, 0, r0, cr1, cr4, {3}
     8ec:	00ca0d03 	sbceq	r0, sl, r3, lsl #26
     8f0:	097e0000 	ldmdbeq	lr!, {}^	; <UNPREDICTABLE>
     8f4:	097c0000 	ldmdbeq	ip!, {}^	; <UNPREDICTABLE>
     8f8:	3c150000 	ldccc	0, cr0, [r5], {-0}
     8fc:	35c2001f 	strbcc	r0, [r2, #31]
     900:	16000005 	strne	r0, [r0], -r5
     904:	03055001 	movweq	r5, #20481	; 0x5001
     908:	c2001ef8 	andgt	r1, r0, #248, 28	; 0xf80
     90c:	03510116 	cmpeq	r1, #-2147483643	; 0x80000005
     910:	167fb891 			; <UNDEFINED> instruction: 0x167fb891
     914:	09025201 	stmdbeq	r2, {r0, r9, ip, lr}
     918:	530116ff 	movwpl	r1, #5887	; 0x16ff
     91c:	06489103 	strbeq	r9, [r8], -r3, lsl #2
     920:	007d0216 	rsbseq	r0, sp, r6, lsl r2
     924:	004c9102 	subeq	r9, ip, r2, lsl #2
     928:	02ea1a00 	rsceq	r1, sl, #0, 20
     92c:	3c010000 	stccc	0, cr0, [r1], {-0}
     930:	30010c02 	andcc	r0, r1, r2, lsl #24
     934:	b0000000 	andlt	r0, r0, r0
     938:	f8c20013 			; <UNDEFINED> instruction: 0xf8c20013
     93c:	91c2001e 	bicls	r0, r2, lr, lsl r0
     940:	01000009 	tsteq	r0, r9
     944:	00000b66 	andeq	r0, r0, r6, ror #22
     948:	74756f0f 	ldrbtvc	r6, [r5], #-3855	; 0xfffff0f1
     94c:	023c0100 	eorseq	r0, ip, #0, 2
     950:	0000db24 	andeq	sp, r0, r4, lsr #22
     954:	0009d200 	andeq	sp, r9, r0, lsl #4
     958:	0009ca00 	andeq	ip, r9, r0, lsl #20
     95c:	02191700 	andseq	r1, r9, #0, 14
     960:	3c010000 	stccc	0, cr0, [r1], {-0}
     964:	02c32f02 	sbceq	r2, r3, #2, 30
     968:	0a0e0000 	beq	380970 <SYS_MODE+0x380951>
     96c:	0a060000 	beq	180974 <SYS_MODE+0x180955>
     970:	2f170000 	svccs	0x00170000
     974:	01000003 	tsteq	r0, r3
     978:	9844023c 	stmdals	r4, {r2, r3, r4, r5, r9}^
     97c:	4a000000 	bmi	984 <SYS_MODE+0x965>
     980:	4200000a 	andmi	r0, r0, #10
     984:	1700000a 	strne	r0, [r0, -sl]
     988:	000002dd 	ldrdeq	r0, [r0], -sp
     98c:	58023c01 	stmdapl	r2, {r0, sl, fp, ip, sp}
     990:	00000221 	andeq	r0, r0, r1, lsr #4
     994:	00000a82 	andeq	r0, r0, r2, lsl #21
     998:	00000a7e 	andeq	r0, r0, lr, ror sl
     99c:	0061761b 	rsbeq	r7, r1, fp, lsl r6
     9a0:	68023c01 	stmdavs	r2, {r0, sl, fp, ip, sp}
     9a4:	000000a2 	andeq	r0, r0, r2, lsr #1
     9a8:	1c009102 	stfned	f1, [r0], {2}
     9ac:	0000031e 	andeq	r0, r0, lr, lsl r3
     9b0:	10023e01 	andne	r3, r2, r1, lsl #28
     9b4:	00000037 	andeq	r0, r0, r7, lsr r0
     9b8:	00000ab2 			; <UNDEFINED> instruction: 0x00000ab2
     9bc:	00000aa0 	andeq	r0, r0, r0, lsr #21
     9c0:	0003bc1c 	andeq	fp, r3, ip, lsl ip
     9c4:	023e0100 	eorseq	r0, lr, #0, 2
     9c8:	00003717 	andeq	r3, r0, r7, lsl r7
     9cc:	000b3400 	andeq	r3, fp, r0, lsl #8
     9d0:	000b1e00 	andeq	r1, fp, r0, lsl #28
     9d4:	03e91c00 	mvneq	r1, #0, 24
     9d8:	3e010000 	cdpcc	0, 0, cr0, cr1, cr0, {0}
     9dc:	00371e02 	eorseq	r1, r7, r2, lsl #28
     9e0:	0bd60000 	bleq	ff5809e8 <_stack_end+0x3d5799e8>
     9e4:	0bbe0000 	bleq	fef809ec <_stack_end+0x3cf799ec>
     9e8:	6e140000 	cdpvs	0, 1, cr0, cr4, cr0, {0}
     9ec:	023e0100 	eorseq	r0, lr, #0, 2
     9f0:	00003729 	andeq	r3, r0, r9, lsr #14
     9f4:	000c7300 	andeq	r7, ip, r0, lsl #6
     9f8:	000c6500 	andeq	r6, ip, r0, lsl #10
     9fc:	64691400 	strbtvs	r1, [r9], #-1024	; 0xfffffc00
     a00:	3f010078 	svccc	0x00010078
     a04:	008c0a02 	addeq	r0, ip, r2, lsl #20
     a08:	0d2d0000 	stceq	0, cr0, [sp, #-0]
     a0c:	0ccf0000 	stcleq	0, cr0, [pc], {0}
     a10:	701d0000 	andsvc	r0, sp, r0
     a14:	acc20015 	stclge	0, cr0, [r2], {21}
     a18:	39c20015 	stmibcc	r2, {r0, r2, r4}^
     a1c:	12000006 	andne	r0, r0, #6
     a20:	67010077 	smlsdxvs	r1, r7, r0, r0
     a24:	00ca1102 	sbceq	r1, sl, r2, lsl #2
     a28:	50010000 	andpl	r0, r1, r0
     a2c:	15ec1d00 	strbne	r1, [ip, #3328]!	; 0xd00
     a30:	1610c200 	ldrne	ip, [r0], -r0, lsl #4
     a34:	0656c200 	ldrbeq	ip, [r6], -r0, lsl #4
     a38:	b6130000 	ldrlt	r0, [r3], -r0
     a3c:	01000003 	tsteq	r0, r3
     a40:	ca13027b 	bgt	4c1434 <SYS_MODE+0x4c1415>
     a44:	01000000 	mrseq	r0, (UNDEF: 0)
     a48:	fc1d005b 	ldc2	0, cr0, [sp], {91}	; 0x5b
     a4c:	14c20017 	strbne	r0, [r2], #23
     a50:	5cc2001b 	stclpl	0, cr0, [r2], {27}
     a54:	1c000008 	stcne	0, cr0, [r0], {8}
     a58:	00000f9f 	muleq	r0, pc, pc	; <UNPREDICTABLE>
     a5c:	1602af01 	strne	sl, [r2], -r1, lsl #30
     a60:	00000037 	andeq	r0, r0, r7, lsr r0
     a64:	00000f58 	andeq	r0, r0, r8, asr pc
     a68:	00000f3c 	andeq	r0, r0, ip, lsr pc
     a6c:	0018e01d 	andseq	lr, r8, sp, lsl r0
     a70:	001954c2 	andseq	r5, r9, r2, asr #9
     a74:	0006d2c2 	andeq	sp, r6, r2, asr #5
     a78:	024f1300 	subeq	r1, pc, #0, 6
     a7c:	d1010000 	mrsle	r0, (UNDEF: 1)
     a80:	005f1d02 	subseq	r1, pc, r2, lsl #26
     a84:	51060000 	mrspl	r0, (UNDEF: 6)
     a88:	93500493 	cmpls	r0, #-1828716544	; 0x93000000
     a8c:	19501504 	ldmdbne	r0, {r2, r8, sl, ip}^
     a90:	105bc200 	subsne	ip, fp, r0, lsl #4
     a94:	01160000 	tsteq	r6, r0
     a98:	00780250 	rsbseq	r0, r8, r0, asr r2
     a9c:	02510116 	subseq	r0, r1, #-2147483643	; 0x80000005
     aa0:	01160077 	tsteq	r6, r7, ror r0
     aa4:	00740252 	rsbseq	r0, r4, r2, asr r2
     aa8:	02530116 	subseq	r0, r3, #-2147483643	; 0x80000005
     aac:	02160076 	andseq	r0, r6, #118	; 0x76
     ab0:	7b02187d 	blvc	86cac <SYS_MODE+0x86c8d>
     ab4:	7d021600 	stcvc	6, cr1, [r2, #-0]
     ab8:	4091031c 	addsmi	r0, r1, ip, lsl r3
     abc:	7d021606 	stcvc	6, cr1, [r2, #-24]	; 0xffffffe8
     ac0:	00750220 	rsbseq	r0, r5, r0, lsr #4
     ac4:	581d0000 	ldmdapl	sp, {}	; <UNPREDICTABLE>
     ac8:	a8c20019 	stmiage	r2, {r0, r3, r4}^
     acc:	27c20019 	bfics	r0, r9, #0, #3
     ad0:	13000007 	movwne	r0, #7
     ad4:	0000024f 	andeq	r0, r0, pc, asr #4
     ad8:	1802d601 	stmdane	r2, {r0, r9, sl, ip, lr, pc}
     adc:	00000053 	andeq	r0, r0, r3, asr r0
     ae0:	a4155201 	ldrge	r5, [r5], #-513	; 0xfffffdff
     ae4:	eec20019 	mcr	0, 6, r0, cr2, cr9, {0}
     ae8:	16000011 			; <UNDEFINED> instruction: 0x16000011
     aec:	78025001 	stmdavc	r2, {r0, ip, lr}
     af0:	51011600 	tstpl	r1, r0, lsl #12
     af4:	16007702 	strne	r7, [r0], -r2, lsl #14
     af8:	74025201 	strvc	r5, [r2], #-513	; 0xfffffdff
     afc:	53011600 	movwpl	r1, #5632	; 0x1600
     b00:	16007602 	strne	r7, [r0], -r2, lsl #12
     b04:	020c7d02 	andeq	r7, ip, #2, 26	; 0x80
     b08:	0216007b 	andseq	r0, r6, #123	; 0x7b
     b0c:	9103107d 	tstls	r3, sp, ror r0
     b10:	02160640 	andseq	r0, r6, #64, 12	; 0x4000000
     b14:	7502147d 	strvc	r1, [r2, #-1149]	; 0xfffffb83
     b18:	1e000000 	cdpne	0, 0, cr0, cr0, cr0, {0}
     b1c:	000000d0 	ldrdeq	r0, [r0], -r0	; <UNPREDICTABLE>
     b20:	0000077e 	andeq	r0, r0, lr, ror r7
     b24:	00024f1c 	andeq	r4, r2, ip, lsl pc
     b28:	02da0100 	sbcseq	r0, sl, #0, 2
     b2c:	0000ca17 	andeq	ip, r0, r7, lsl sl
     b30:	00100900 	andseq	r0, r0, r0, lsl #18
     b34:	00100700 	andseq	r0, r0, r0, lsl #14
     b38:	18b41500 	ldmne	r4!, {r8, sl, ip}
     b3c:	11eec200 	mvnne	ip, r0, lsl #4
     b40:	01160000 	tsteq	r6, r0
     b44:	00780250 	rsbseq	r0, r8, r0, asr r2
     b48:	02510116 	subseq	r0, r1, #-2147483643	; 0x80000005
     b4c:	01160077 	tsteq	r6, r7, ror r0
     b50:	00740252 	rsbseq	r0, r4, r2, asr r2
     b54:	02530116 	subseq	r0, r3, #-2147483643	; 0x80000005
     b58:	02160076 	andseq	r0, r6, #118	; 0x76
     b5c:	7b020c7d 	blvc	83d58 <SYS_MODE+0x83d39>
     b60:	7d021600 	stcvc	6, cr1, [r2, #-0]
     b64:	40910310 	addsmi	r0, r1, r0, lsl r3
     b68:	7d021606 	stcvc	6, cr1, [r2, #-24]	; 0xffffffe8
     b6c:	00750214 	rsbseq	r0, r5, r4, lsl r2
     b70:	e81e0000 	ldmda	lr, {}	; <UNPREDICTABLE>
     b74:	db000000 	blle	b7c <SYS_MODE+0xb5d>
     b78:	1c000007 	stcne	0, cr0, [r0], {7}
     b7c:	0000024f 	andeq	r0, r0, pc, asr #4
     b80:	2002e901 	andcs	lr, r2, r1, lsl #18
     b84:	0000009d 	muleq	r0, sp, r0
     b88:	00001020 	andeq	r1, r0, r0, lsr #32
     b8c:	0000101c 	andeq	r1, r0, ip, lsl r0
     b90:	001a3815 	andseq	r3, sl, r5, lsl r8
     b94:	0011eec2 	andseq	lr, r1, r2, asr #29
     b98:	50011600 	andpl	r1, r1, r0, lsl #12
     b9c:	16007802 	strne	r7, [r0], -r2, lsl #16
     ba0:	77025101 	strvc	r5, [r2, -r1, lsl #2]
     ba4:	52011600 	andpl	r1, r1, #0, 12
     ba8:	16007402 	strne	r7, [r0], -r2, lsl #8
     bac:	76025301 	strvc	r5, [r2], -r1, lsl #6
     bb0:	7d021600 	stcvc	6, cr1, [r2, #-0]
     bb4:	16300104 	ldrtne	r0, [r0], -r4, lsl #2
     bb8:	020c7d02 	andeq	r7, ip, #2, 26	; 0x80
     bbc:	0216007b 	andseq	r0, r6, #123	; 0x7b
     bc0:	9103107d 	tstls	r3, sp, ror r0
     bc4:	02160640 	andseq	r0, r6, #64, 12	; 0x4000000
     bc8:	7502147d 	strvc	r1, [r2, #-1149]	; 0xfffffb83
     bcc:	1f000000 	svcne	0x00000000
     bd0:	c2001a90 	andgt	r1, r0, #144, 20	; 0x90000
     bd4:	0000105b 	andeq	r1, r0, fp, asr r0
     bd8:	0000081d 	andeq	r0, r0, sp, lsl r8
     bdc:	02500116 	subseq	r0, r0, #-2147483643	; 0x80000005
     be0:	01160078 	tsteq	r6, r8, ror r0
     be4:	00770251 	rsbseq	r0, r7, r1, asr r2
     be8:	02520116 	subseq	r0, r2, #-2147483643	; 0x80000005
     bec:	01160074 	tsteq	r6, r4, ror r0
     bf0:	00760253 	rsbseq	r0, r6, r3, asr r2
     bf4:	087d0216 	ldmdaeq	sp!, {r1, r2, r4, r9}^
     bf8:	02163001 	andseq	r3, r6, #1
     bfc:	7b02187d 	blvc	86df8 <SYS_MODE+0x86dd9>
     c00:	7d021600 	stcvc	6, cr1, [r2, #-0]
     c04:	4091031c 	addsmi	r0, r1, ip, lsl r3
     c08:	7d021606 	stcvc	6, cr1, [r2, #-24]	; 0xffffffe8
     c0c:	00750220 	rsbseq	r0, r5, r0, lsr #4
     c10:	1adc1500 	bne	ff706018 <_stack_end+0x3d6ff018>
     c14:	11eec200 	mvnne	ip, r0, lsl #4
     c18:	01160000 	tsteq	r6, r0
     c1c:	00780250 	rsbseq	r0, r8, r0, asr r2
     c20:	02510116 	subseq	r0, r1, #-2147483643	; 0x80000005
     c24:	01160077 	tsteq	r6, r7, ror r0
     c28:	00740252 	rsbseq	r0, r4, r2, asr r2
     c2c:	02530116 	subseq	r0, r3, #-2147483643	; 0x80000005
     c30:	02160076 	andseq	r0, r6, #118	; 0x76
     c34:	3001047d 	andcc	r0, r1, sp, ror r4
     c38:	0c7d0216 	lfmeq	f0, 2, [sp], #-88	; 0xffffffa8
     c3c:	16007b02 	strne	r7, [r0], -r2, lsl #22
     c40:	03107d02 	tsteq	r0, #2, 26	; 0x80
     c44:	16064091 			; <UNDEFINED> instruction: 0x16064091
     c48:	02147d02 	andseq	r7, r4, #2, 26	; 0x80
     c4c:	00000075 	andeq	r0, r0, r5, ror r0
     c50:	0000b81e 	andeq	fp, r0, lr, lsl r8
     c54:	0008d500 	andeq	sp, r8, r0, lsl #10
     c58:	006c1400 	rsbeq	r1, ip, r0, lsl #8
     c5c:	16030401 	strne	r0, [r3], -r1, lsl #8
     c60:	00000037 	andeq	r0, r0, r7, lsr r0
     c64:	00001054 	andeq	r1, r0, r4, asr r0
     c68:	00001040 	andeq	r1, r0, r0, asr #32
     c6c:	001c2420 	andseq	r2, ip, r0, lsr #8
     c70:	000894c2 	andeq	r9, r8, r2, asr #9
     c74:	51011600 	tstpl	r1, r0, lsl #12
     c78:	16007702 	strne	r7, [r0], -r2, lsl #14
     c7c:	74025201 	strvc	r5, [r2], #-513	; 0xfffffdff
     c80:	53011600 	movwpl	r1, #5632	; 0x1600
     c84:	00007602 	andeq	r7, r0, r2, lsl #12
     c88:	001c5420 	andseq	r5, ip, r0, lsr #8
     c8c:	0008b6c2 	andeq	fp, r8, r2, asr #13
     c90:	50011600 	andpl	r1, r1, r0, lsl #12
     c94:	16200802 	strtne	r0, [r0], -r2, lsl #16
     c98:	77025101 	strvc	r5, [r2, -r1, lsl #2]
     c9c:	52011600 	andpl	r1, r1, #0, 12
     ca0:	167f7a02 	ldrbtne	r7, [pc], -r2, lsl #20
     ca4:	76025301 	strvc	r5, [r2], -r1, lsl #6
     ca8:	a0210000 	eorge	r0, r1, r0
     cac:	16c2001c 			; <UNDEFINED> instruction: 0x16c2001c
     cb0:	08025001 	stmdaeq	r2, {r0, ip, lr}
     cb4:	51011620 	tstpl	r1, r0, lsr #12
     cb8:	16007702 	strne	r7, [r0], -r2, lsl #14
     cbc:	75025201 	strvc	r5, [r2, #-513]	; 0xfffffdff
     cc0:	5301167f 	movwpl	r1, #5759	; 0x167f
     cc4:	00007602 	andeq	r7, r0, r2, lsl #12
     cc8:	1cbc1d00 	ldcne	13, cr1, [ip]
     ccc:	1e10c200 	cdpne	2, 1, cr12, cr0, cr0, {0}
     cd0:	099ac200 	ldmibeq	sl, {r9, lr, pc}
     cd4:	70140000 	andsvc	r0, r4, r0
     cd8:	03180100 	tsteq	r8, #0, 2
     cdc:	00022115 	andeq	r2, r2, r5, lsl r1
     ce0:	0010d000 	andseq	sp, r0, r0
     ce4:	0010cc00 	andseq	ip, r0, r0, lsl #24
     ce8:	006c1400 	rsbeq	r1, ip, r0, lsl #8
     cec:	16031901 	strne	r1, [r3], -r1, lsl #18
     cf0:	00000037 	andeq	r0, r0, r7, lsr r0
     cf4:	00001104 	andeq	r1, r0, r4, lsl #2
     cf8:	000010ee 	andeq	r1, r0, lr, ror #1
     cfc:	00164322 	andseq	r4, r6, r2, lsr #6
     d00:	001ce000 	andseq	lr, ip, r0
     d04:	001d04c2 	andseq	r0, sp, r2, asr #9
     d08:	031901c2 	tsteq	r9, #-2147483600	; 0x80000030
     d0c:	00093d1a 	andeq	r3, r9, sl, lsl sp
     d10:	16612300 	strbtne	r2, [r1], -r0, lsl #6
     d14:	118d0000 	orrne	r0, sp, r0
     d18:	11870000 	orrne	r0, r7, r0
     d1c:	55240000 	strpl	r0, [r4, #-0]!
     d20:	25000016 	strcs	r0, [r0, #-22]	; 0xffffffea
     d24:	0000166d 	andeq	r1, r0, sp, ror #12
     d28:	000011b8 			; <UNDEFINED> instruction: 0x000011b8
     d2c:	000011b6 			; <UNDEFINED> instruction: 0x000011b6
     d30:	1d5c2000 	ldclne	0, cr2, [ip, #-0]
     d34:	095fc200 	ldmdbeq	pc, {r9, lr, pc}^	; <UNPREDICTABLE>
     d38:	01160000 	tsteq	r6, r0
     d3c:	20080250 	andcs	r0, r8, r0, asr r2
     d40:	02510116 	subseq	r0, r1, #-2147483643	; 0x80000005
     d44:	01160077 	tsteq	r6, r7, ror r0
     d48:	7f790252 	svcvc	0x00790252
     d4c:	02530116 	subseq	r0, r3, #-2147483643	; 0x80000005
     d50:	20000076 	andcs	r0, r0, r6, ror r0
     d54:	c2001d94 	andgt	r1, r0, #148, 26	; 0x2500
     d58:	0000097b 	andeq	r0, r0, fp, ror r9
     d5c:	02510116 	subseq	r0, r1, #-2147483643	; 0x80000005
     d60:	01160077 	tsteq	r6, r7, ror r0
     d64:	7f750252 	svcvc	0x00750252
     d68:	02530116 	subseq	r0, r3, #-2147483643	; 0x80000005
     d6c:	21000076 	tstcs	r0, r6, ror r0
     d70:	c2001df4 	andgt	r1, r0, #244, 26	; 0x3d00
     d74:	02500116 	subseq	r0, r0, #-2147483643	; 0x80000005
     d78:	01162008 	tsteq	r6, r8
     d7c:	00770251 	rsbseq	r0, r7, r1, asr r2
     d80:	02520116 	subseq	r0, r2, #-2147483643	; 0x80000005
     d84:	01167f75 	tsteq	r6, r5, ror pc
     d88:	00760253 	rsbseq	r0, r6, r3, asr r2
     d8c:	101d0000 	andsne	r0, sp, r0
     d90:	70c2001e 	sbcvc	r0, r2, lr, lsl r0
     d94:	ffc2001e 			; <UNDEFINED> instruction: 0xffc2001e
     d98:	1c000009 	stcne	0, cr0, [r0], {9}
     d9c:	000003d2 	ldrdeq	r0, [r0], -r2
     da0:	14033501 	strne	r3, [r3], #-1281	; 0xfffffaff
     da4:	00000b6d 	andeq	r0, r0, sp, ror #22
     da8:	000011cd 	andeq	r1, r0, sp, asr #3
     dac:	000011cb 	andeq	r1, r0, fp, asr #3
     db0:	001e5c15 	andseq	r5, lr, r5, lsl ip
     db4:	0011eec2 	andseq	lr, r1, r2, asr #29
     db8:	50011600 	andpl	r1, r1, r0, lsl #12
     dbc:	16007802 	strne	r7, [r0], -r2, lsl #16
     dc0:	77025101 	strvc	r5, [r2, -r1, lsl #2]
     dc4:	52011600 	andpl	r1, r1, #0, 12
     dc8:	16007402 	strne	r7, [r0], -r2, lsl #8
     dcc:	76025301 	strvc	r5, [r2], -r1, lsl #6
     dd0:	7d021600 	stcvc	6, cr1, [r2, #-0]
     dd4:	16300104 	ldrtne	r0, [r0], -r4, lsl #2
     dd8:	01087d02 	tsteq	r8, r2, lsl #26
     ddc:	7d021640 	stcvc	6, cr1, [r2, #-256]	; 0xffffff00
     de0:	007b020c 	rsbseq	r0, fp, ip, lsl #4
     de4:	107d0216 	rsbsne	r0, sp, r6, lsl r2
     de8:	02163801 	andseq	r3, r6, #65536	; 0x10000
     dec:	7502147d 	strvc	r1, [r2, #-1149]	; 0xfffffb83
     df0:	26000000 	strcs	r0, [r0], -r0
     df4:	00001625 	andeq	r1, r0, r5, lsr #12
     df8:	c2001478 	andgt	r1, r0, #120, 8	; 0x78000000
     dfc:	14780003 	ldrbtne	r0, [r8], #-3
     e00:	1480c200 	strne	ip, [r0], #512	; 0x200
     e04:	6301c200 	movwvs	ip, #4608	; 0x1200
     e08:	0a280902 	beq	a03218 <SYS_MODE+0xa031f9>
     e0c:	37230000 	strcc	r0, [r3, -r0]!
     e10:	e3000016 	movw	r0, #22
     e14:	e1000011 	tst	r0, r1, lsl r0
     e18:	00000011 	andeq	r0, r0, r1, lsl r0
     e1c:	00162526 	andseq	r2, r6, r6, lsr #10
     e20:	0015bc00 	andseq	fp, r5, r0, lsl #24
     e24:	bc0000c2 	stclt	0, cr0, [r0], {194}	; 0xc2
     e28:	c4c20015 	strbgt	r0, [r2], #21
     e2c:	01c20015 	biceq	r0, r2, r5, lsl r0
     e30:	510b0277 	tstpl	fp, r7, ror r2
     e34:	2300000a 	movwcs	r0, #10
     e38:	00001637 	andeq	r1, r0, r7, lsr r6
     e3c:	000011f8 	strdeq	r1, [r0], -r8
     e40:	000011f6 	strdeq	r1, [r0], -r6
     e44:	13fc2700 	mvnsne	r2, #0, 14
     e48:	7802c200 	stmdavc	r2, {r9, lr, pc}
     e4c:	000a7000 	andeq	r7, sl, r0
     e50:	51011600 	tstpl	r1, r0, lsl #12
     e54:	16007702 	strne	r7, [r0], -r2, lsl #14
     e58:	74025201 	strvc	r5, [r2], #-513	; 0xfffffdff
     e5c:	53011600 	movwpl	r1, #5632	; 0x1600
     e60:	00007602 	andeq	r7, r0, r2, lsl #12
     e64:	0015681f 	andseq	r6, r5, pc, lsl r8
     e68:	0015b7c2 	andseq	fp, r5, r2, asr #15
     e6c:	000a8400 	andeq	r8, sl, r0, lsl #8
     e70:	50011600 	andpl	r1, r1, r0, lsl #12
     e74:	004c9102 	subeq	r9, ip, r2, lsl #2
     e78:	0015e41f 	andseq	lr, r5, pc, lsl r4
     e7c:	0015b7c2 	andseq	fp, r5, r2, asr #15
     e80:	000a9800 	andeq	r9, sl, r0, lsl #16
     e84:	50011600 	andpl	r1, r1, r0, lsl #12
     e88:	004c9102 	subeq	r9, ip, r2, lsl #2
     e8c:	001b581f 	andseq	r5, fp, pc, lsl r8
     e90:	000dfac2 	andeq	pc, sp, r2, asr #21
     e94:	000ad400 	andeq	sp, sl, r0, lsl #8
     e98:	50011600 	andpl	r1, r1, r0, lsl #12
     e9c:	16007802 	strne	r7, [r0], -r2, lsl #16
     ea0:	77025101 	strvc	r5, [r2, -r1, lsl #2]
     ea4:	52011600 	andpl	r1, r1, #0, 12
     ea8:	16007402 	strne	r7, [r0], -r2, lsl #8
     eac:	76025301 	strvc	r5, [r2], -r1, lsl #6
     eb0:	7d021600 	stcvc	6, cr1, [r2, #-0]
     eb4:	007b0200 	rsbseq	r0, fp, r0, lsl #4
     eb8:	047d0216 	ldrbteq	r0, [sp], #-534	; 0xfffffdea
     ebc:	06409103 	strbeq	r9, [r0], -r3, lsl #2
     ec0:	087d0216 	ldmdaeq	sp!, {r1, r2, r4, r9}^
     ec4:	00007502 	andeq	r7, r0, r2, lsl #10
     ec8:	001be01f 	andseq	lr, fp, pc, lsl r0
     ecc:	000b72c2 	andeq	r7, fp, r2, asr #5
     ed0:	000b1000 	andeq	r1, fp, r0
     ed4:	50011600 	andpl	r1, r1, r0, lsl #12
     ed8:	16007802 	strne	r7, [r0], -r2, lsl #16
     edc:	77025101 	strvc	r5, [r2, -r1, lsl #2]
     ee0:	52011600 	andpl	r1, r1, #0, 12
     ee4:	16007402 	strne	r7, [r0], -r2, lsl #8
     ee8:	76025301 	strvc	r5, [r2], -r1, lsl #6
     eec:	7d021600 	stcvc	6, cr1, [r2, #-0]
     ef0:	007b0200 	rsbseq	r0, fp, r0, lsl #4
     ef4:	047d0216 	ldrbteq	r0, [sp], #-534	; 0xfffffdea
     ef8:	06409103 	strbeq	r9, [r0], -r3, lsl #2
     efc:	087d0216 	ldmdaeq	sp!, {r1, r2, r4, r9}^
     f00:	00007502 	andeq	r7, r0, r2, lsl #10
     f04:	001e8820 	andseq	r8, lr, r0, lsr #16
     f08:	000b32c2 	andeq	r3, fp, r2, asr #5
     f0c:	50011600 	andpl	r1, r1, r0, lsl #12
     f10:	16250802 	strtne	r0, [r5], -r2, lsl #16
     f14:	77025101 	strvc	r5, [r2, -r1, lsl #2]
     f18:	52011600 	andpl	r1, r1, #0, 12
     f1c:	16007402 	strne	r7, [r0], -r2, lsl #8
     f20:	76025301 	strvc	r5, [r2], -r1, lsl #6
     f24:	b0200000 	eorlt	r0, r0, r0
     f28:	4ec2001e 	mcrmi	0, 6, r0, cr2, cr14, {0}
     f2c:	1600000b 	strne	r0, [r0], -fp
     f30:	77025101 	strvc	r5, [r2, -r1, lsl #2]
     f34:	52011600 	andpl	r1, r1, #0, 12
     f38:	16007402 	strne	r7, [r0], -r2, lsl #8
     f3c:	76025301 	strvc	r5, [r2], -r1, lsl #6
     f40:	ec210000 	stc	0, cr0, [r1], #-0
     f44:	16c2001e 			; <UNDEFINED> instruction: 0x16c2001e
     f48:	30015001 	andcc	r5, r1, r1
     f4c:	02510116 	subseq	r0, r1, #-2147483643	; 0x80000005
     f50:	01160077 	tsteq	r6, r7, ror r0
     f54:	00760253 	rsbseq	r0, r6, r3, asr r2
     f58:	01020000 	mrseq	r0, (UNDEF: 2)
     f5c:	00035202 	andeq	r5, r3, r2, lsl #4
     f60:	0b660400 	bleq	1981f68 <SYS_MODE+0x1981f49>
     f64:	321a0000 	andscc	r0, sl, #0
     f68:	01000002 	tsteq	r0, r2
     f6c:	010f01ce 	smlabteq	pc, lr, r1, r0	; <UNPREDICTABLE>
     f70:	0000008c 	andeq	r0, r0, ip, lsl #1
     f74:	c2000c18 	andgt	r0, r0, #24, 24	; 0x1800
     f78:	c2000f98 	andgt	r0, r0, #152, 30	; 0x260
     f7c:	0000120b 	andeq	r1, r0, fp, lsl #4
     f80:	000df501 	andeq	pc, sp, r1, lsl #10
     f84:	756f0f00 	strbvc	r0, [pc, #-3840]!	; 8c <SYS_MODE+0x6d>
     f88:	ce010074 	mcrgt	0, 0, r0, cr1, cr4, {3}
     f8c:	00db2201 	sbcseq	r2, fp, r1, lsl #4
     f90:	125d0000 	subsne	r0, sp, #0
     f94:	12510000 	subsne	r0, r1, #0
     f98:	19170000 	ldmdbne	r7, {}	; <UNPREDICTABLE>
     f9c:	01000002 	tsteq	r0, r2
     fa0:	c32d01ce 			; <UNDEFINED> instruction: 0xc32d01ce
     fa4:	ab000002 	blge	fb4 <SYS_MODE+0xf95>
     fa8:	a7000012 	smladge	r0, r2, r0, r0
     fac:	0f000012 	svceq	0x00000012
     fb0:	00786469 	rsbseq	r6, r8, r9, ror #8
     fb4:	3c01ce01 	stccc	14, cr12, [r1], {1}
     fb8:	0000008c 	andeq	r0, r0, ip, lsl #1
     fbc:	000012e5 	andeq	r1, r0, r5, ror #5
     fc0:	000012c9 	andeq	r1, r0, r9, asr #5
     fc4:	00032f17 	andeq	r2, r3, r7, lsl pc
     fc8:	01ce0100 	biceq	r0, lr, r0, lsl #2
     fcc:	00008c48 	andeq	r8, r0, r8, asr #24
     fd0:	00139300 	andseq	r9, r3, r0, lsl #6
     fd4:	00138700 	andseq	r8, r3, r0, lsl #14
     fd8:	024f1700 	subeq	r1, pc, #0, 14
     fdc:	ce010000 	cdpgt	0, 0, cr0, cr1, cr0, {0}
     fe0:	00295701 	eoreq	r5, r9, r1, lsl #14
     fe4:	13eb0000 	mvnne	r0, #0
     fe8:	13dd0000 	bicsne	r0, sp, #0
     fec:	b6170000 	ldrlt	r0, [r7], -r0
     ff0:	01000003 	tsteq	r0, r3
     ff4:	376b01ce 	strbcc	r0, [fp, -lr, asr #3]!
     ff8:	7f000000 	svcvc	0x00000000
     ffc:	6f000014 	svcvs	0x00000014
    1000:	10000014 	andne	r0, r0, r4, lsl r0
    1004:	000003bc 			; <UNDEFINED> instruction: 0x000003bc
    1008:	7e01ce01 	cdpvc	14, 0, cr12, cr1, cr1, {0}
    100c:	00000037 	andeq	r0, r0, r7, lsr r0
    1010:	17049102 	strne	r9, [r4, -r2, lsl #2]
    1014:	0000031e 	andeq	r0, r0, lr, lsl r3
    1018:	9201ce01 	andls	ip, r1, #1, 28
    101c:	00000037 	andeq	r0, r0, r7, lsr r0
    1020:	000014f0 	strdeq	r1, [r0], -r0
    1024:	000014e4 	andeq	r1, r0, r4, ror #9
    1028:	00027c1c 	andeq	r7, r2, ip, lsl ip
    102c:	01d60100 	bicseq	r0, r6, r0, lsl #2
    1030:	000b6d0e 	andeq	r6, fp, lr, lsl #26
    1034:	00154700 	andseq	r4, r5, r0, lsl #14
    1038:	00153d00 	andseq	r3, r5, r0, lsl #26
    103c:	01082800 	tsteq	r8, r0, lsl #16
    1040:	6a0301e2 	bvs	c17d0 <SYS_MODE+0xc17b1>
    1044:	2900000c 	stmdbcs	r0, {r2, r3}
    1048:	e3010055 	movw	r0, #4181	; 0x1055
    104c:	00790e01 	rsbseq	r0, r9, r1, lsl #28
    1050:	46290000 	strtmi	r0, [r9], -r0
    1054:	01e40100 	mvneq	r0, r0, lsl #2
    1058:	0000290e 	andeq	r2, r0, lr, lsl #18
    105c:	6b2a0000 	blvs	a81064 <SYS_MODE+0xa81045>
    1060:	01000003 	tsteq	r0, r3
    1064:	490501e5 	stmdbmi	r5, {r0, r2, r5, r6, r7, r8}
    1068:	1c00000c 	stcne	0, cr0, [r0], {12}
    106c:	000001fd 	strdeq	r0, [r0], -sp
    1070:	0701e801 	streq	lr, [r1, -r1, lsl #16]
    1074:	00000030 	andeq	r0, r0, r0, lsr r0
    1078:	000015e5 	andeq	r1, r0, r5, ror #11
    107c:	000015d5 	ldrdeq	r1, [r0], -r5
    1080:	0002ff1c 	andeq	pc, r2, ip, lsl pc	; <UNPREDICTABLE>
    1084:	01eb0100 	mvneq	r0, r0, lsl #2
    1088:	00003007 	andeq	r3, r0, r7
    108c:	00178000 	andseq	r8, r7, r0
    1090:	00177600 	andseq	r7, r7, r0, lsl #12
    1094:	007a1400 	rsbseq	r1, sl, r0, lsl #8
    1098:	1001ee01 	andne	lr, r1, r1, lsl #28
    109c:	00000df5 	strdeq	r0, [r0], -r5
    10a0:	000017cc 	andeq	r1, r0, ip, asr #15
    10a4:	000017c0 	andeq	r1, r0, r0, asr #15
    10a8:	00327a14 	eorseq	r7, r2, r4, lsl sl
    10ac:	1001ef01 	andne	lr, r1, r1, lsl #30
    10b0:	00000df5 	strdeq	r0, [r0], -r5
    10b4:	00001a76 	andeq	r1, r0, r6, ror sl
    10b8:	00001a70 	andeq	r1, r0, r0, ror sl
    10bc:	0002291c 	andeq	r2, r2, ip, lsl r9
    10c0:	01fa0100 	mvnseq	r0, r0, lsl #2
    10c4:	00003710 	andeq	r3, r0, r0, lsl r7
    10c8:	001ac200 	andseq	ip, sl, r0, lsl #4
    10cc:	001ab400 	andseq	fp, sl, r0, lsl #8
    10d0:	03bb1c00 			; <UNDEFINED> instruction: 0x03bb1c00
    10d4:	14010000 	strne	r0, [r1], #-0
    10d8:	00371002 	eorseq	r1, r7, r2
    10dc:	1b280000 	blne	a010e4 <SYS_MODE+0xa010c5>
    10e0:	1b1c0000 	blne	7010e8 <SYS_MODE+0x7010c9>
    10e4:	681c0000 	ldmdavs	ip, {}	; <UNPREDICTABLE>
    10e8:	01000002 	tsteq	r0, r2
    10ec:	98100227 	ldmdals	r0, {r0, r1, r2, r5, r9}
    10f0:	76000000 	strvc	r0, [r0], -r0
    10f4:	7400001b 	strvc	r0, [r0], #-27	; 0xffffffe5
    10f8:	1f00001b 	svcne	0x0000001b
    10fc:	c2000dd8 	andgt	r0, r0, #216, 26	; 0x3600
    1100:	00000dfa 	strdeq	r0, [r0], -sl
    1104:	00000d43 	andeq	r0, r0, r3, asr #26
    1108:	02500116 	subseq	r0, r0, #-2147483643	; 0x80000005
    110c:	01160074 	tsteq	r6, r4, ror r0
    1110:	00750251 	rsbseq	r0, r5, r1, asr r2
    1114:	02520116 	subseq	r0, r2, #-2147483643	; 0x80000005
    1118:	01160077 	tsteq	r6, r7, ror r0
    111c:	00760253 	rsbseq	r0, r6, r3, asr r2
    1120:	007d0216 	rsbseq	r0, sp, r6, lsl r2
    1124:	06789103 	ldrbteq	r9, [r8], -r3, lsl #2
    1128:	047d0216 	ldrbteq	r0, [sp], #-534	; 0xfffffdea
    112c:	16007a02 	strne	r7, [r0], -r2, lsl #20
    1130:	02087d02 	andeq	r7, r8, #2, 26	; 0x80
    1134:	1f000079 	svcne	0x00000079
    1138:	c2000e78 	andgt	r0, r0, #120, 28	; 0x780
    113c:	00000dfa 	strdeq	r0, [r0], -sl
    1140:	00000d74 	andeq	r0, r0, r4, ror sp
    1144:	02500116 	subseq	r0, r0, #-2147483643	; 0x80000005
    1148:	01160074 	tsteq	r6, r4, ror r0
    114c:	00750251 	rsbseq	r0, r5, r1, asr r2
    1150:	02520116 	subseq	r0, r2, #-2147483643	; 0x80000005
    1154:	01160077 	tsteq	r6, r7, ror r0
    1158:	00760253 	rsbseq	r0, r6, r3, asr r2
    115c:	087d0216 	ldmdaeq	sp!, {r1, r2, r4, r9}^
    1160:	0b007906 	bleq	1f580 <SYS_MODE+0x1f561>
    1164:	001af7ff 			; <UNDEFINED> instruction: 0x001af7ff
    1168:	000ea420 	andeq	sl, lr, r0, lsr #8
    116c:	000d90c2 	andeq	r9, sp, r2, asr #1
    1170:	51011600 	tstpl	r1, r0, lsl #12
    1174:	16007502 	strne	r7, [r0], -r2, lsl #10
    1178:	79025201 	stmdbvc	r2, {r0, r9, ip, lr}
    117c:	5301167f 	movwpl	r1, #5759	; 0x167f
    1180:	00007602 	andeq	r7, r0, r2, lsl #12
    1184:	000eec1f 	andeq	lr, lr, pc, lsl ip
    1188:	0011eec2 	andseq	lr, r1, r2, asr #29
    118c:	000dd600 	andeq	sp, sp, r0, lsl #12
    1190:	50011600 	andpl	r1, r1, r0, lsl #12
    1194:	16007402 	strne	r7, [r0], -r2, lsl #8
    1198:	75025101 	strvc	r5, [r2, #-257]	; 0xfffffeff
    119c:	52011600 	andpl	r1, r1, #0, 12
    11a0:	16007902 	strne	r7, [r0], -r2, lsl #18
    11a4:	76025301 	strvc	r5, [r2], -r1, lsl #6
    11a8:	7d021600 	stcvc	6, cr1, [r2, #-0]
    11ac:	00780204 	rsbseq	r0, r8, r4, lsl #4
    11b0:	087d0216 	ldmdaeq	sp!, {r1, r2, r4, r9}^
    11b4:	02163a01 	andseq	r3, r6, #4096	; 0x1000
    11b8:	30010c7d 	andcc	r0, r1, sp, ror ip
    11bc:	107d0216 	rsbsne	r0, sp, r6, lsl r2
    11c0:	16007b02 	strne	r7, [r0], -r2, lsl #22
    11c4:	01147d02 	tsteq	r4, r2, lsl #26
    11c8:	24210035 	strtcs	r0, [r1], #-53	; 0xffffffcb
    11cc:	16c2000f 	strbne	r0, [r2], pc
    11d0:	08025001 	stmdaeq	r2, {r0, ip, lr}
    11d4:	51011620 	tstpl	r1, r0, lsr #12
    11d8:	16007502 	strne	r7, [r0], -r2, lsl #10
    11dc:	78025201 	stmdavc	r2, {r0, r9, ip, lr}
    11e0:	5301167f 	movwpl	r1, #5759	; 0x167f
    11e4:	00007602 	andeq	r7, r0, r2, lsl #12
    11e8:	00290400 	eoreq	r0, r9, r0, lsl #8
    11ec:	e41a0000 	ldr	r0, [sl], #-0
    11f0:	01000002 	tsteq	r0, r2
    11f4:	010f014e 	tsteq	pc, lr, asr #2
    11f8:	0000008c 	andeq	r0, r0, ip, lsl #1
    11fc:	c2000f98 	andgt	r0, r0, #152, 30	; 0x260
    1200:	c20013b0 	andgt	r1, r0, #176, 6	; 0xc0000002
    1204:	00001b89 	andeq	r1, r0, r9, lsl #23
    1208:	00103601 	andseq	r3, r0, r1, lsl #12
    120c:	756f0f00 	strbvc	r0, [pc, #-3840]!	; 314 <SYS_MODE+0x2f5>
    1210:	4e010074 	mcrmi	0, 0, r0, cr1, cr4, {3}
    1214:	00db2201 	sbcseq	r2, fp, r1, lsl #4
    1218:	1be50000 	blne	ff941220 <_stack_end+0x3d93a220>
    121c:	1bcf0000 	blne	ff3c1224 <_stack_end+0x3d3ba224>
    1220:	19170000 	ldmdbne	r7, {}	; <UNPREDICTABLE>
    1224:	01000002 	tsteq	r0, r2
    1228:	c32d014e 			; <UNDEFINED> instruction: 0xc32d014e
    122c:	8b000002 	blhi	123c <SYS_MODE+0x121d>
    1230:	7500001c 	strvc	r0, [r0, #-28]	; 0xffffffe4
    1234:	0f00001c 	svceq	0x0000001c
    1238:	00786469 	rsbseq	r6, r8, r9, ror #8
    123c:	3c014e01 	stccc	14, cr4, [r1], {1}
    1240:	0000008c 	andeq	r0, r0, ip, lsl #1
    1244:	00001d31 	andeq	r1, r0, r1, lsr sp
    1248:	00001d1b 	andeq	r1, r0, fp, lsl sp
    124c:	00032f17 	andeq	r2, r3, r7, lsl pc
    1250:	014e0100 	mrseq	r0, (UNDEF: 94)
    1254:	00008c48 	andeq	r8, r0, r8, asr #24
    1258:	001dd700 	andseq	sp, sp, r0, lsl #14
    125c:	001dc100 	andseq	ip, sp, r0, lsl #2
    1260:	024f1700 	subeq	r1, pc, #0, 14
    1264:	4e010000 	cdpmi	0, 0, cr0, cr1, cr0, {0}
    1268:	00295701 	eoreq	r5, r9, r1, lsl #14
    126c:	1e7d0000 	cdpne	0, 7, cr0, cr13, cr0, {0}
    1270:	1e670000 	cdpne	0, 6, cr0, cr7, cr0, {0}
    1274:	b6170000 	ldrlt	r0, [r7], -r0
    1278:	01000003 	tsteq	r0, r3
    127c:	376b014e 	strbcc	r0, [fp, -lr, asr #2]!
    1280:	4d000000 	stcmi	0, cr0, [r0, #-0]
    1284:	4300001f 	movwmi	r0, #31
    1288:	1700001f 	smladne	r0, pc, r0, r0	; <UNPREDICTABLE>
    128c:	000003bc 			; <UNDEFINED> instruction: 0x000003bc
    1290:	7e014e01 	cdpvc	14, 0, cr4, cr1, cr1, {0}
    1294:	00000037 	andeq	r0, r0, r7, lsr r0
    1298:	00001f97 	muleq	r0, r7, pc	; <UNPREDICTABLE>
    129c:	00001f8f 	andeq	r1, r0, pc, lsl #31
    12a0:	00031e10 	andeq	r1, r3, r0, lsl lr
    12a4:	014e0100 	mrseq	r0, (UNDEF: 94)
    12a8:	00003792 	muleq	r0, r2, r7
    12ac:	08910200 	ldmeq	r1, {r9}
    12b0:	66756212 			; <UNDEFINED> instruction: 0x66756212
    12b4:	01500100 	cmpeq	r0, r0, lsl #2
    12b8:	00103608 	andseq	r3, r0, r8, lsl #12
    12bc:	b8910300 	ldmlt	r1, {r8, r9}
    12c0:	656c147f 	strbvs	r1, [ip, #-1151]!	; 0xfffffb81
    12c4:	5101006e 	tstpl	r1, lr, rrx
    12c8:	008c0a01 	addeq	r0, ip, r1, lsl #20
    12cc:	1ffb0000 	svcne	0x00fb0000
    12d0:	1fcd0000 	svcne	0x00cd0000
    12d4:	0f1c0000 	svceq	0x001c0000
    12d8:	01000002 	tsteq	r0, r2
    12dc:	290a0152 	stmdbcs	sl, {r1, r4, r6, r8}
    12e0:	20000000 	andcs	r0, r0, r0
    12e4:	10000021 	andne	r0, r0, r1, lsr #32
    12e8:	13000021 	movwne	r0, #33	; 0x21
    12ec:	000001f7 	strdeq	r0, [r0], -r7
    12f0:	17015501 	strne	r5, [r1, -r1, lsl #10]
    12f4:	00001056 	andeq	r1, r0, r6, asr r0
    12f8:	2a180305 	bcs	601f14 <SYS_MODE+0x601ef5>
    12fc:	7c1cc200 	lfmvc	f4, 1, [ip], {-0}
    1300:	01000002 	tsteq	r0, r2
    1304:	6608016a 	strvs	r0, [r8], -sl, ror #2
    1308:	fc00000b 	stc2	0, cr0, [r0], {11}
    130c:	f0000021 			; <UNDEFINED> instruction: 0xf0000021
    1310:	1c000021 	stcne	0, cr0, [r0], {33}	; 0x21
    1314:	00000347 	andeq	r0, r0, r7, asr #6
    1318:	07017a01 	streq	r7, [r1, -r1, lsl #20]
    131c:	00000030 	andeq	r0, r0, r0, lsr r0
    1320:	00002251 	andeq	r2, r0, r1, asr r2
    1324:	00002249 	andeq	r2, r0, r9, asr #4
    1328:	706d7414 	rsbvc	r7, sp, r4, lsl r4
    132c:	017b0100 	cmneq	fp, r0, lsl #2
    1330:	0000290a 	andeq	r2, r0, sl, lsl #18
    1334:	00229600 	eoreq	r9, r2, r0, lsl #12
    1338:	00228a00 	eoreq	r8, r2, r0, lsl #20
    133c:	024a1c00 	subeq	r1, sl, #0, 24
    1340:	7c010000 	stcvc	0, cr0, [r1], {-0}
    1344:	00721101 	rsbseq	r1, r2, r1, lsl #2
    1348:	23460000 	movtcs	r0, #24576	; 0x6000
    134c:	23360000 	teqcs	r6, #0
    1350:	a01e0000 	andsge	r0, lr, r0
    1354:	7d000000 	stcvc	0, cr0, [r0, #-0]
    1358:	1c00000f 	stcne	0, cr0, [r0], {15}
    135c:	00000016 	andeq	r0, r0, r6, lsl r0
    1360:	12019701 	andne	r9, r1, #262144	; 0x40000
    1364:	00000037 	andeq	r0, r0, r7, lsr r0
    1368:	000023b5 			; <UNDEFINED> instruction: 0x000023b5
    136c:	000023ab 	andeq	r2, r0, fp, lsr #7
    1370:	10381f00 	eorsne	r1, r8, r0, lsl #30
    1374:	147fc200 	ldrbtne	ip, [pc], #-512	; 137c <SYS_MODE+0x135d>
    1378:	0fa90000 	svceq	0x00a90000
    137c:	02160000 	andseq	r0, r6, #0
    1380:	0305007d 	movweq	r0, #20605	; 0x507d
    1384:	c2002a0c 	andgt	r2, r0, #12, 20	; 0xc000
    1388:	047d0216 	ldrbteq	r0, [sp], #-534	; 0xfffffdea
    138c:	02163301 	andseq	r3, r6, #67108864	; 0x4000000
    1390:	7602087d 			; <UNDEFINED> instruction: 0x7602087d
    1394:	7d021600 	stcvc	6, cr1, [r2, #-0]
    1398:	0075020c 	rsbseq	r0, r5, ip, lsl #4
    139c:	105c1f00 	subsne	r1, ip, r0, lsl #30
    13a0:	147fc200 	ldrbtne	ip, [pc], #-512	; 13a8 <SYS_MODE+0x1389>
    13a4:	0fd50000 	svceq	0x00d50000
    13a8:	02160000 	andseq	r0, r6, #0
    13ac:	0305007d 	movweq	r0, #20605	; 0x507d
    13b0:	c2002a10 	andgt	r2, r0, #16, 20	; 0x10000
    13b4:	047d0216 	ldrbteq	r0, [sp], #-534	; 0xfffffdea
    13b8:	02163401 	andseq	r3, r6, #16777216	; 0x1000000
    13bc:	7602087d 			; <UNDEFINED> instruction: 0x7602087d
    13c0:	7d021600 	stcvc	6, cr1, [r2, #-0]
    13c4:	0075020c 	rsbseq	r0, r5, ip, lsl #4
    13c8:	10901f00 	addsne	r1, r0, r0, lsl #30
    13cc:	147fc200 	ldrbtne	ip, [pc], #-512	; 13d4 <SYS_MODE+0x13b5>
    13d0:	0ff10000 	svceq	0x00f10000
    13d4:	02160000 	andseq	r0, r6, #0
    13d8:	7602087d 			; <UNDEFINED> instruction: 0x7602087d
    13dc:	7d021600 	stcvc	6, cr1, [r2, #-0]
    13e0:	0075020c 	rsbseq	r0, r5, ip, lsl #4
    13e4:	10b81f00 	adcsne	r1, r8, r0, lsl #30
    13e8:	0b72c200 	bleq	1cb1bf0 <SYS_MODE+0x1cb1bd1>
    13ec:	10150000 	andsne	r0, r5, r0
    13f0:	02160000 	andseq	r0, r6, #0
    13f4:	9103007d 	tstls	r3, sp, ror r0
    13f8:	02160678 	andseq	r0, r6, #120, 12	; 0x7800000
    13fc:	7602047d 			; <UNDEFINED> instruction: 0x7602047d
    1400:	7d021600 	stcvc	6, cr1, [r2, #-0]
    1404:	00750208 	rsbseq	r0, r5, r8, lsl #4
    1408:	12fc1500 	rscsne	r1, ip, #0, 10
    140c:	147fc200 	ldrbtne	ip, [pc], #-512	; 1414 <SYS_MODE+0x13f5>
    1410:	02160000 	andseq	r0, r6, #0
    1414:	9103007d 	tstls	r3, sp, ror r0
    1418:	02167fb0 	andseq	r7, r6, #176, 30	; 0x2c0
    141c:	7602087d 			; <UNDEFINED> instruction: 0x7602087d
    1420:	7d021600 	stcvc	6, cr1, [r2, #-0]
    1424:	0075020c 	rsbseq	r0, r5, ip, lsl #4
    1428:	08180000 	ldmdaeq	r8, {}	; <UNPREDICTABLE>
    142c:	46000001 	strmi	r0, [r0], -r1
    1430:	19000010 	stmdbne	r0, {r4}
    1434:	00000037 	andeq	r0, r0, r7, lsr r0
    1438:	f518001f 			; <UNDEFINED> instruction: 0xf518001f
    143c:	5600000d 	strpl	r0, [r0], -sp
    1440:	19000010 	stmdbne	r0, {r4}
    1444:	00000037 	andeq	r0, r0, r7, lsr r0
    1448:	46040009 	strmi	r0, [r4], -r9
    144c:	1a000010 	bne	1494 <SYS_MODE+0x1475>
    1450:	000003c2 	andeq	r0, r0, r2, asr #7
    1454:	0f012d01 	svceq	0x00012d01
    1458:	00008c01 	andeq	r8, r0, r1, lsl #24
    145c:	000adc00 	andeq	sp, sl, r0, lsl #24
    1460:	000c18c2 	andeq	r1, ip, r2, asr #17
    1464:	0023f4c2 	eoreq	pc, r3, r2, asr #9
    1468:	11ee0100 	mvnne	r0, r0, lsl #2
    146c:	6f0f0000 	svcvs	0x000f0000
    1470:	01007475 	tsteq	r0, r5, ror r4
    1474:	db2c012d 	blle	b01930 <SYS_MODE+0xb01911>
    1478:	35000000 	strcc	r0, [r0, #-0]
    147c:	2d000024 	stccs	0, cr0, [r0, #-144]	; 0xffffff70
    1480:	17000024 	strne	r0, [r0, -r4, lsr #32]
    1484:	00000219 	andeq	r0, r0, r9, lsl r2
    1488:	37012d01 	strcc	r2, [r1, -r1, lsl #26]
    148c:	000002c3 	andeq	r0, r0, r3, asr #5
    1490:	00002475 	andeq	r2, r0, r5, ror r4
    1494:	0000246d 	andeq	r2, r0, sp, ror #8
    1498:	7864690f 	stmdavc	r4!, {r0, r1, r2, r3, r8, fp, sp, lr}^
    149c:	012d0100 			; <UNDEFINED> instruction: 0x012d0100
    14a0:	00008c46 	andeq	r8, r0, r6, asr #24
    14a4:	0024b500 	eoreq	fp, r4, r0, lsl #10
    14a8:	0024ad00 	eoreq	sl, r4, r0, lsl #26
    14ac:	032f1700 			; <UNDEFINED> instruction: 0x032f1700
    14b0:	2d010000 	stccs	0, cr0, [r1, #-0]
    14b4:	008c5201 	addeq	r5, ip, r1, lsl #4
    14b8:	24f10000 	ldrbtcs	r0, [r1], #0
    14bc:	24ed0000 	strbtcs	r0, [sp], #0
    14c0:	4f170000 	svcmi	0x00170000
    14c4:	01000002 	tsteq	r0, r2
    14c8:	856d012d 	strbhi	r0, [sp, #-301]!	; 0xfffffed3
    14cc:	19000000 	stmdbne	r0, {}	; <UNPREDICTABLE>
    14d0:	0f000025 	svceq	0x00000025
    14d4:	10000025 	andne	r0, r0, r5, lsr #32
    14d8:	0000027c 	andeq	r0, r0, ip, ror r2
    14dc:	79012d01 	stmdbvc	r1, {r0, r8, sl, fp, sp}
    14e0:	00000b66 	andeq	r0, r0, r6, ror #22
    14e4:	10089102 	andne	r9, r8, r2, lsl #2
    14e8:	00000f9f 	muleq	r0, pc, pc	; <UNPREDICTABLE>
    14ec:	96012d01 	strls	r2, [r1], -r1, lsl #26
    14f0:	00000085 	andeq	r0, r0, r5, lsl #1
    14f4:	10109102 	andsne	r9, r0, r2, lsl #2
    14f8:	000003b6 			; <UNDEFINED> instruction: 0x000003b6
    14fc:	a9012d01 	stmdbge	r1, {r0, r8, sl, fp, sp}
    1500:	00000037 	andeq	r0, r0, r7, lsr r0
    1504:	10189102 	andsne	r9, r8, r2, lsl #2
    1508:	000003bc 			; <UNDEFINED> instruction: 0x000003bc
    150c:	bc012d01 	stclt	13, cr2, [r1], {1}
    1510:	00000037 	andeq	r0, r0, r7, lsr r0
    1514:	171c9102 	ldrne	r9, [ip, -r2, lsl #2]
    1518:	0000031e 	andeq	r0, r0, lr, lsl r3
    151c:	d0012d01 	andle	r2, r1, r1, lsl #26
    1520:	00000037 	andeq	r0, r0, r7, lsr r0
    1524:	0000256d 	andeq	r2, r0, sp, ror #10
    1528:	00002569 	andeq	r2, r0, r9, ror #10
    152c:	66756212 			; <UNDEFINED> instruction: 0x66756212
    1530:	012f0100 			; <UNDEFINED> instruction: 0x012f0100
    1534:	00103608 	andseq	r3, r0, r8, lsl #12
    1538:	b8910300 	ldmlt	r1, {r8, r9}
    153c:	656c147f 	strbvs	r1, [ip, #-1151]!	; 0xfffffb81
    1540:	3001006e 	andcc	r0, r1, lr, rrx
    1544:	008c0a01 	addeq	r0, ip, r1, lsl #20
    1548:	25980000 	ldrcs	r0, [r8]
    154c:	258c0000 	strcs	r0, [ip]
    1550:	801e0000 	andshi	r0, lr, r0
    1554:	8f000000 	svchi	0x00000000
    1558:	1c000011 	stcne	0, cr0, [r0], {17}
    155c:	00000365 	andeq	r0, r0, r5, ror #6
    1560:	12013a01 	andne	r3, r1, #4096	; 0x1000
    1564:	0000010f 	andeq	r0, r0, pc, lsl #2
    1568:	000025e8 	andeq	r2, r0, r8, ror #11
    156c:	000025e4 	andeq	r2, r0, r4, ror #11
    1570:	000b542b 	andeq	r5, fp, fp, lsr #8
    1574:	0017fbc2 	andseq	pc, r7, r2, asr #23
    1578:	0b982b00 	bleq	fe60c180 <_stack_end+0x3c605180>
    157c:	17fbc200 	ldrbne	ip, [fp, r0, lsl #4]!
    1580:	15000000 	strne	r0, [r0, #-0]
    1584:	c2000c10 	andgt	r0, r0, #16, 24	; 0x1000
    1588:	0000137d 	andeq	r1, r0, sp, ror r3
    158c:	04500116 	ldrbeq	r0, [r0], #-278	; 0xfffffeea
    1590:	067fa491 			; <UNDEFINED> instruction: 0x067fa491
    1594:	04510116 	ldrbeq	r0, [r1], #-278	; 0xfffffeea
    1598:	067fa891 			; <UNDEFINED> instruction: 0x067fa891
    159c:	04520116 	ldrbeq	r0, [r2], #-278	; 0xfffffeea
    15a0:	067fac91 			; <UNDEFINED> instruction: 0x067fac91
    15a4:	02530116 	subseq	r0, r3, #-2147483643	; 0x80000005
    15a8:	0216007b 	andseq	r0, r6, #123	; 0x7b
    15ac:	9103007d 	tstls	r3, sp, ror r0
    15b0:	02167fb0 	andseq	r7, r6, #176, 30	; 0x2c0
    15b4:	7902047d 	stmdbvc	r2, {r0, r2, r3, r4, r5, r6, sl}
    15b8:	7d021600 	stcvc	6, cr1, [r2, #-0]
    15bc:	00910408 	addseq	r0, r1, r8, lsl #8
    15c0:	02160194 	andseq	r0, r6, #148, 2	; 0x25
    15c4:	77020c7d 	smlsdxvc	r2, sp, ip, r0
    15c8:	7d021600 	stcvc	6, cr1, [r2, #-0]
    15cc:	10910310 	addsne	r0, r1, r0, lsl r3
    15d0:	7d021606 	stcvc	6, cr1, [r2, #-24]	; 0xffffffe8
    15d4:	14910314 	ldrne	r0, [r1], #788	; 0x314
    15d8:	7d021606 	stcvc	6, cr1, [r2, #-24]	; 0xffffffe8
    15dc:	007a0218 	rsbseq	r0, sl, r8, lsl r2
    15e0:	131a0000 	tstne	sl, #0
    15e4:	01000003 	tsteq	r0, r3
    15e8:	010f0114 	tsteq	pc, r4, lsl r1	; <UNPREDICTABLE>
    15ec:	0000008c 	andeq	r0, r0, ip, lsl #1
    15f0:	c20009c4 	andgt	r0, r0, #196, 18	; 0x310000
    15f4:	c2000adc 	andgt	r0, r0, #220, 20	; 0xdc000
    15f8:	00002606 	andeq	r2, r0, r6, lsl #12
    15fc:	00137d01 	andseq	r7, r3, r1, lsl #26
    1600:	756f0f00 	strbvc	r0, [pc, #-3840]!	; 708 <SYS_MODE+0x6e9>
    1604:	14010074 	strne	r0, [r1], #-116	; 0xffffff8c
    1608:	00db2701 	sbcseq	r2, fp, r1, lsl #14
    160c:	26470000 	strbcs	r0, [r7], -r0
    1610:	263f0000 	ldrtcs	r0, [pc], -r0
    1614:	19170000 	ldmdbne	r7, {}	; <UNPREDICTABLE>
    1618:	01000002 	tsteq	r0, r2
    161c:	c3320114 	teqgt	r2, #20, 2
    1620:	83000002 	movwhi	r0, #2
    1624:	7b000026 	blvc	16c4 <SYS_MODE+0x16a5>
    1628:	0f000026 	svceq	0x00000026
    162c:	00786469 	rsbseq	r6, r8, r9, ror #8
    1630:	41011401 	tstmi	r1, r1, lsl #8
    1634:	0000008c 	andeq	r0, r0, ip, lsl #1
    1638:	000026bf 			; <UNDEFINED> instruction: 0x000026bf
    163c:	000026b7 			; <UNDEFINED> instruction: 0x000026b7
    1640:	00032f17 	andeq	r2, r3, r7, lsl pc
    1644:	01140100 	tsteq	r4, r0, lsl #2
    1648:	00008c4d 	andeq	r8, r0, sp, asr #24
    164c:	0026ff00 	eoreq	pc, r6, r0, lsl #30
    1650:	0026f700 	eoreq	pc, r6, r0, lsl #14
    1654:	024f1700 	subeq	r1, pc, #0, 14
    1658:	14010000 	strne	r0, [r1], #-0
    165c:	00726301 	rsbseq	r6, r2, r1, lsl #6
    1660:	273d0000 	ldrcs	r0, [sp, -r0]!
    1664:	27330000 	ldrcs	r0, [r3, -r0]!
    1668:	7c100000 	ldcvc	0, cr0, [r0], {-0}
    166c:	01000002 	tsteq	r0, r2
    1670:	666f0114 			; <UNDEFINED> instruction: 0x666f0114
    1674:	0200000b 	andeq	r0, r0, #11
    1678:	9f100491 	svcls	0x00100491
    167c:	0100000f 	tsteq	r0, pc
    1680:	72870114 	addvc	r0, r7, #20, 2
    1684:	02000000 	andeq	r0, r0, #0
    1688:	b6100891 			; <UNDEFINED> instruction: 0xb6100891
    168c:	01000003 	tsteq	r0, r3
    1690:	379a0114 			; <UNDEFINED> instruction: 0x379a0114
    1694:	02000000 	andeq	r0, r0, #0
    1698:	bc100c91 	ldclt	12, cr0, [r0], {145}	; 0x91
    169c:	01000003 	tsteq	r0, r3
    16a0:	37ad0114 			; <UNDEFINED> instruction: 0x37ad0114
    16a4:	02000000 	andeq	r0, r0, #0
    16a8:	1e171091 	mrcne	0, 0, r1, cr7, cr1, {4}
    16ac:	01000003 	tsteq	r0, r3
    16b0:	37c10114 	bficc	r0, r4, (invalid: 2:1)
    16b4:	82000000 	andhi	r0, r0, #0
    16b8:	7e000027 	cdpvc	0, 0, cr0, cr0, cr7, {1}
    16bc:	12000027 	andne	r0, r0, #39	; 0x27
    16c0:	00667562 	rsbeq	r7, r6, r2, ror #10
    16c4:	08011601 	stmdaeq	r1, {r0, r9, sl, ip}
    16c8:	00001036 	andeq	r1, r0, r6, lsr r0
    16cc:	7fb89103 	svcvc	0x00b89103
    16d0:	6e656c14 	mcrvs	12, 3, r6, cr5, cr4, {0}
    16d4:	01170100 	tsteq	r7, r0, lsl #2
    16d8:	00008c0a 	andeq	r8, r0, sl, lsl #24
    16dc:	0027ad00 	eoreq	sl, r7, r0, lsl #26
    16e0:	0027a100 	eoreq	sl, r7, r0, lsl #2
    16e4:	00601e00 	rsbeq	r1, r0, r0, lsl #28
    16e8:	13220000 			; <UNDEFINED> instruction: 0x13220000
    16ec:	651c0000 	ldrvs	r0, [ip, #-0]
    16f0:	01000003 	tsteq	r0, r3
    16f4:	0f120121 	svceq	0x00120121
    16f8:	fd000001 	stc2	0, cr0, [r0, #-4]
    16fc:	f9000027 			; <UNDEFINED> instruction: 0xf9000027
    1700:	2b000027 	blcs	17a4 <SYS_MODE+0x1785>
    1704:	c2000a2c 	andgt	r0, r0, #44, 20	; 0x2c000
    1708:	00001806 	andeq	r1, r0, r6, lsl #16
    170c:	000a5c2b 	andeq	r5, sl, fp, lsr #24
    1710:	001811c2 	andseq	r1, r8, r2, asr #3
    1714:	d4150000 	ldrle	r0, [r5], #-0
    1718:	7dc2000a 	stclvc	0, cr0, [r2, #40]	; 0x28
    171c:	16000013 			; <UNDEFINED> instruction: 0x16000013
    1720:	79025001 	stmdbvc	r2, {r0, ip, lr}
    1724:	51011600 	tstpl	r1, r0, lsl #12
    1728:	16007a02 	strne	r7, [r0], -r2, lsl #20
    172c:	91045201 	tstls	r4, r1, lsl #4
    1730:	16067fac 	strne	r7, [r6], -ip, lsr #31
    1734:	7b025301 	blvc	96340 <SYS_MODE+0x96321>
    1738:	7d021600 	stcvc	6, cr1, [r2, #-0]
    173c:	b0910300 	addslt	r0, r1, r0, lsl #6
    1740:	7d02167f 	stcvc	6, cr1, [r2, #-508]	; 0xfffffe04
    1744:	00770204 	rsbseq	r0, r7, r4, lsl #4
    1748:	087d0216 	ldmdaeq	sp!, {r1, r2, r4, r9}^
    174c:	947c9104 	ldrbtls	r9, [ip], #-260	; 0xfffffefc
    1750:	7d021601 	stcvc	6, cr1, [r2, #-4]
    1754:	0076020c 	rsbseq	r0, r6, ip, lsl #4
    1758:	107d0216 	rsbsne	r0, sp, r6, lsl r2
    175c:	06049103 	streq	r9, [r4], -r3, lsl #2
    1760:	147d0216 	ldrbtne	r0, [sp], #-534	; 0xfffffdea
    1764:	06089103 	streq	r9, [r8], -r3, lsl #2
    1768:	187d0216 	ldmdane	sp!, {r1, r2, r4, r9}^
    176c:	00007802 	andeq	r7, r0, r2, lsl #16
    1770:	02d72c00 	sbcseq	r2, r7, #0, 24
    1774:	de010000 	cdple	0, 0, cr0, cr1, cr0, {0}
    1778:	008c010f 	addeq	r0, ip, pc, lsl #2
    177c:	08100000 	ldmdaeq	r0, {}	; <UNPREDICTABLE>
    1780:	09c4c200 	stmibeq	r4, {r9, lr, pc}^
    1784:	281bc200 	ldmdacs	fp, {r9, lr, pc}
    1788:	7f010000 	svcvc	0x00010000
    178c:	2d000014 	stccs	0, cr0, [r0, #-80]	; 0xffffffb0
    1790:	0074756f 	rsbseq	r7, r4, pc, ror #10
    1794:	db29de01 	blle	a78fa0 <SYS_MODE+0xa78f81>
    1798:	65000000 	strvs	r0, [r0, #-0]
    179c:	5f000028 	svcpl	0x00000028
    17a0:	2e000028 	cdpcs	0, 0, cr0, cr0, cr8, {1}
    17a4:	00000219 	andeq	r0, r0, r9, lsl r2
    17a8:	c334de01 	teqgt	r4, #1, 28
    17ac:	97000002 	strls	r0, [r0, -r2]
    17b0:	91000028 	tstls	r0, r8, lsr #32
    17b4:	2d000028 	stccs	0, cr0, [r0, #-160]	; 0xffffff60
    17b8:	00786469 	rsbseq	r6, r8, r9, ror #8
    17bc:	8c43de01 	mcrrhi	14, 0, sp, r3, cr1
    17c0:	c9000000 	stmdbgt	r0, {}	; <UNPREDICTABLE>
    17c4:	c3000028 	movwgt	r0, #40	; 0x28
    17c8:	2e000028 	cdpcs	0, 0, cr0, cr0, cr8, {1}
    17cc:	0000032f 	andeq	r0, r0, pc, lsr #6
    17d0:	8c4fde01 	mcrrhi	14, 0, sp, pc, cr1
    17d4:	fb000000 	blx	17de <SYS_MODE+0x17bf>
    17d8:	f5000028 			; <UNDEFINED> instruction: 0xf5000028
    17dc:	2f000028 	svccs	0x00000028
    17e0:	00667562 	rsbeq	r7, r6, r2, ror #10
    17e4:	c35dde01 	cmpgt	sp, #1, 28
    17e8:	02000002 	andeq	r0, r0, #2
    17ec:	6c2d0091 	stcvs	0, cr0, [sp], #-580	; 0xfffffdbc
    17f0:	01006e65 	tsteq	r0, r5, ror #28
    17f4:	008c69de 	ldrdeq	r6, [ip], lr
    17f8:	29590000 	ldmdbcs	r9, {}^	; <UNPREDICTABLE>
    17fc:	29270000 	stmdbcs	r7!, {}	; <UNPREDICTABLE>
    1800:	7c300000 	ldcvc	0, cr0, [r0], #-0
    1804:	01000002 	tsteq	r0, r2
    1808:	0b6673de 	bleq	199e788 <SYS_MODE+0x199e769>
    180c:	91020000 	mrsls	r0, (UNDEF: 2)
    1810:	0f9f3008 	svceq	0x009f3008
    1814:	de010000 	cdple	0, 0, cr0, cr1, cr0, {0}
    1818:	0000378a 	andeq	r3, r0, sl, lsl #15
    181c:	0c910200 	lfmeq	f0, 4, [r1], {0}
    1820:	0003b630 	andeq	fp, r3, r0, lsr r6
    1824:	9dde0100 	ldflse	f0, [lr]
    1828:	00000037 	andeq	r0, r0, r7, lsr r0
    182c:	2e109102 	mnfcss	f1, f2
    1830:	000003bc 			; <UNDEFINED> instruction: 0x000003bc
    1834:	37b0de01 	ldrcc	sp, [r0, r1, lsl #28]!
    1838:	8d000000 	stchi	0, cr0, [r0, #-0]
    183c:	8900002a 	stmdbhi	r0, {r1, r3, r5}
    1840:	3000002a 	andcc	r0, r0, sl, lsr #32
    1844:	0000031e 	andeq	r0, r0, lr, lsl r3
    1848:	37c4de01 	strbcc	sp, [r4, r1, lsl #28]
    184c:	02000000 	andeq	r0, r0, #0
    1850:	4c151891 	ldcmi	8, cr1, [r5], {145}	; 0x91
    1854:	7fc20009 	svcvc	0x00c20009
    1858:	16000014 			; <UNDEFINED> instruction: 0x16000014
    185c:	03007d02 	movweq	r7, #3330	; 0xd02
    1860:	16067891 			; <UNDEFINED> instruction: 0x16067891
    1864:	02087d02 	andeq	r7, r8, #2, 26	; 0x80
    1868:	02160076 	andseq	r0, r6, #118	; 0x76
    186c:	74020c7d 	strvc	r0, [r2], #-3197	; 0xfffff383
    1870:	2c000000 	stccs	0, cr0, [r0], {-0}
    1874:	00000381 	andeq	r0, r0, r1, lsl #7
    1878:	010fc201 	tsteq	pc, r1, lsl #4
    187c:	0000008c 	andeq	r0, r0, ip, lsl #1
    1880:	c2000744 	andgt	r0, r0, #68, 14	; 0x1100000
    1884:	c2000810 	andgt	r0, r0, #16, 16	; 0x100000
    1888:	00002aac 	andeq	r2, r0, ip, lsr #21
    188c:	0015b701 	andseq	fp, r5, r1, lsl #14
    1890:	756f2d00 	strbvc	r2, [pc, #-3328]!	; b98 <SYS_MODE+0xb79>
    1894:	c2010074 	andgt	r0, r1, #116	; 0x74
    1898:	0000db25 	andeq	sp, r0, r5, lsr #22
    189c:	002af400 	eoreq	pc, sl, r0, lsl #8
    18a0:	002af000 	eoreq	pc, sl, r0
    18a4:	02192e00 	andseq	r2, r9, #0, 28
    18a8:	c2010000 	andgt	r0, r1, #0
    18ac:	0002c330 	andeq	ip, r2, r0, lsr r3
    18b0:	002b1600 	eoreq	r1, fp, r0, lsl #12
    18b4:	002b1200 	eoreq	r1, fp, r0, lsl #4
    18b8:	64692d00 	strbtvs	r2, [r9], #-3328	; 0xfffff300
    18bc:	c2010078 	andgt	r0, r1, #120	; 0x78
    18c0:	00008c3f 	andeq	r8, r0, pc, lsr ip
    18c4:	002b4000 	eoreq	r4, fp, r0
    18c8:	002b3400 	eoreq	r3, fp, r0, lsl #8
    18cc:	032f2e00 			; <UNDEFINED> instruction: 0x032f2e00
    18d0:	c2010000 	andgt	r0, r1, #0
    18d4:	00008c4b 	andeq	r8, r0, fp, asr #24
    18d8:	002b8e00 	eoreq	r8, fp, r0, lsl #28
    18dc:	002b8a00 	eoreq	r8, fp, r0, lsl #20
    18e0:	75622f00 	strbvc	r2, [r2, #-3840]!	; 0xfffff100
    18e4:	c2010066 	andgt	r0, r1, #102	; 0x66
    18e8:	0002215f 	andeq	r2, r2, pc, asr r1
    18ec:	00910200 	addseq	r0, r1, r0, lsl #4
    18f0:	6e656c2d 	cdpvs	12, 6, cr6, cr5, cr13, {1}
    18f4:	6bc20100 	blvs	ff081cfc <_stack_end+0x3d07acfc>
    18f8:	0000008c 	andeq	r0, r0, ip, lsl #1
    18fc:	00002bb0 			; <UNDEFINED> instruction: 0x00002bb0
    1900:	00002bac 	andeq	r2, r0, ip, lsr #23
    1904:	0003bc30 	andeq	fp, r3, r0, lsr ip
    1908:	7dc20100 	stfvce	f0, [r2]
    190c:	00000037 	andeq	r0, r0, r7, lsr r0
    1910:	30089102 	andcc	r9, r8, r2, lsl #2
    1914:	0000031e 	andeq	r0, r0, lr, lsl r3
    1918:	3791c201 	ldrcc	ip, [r1, r1, lsl #4]
    191c:	02000000 	andeq	r0, r0, #0
    1920:	68310c91 	ldmdavs	r1!, {r0, r4, r7, sl, fp}
    1924:	01000002 	tsteq	r0, r2
    1928:	009810c4 	addseq	r1, r8, r4, asr #1
    192c:	2bd50000 	blcs	ff541934 <_stack_end+0x3d53a934>
    1930:	2bcf0000 	blcs	ff3c1938 <_stack_end+0x3d3ba938>
    1934:	481e0000 	ldmdami	lr, {}	; <UNPREDICTABLE>
    1938:	7c000000 	stcvc	0, cr0, [r0], {-0}
    193c:	32000015 	andcc	r0, r0, #21
    1940:	c8010069 	stmdagt	r1, {r0, r3, r5, r6}
    1944:	00008c11 	andeq	r8, r0, r1, lsl ip
    1948:	002c0400 	eoreq	r0, ip, r0, lsl #8
    194c:	002c0200 	eoreq	r0, ip, r0, lsl #4
    1950:	07982100 	ldreq	r2, [r8, r0, lsl #2]
    1954:	0116c200 	tsteq	r6, r0, lsl #4
    1958:	20080250 	andcs	r0, r8, r0, asr r2
    195c:	02510116 	subseq	r0, r1, #-2147483643	; 0x80000005
    1960:	01160076 	tsteq	r6, r6, ror r0
    1964:	7f7b0252 	svcvc	0x007b0252
    1968:	02530116 	subseq	r0, r3, #-2147483643	; 0x80000005
    196c:	00000077 	andeq	r0, r0, r7, ror r0
    1970:	0007c420 	andeq	ip, r7, r0, lsr #8
    1974:	001598c2 	andseq	r9, r5, r2, asr #17
    1978:	51011600 	tstpl	r1, r0, lsl #12
    197c:	16007602 	strne	r7, [r0], -r2, lsl #12
    1980:	78025201 	stmdavc	r2, {r0, r9, ip, lr}
    1984:	5301167f 	movwpl	r1, #5759	; 0x167f
    1988:	00007702 	andeq	r7, r0, r2, lsl #14
    198c:	00080821 	andeq	r0, r8, r1, lsr #16
    1990:	500116c2 	andpl	r1, r1, r2, asr #13
    1994:	16200802 	strtne	r0, [r0], -r2, lsl #16
    1998:	76025101 	strvc	r5, [r2], -r1, lsl #2
    199c:	52011600 	andpl	r1, r1, #0, 12
    19a0:	167f7402 	ldrbtne	r7, [pc], -r2, lsl #8
    19a4:	77025301 	strvc	r5, [r2, -r1, lsl #6]
    19a8:	33000000 	movwcc	r0, #0
    19ac:	00000336 	andeq	r0, r0, r6, lsr r3
    19b0:	0115b701 	tsteq	r5, r1, lsl #14
    19b4:	00000037 	andeq	r0, r0, r7, lsr r0
    19b8:	c2000704 	andgt	r0, r0, #4, 14	; 0x100000
    19bc:	c2000744 	andgt	r0, r0, #68, 14	; 0x1100000
    19c0:	01007d02 	tsteq	r0, r2, lsl #26
    19c4:	0000161f 	andeq	r1, r0, pc, lsl r6
    19c8:	7274732d 	rsbsvc	r7, r4, #-1275068416	; 0xb4000000
    19cc:	28b70100 	ldmcs	r7!, {r8}
    19d0:	0000161f 	andeq	r1, r0, pc, lsl r6
    19d4:	00002c1b 	andeq	r2, r0, fp, lsl ip
    19d8:	00002c17 	andeq	r2, r0, r7, lsl ip
    19dc:	01006932 	tsteq	r0, r2, lsr r9
    19e0:	003710b9 	ldrhteq	r1, [r7], -r9
    19e4:	2c3f0000 	ldccs	0, cr0, [pc], #-0	; 19ec <SYS_MODE+0x19cd>
    19e8:	2c390000 	ldccs	0, cr0, [r9], #-0
    19ec:	25340000 	ldrcs	r0, [r4, #-0]!
    19f0:	30000016 	andcc	r0, r0, r6, lsl r0
    19f4:	00c20007 	sbceq	r0, r2, r7
    19f8:	00073000 	andeq	r3, r7, r0
    19fc:	000738c2 	andeq	r3, r7, r2, asr #17
    1a00:	0aba01c2 	beq	fee82110 <_stack_end+0x3ce7b110>
    1a04:	00163723 	andseq	r3, r6, r3, lsr #14
    1a08:	002c6d00 	eoreq	r6, ip, r0, lsl #26
    1a0c:	002c6900 	eoreq	r6, ip, r0, lsl #18
    1a10:	09000000 	stmdbeq	r0, {}	; <UNPREDICTABLE>
    1a14:	00022104 	andeq	r2, r2, r4, lsl #2
    1a18:	03613500 	cmneq	r1, #0, 10
    1a1c:	b0010000 	andlt	r0, r1, r0
    1a20:	0b660114 	bleq	1981e78 <SYS_MODE+0x1981e59>
    1a24:	43030000 	movwmi	r0, #12288	; 0x3000
    1a28:	36000016 			; <UNDEFINED> instruction: 0x36000016
    1a2c:	01006863 	tsteq	r0, r3, ror #16
    1a30:	010823b0 			; <UNDEFINED> instruction: 0x010823b0
    1a34:	35000000 	strcc	r0, [r0, #-0]
    1a38:	0000033c 	andeq	r0, r0, ip, lsr r3
    1a3c:	011ca601 	tsteq	ip, r1, lsl #12
    1a40:	00000037 	andeq	r0, r0, r7, lsr r0
    1a44:	00167803 	andseq	r7, r6, r3, lsl #16
    1a48:	74733600 	ldrbtvc	r3, [r3], #-1536	; 0xfffffa00
    1a4c:	a6010072 			; <UNDEFINED> instruction: 0xa6010072
    1a50:	00022133 	andeq	r2, r2, r3, lsr r1
    1a54:	02423700 	subeq	r3, r2, #0, 14
    1a58:	a6010000 	strge	r0, [r1], -r0
    1a5c:	00008c3f 	andeq	r8, r0, pc, lsr ip
    1a60:	00733800 	rsbseq	r3, r3, r0, lsl #16
    1a64:	210fa801 	tstcs	pc, r1, lsl #16
    1a68:	00000002 	andeq	r0, r0, r2
    1a6c:	00025539 	andeq	r5, r2, r9, lsr r5
    1a70:	149a0100 	ldrne	r0, [sl], #256	; 0x100
    1a74:	00000001 	andeq	r0, r0, r1
    1a78:	00000000 	andeq	r0, r0, r0
    1a7c:	002c8d00 	eoreq	r8, ip, r0, lsl #26
    1a80:	16e30100 	strbtne	r0, [r3], r0, lsl #2
    1a84:	772e0000 	strvc	r0, [lr, -r0]!
    1a88:	01000003 	tsteq	r0, r3
    1a8c:	0108229a 			; <UNDEFINED> instruction: 0x0108229a
    1a90:	2cb10000 	ldccs	0, cr0, [r1]
    1a94:	2cad0000 	stccs	0, cr0, [sp]
    1a98:	192e0000 	stmdbne	lr!, {}	; <UNPREDICTABLE>
    1a9c:	01000002 	tsteq	r0, r2
    1aa0:	00c8339a 	smulleq	r3, r8, sl, r3
    1aa4:	2cd60000 	ldclcs	0, cr0, [r6], {0}
    1aa8:	2cd20000 	ldclcs	0, cr0, [r2], {0}
    1aac:	692d0000 	pushvs	{}	; <UNPREDICTABLE>
    1ab0:	01007864 	tsteq	r0, r4, ror #16
    1ab4:	008c429a 	umulleq	r4, ip, sl, r2
    1ab8:	2cfb0000 	ldclcs	0, cr0, [fp]
    1abc:	2cf70000 	ldclcs	0, cr0, [r7]
    1ac0:	2f2e0000 	svccs	0x002e0000
    1ac4:	01000003 	tsteq	r0, r3
    1ac8:	008c4e9a 	umulleq	r4, ip, sl, lr
    1acc:	2d200000 	stccs	0, cr0, [r0, #-0]
    1ad0:	2d1c0000 	ldccs	0, cr0, [ip, #-0]
    1ad4:	3a000000 	bcc	1adc <SYS_MODE+0x1abd>
    1ad8:	00000238 	andeq	r0, r0, r8, lsr r2
    1adc:	01149001 	tsteq	r4, r1
    1ae0:	c2001ef8 	andgt	r1, r0, #248, 28	; 0xf80
    1ae4:	c2001f0c 	andgt	r1, r0, #12, 30	; 0x30
    1ae8:	00002d41 	andeq	r2, r0, r1, asr #26
    1aec:	00175701 	andseq	r5, r7, r1, lsl #14
    1af0:	03772e00 	cmneq	r7, #0, 28
    1af4:	90010000 	andls	r0, r1, r0
    1af8:	00010823 	andeq	r0, r1, r3, lsr #16
    1afc:	002d6500 	eoreq	r6, sp, r0, lsl #10
    1b00:	002d6100 	eoreq	r6, sp, r0, lsl #2
    1b04:	02192e00 	andseq	r2, r9, #0, 28
    1b08:	90010000 	andls	r0, r1, r0
    1b0c:	0000c834 	andeq	ip, r0, r4, lsr r8
    1b10:	002d8a00 	eoreq	r8, sp, r0, lsl #20
    1b14:	002d8600 	eoreq	r8, sp, r0, lsl #12
    1b18:	64692d00 	strbtvs	r2, [r9], #-3328	; 0xfffff300
    1b1c:	90010078 	andls	r0, r1, r8, ror r0
    1b20:	00008c43 	andeq	r8, r0, r3, asr #24
    1b24:	002daf00 	eoreq	sl, sp, r0, lsl #30
    1b28:	002dab00 	eoreq	sl, sp, r0, lsl #22
    1b2c:	032f2e00 			; <UNDEFINED> instruction: 0x032f2e00
    1b30:	90010000 	andls	r0, r1, r0
    1b34:	00008c4f 	andeq	r8, r0, pc, asr #24
    1b38:	002dd400 	eoreq	sp, sp, r0, lsl #8
    1b3c:	002dd000 	eoreq	sp, sp, r0
    1b40:	1f082b00 	svcne	0x00082b00
    1b44:	181cc200 	ldmdane	ip, {r9, lr, pc}
    1b48:	3b000000 	blcc	1b50 <SYS_MODE+0x1b31>
    1b4c:	000002f5 	strdeq	r0, [r0], -r5
    1b50:	01148901 	tsteq	r4, r1, lsl #18
    1b54:	c2000700 	andgt	r0, r0, #0, 14
    1b58:	c2000704 	andgt	r0, r0, #4, 14	; 0x100000
    1b5c:	01007d02 	tsteq	r0, r2, lsl #26
    1b60:	000017a9 	andeq	r1, r0, r9, lsr #15
    1b64:	00037730 	andeq	r7, r3, r0, lsr r7
    1b68:	23890100 	orrcs	r0, r9, #0, 2
    1b6c:	00000108 	andeq	r0, r0, r8, lsl #2
    1b70:	19305001 	ldmdbne	r0!, {r0, ip, lr}
    1b74:	01000002 	tsteq	r0, r2
    1b78:	00c83489 	sbceq	r3, r8, r9, lsl #9
    1b7c:	51010000 	mrspl	r0, (UNDEF: 1)
    1b80:	7864692f 	stmdavc	r4!, {r0, r1, r2, r3, r5, r8, fp, sp, lr}^
    1b84:	43890100 	orrmi	r0, r9, #0, 2
    1b88:	0000008c 	andeq	r0, r0, ip, lsl #1
    1b8c:	2f305201 	svccs	0x00305201
    1b90:	01000003 	tsteq	r0, r3
    1b94:	008c4f89 	addeq	r4, ip, r9, lsl #31
    1b98:	53010000 	movwpl	r0, #4096	; 0x1000
    1b9c:	02143b00 	andseq	r3, r4, #0, 22
    1ba0:	80010000 	andhi	r0, r1, r0
    1ba4:	00000114 	andeq	r0, r0, r4, lsl r1
    1ba8:	00000000 	andeq	r0, r0, r0
    1bac:	7d020000 	stcvc	0, cr0, [r2, #-0]
    1bb0:	17fb0100 	ldrbne	r0, [fp, r0, lsl #2]!
    1bb4:	77300000 	ldrvc	r0, [r0, -r0]!
    1bb8:	01000003 	tsteq	r0, r3
    1bbc:	01082580 	smlabbeq	r8, r0, r5, r2
    1bc0:	50010000 	andpl	r0, r1, r0
    1bc4:	00021930 	andeq	r1, r2, r0, lsr r9
    1bc8:	36800100 	strcc	r0, [r0], r0, lsl #2
    1bcc:	000000c8 	andeq	r0, r0, r8, asr #1
    1bd0:	692f5101 	stmdbvs	pc!, {r0, r8, ip, lr}	; <UNPREDICTABLE>
    1bd4:	01007864 	tsteq	r0, r4, ror #16
    1bd8:	008c4580 	addeq	r4, ip, r0, lsl #11
    1bdc:	52010000 	andpl	r0, r1, #0
    1be0:	00032f30 	andeq	r2, r3, r0, lsr pc
    1be4:	51800100 	orrpl	r0, r0, r0, lsl #2
    1be8:	0000008c 	andeq	r0, r0, ip, lsl #1
    1bec:	3c005301 	stccc	3, cr5, [r0], {1}
    1bf0:	038a0101 	orreq	r0, sl, #1073741824	; 0x40000000
    1bf4:	038a0000 	orreq	r0, sl, #0
    1bf8:	013c0000 	teqeq	ip, r0
    1bfc:	0003f301 	andeq	pc, r3, r1, lsl #6
    1c00:	0003f300 	andeq	pc, r3, r0, lsl #6
    1c04:	01013c00 	tsteq	r1, r0, lsl #24
    1c08:	000003d8 	ldrdeq	r0, [r0], -r8
    1c0c:	000003d8 	ldrdeq	r0, [r0], -r8
    1c10:	9b01013d 	blls	4210c <SYS_MODE+0x420ed>
    1c14:	9b000003 	blls	1c28 <SYS_MODE+0x1c09>
    1c18:	04000003 	streq	r0, [r0], #-3
    1c1c:	2200060b 	andcs	r0, r0, #11534336	; 0xb00000
    1c20:	02000000 	andeq	r0, r0, #0
    1c24:	0004d400 	andeq	sp, r4, r0, lsl #8
    1c28:	1c010400 	cfstrsne	mvf0, [r1], {-0}
    1c2c:	f4000014 	vst4.8	{d0-d3}, [r0 :64], r4
    1c30:	6cc20000 	stclvs	0, cr0, [r2], {0}
    1c34:	0ac20001 	beq	ff081c40 <_stack_end+0x3d07ac40>
    1c38:	be000004 	cdplt	0, 0, cr0, cr0, cr4, {0}
    1c3c:	64000001 	strvs	r0, [r0], #-1
    1c40:	01000004 	tsteq	r0, r4
    1c44:	00002280 	andeq	r2, r0, r0, lsl #5
    1c48:	e8000200 	stmda	r0, {r9}
    1c4c:	04000004 	streq	r0, [r0], #-4
    1c50:	0014c201 	andseq	ip, r4, r1, lsl #4
    1c54:	00016c00 	andeq	r6, r1, r0, lsl #24
    1c58:	0004a0c2 	andeq	sl, r4, r2, asr #1
    1c5c:	000472c2 	andeq	r7, r4, r2, asr #5
    1c60:	0001be00 	andeq	fp, r1, r0, lsl #28
    1c64:	00046400 	andeq	r6, r4, r0, lsl #8
    1c68:	4c800100 	stfmis	f0, [r0], {0}
    1c6c:	02000001 	andeq	r0, r0, #1
    1c70:	0004fc00 	andeq	pc, r4, r0, lsl #24
    1c74:	5f010400 	svcpl	0x00010400
    1c78:	0c000000 	stceq	0, cr0, [r0], {-0}
    1c7c:	00000501 	andeq	r0, r0, r1, lsl #10
    1c80:	000001be 			; <UNDEFINED> instruction: 0x000001be
    1c84:	00000198 	muleq	r0, r8, r1
	...
    1c90:	0000160f 	andeq	r1, r0, pc, lsl #12
    1c94:	2a060102 	bcs	1820a4 <SYS_MODE+0x182085>
    1c98:	02000000 	andeq	r0, r0, #0
    1c9c:	01ae0502 			; <UNDEFINED> instruction: 0x01ae0502
    1ca0:	04020000 	streq	r0, [r2], #-0
    1ca4:	00019e05 	andeq	r9, r1, r5, lsl #28
    1ca8:	05080200 	streq	r0, [r8, #-512]	; 0xfffffe00
    1cac:	00000199 	muleq	r0, r9, r1
    1cb0:	28080102 	stmdacs	r8, {r1, r8}
    1cb4:	02000000 	andeq	r0, r0, #0
    1cb8:	003d0702 	eorseq	r0, sp, r2, lsl #14
    1cbc:	63030000 	movwvs	r0, #12288	; 0x3000
    1cc0:	02000005 	andeq	r0, r0, #5
    1cc4:	00641d1f 	rsbeq	r1, r4, pc, lsl sp
    1cc8:	53040000 	movwpl	r0, #16384	; 0x4000
    1ccc:	02000000 	andeq	r0, r0, #0
    1cd0:	01800704 	orreq	r0, r0, r4, lsl #14
    1cd4:	08020000 	stmdaeq	r2, {}	; <UNPREDICTABLE>
    1cd8:	00017b07 	andeq	r7, r1, r7, lsl #22
    1cdc:	07040200 	streq	r0, [r4, -r0, lsl #4]
    1ce0:	00000185 	andeq	r0, r0, r5, lsl #3
    1ce4:	69050405 	stmdbvs	r5, {r0, r2, sl}
    1ce8:	0600746e 	streq	r7, [r0], -lr, ror #8
    1cec:	00055301 	andeq	r5, r5, r1, lsl #6
    1cf0:	06200100 	strteq	r0, [r0], -r0, lsl #2
    1cf4:	00000001 	andeq	r0, r0, r1
    1cf8:	00000000 	andeq	r0, r0, r0
    1cfc:	002df500 	eoreq	pc, sp, r0, lsl #10
    1d00:	00f80100 	rscseq	r0, r8, r0, lsl #2
    1d04:	4e070000 	cdpmi	0, 0, cr0, cr7, cr0, {0}
    1d08:	01000005 	tsteq	r0, r5
    1d0c:	00531f20 	subseq	r1, r3, r0, lsr #30
    1d10:	2e310000 	cdpcs	0, 3, cr0, cr1, cr0, {0}
    1d14:	2e2d0000 	cdpcs	0, 2, cr0, cr13, cr0, {0}
    1d18:	c1080000 	mrsgt	r0, (UNDEF: 8)
    1d1c:	01000004 	tsteq	r0, r4
    1d20:	005f1722 	subseq	r1, pc, r2, lsr #14
    1d24:	91020000 	mrsls	r0, (UNDEF: 2)
    1d28:	04e40874 	strbteq	r0, [r4], #2164	; 0x874
    1d2c:	22010000 	andcs	r0, r1, #0
    1d30:	00005f23 	andeq	r5, r0, r3, lsr #30
    1d34:	70910200 	addsvc	r0, r1, r0, lsl #4
    1d38:	00056c08 	andeq	r6, r5, r8, lsl #24
    1d3c:	32220100 	eorcc	r0, r2, #0, 2
    1d40:	0000005f 	andeq	r0, r0, pc, asr r0
    1d44:	096c9102 	stmdbeq	ip!, {r1, r8, ip, pc}^
    1d48:	00000000 	andeq	r0, r0, r0
    1d4c:	00000141 	andeq	r0, r0, r1, asr #2
    1d50:	00000009 	andeq	r0, r0, r9
    1d54:	00014100 	andeq	r4, r1, r0, lsl #2
    1d58:	00000900 	andeq	r0, r0, r0, lsl #18
    1d5c:	01410000 	mrseq	r0, (UNDEF: 65)
    1d60:	0a000000 	beq	1d68 <SYS_MODE+0x1d49>
    1d64:	0004ee01 	andeq	lr, r4, r1, lsl #28
    1d68:	0a150100 	beq	542170 <SYS_MODE+0x542151>
    1d6c:	00005301 	andeq	r5, r0, r1, lsl #6
	...
    1d78:	007d0200 	rsbseq	r0, sp, r0, lsl #4
    1d7c:	00012b01 	andeq	r2, r1, r1, lsl #22
    1d80:	04fb0b00 	ldrbteq	r0, [fp], #2816	; 0xb00
    1d84:	17010000 	strne	r0, [r1, -r0]
    1d88:	0000530e 	andeq	r5, r0, lr, lsl #6
    1d8c:	002e5300 	eoreq	r5, lr, r0, lsl #6
    1d90:	002e4f00 	eoreq	r4, lr, r0, lsl #30
    1d94:	010c0000 	mrseq	r0, (UNDEF: 12)
    1d98:	000004c8 	andeq	r0, r0, r8, asr #9
    1d9c:	01060701 	tsteq	r6, r1, lsl #14
    1da0:	c2001f4c 	andgt	r1, r0, #76, 30	; 0x130
    1da4:	c2001f5c 	andgt	r1, r0, #92, 30	; 0x170
    1da8:	01007d02 	tsteq	r0, r2, lsl #26
    1dac:	7801010d 	stmdavc	r1, {r0, r2, r3, r8}
    1db0:	78000005 	stmdavc	r0, {r0, r2}
    1db4:	03000005 	movweq	r0, #5
    1db8:	22000a33 	andcs	r0, r0, #208896	; 0x33000
    1dbc:	02000000 	andeq	r0, r0, #0
    1dc0:	0005ea00 	andeq	lr, r5, r0, lsl #20
    1dc4:	d9010400 	stmdble	r1, {sl}
    1dc8:	a0000017 	andge	r0, r0, r7, lsl r0
    1dcc:	b8c20004 	stmialt	r2, {r2}^
    1dd0:	9bc20004 	blls	ff081de8 <_stack_end+0x3d07ade8>
    1dd4:	be000005 	cdplt	0, 0, cr0, cr0, cr5, {0}
    1dd8:	64000001 	strvs	r0, [r0], #-1
    1ddc:	01000004 	tsteq	r0, r4
    1de0:	00002280 	andeq	r2, r0, r0, lsl #5
    1de4:	fe000200 	cdp2	2, 0, cr0, cr0, cr0, {0}
    1de8:	04000005 	streq	r0, [r0], #-5
    1dec:	00186001 	andseq	r6, r8, r1
    1df0:	0004b800 	andeq	fp, r4, r0, lsl #16
    1df4:	0004fcc2 	andeq	pc, r4, r2, asr #25
    1df8:	0005eec2 	andeq	lr, r5, r2, asr #29
    1dfc:	0001be00 	andeq	fp, r1, r0, lsl #28
    1e00:	00046400 	andeq	r6, r4, r0, lsl #8
    1e04:	63800100 	orrvs	r0, r0, #0, 2
    1e08:	02000002 	andeq	r0, r0, #2
    1e0c:	00061200 	andeq	r1, r6, r0, lsl #4
    1e10:	5f010400 	svcpl	0x00010400
    1e14:	0c000000 	stceq	0, cr0, [r0], {-0}
    1e18:	00000703 	andeq	r0, r0, r3, lsl #14
    1e1c:	000001be 			; <UNDEFINED> instruction: 0x000001be
    1e20:	000001b8 			; <UNDEFINED> instruction: 0x000001b8
	...
    1e2c:	000018ec 	andeq	r1, r0, ip, ror #17
    1e30:	2a060102 	bcs	182240 <SYS_MODE+0x182221>
    1e34:	02000000 	andeq	r0, r0, #0
    1e38:	01ae0502 			; <UNDEFINED> instruction: 0x01ae0502
    1e3c:	04020000 	streq	r0, [r2], #-0
    1e40:	00019e05 	andeq	r9, r1, r5, lsl #28
    1e44:	05080200 	streq	r0, [r8, #-512]	; 0xfffffe00
    1e48:	00000199 	muleq	r0, r9, r1
    1e4c:	28080102 	stmdacs	r8, {r1, r8}
    1e50:	02000000 	andeq	r0, r0, #0
    1e54:	003d0702 	eorseq	r0, sp, r2, lsl #14
    1e58:	63030000 	movwvs	r0, #12288	; 0x3000
    1e5c:	0d000005 	stceq	0, cr0, [r0, #-20]	; 0xffffffec
    1e60:	005f1d1f 	subseq	r1, pc, pc, lsl sp	; <UNPREDICTABLE>
    1e64:	04020000 	streq	r0, [r2], #-0
    1e68:	00018007 	andeq	r8, r1, r7
    1e6c:	07080200 	streq	r0, [r8, -r0, lsl #4]
    1e70:	0000017b 	andeq	r0, r0, fp, ror r1
    1e74:	85070402 	strhi	r0, [r7, #-1026]	; 0xfffffbfe
    1e78:	04000001 	streq	r0, [r0], #-1
    1e7c:	6e690504 	cdpvs	5, 6, cr0, cr9, cr4, {0}
    1e80:	53050074 	movwpl	r0, #20596	; 0x5074
    1e84:	86000000 	strhi	r0, [r0], -r0
    1e88:	06000000 	streq	r0, [r0], -r0
    1e8c:	064b0700 	strbeq	r0, [fp], -r0, lsl #14
    1e90:	0f010000 	svceq	0x00010000
    1e94:	00007b11 	andeq	r7, r0, r1, lsl fp
    1e98:	07010100 	streq	r0, [r1, -r0, lsl #2]
    1e9c:	00000801 	andeq	r0, r0, r1, lsl #16
    1ea0:	7b200f01 	blvc	805aac <SYS_MODE+0x805a8d>
    1ea4:	01000000 	mrseq	r0, (UNDEF: 0)
    1ea8:	57010801 	strpl	r0, [r1, -r1, lsl #16]
    1eac:	01000006 	tsteq	r0, r6
    1eb0:	5c010614 	stcpl	6, cr0, [r1], {20}
    1eb4:	ccc2001f 	stclgt	0, cr0, [r2], {31}
    1eb8:	72c2001f 	sbcvc	r0, r2, #31
    1ebc:	0100002e 	tsteq	r0, lr, lsr #32
    1ec0:	0000016a 	andeq	r0, r0, sl, ror #2
    1ec4:	001f8009 	andseq	r8, pc, r9
    1ec8:	00016ac2 	andeq	r6, r1, r2, asr #21
    1ecc:	0000d000 	andeq	sp, r0, r0
    1ed0:	51010a00 	tstpl	r1, r0, lsl #20
    1ed4:	0b003001 	bleq	dee0 <SYS_MODE+0xdec1>
    1ed8:	c2001f84 	andgt	r1, r0, #132, 30	; 0x210
    1edc:	00000178 	andeq	r0, r0, r8, ror r1
    1ee0:	001f880b 	andseq	r8, pc, fp, lsl #16
    1ee4:	000186c2 	andeq	r8, r1, r2, asr #13
    1ee8:	1f8c0b00 	svcne	0x008c0b00
    1eec:	0194c200 	orrseq	ip, r4, r0, lsl #4
    1ef0:	900b0000 	andls	r0, fp, r0
    1ef4:	a2c2001f 	sbcge	r0, r2, #31
    1ef8:	0b000001 	bleq	1f04 <SYS_MODE+0x1ee5>
    1efc:	c2001f94 	andgt	r1, r0, #148, 30	; 0x250
    1f00:	000001b0 			; <UNDEFINED> instruction: 0x000001b0
    1f04:	001f980b 	andseq	r9, pc, fp, lsl #16
    1f08:	0001bec2 	andeq	fp, r1, r2, asr #29
    1f0c:	1f9c0b00 	svcne	0x009c0b00
    1f10:	01ccc200 	biceq	ip, ip, r0, lsl #4
    1f14:	a00b0000 	andge	r0, fp, r0
    1f18:	dac2001f 	ble	ff081f9c <_stack_end+0x3d07af9c>
    1f1c:	0b000001 	bleq	1f28 <SYS_MODE+0x1f09>
    1f20:	c2001fa4 	andgt	r1, r0, #164, 30	; 0x290
    1f24:	000001e8 	andeq	r0, r0, r8, ror #3
    1f28:	001fa80b 	andseq	sl, pc, fp, lsl #16
    1f2c:	0001f6c2 	andeq	pc, r1, r2, asr #13
    1f30:	1fb00b00 	svcne	0x00b00b00
    1f34:	0204c200 	andeq	ip, r4, #0, 4
    1f38:	b40b0000 	strlt	r0, [fp], #-0
    1f3c:	12c2001f 	sbcne	r0, r2, #31
    1f40:	0b000002 	bleq	1f50 <SYS_MODE+0x1f31>
    1f44:	c2001fb8 	andgt	r1, r0, #184, 30	; 0x2e0
    1f48:	00000220 	andeq	r0, r0, r0, lsr #4
    1f4c:	001fbc0b 	andseq	fp, pc, fp, lsl #24
    1f50:	00022ec2 	andeq	r2, r2, r2, asr #29
    1f54:	1fc00b00 	svcne	0x00c00b00
    1f58:	023cc200 	eorseq	ip, ip, #0, 4
    1f5c:	c40b0000 	strgt	r0, [fp], #-0
    1f60:	4ac2001f 	bmi	ff081fe4 <_stack_end+0x3d07afe4>
    1f64:	0b000002 	bleq	1f74 <SYS_MODE+0x1f55>
    1f68:	c2001fc8 	andgt	r1, r0, #200, 30	; 0x320
    1f6c:	00000258 	andeq	r0, r0, r8, asr r2
    1f70:	01010c00 	tsteq	r1, r0, lsl #24
    1f74:	00000058 	andeq	r0, r0, r8, asr r0
    1f78:	00000058 	andeq	r0, r0, r8, asr r0
    1f7c:	0c072d02 	stceq	13, cr2, [r7], {2}
    1f80:	07af0101 	streq	r0, [pc, r1, lsl #2]!
    1f84:	07af0000 	streq	r0, [pc, r0]!
    1f88:	09030000 	stmdbeq	r3, {}	; <UNPREDICTABLE>
    1f8c:	01010c06 	tsteq	r1, r6, lsl #24
    1f90:	000006eb 	andeq	r0, r0, fp, ror #13
    1f94:	000006eb 	andeq	r0, r0, fp, ror #13
    1f98:	0c061804 	stceq	8, cr1, [r6], {4}
    1f9c:	063b0101 	ldrteq	r0, [fp], -r1, lsl #2
    1fa0:	063b0000 	ldrteq	r0, [fp], -r0
    1fa4:	07050000 	streq	r0, [r5, -r0]
    1fa8:	01010c06 	tsteq	r1, r6, lsl #24
    1fac:	00000686 	andeq	r0, r0, r6, lsl #13
    1fb0:	00000686 	andeq	r0, r0, r6, lsl #13
    1fb4:	0c062c06 	stceq	12, cr2, [r6], {6}
    1fb8:	07510101 	ldrbeq	r0, [r1, -r1, lsl #2]
    1fbc:	07510000 	ldrbeq	r0, [r1, -r0]
    1fc0:	15060000 	strne	r0, [r6, #-0]
    1fc4:	01010c06 	tsteq	r1, r6, lsl #24
    1fc8:	000006af 	andeq	r0, r0, pc, lsr #13
    1fcc:	000006af 	andeq	r0, r0, pc, lsr #13
    1fd0:	0c062006 	stceq	0, cr2, [r6], {6}
    1fd4:	078c0101 	streq	r0, [ip, r1, lsl #2]
    1fd8:	078c0000 	streq	r0, [ip, r0]
    1fdc:	0a060000 	beq	181fe4 <SYS_MODE+0x181fc5>
    1fe0:	01010c06 	tsteq	r1, r6, lsl #24
    1fe4:	000007dc 	ldrdeq	r0, [r0], -ip
    1fe8:	000007dc 	ldrdeq	r0, [r0], -ip
    1fec:	0c061307 	stceq	3, cr1, [r6], {7}
    1ff0:	076f0101 	strbeq	r0, [pc, -r1, lsl #2]!
    1ff4:	076f0000 	strbeq	r0, [pc, -r0]!
    1ff8:	09070000 	stmdbeq	r7, {}	; <UNPREDICTABLE>
    1ffc:	01010c06 	tsteq	r1, r6, lsl #24
    2000:	000004c8 	andeq	r0, r0, r8, asr #9
    2004:	000004c8 	andeq	r0, r0, r8, asr #9
    2008:	0c060908 			; <UNDEFINED> instruction: 0x0c060908
    200c:	06a10101 	strteq	r0, [r1], r1, lsl #2
    2010:	06a10000 	strteq	r0, [r1], r0
    2014:	15090000 	strne	r0, [r9, #-0]
    2018:	01010c06 	tsteq	r1, r6, lsl #24
    201c:	000007c0 	andeq	r0, r0, r0, asr #15
    2020:	000007c0 	andeq	r0, r0, r0, asr #15
    2024:	0c06090a 			; <UNDEFINED> instruction: 0x0c06090a
    2028:	06ca0101 	strbeq	r0, [sl], r1, lsl #2
    202c:	06ca0000 	strbeq	r0, [sl], r0
    2030:	1d0a0000 	stcne	0, cr0, [sl, #-0]
    2034:	01010c06 	tsteq	r1, r6, lsl #24
    2038:	00000668 	andeq	r0, r0, r8, ror #12
    203c:	00000668 	andeq	r0, r0, r8, ror #12
    2040:	0c06130a 	stceq	3, cr1, [r6], {10}
    2044:	079f0101 	ldreq	r0, [pc, r1, lsl #2]
    2048:	079f0000 	ldreq	r0, [pc, r0]
    204c:	070b0000 	streq	r0, [fp, -r0]
    2050:	01010c06 	tsteq	r1, r6, lsl #24
    2054:	00000764 	andeq	r0, r0, r4, ror #14
    2058:	00000764 	andeq	r0, r0, r4, ror #14
    205c:	0c061803 	stceq	8, cr1, [r6], {3}
    2060:	06e60101 	strbteq	r0, [r6], r1, lsl #2
    2064:	06e60000 	strbteq	r0, [r6], r0
    2068:	0c0c0000 	stceq	0, cr0, [ip], {-0}
    206c:	02b00005 	adcseq	r0, r0, #5
    2070:	00020000 	andeq	r0, r2, r0
    2074:	000006c2 	andeq	r0, r0, r2, asr #13
    2078:	005f0104 	subseq	r0, pc, r4, lsl #2
    207c:	900c0000 	andls	r0, ip, r0
    2080:	be000008 	cdplt	0, 0, cr0, cr0, cr8, {0}
    2084:	c8000001 	stmdagt	r0, {r0}
    2088:	00000001 	andeq	r0, r0, r1
    208c:	00000000 	andeq	r0, r0, r0
    2090:	17000000 	strne	r0, [r0, -r0]
    2094:	0200001b 	andeq	r0, r0, #27
    2098:	002a0601 	eoreq	r0, sl, r1, lsl #12
    209c:	02020000 	andeq	r0, r2, #0
    20a0:	0001ae05 	andeq	sl, r1, r5, lsl #28
    20a4:	05040200 	streq	r0, [r4, #-512]	; 0xfffffe00
    20a8:	0000019e 	muleq	r0, lr, r1
    20ac:	99050802 	stmdbls	r5, {r1, fp}
    20b0:	02000001 	andeq	r0, r0, #1
    20b4:	00280801 	eoreq	r0, r8, r1, lsl #16
    20b8:	02020000 	andeq	r0, r2, #0
    20bc:	00003d07 	andeq	r3, r0, r7, lsl #26
    20c0:	05630300 	strbeq	r0, [r3, #-768]!	; 0xfffffd00
    20c4:	1f020000 	svcne	0x00020000
    20c8:	00005f1d 	andeq	r5, r0, sp, lsl pc
    20cc:	07040200 	streq	r0, [r4, -r0, lsl #4]
    20d0:	00000180 	andeq	r0, r0, r0, lsl #3
    20d4:	7b070802 	blvc	1c40e4 <SYS_MODE+0x1c40c5>
    20d8:	02000001 	andeq	r0, r0, #1
    20dc:	01850704 	orreq	r0, r5, r4, lsl #14
    20e0:	04040000 	streq	r0, [r4], #-0
    20e4:	69050405 	stmdbvs	r5, {r0, r2, sl}
    20e8:	0300746e 	movweq	r7, #1134	; 0x46e
    20ec:	000008e2 	andeq	r0, r0, r2, ror #17
    20f0:	89100b03 	ldmdbhi	r0, {r0, r1, r8, r9, fp}
    20f4:	06000000 	streq	r0, [r0], -r0
    20f8:	00008f04 	andeq	r8, r0, r4, lsl #30
    20fc:	9b010700 	blls	43d04 <SYS_MODE+0x43ce5>
    2100:	08000000 	stmdaeq	r0, {}	; <UNPREDICTABLE>
    2104:	00000074 	andeq	r0, r0, r4, ror r0
    2108:	08dd0900 	ldmeq	sp, {r8, fp}^
    210c:	01080000 	mrseq	r0, (UNDEF: 8)
    2110:	00c70808 	sbceq	r0, r7, r8, lsl #16
    2114:	810a0000 	mrshi	r0, (UNDEF: 10)
    2118:	01000011 	tsteq	r0, r1, lsl r0
    211c:	007d160a 	rsbseq	r1, sp, sl, lsl #12
    2120:	23020000 	movwcs	r0, #8192	; 0x2000
    2124:	09070a00 	stmdbeq	r7, {r9, fp}
    2128:	0b010000 	bleq	42130 <SYS_MODE+0x42111>
    212c:	0000740b 	andeq	r7, r0, fp, lsl #8
    2130:	04230200 	strteq	r0, [r3], #-512	; 0xfffffe00
    2134:	009b0b00 	addseq	r0, fp, r0, lsl #22
    2138:	00d70000 	sbcseq	r0, r7, r0
    213c:	6d0c0000 	stcvs	0, cr0, [ip, #-0]
    2140:	7f000000 	svcvc	0x00000000
    2144:	090c0d00 	stmdbeq	ip, {r8, sl, fp}
    2148:	11010000 	mrsne	r0, (UNDEF: 1)
    214c:	0000c725 	andeq	ip, r0, r5, lsr #14
    2150:	00030500 	andeq	r0, r3, r0, lsl #10
    2154:	0ec2002c 	cdpeq	0, 12, cr0, cr2, cr12, {1}
    2158:	0008f301 	andeq	pc, r8, r1, lsl #6
    215c:	06500100 	ldrbeq	r0, [r0], -r0, lsl #2
    2160:	00000001 	andeq	r0, r0, r1
    2164:	00000000 	andeq	r0, r0, r0
    2168:	002e9200 	eoreq	r9, lr, r0, lsl #4
    216c:	01290100 			; <UNDEFINED> instruction: 0x01290100
    2170:	690f0000 	stmdbvs	pc, {}	; <UNPREDICTABLE>
    2174:	01007172 	tsteq	r0, r2, ror r1
    2178:	00532350 	subseq	r2, r3, r0, asr r3
    217c:	2eb60000 	cdpcs	0, 11, cr0, cr6, cr0, {0}
    2180:	2eb20000 	cdpcs	0, 11, cr0, cr2, cr0, {0}
    2184:	00100000 	andseq	r0, r0, r0
    2188:	6d000000 	stcvs	0, cr0, [r0, #-0]
    218c:	11000002 	tstne	r0, r2
    2190:	74025001 	strvc	r5, [r2], #-1
    2194:	0e000000 	cdpeq	0, 0, cr0, cr0, cr0, {0}
    2198:	00092301 	andeq	r2, r9, r1, lsl #6
    219c:	063a0100 	ldrteq	r0, [sl], -r0, lsl #2
    21a0:	00000001 	andeq	r0, r0, r1
    21a4:	00000000 	andeq	r0, r0, r0
    21a8:	002ed400 	eoreq	sp, lr, r0, lsl #8
    21ac:	01c00100 	biceq	r0, r0, r0, lsl #2
    21b0:	690f0000 	stmdbvs	pc, {}	; <UNPREDICTABLE>
    21b4:	01007172 	tsteq	r0, r2, ror r1
    21b8:	0053213a 	subseq	r2, r3, sl, lsr r1
    21bc:	2ef80000 	cdpcs	0, 15, cr0, cr8, cr0, {0}
    21c0:	2ef40000 	cdpcs	0, 15, cr0, cr4, cr0, {0}
    21c4:	76120000 	ldrvc	r0, [r2], -r0
    21c8:	01000008 	tsteq	r0, r8
    21cc:	00532f3a 	subseq	r2, r3, sl, lsr pc
    21d0:	2f1a0000 	svccs	0x001a0000
    21d4:	2f160000 	svccs	0x00160000
    21d8:	07120000 	ldreq	r0, [r2, -r0]
    21dc:	01000009 	tsteq	r0, r9
    21e0:	00743f3a 	rsbseq	r3, r4, sl, lsr pc
    21e4:	2f3f0000 	svccs	0x003f0000
    21e8:	2f3b0000 	svccs	0x003b0000
    21ec:	81120000 	tsthi	r2, r0
    21f0:	01000011 	tsteq	r0, r1, lsl r0
    21f4:	007d563a 	rsbseq	r5, sp, sl, lsr r6
    21f8:	2f640000 	svccs	0x00640000
    21fc:	2f600000 	svccs	0x00600000
    2200:	00130000 	andseq	r0, r3, r0
    2204:	7b000000 	blvc	220c <SYS_MODE+0x21ed>
    2208:	af000002 	svcge	0x00000002
    220c:	11000001 	tstne	r0, r1
    2210:	74025001 	strvc	r5, [r2], #-1
    2214:	51011100 	mrspl	r1, (UNDEF: 17)
    2218:	5101f303 	tstpl	r1, r3, lsl #6	; <UNPREDICTABLE>
    221c:	00001000 	andeq	r1, r0, r0
    2220:	02890000 	addeq	r0, r9, #0
    2224:	01110000 	tsteq	r1, r0
    2228:	00740250 	rsbseq	r0, r4, r0, asr r2
    222c:	010e0000 	mrseq	r0, (UNDEF: 14)
    2230:	000006a1 	andeq	r0, r0, r1, lsr #13
    2234:	01062a01 	tsteq	r6, r1, lsl #20
    2238:	c2001ff8 	andgt	r1, r0, #248, 30	; 0x3e0
    223c:	c2002038 	andgt	r2, r0, #56	; 0x38
    2240:	00002f85 	andeq	r2, r0, r5, lsl #31
    2244:	00020501 	andeq	r0, r2, r1, lsl #10
    2248:	1ffc1400 	svcne	0x00fc1400
    224c:	2030c200 	eorscs	ip, r0, r0, lsl #4
    2250:	01fbc200 	mvnseq	ip, r0, lsl #4
    2254:	69150000 	ldmdbvs	r5, {}	; <UNPREDICTABLE>
    2258:	132d0100 			; <UNDEFINED> instruction: 0x132d0100
    225c:	00000053 	andeq	r0, r0, r3, asr r0
    2260:	00002fa9 	andeq	r2, r0, r9, lsr #31
    2264:	00002fa5 	andeq	r2, r0, r5, lsr #31
    2268:	20341600 	eorscs	r1, r4, r0, lsl #12
    226c:	0297c200 	addseq	ip, r7, #0, 4
    2270:	17000000 	strne	r0, [r0, -r0]
    2274:	00087f01 	andeq	r7, r8, r1, lsl #30
    2278:	061e0100 	ldreq	r0, [lr], -r0, lsl #2
    227c:	001fd001 	andseq	sp, pc, r1
    2280:	001ff8c2 	andseq	pc, pc, r2, asr #17
    2284:	002fc8c2 	eoreq	ip, pc, r2, asr #17
    2288:	02450100 	subeq	r0, r5, #0, 2
    228c:	690f0000 	stmdbvs	pc, {}	; <UNPREDICTABLE>
    2290:	01007172 	tsteq	r0, r2, ror r1
    2294:	0053201e 	subseq	r2, r3, lr, lsl r0
    2298:	2fec0000 	svccs	0x00ec0000
    229c:	2fe80000 	svccs	0x00e80000
    22a0:	dc100000 	ldcle	0, cr0, [r0], {-0}
    22a4:	a5c2001f 	strbge	r0, [r2, #31]
    22a8:	11000002 	tstne	r0, r2
    22ac:	74025001 	strvc	r5, [r2], #-1
    22b0:	18000000 	stmdane	r0, {}	; <UNPREDICTABLE>
    22b4:	00000840 	andeq	r0, r0, r0, asr #16
    22b8:	010d1601 	tsteq	sp, r1, lsl #12
    22bc:	c2001fcc 	andgt	r1, r0, #204, 30	; 0x330
    22c0:	c2001fd0 	andgt	r1, r0, #208, 30	; 0x340
    22c4:	01007d02 	tsteq	r0, r2, lsl #26
    22c8:	0000026d 	andeq	r0, r0, sp, ror #4
    22cc:	00090719 	andeq	r0, r9, r9, lsl r7
    22d0:	2c160100 	ldfcss	f0, [r6], {-0}
    22d4:	00000074 	andeq	r0, r0, r4, ror r0
    22d8:	1a005001 	bne	162e4 <SYS_MODE+0x162c5>
    22dc:	08190101 	ldmdaeq	r9, {r0, r8}
    22e0:	08190000 	ldmdaeq	r9, {}	; <UNPREDICTABLE>
    22e4:	a2040000 	andge	r0, r4, #0
    22e8:	01011a06 	tsteq	r1, r6, lsl #20
    22ec:	00000869 	andeq	r0, r0, r9, ror #16
    22f0:	00000869 	andeq	r0, r0, r9, ror #16
    22f4:	1a069804 	bne	1a830c <SYS_MODE+0x1a82ed>
    22f8:	08590101 	ldmdaeq	r9, {r0, r8}^
    22fc:	08590000 	ldmdaeq	r9, {}^	; <UNPREDICTABLE>
    2300:	9d040000 	stcls	0, cr0, [r4, #-0]
    2304:	01011a06 	tsteq	r1, r6, lsl #20
    2308:	0000080b 	andeq	r0, r0, fp, lsl #16
    230c:	0000080b 	andeq	r0, r0, fp, lsl #16
    2310:	1a069304 	bne	1a6f28 <SYS_MODE+0x1a6f09>
    2314:	082a0101 	stmdaeq	sl!, {r0, r8}
    2318:	082a0000 	stmdaeq	sl!, {}	; <UNPREDICTABLE>
    231c:	a7040000 	strge	r0, [r4, -r0]
    2320:	00220006 	eoreq	r0, r2, r6
    2324:	00020000 	andeq	r0, r2, r0
    2328:	0000084f 	andeq	r0, r0, pc, asr #16
    232c:	1d3d0104 	ldfnes	f0, [sp, #-16]!
    2330:	04fc0000 	ldrbteq	r0, [ip], #0
    2334:	0544c200 	strbeq	ip, [r4, #-512]	; 0xfffffe00
    2338:	0935c200 	ldmdbeq	r5!, {r9, lr, pc}
    233c:	01be0000 			; <UNDEFINED> instruction: 0x01be0000
    2340:	04640000 	strbteq	r0, [r4], #-0
    2344:	80010000 	andhi	r0, r1, r0
    2348:	00000022 	andeq	r0, r0, r2, lsr #32
    234c:	08630002 	stmdaeq	r3!, {r1}^
    2350:	01040000 	mrseq	r0, (UNDEF: 4)
    2354:	00001dc9 	andeq	r1, r0, r9, asr #27
    2358:	c2000544 	andgt	r0, r0, #68, 10	; 0x11000000
    235c:	c2000594 	andgt	r0, r0, #148, 10	; 0x25000000
    2360:	00000982 	andeq	r0, r0, r2, lsl #19
    2364:	000001be 			; <UNDEFINED> instruction: 0x000001be
    2368:	00000464 	andeq	r0, r0, r4, ror #8
    236c:	00228001 	eoreq	r8, r2, r1
    2370:	00020000 	andeq	r0, r2, r0
    2374:	00000877 	andeq	r0, r0, r7, ror r8
    2378:	1e580104 	rdfnee	f0, f0, f4
    237c:	05940000 	ldreq	r0, [r4]
    2380:	06e0c200 	strbteq	ip, [r0], r0, lsl #4
    2384:	09cfc200 	stmibeq	pc, {r9, lr, pc}^	; <UNPREDICTABLE>
    2388:	01be0000 			; <UNDEFINED> instruction: 0x01be0000
    238c:	04640000 	strbteq	r0, [r4], #-0
    2390:	80010000 	andhi	r0, r1, r0
    2394:	00000022 	andeq	r0, r0, r2, lsr #32
    2398:	088b0002 	stmeq	fp, {r1}
    239c:	01040000 	mrseq	r0, (UNDEF: 4)
    23a0:	00001f2a 	andeq	r1, r0, sl, lsr #30
    23a4:	c200005c 	andgt	r0, r0, #92	; 0x5c
    23a8:	c20000f4 	andgt	r0, r0, #244	; 0xf4
    23ac:	00000a1c 	andeq	r0, r0, ip, lsl sl
    23b0:	000001be 			; <UNDEFINED> instruction: 0x000001be
    23b4:	00000464 	andeq	r0, r0, r4, ror #8
    23b8:	00228001 	eoreq	r8, r2, r1
    23bc:	00020000 	andeq	r0, r2, r0
    23c0:	0000089f 	muleq	r0, pc, r8	; <UNPREDICTABLE>
    23c4:	1fd30104 	svcne	0x00d30104
    23c8:	00000000 	andeq	r0, r0, r0
    23cc:	005cc200 	subseq	ip, ip, r0, lsl #4
    23d0:	0a6dc200 	beq	1b72bd8 <SYS_MODE+0x1b72bb9>
    23d4:	01be0000 			; <UNDEFINED> instruction: 0x01be0000
    23d8:	04640000 	strbteq	r0, [r4], #-0
    23dc:	80010000 	andhi	r0, r1, r0
    23e0:	00000250 	andeq	r0, r0, r0, asr r2
    23e4:	08b30002 	ldmeq	r3!, {r1}
    23e8:	01040000 	mrseq	r0, (UNDEF: 4)
    23ec:	0000005f 	andeq	r0, r0, pc, asr r0
    23f0:	000ace0c 	andeq	ip, sl, ip, lsl #28
    23f4:	0001be00 	andeq	fp, r1, r0, lsl #28
    23f8:	0001f800 	andeq	pc, r1, r0, lsl #16
	...
    2404:	00206400 	eoreq	r6, r0, r0, lsl #8
    2408:	06010200 	streq	r0, [r1], -r0, lsl #4
    240c:	0000002a 	andeq	r0, r0, sl, lsr #32
    2410:	ae050202 	cdpge	2, 0, cr0, cr5, cr2, {0}
    2414:	02000001 	andeq	r0, r0, #1
    2418:	019e0504 	orrseq	r0, lr, r4, lsl #10
    241c:	08020000 	stmdaeq	r2, {}	; <UNPREDICTABLE>
    2420:	00019905 	andeq	r9, r1, r5, lsl #18
    2424:	08010200 	stmdaeq	r1, {r9}
    2428:	00000028 	andeq	r0, r0, r8, lsr #32
    242c:	3d070202 	sfmcc	f0, 4, [r7, #-8]
    2430:	03000000 	movweq	r0, #0
    2434:	00000563 	andeq	r0, r0, r3, ror #10
    2438:	5f1d1f02 	svcpl	0x001d1f02
    243c:	02000000 	andeq	r0, r0, #0
    2440:	01800704 	orreq	r0, r0, r4, lsl #14
    2444:	08020000 	stmdaeq	r2, {}	; <UNPREDICTABLE>
    2448:	00017b07 	andeq	r7, r1, r7, lsl #22
    244c:	07040200 	streq	r0, [r4, -r0, lsl #4]
    2450:	00000185 	andeq	r0, r0, r5, lsl #3
    2454:	69050404 	stmdbvs	r5, {r2, sl}
    2458:	0500746e 	streq	r7, [r0, #-1134]	; 0xfffffb92
    245c:	000b1f01 	andeq	r1, fp, r1, lsl #30
    2460:	06570100 	ldrbeq	r0, [r7], -r0, lsl #2
    2464:	00000001 	andeq	r0, r0, r1
    2468:	00000000 	andeq	r0, r0, r0
    246c:	007d0200 	rsbseq	r0, sp, r0, lsl #4
    2470:	0000d201 	andeq	sp, r0, r1, lsl #4
    2474:	72690600 	rsbvc	r0, r9, #0, 12
    2478:	57010071 	smlsdxpl	r1, r1, r0, r0
    247c:	00005320 	andeq	r5, r0, r0, lsr #6
    2480:	00300e00 	eorseq	r0, r0, r0, lsl #28
    2484:	00300a00 	eorseq	r0, r0, r0, lsl #20
    2488:	0abe0700 	beq	fef84090 <_stack_end+0x3cf7d090>
    248c:	59010000 	stmdbpl	r1, {}	; <UNPREDICTABLE>
    2490:	00006d12 	andeq	r6, r0, r2, lsl sp
    2494:	00303500 	eorseq	r3, r0, r0, lsl #10
    2498:	00302f00 	eorseq	r2, r0, r0, lsl #30
    249c:	69620800 	stmdbvs	r2!, {fp}^
    24a0:	5a010074 	bpl	42678 <SYS_MODE+0x42659>
    24a4:	00006d12 	andeq	r6, r0, r2, lsl sp
    24a8:	00306e00 	eorseq	r6, r0, r0, lsl #28
    24ac:	00306800 	eorseq	r6, r0, r0, lsl #16
    24b0:	01050000 	mrseq	r0, (UNDEF: 5)
    24b4:	0000082a 	andeq	r0, r0, sl, lsr #16
    24b8:	01064601 	tsteq	r6, r1, lsl #12
    24bc:	c2002070 	andgt	r2, r0, #112	; 0x70
    24c0:	c2002098 	andgt	r2, r0, #152	; 0x98
    24c4:	01007d02 	tsteq	r0, r2, lsl #26
    24c8:	00000129 	andeq	r0, r0, r9, lsr #2
    24cc:	71726906 	cmnvc	r2, r6, lsl #18
    24d0:	25460100 	strbcs	r0, [r6, #-256]	; 0xffffff00
    24d4:	00000053 	andeq	r0, r0, r3, asr r0
    24d8:	000030a1 	andeq	r3, r0, r1, lsr #1
    24dc:	0000309d 	muleq	r0, sp, r0
    24e0:	000abe07 	andeq	fp, sl, r7, lsl #28
    24e4:	12480100 	subne	r0, r8, #0, 2
    24e8:	0000006d 	andeq	r0, r0, sp, rrx
    24ec:	000030c8 	andeq	r3, r0, r8, asr #1
    24f0:	000030c2 	andeq	r3, r0, r2, asr #1
    24f4:	74696208 	strbtvc	r6, [r9], #-520	; 0xfffffdf8
    24f8:	12490100 	subne	r0, r9, #0, 2
    24fc:	0000006d 	andeq	r0, r0, sp, rrx
    2500:	00003101 	andeq	r3, r0, r1, lsl #2
    2504:	000030fb 	strdeq	r3, [r0], -fp
    2508:	19010500 	stmdbne	r1, {r8, sl}
    250c:	01000008 	tsteq	r0, r8
    2510:	00010635 	andeq	r0, r1, r5, lsr r6
    2514:	00000000 	andeq	r0, r0, r0
    2518:	02000000 	andeq	r0, r0, #0
    251c:	8001007d 	andhi	r0, r1, sp, ror r0
    2520:	06000001 	streq	r0, [r0], -r1
    2524:	00717269 	rsbseq	r7, r1, r9, ror #4
    2528:	53203501 			; <UNDEFINED> instruction: 0x53203501
    252c:	34000000 	strcc	r0, [r0], #-0
    2530:	30000031 	andcc	r0, r0, r1, lsr r0
    2534:	07000031 	smladxeq	r0, r1, r0, r0
    2538:	00000abe 			; <UNDEFINED> instruction: 0x00000abe
    253c:	6d123701 	ldcvs	7, cr3, [r2, #-4]
    2540:	5b000000 	blpl	2548 <SYS_MODE+0x2529>
    2544:	55000031 	strpl	r0, [r0, #-49]	; 0xffffffcf
    2548:	08000031 	stmdaeq	r0, {r0, r4, r5}
    254c:	00746962 	rsbseq	r6, r4, r2, ror #18
    2550:	6d123801 	ldcvs	8, cr3, [r2, #-4]
    2554:	94000000 	strls	r0, [r0], #-0
    2558:	8e000031 	mcrhi	0, 0, r0, cr0, cr1, {1}
    255c:	00000031 	andeq	r0, r0, r1, lsr r0
    2560:	08590105 	ldmdaeq	r9, {r0, r2, r8}^
    2564:	24010000 	strcs	r0, [r1], #-0
    2568:	00000106 	andeq	r0, r0, r6, lsl #2
    256c:	00000000 	andeq	r0, r0, r0
    2570:	7d020000 	stcvc	0, cr0, [r2, #-0]
    2574:	01d70100 	bicseq	r0, r7, r0, lsl #2
    2578:	69060000 	stmdbvs	r6, {}	; <UNPREDICTABLE>
    257c:	01007172 	tsteq	r0, r2, ror r1
    2580:	00531f24 	subseq	r1, r3, r4, lsr #30
    2584:	31c70000 	biccc	r0, r7, r0
    2588:	31c30000 	biccc	r0, r3, r0
    258c:	be070000 	cdplt	0, 0, cr0, cr7, cr0, {0}
    2590:	0100000a 	tsteq	r0, sl
    2594:	006d1226 	rsbeq	r1, sp, r6, lsr #4
    2598:	31ee0000 	mvncc	r0, r0
    259c:	31e80000 	mvncc	r0, r0
    25a0:	62080000 	andvs	r0, r8, #0
    25a4:	01007469 	tsteq	r0, r9, ror #8
    25a8:	006d1227 	rsbeq	r1, sp, r7, lsr #4
    25ac:	32270000 	eorcc	r0, r7, #0
    25b0:	32210000 	eorcc	r0, r1, #0
    25b4:	05000000 	streq	r0, [r0, #-0]
    25b8:	00086901 	andeq	r6, r8, r1, lsl #18
    25bc:	06190100 	ldreq	r0, [r9], -r0, lsl #2
    25c0:	00000001 	andeq	r0, r0, r1
    25c4:	00000000 	andeq	r0, r0, r0
    25c8:	007d0200 	rsbseq	r0, sp, r0, lsl #4
    25cc:	00021401 	andeq	r1, r2, r1, lsl #8
    25d0:	72690900 	rsbvc	r0, r9, #0, 18
    25d4:	19010071 	stmdbne	r1, {r0, r4, r5, r6}
    25d8:	00005325 	andeq	r5, r0, r5, lsr #6
    25dc:	0a500100 	beq	14029e4 <SYS_MODE+0x14029c5>
    25e0:	00000876 	andeq	r0, r0, r6, ror r8
    25e4:	53331901 	teqpl	r3, #16384	; 0x4000
    25e8:	5a000000 	bpl	25f0 <SYS_MODE+0x25d1>
    25ec:	56000032 			; <UNDEFINED> instruction: 0x56000032
    25f0:	00000032 	andeq	r0, r0, r2, lsr r0
    25f4:	080b010b 	stmdaeq	fp, {r0, r1, r3, r8}
    25f8:	06010000 	streq	r0, [r1], -r0
    25fc:	20380106 	eorscs	r0, r8, r6, lsl #2
    2600:	2070c200 	rsbscs	ip, r0, r0, lsl #4
    2604:	7d02c200 	sfmvc	f4, 1, [r2, #-0]
    2608:	c4070100 	strgt	r0, [r7], #-256	; 0xffffff00
    260c:	0100000a 	tsteq	r0, sl
    2610:	00530e08 	subseq	r0, r3, r8, lsl #28
    2614:	327f0000 	rsbscc	r0, pc, #0
    2618:	327b0000 	rsbscc	r0, fp, #0
    261c:	39070000 	stmdbcc	r7, {}	; <UNPREDICTABLE>
    2620:	01000008 	tsteq	r0, r8
    2624:	00530e09 	subseq	r0, r3, r9, lsl #28
    2628:	32a40000 	adccc	r0, r4, #0
    262c:	329e0000 	addscc	r0, lr, #0
    2630:	00000000 	andeq	r0, r0, r0
    2634:	00000022 	andeq	r0, r0, r2, lsr #32
    2638:	09850002 	stmibeq	r5, {r1}
    263c:	01040000 	mrseq	r0, (UNDEF: 4)
    2640:	0000223f 	andeq	r2, r0, pc, lsr r2
    2644:	c2002098 	andgt	r2, r0, #152	; 0x98
    2648:	c2002108 	andgt	r2, r0, #8, 2
    264c:	00000b30 	andeq	r0, r0, r0, lsr fp
    2650:	000001be 			; <UNDEFINED> instruction: 0x000001be
    2654:	00000464 	andeq	r0, r0, r4, ror #8
    2658:	05368001 	ldreq	r8, [r6, #-1]!
    265c:	00020000 	andeq	r0, r2, r0
    2660:	00000999 	muleq	r0, r9, r9
    2664:	005f0104 	subseq	r0, pc, r4, lsl #2
    2668:	540c0000 	strpl	r0, [ip], #-0
    266c:	be00000d 	cdplt	0, 0, cr0, cr0, cr13, {0}
    2670:	30000001 	andcc	r0, r0, r1
    2674:	00000002 	andeq	r0, r0, r2
    2678:	00000000 	andeq	r0, r0, r0
    267c:	dc000000 	stcle	0, cr0, [r0], {-0}
    2680:	02000022 	andeq	r0, r0, #34	; 0x22
    2684:	002a0601 	eoreq	r0, sl, r1, lsl #12
    2688:	02020000 	andeq	r0, r2, #0
    268c:	0001ae05 	andeq	sl, r1, r5, lsl #28
    2690:	05040200 	streq	r0, [r4, #-512]	; 0xfffffe00
    2694:	0000019e 	muleq	r0, lr, r1
    2698:	99050802 	stmdbls	r5, {r1, fp}
    269c:	02000001 	andeq	r0, r0, #1
    26a0:	00280801 	eoreq	r0, r8, r1, lsl #16
    26a4:	02020000 	andeq	r0, r2, #0
    26a8:	00003d07 	andeq	r3, r0, r7, lsl #26
    26ac:	05630300 	strbeq	r0, [r3, #-768]!	; 0xfffffd00
    26b0:	1f020000 	svcne	0x00020000
    26b4:	0000641d 	andeq	r6, r0, sp, lsl r4
    26b8:	00530400 	subseq	r0, r3, r0, lsl #8
    26bc:	04020000 	streq	r0, [r2], #-0
    26c0:	00018007 	andeq	r8, r1, r7
    26c4:	07080200 	streq	r0, [r8, -r0, lsl #4]
    26c8:	0000017b 	andeq	r0, r0, fp, ror r1
    26cc:	85070402 	strhi	r0, [r7, #-1026]	; 0xfffffbfe
    26d0:	05000001 	streq	r0, [r0, #-1]
    26d4:	6e690504 	cdpvs	5, 6, cr0, cr9, cr4, {0}
    26d8:	79040074 	stmdbvc	r4, {r2, r4, r5, r6}
    26dc:	06000000 	streq	r0, [r0], -r0
    26e0:	00450107 	subeq	r0, r5, r7, lsl #2
    26e4:	7b030000 	blvc	c26ec <SYS_MODE+0xc26cd>
    26e8:	0000ac0e 	andeq	sl, r0, lr, lsl #24
    26ec:	0ba90700 	bleq	fea442f4 <_stack_end+0x3ca3d2f4>
    26f0:	07000000 	streq	r0, [r0, -r0]
    26f4:	00000cff 	strdeq	r0, [r0], -pc	; <UNPREDICTABLE>
    26f8:	0caa0701 	stceq	7, cr0, [sl], #4
    26fc:	07020000 	streq	r0, [r2, -r0]
    2700:	00000e73 	andeq	r0, r0, r3, ror lr
    2704:	33030003 	movwcc	r0, #12291	; 0x3003
    2708:	0300000c 	movweq	r0, #12
    270c:	00850380 	addeq	r0, r5, r0, lsl #7
    2710:	07060000 	streq	r0, [r6, -r0]
    2714:	00004501 	andeq	r4, r0, r1, lsl #10
    2718:	0e850300 	cdpeq	3, 8, cr0, cr5, cr0, {0}
    271c:	000000df 	ldrdeq	r0, [r0], -pc	; <UNPREDICTABLE>
    2720:	000c6907 	andeq	r6, ip, r7, lsl #18
    2724:	bb070000 	bllt	1c272c <SYS_MODE+0x1c270d>
    2728:	0100000d 	tsteq	r0, sp
    272c:	000e3d07 	andeq	r3, lr, r7, lsl #26
    2730:	1c070200 	sfmne	f0, 4, [r7], {-0}
    2734:	0300000c 	movweq	r0, #12
    2738:	0bbb0300 	bleq	feec3340 <_stack_end+0x3cebc340>
    273c:	8a030000 	bhi	c2744 <SYS_MODE+0xc2725>
    2740:	0000b803 	andeq	fp, r0, r3, lsl #16
    2744:	01070600 	tsteq	r7, r0, lsl #12
    2748:	00000045 	andeq	r0, r0, r5, asr #32
    274c:	0c0e8f03 	stceq	15, cr8, [lr], {3}
    2750:	07000001 	streq	r0, [r0, -r1]
    2754:	00000c4d 	andeq	r0, r0, sp, asr #24
    2758:	0c8f0700 	stceq	7, cr0, [pc], {0}
    275c:	07010000 	streq	r0, [r1, -r0]
    2760:	00000bf2 	strdeq	r0, [r0], -r2
    2764:	e7030002 	str	r0, [r3, -r2]
    2768:	0300000c 	movweq	r0, #12
    276c:	00eb0393 	smlaleq	r0, fp, r3, r3
    2770:	07060000 	streq	r0, [r6, -r0]
    2774:	00004501 	andeq	r4, r0, r1, lsl #10
    2778:	0e980300 	cdpeq	3, 9, cr0, cr8, cr0, {0}
    277c:	00000139 	andeq	r0, r0, r9, lsr r1
    2780:	000e6407 	andeq	r6, lr, r7, lsl #8
    2784:	44070000 	strmi	r0, [r7], #-0
    2788:	0100000d 	tsteq	r0, sp
    278c:	000e1107 	andeq	r1, lr, r7, lsl #2
    2790:	03000200 	movweq	r0, #512	; 0x200
    2794:	00000e8d 	andeq	r0, r0, sp, lsl #29
    2798:	18039c03 	stmdane	r3, {r0, r1, sl, fp, ip, pc}
    279c:	08000001 	stmdaeq	r0, {r0}
    27a0:	09a10310 	stmibeq	r1!, {r4, r8, r9}
    27a4:	000001c7 	andeq	r0, r0, r7, asr #3
    27a8:	000c1109 	andeq	r1, ip, r9, lsl #2
    27ac:	0aa20300 	beq	fe8833b4 <_stack_end+0x3c87c3b4>
    27b0:	000001c7 	andeq	r0, r0, r7, asr #3
    27b4:	09002302 	stmdbeq	r0, {r1, r8, r9, sp}
    27b8:	00000df3 	strdeq	r0, [r0], -r3
    27bc:	c70aa303 	strgt	sl, [sl, -r3, lsl #6]
    27c0:	02000001 	andeq	r0, r0, #1
    27c4:	ff090123 			; <UNDEFINED> instruction: 0xff090123
    27c8:	0300000d 	movweq	r0, #13
    27cc:	00530ea4 	subseq	r0, r3, r4, lsr #29
    27d0:	23020000 	movwcs	r0, #8192	; 0x2000
    27d4:	0d360904 			; <UNDEFINED> instruction: 0x0d360904
    27d8:	a5030000 	strge	r0, [r3, #-0]
    27dc:	0000ac1f 	andeq	sl, r0, pc, lsl ip
    27e0:	08230200 	stmdaeq	r3!, {r9}
    27e4:	000b9b09 	andeq	r9, fp, r9, lsl #22
    27e8:	1fa60300 	svcne	0x00a60300
    27ec:	000000ac 	andeq	r0, r0, ip, lsr #1
    27f0:	09092302 	stmdbeq	r9, {r1, r8, r9, sp}
    27f4:	00000e86 	andeq	r0, r0, r6, lsl #29
    27f8:	391ba703 	ldmdbcc	fp, {r0, r1, r8, r9, sl, sp, pc}
    27fc:	02000001 	andeq	r0, r0, #1
    2800:	08090a23 	stmdaeq	r9, {r0, r1, r5, r9, fp}
    2804:	0300000e 	movweq	r0, #14
    2808:	010c1da8 	smlatbeq	ip, r8, sp, r1
    280c:	23020000 	movwcs	r0, #8192	; 0x2000
    2810:	0b81090b 	bleq	fe044c44 <_stack_end+0x3c03dc44>
    2814:	a9030000 	stmdbge	r3, {}	; <UNPREDICTABLE>
    2818:	0000df1f 	andeq	sp, r0, pc, lsl pc
    281c:	0c230200 	sfmeq	f0, 4, [r3], #-0
    2820:	02010200 	andeq	r0, r1, #0, 4
    2824:	00000352 	andeq	r0, r0, r2, asr r3
    2828:	000cbd03 	andeq	fp, ip, r3, lsl #26
    282c:	03aa0300 			; <UNDEFINED> instruction: 0x03aa0300
    2830:	00000145 	andeq	r0, r0, r5, asr #2
    2834:	0001ce04 	andeq	ip, r1, r4, lsl #28
    2838:	010c0800 	tsteq	ip, r0, lsl #16
    283c:	02160906 	andseq	r0, r6, #98304	; 0x18000
    2840:	38090000 	stmdacc	r9, {}	; <UNPREDICTABLE>
    2844:	0100000e 	tsteq	r0, lr
    2848:	00530e07 	subseq	r0, r3, r7, lsl #28
    284c:	23020000 	movwcs	r0, #8192	; 0x2000
    2850:	6c640a00 			; <UNDEFINED> instruction: 0x6c640a00
    2854:	08010068 	stmdaeq	r1, {r3, r5, r6}
    2858:	0000530e 	andeq	r5, r0, lr, lsl #6
    285c:	04230200 	strteq	r0, [r3], #-512	; 0xfffffe00
    2860:	6c6c640a 	cfstrdvs	mvd6, [ip], #-40	; 0xffffffd8
    2864:	0e090100 	adfeqe	f0, f1, f0
    2868:	00000053 	andeq	r0, r0, r3, asr r0
    286c:	00082302 	andeq	r2, r8, r2, lsl #6
    2870:	000da303 	andeq	sl, sp, r3, lsl #6
    2874:	030a0100 	movweq	r0, #41216	; 0xa100
    2878:	000001df 	ldrdeq	r0, [r0], -pc	; <UNPREDICTABLE>
    287c:	00021604 	andeq	r1, r2, r4, lsl #12
    2880:	02220b00 	eoreq	r0, r2, #0, 22
    2884:	02370000 	eorseq	r0, r7, #0
    2888:	720c0000 	andvc	r0, ip, #0
    288c:	0b000000 	bleq	2894 <SYS_MODE+0x2875>
    2890:	02270400 	eoreq	r0, r7, #0, 8
    2894:	d30d0000 	movwle	r0, #53248	; 0xd000
    2898:	0100000c 	tsteq	r0, ip
    289c:	0237260c 	eorseq	r2, r7, #12, 12	; 0xc00000
    28a0:	03050000 	movweq	r0, #20480	; 0x5000
    28a4:	c2002a68 	andgt	r2, r0, #104, 20	; 0x68000
    28a8:	0d1a010e 	ldfeqs	f0, [sl, #-56]	; 0xffffffc8
    28ac:	18010000 	stmdane	r1, {}	; <UNPREDICTABLE>
    28b0:	c4010601 	strgt	r0, [r1], #-1537	; 0xfffff9ff
    28b4:	d8c20023 	stmiale	r2, {r0, r1, r5}^
    28b8:	02c20023 	sbceq	r0, r2, #35	; 0x23
    28bc:	a901007d 	stmdbge	r1, {r0, r2, r3, r4, r5, r6}
    28c0:	0f000002 	svceq	0x00000002
    28c4:	00000d29 	andeq	r0, r0, r9, lsr #26
    28c8:	24011801 	strcs	r1, [r1], #-2049	; 0xfffff7ff
    28cc:	0000005f 	andeq	r0, r0, pc, asr r0
    28d0:	000032d0 	ldrdeq	r3, [r0], -r0
    28d4:	000032ce 	andeq	r3, r0, lr, asr #5
    28d8:	000c640f 	andeq	r6, ip, pc, lsl #8
    28dc:	01180100 	tsteq	r8, r0, lsl #2
    28e0:	0000803c 	andeq	r8, r0, ip, lsr r0
    28e4:	0032e500 	eorseq	lr, r2, r0, lsl #10
    28e8:	0032e300 	eorseq	lr, r2, r0, lsl #6
    28ec:	024f1000 	subeq	r1, pc, #0
    28f0:	1a010000 	bne	428f8 <SYS_MODE+0x428d9>
    28f4:	00530e01 	subseq	r0, r3, r1, lsl #28
    28f8:	32fc0000 	rscscc	r0, ip, #0
    28fc:	32f80000 	rscscc	r0, r8, #0
    2900:	11000000 	mrsne	r0, (UNDEF: 0)
    2904:	000b8c01 	andeq	r8, fp, r1, lsl #24
    2908:	010e0100 	mrseq	r0, (UNDEF: 30)
    290c:	23940106 	orrscs	r0, r4, #-2147483647	; 0x80000001
    2910:	23c4c200 	biccs	ip, r4, #0, 4
    2914:	3321c200 			; <UNDEFINED> instruction: 0x3321c200
    2918:	34010000 	strcc	r0, [r1], #-0
    291c:	0f000003 	svceq	0x00000003
    2920:	00000d29 	andeq	r0, r0, r9, lsr #26
    2924:	24010e01 	strcs	r0, [r1], #-3585	; 0xfffff1ff
    2928:	0000005f 	andeq	r0, r0, pc, asr r0
    292c:	00003345 	andeq	r3, r0, r5, asr #6
    2930:	00003341 	andeq	r3, r0, r1, asr #6
    2934:	000f7d0f 	andeq	r7, pc, pc, lsl #26
    2938:	010e0100 	mrseq	r0, (UNDEF: 30)
    293c:	0003344f 	andeq	r3, r3, pc, asr #8
    2940:	00336700 	eorseq	r6, r3, r0, lsl #14
    2944:	00336300 	eorseq	r6, r3, r0, lsl #6
    2948:	23a81200 			; <UNDEFINED> instruction: 0x23a81200
    294c:	0460c200 	strbteq	ip, [r0], #-512	; 0xfffffe00
    2950:	03030000 	movweq	r0, #12288	; 0x3000
    2954:	01130000 	tsteq	r3, r0
    2958:	00750250 	rsbseq	r0, r5, r0, asr r2
    295c:	23b41200 			; <UNDEFINED> instruction: 0x23b41200
    2960:	03d9c200 	bicseq	ip, r9, #0, 4
    2964:	031d0000 	tsteq	sp, #0
    2968:	01130000 	tsteq	r3, r0
    296c:	00750250 	rsbseq	r0, r5, r0, asr r2
    2970:	02510113 	subseq	r0, r1, #-1073741820	; 0xc0000004
    2974:	14000074 	strne	r0, [r0], #-116	; 0xffffff8c
    2978:	c20023c0 	andgt	r2, r0, #192, 6
    297c:	0000033a 	andeq	r0, r0, sl, lsr r3
    2980:	02500113 	subseq	r0, r0, #-1073741820	; 0xc0000004
    2984:	01130075 	tsteq	r3, r5, ror r0
    2988:	00740251 	rsbseq	r0, r4, r1, asr r2
    298c:	04150000 	ldreq	r0, [r5], #-0
    2990:	000001da 	ldrdeq	r0, [r0], -sl
    2994:	000bd516 	andeq	sp, fp, r6, lsl r5
    2998:	0da20100 	stfeqs	f0, [r2]
    299c:	00228001 	eoreq	r8, r2, r1
    29a0:	002394c2 	eoreq	r9, r3, r2, asr #9
    29a4:	003385c2 	eorseq	r8, r3, r2, asr #11
    29a8:	03d90100 	bicseq	r0, r9, #0, 2
    29ac:	29170000 	ldmdbcs	r7, {}	; <UNPREDICTABLE>
    29b0:	0100000d 	tsteq	r0, sp
    29b4:	005f39a2 	subseq	r3, pc, r2, lsr #19
    29b8:	33cd0000 	biccc	r0, sp, #0
    29bc:	33c90000 	biccc	r0, r9, #0
    29c0:	7d170000 	ldcvc	0, cr0, [r7, #-0]
    29c4:	0100000f 	tsteq	r0, pc
    29c8:	033464a2 	teqeq	r4, #-1577058304	; 0xa2000000
    29cc:	33ef0000 	mvncc	r0, #0
    29d0:	33eb0000 	mvncc	r0, #0
    29d4:	4f180000 	svcmi	0x00180000
    29d8:	01000002 	tsteq	r0, r2
    29dc:	00530ea4 	subseq	r0, r3, r4, lsr #29
    29e0:	342d0000 	strtcc	r0, [sp], #-0
    29e4:	340d0000 	strcc	r0, [sp], #-0
    29e8:	87180000 	ldrhi	r0, [r8, -r0]
    29ec:	0100000c 	tsteq	r0, ip
    29f0:	00531ca4 	subseq	r1, r3, r4, lsr #25
    29f4:	350b0000 	strcc	r0, [fp, #-0]
    29f8:	35050000 	strcc	r0, [r5, #-0]
    29fc:	64190000 	ldrvs	r0, [r9], #-0
    2a00:	0100686c 	tsteq	r0, ip, ror #16
    2a04:	00532ca4 	subseq	r2, r3, r4, lsr #25
    2a08:	91020000 	mrsls	r0, (UNDEF: 2)
    2a0c:	6c64196c 			; <UNDEFINED> instruction: 0x6c64196c
    2a10:	a401006c 	strge	r0, [r1], #-108	; 0xffffff94
    2a14:	00005338 	andeq	r5, r0, r8, lsr r3
    2a18:	68910200 	ldmvs	r1, {r9}
    2a1c:	0022ac14 	eoreq	sl, r2, r4, lsl ip
    2a20:	0004b0c2 	andeq	fp, r4, r2, asr #1
    2a24:	51011300 	mrspl	r1, SP_irq
    2a28:	13649102 	cmnne	r4, #-2147483648	; 0x80000000
    2a2c:	91025201 	tstls	r2, r1, lsl #4
    2a30:	16000060 	strne	r0, [r0], -r0, rrx
    2a34:	00000dd2 	ldrdeq	r0, [r0], -r2
    2a38:	010d5201 	tsteq	sp, r1, lsl #4
    2a3c:	c20021a4 	andgt	r2, r0, #164, 2	; 0x29
    2a40:	c2002280 	andgt	r2, r0, #128, 4
    2a44:	00003543 	andeq	r3, r0, r3, asr #10
    2a48:	00046001 	andeq	r6, r4, r1
    2a4c:	0d291a00 	vstmdbeq	r9!, {s2-s1}
    2a50:	52010000 	andpl	r0, r1, #0
    2a54:	00005f3d 	andeq	r5, r0, sp, lsr pc
    2a58:	1a500100 	bne	1402e60 <SYS_MODE+0x1402e41>
    2a5c:	00000f7d 	andeq	r0, r0, sp, ror pc
    2a60:	34685201 	strbtcc	r5, [r8], #-513	; 0xfffffdff
    2a64:	01000003 	tsteq	r0, r3
    2a68:	024f1851 	subeq	r1, pc, #5308416	; 0x510000
    2a6c:	54010000 	strpl	r0, [r1], #-0
    2a70:	0000530e 	andeq	r5, r0, lr, lsl #6
    2a74:	00357d00 	eorseq	r7, r5, r0, lsl #26
    2a78:	00356300 	eorseq	r6, r5, r0, lsl #6
    2a7c:	0c091800 	stceq	8, cr1, [r9], {-0}
    2a80:	54010000 	strpl	r0, [r1], #-0
    2a84:	0000531c 	andeq	r5, r0, ip, lsl r3
    2a88:	00361e00 	eorseq	r1, r6, r0, lsl #28
    2a8c:	00361a00 	eorseq	r1, r6, r0, lsl #20
    2a90:	0c871800 	stceq	8, cr1, [r7], {0}
    2a94:	54010000 	strpl	r0, [r1], #-0
    2a98:	0000532c 	andeq	r5, r0, ip, lsr #6
    2a9c:	00364100 	eorseq	r4, r6, r0, lsl #2
    2aa0:	00363d00 	eorseq	r3, r6, r0, lsl #26
    2aa4:	0d121800 	ldceq	8, cr1, [r2, #-0]
    2aa8:	54010000 	strpl	r0, [r1], #-0
    2aac:	0000533c 	andeq	r5, r0, ip, lsr r3
    2ab0:	00366400 	eorseq	r6, r6, r0, lsl #8
    2ab4:	00366000 	eorseq	r6, r6, r0
    2ab8:	541b0000 	ldrpl	r0, [fp], #-0
    2abc:	0100000e 	tsteq	r0, lr
    2ac0:	80010d3a 	andhi	r0, r1, sl, lsr sp
    2ac4:	a4c20021 	strbge	r0, [r2], #33	; 0x21
    2ac8:	02c20021 	sbceq	r0, r2, #33	; 0x21
    2acc:	b001007d 	andlt	r0, r1, sp, ror r0
    2ad0:	1a000004 	bne	2ae8 <SYS_MODE+0x2ac9>
    2ad4:	00000d29 	andeq	r0, r0, r9, lsr #26
    2ad8:	5f2c3a01 	svcpl	0x002c3a01
    2adc:	01000000 	mrseq	r0, (UNDEF: 0)
    2ae0:	024f1850 	subeq	r1, pc, #80, 16	; 0x500000
    2ae4:	3c010000 	stccc	0, cr0, [r1], {-0}
    2ae8:	0000530e 	andeq	r5, r0, lr, lsl #6
    2aec:	00368900 	eorseq	r8, r6, r0, lsl #18
    2af0:	00368300 	eorseq	r8, r6, r0, lsl #6
    2af4:	0c801800 	stceq	8, cr1, [r0], {0}
    2af8:	3c010000 	stccc	0, cr0, [r1], {-0}
    2afc:	0000531c 	andeq	r5, r0, ip, lsl r3
    2b00:	0036b900 	eorseq	fp, r6, r0, lsl #18
    2b04:	0036b500 	eorseq	fp, r6, r0, lsl #10
    2b08:	291c0000 	ldmdbcs	ip, {}	; <UNPREDICTABLE>
    2b0c:	0100000e 	tsteq	r0, lr
    2b10:	c7010d22 	strgt	r0, [r1, -r2, lsr #26]
    2b14:	08000001 	stmdaeq	r0, {r0}
    2b18:	80c20021 	sbchi	r0, r2, r1, lsr #32
    2b1c:	d8c20021 	stmiale	r2, {r0, r5}^
    2b20:	01000036 	tsteq	r0, r6, lsr r0
    2b24:	00000533 	andeq	r0, r0, r3, lsr r5
    2b28:	000dff17 	andeq	pc, sp, r7, lsl pc	; <UNPREDICTABLE>
    2b2c:	30220100 	eorcc	r0, r2, r0, lsl #2
    2b30:	0000005f 	andeq	r0, r0, pc, asr r0
    2b34:	000036fc 	strdeq	r3, [r0], -ip
    2b38:	000036f8 	strdeq	r3, [r0], -r8
    2b3c:	686c641d 	stmdavs	ip!, {r0, r2, r3, r4, sl, sp, lr}^
    2b40:	44220100 	strtmi	r0, [r2], #-256	; 0xffffff00
    2b44:	00000533 	andeq	r0, r0, r3, lsr r5
    2b48:	00003720 	andeq	r3, r0, r0, lsr #14
    2b4c:	0000371a 	andeq	r3, r0, sl, lsl r7
    2b50:	6c6c641d 	cfstrdvs	mvd6, [ip], #-116	; 0xffffff8c
    2b54:	53220100 			; <UNDEFINED> instruction: 0x53220100
    2b58:	00000533 	andeq	r0, r0, r3, lsr r5
    2b5c:	0000374f 	andeq	r3, r0, pc, asr #14
    2b60:	00003749 	andeq	r3, r0, r9, asr #14
    2b64:	000e221e 	andeq	r2, lr, lr, lsl r2
    2b68:	0e270100 	sufeqs	f0, f7, f0
    2b6c:	00000053 	andeq	r0, r0, r3, asr r0
    2b70:	00212c1f 	eoreq	r2, r1, pc, lsl ip
    2b74:	002178c2 	eoreq	r7, r1, r2, asr #17
    2b78:	006920c2 	rsbeq	r2, r9, r2, asr #1
    2b7c:	53132901 	tstpl	r3, #16384	; 0x4000
    2b80:	7a000000 	bvc	2b88 <SYS_MODE+0x2b69>
    2b84:	78000037 	stmdavc	r0, {r0, r1, r2, r4, r5}
    2b88:	00000037 	andeq	r0, r0, r7, lsr r0
    2b8c:	53041500 	movwpl	r1, #17664	; 0x4500
    2b90:	00000000 	andeq	r0, r0, r0
    2b94:	0000057d 	andeq	r0, r0, sp, ror r5
    2b98:	0bb20002 	bleq	fec82ba8 <_stack_end+0x3cc7bba8>
    2b9c:	01040000 	mrseq	r0, (UNDEF: 4)
    2ba0:	0000005f 	andeq	r0, r0, pc, asr r0
    2ba4:	0010710c 	andseq	r7, r0, ip, lsl #2
    2ba8:	0001be00 	andeq	fp, r1, r0, lsl #28
    2bac:	0002c000 	andeq	ip, r2, r0
	...
    2bb8:	0026fe00 	eoreq	pc, r6, r0, lsl #28
    2bbc:	06010200 	streq	r0, [r1], -r0, lsl #4
    2bc0:	0000002a 	andeq	r0, r0, sl, lsr #32
    2bc4:	ae050202 	cdpge	2, 0, cr0, cr5, cr2, {0}
    2bc8:	02000001 	andeq	r0, r0, #1
    2bcc:	019e0504 	orrseq	r0, lr, r4, lsl #10
    2bd0:	08020000 	stmdaeq	r2, {}	; <UNPREDICTABLE>
    2bd4:	00019905 	andeq	r9, r1, r5, lsl #18
    2bd8:	08010200 	stmdaeq	r1, {r9}
    2bdc:	00000028 	andeq	r0, r0, r8, lsr #32
    2be0:	3d070202 	sfmcc	f0, 4, [r7, #-8]
    2be4:	03000000 	movweq	r0, #0
    2be8:	00000563 	andeq	r0, r0, r3, ror #10
    2bec:	5f1d1f02 	svcpl	0x001d1f02
    2bf0:	02000000 	andeq	r0, r0, #0
    2bf4:	01800704 	orreq	r0, r0, r4, lsl #14
    2bf8:	08020000 	stmdaeq	r2, {}	; <UNPREDICTABLE>
    2bfc:	00017b07 	andeq	r7, r1, r7, lsl #22
    2c00:	07040200 	streq	r0, [r4, -r0, lsl #4]
    2c04:	00000185 	andeq	r0, r0, r5, lsl #3
    2c08:	69050404 	stmdbvs	r5, {r2, sl}
    2c0c:	0500746e 	streq	r7, [r0, #-1134]	; 0xfffffb92
    2c10:	00450107 	subeq	r0, r5, r7, lsl #2
    2c14:	7b030000 	blvc	c2c1c <SYS_MODE+0xc2bfd>
    2c18:	0000a20e 	andeq	sl, r0, lr, lsl #4
    2c1c:	0ba90600 	bleq	fea44424 <_stack_end+0x3ca3d424>
    2c20:	06000000 	streq	r0, [r0], -r0
    2c24:	00000cff 	strdeq	r0, [r0], -pc	; <UNPREDICTABLE>
    2c28:	0caa0601 	stceq	6, cr0, [sl], #4
    2c2c:	06020000 	streq	r0, [r2], -r0
    2c30:	00000e73 	andeq	r0, r0, r3, ror lr
    2c34:	33030003 	movwcc	r0, #12291	; 0x3003
    2c38:	0300000c 	movweq	r0, #12
    2c3c:	007b0380 	rsbseq	r0, fp, r0, lsl #7
    2c40:	07050000 	streq	r0, [r5, -r0]
    2c44:	00004501 	andeq	r4, r0, r1, lsl #10
    2c48:	0e850300 	cdpeq	3, 8, cr0, cr5, cr0, {0}
    2c4c:	000000d5 	ldrdeq	r0, [r0], -r5
    2c50:	000c6906 	andeq	r6, ip, r6, lsl #18
    2c54:	bb060000 	bllt	182c5c <SYS_MODE+0x182c3d>
    2c58:	0100000d 	tsteq	r0, sp
    2c5c:	000e3d06 	andeq	r3, lr, r6, lsl #26
    2c60:	1c060200 	sfmne	f0, 4, [r6], {-0}
    2c64:	0300000c 	movweq	r0, #12
    2c68:	0bbb0300 	bleq	feec3870 <_stack_end+0x3cebc870>
    2c6c:	8a030000 	bhi	c2c74 <SYS_MODE+0xc2c55>
    2c70:	0000ae03 	andeq	sl, r0, r3, lsl #28
    2c74:	01070500 	tsteq	r7, r0, lsl #10
    2c78:	00000045 	andeq	r0, r0, r5, asr #32
    2c7c:	020e8f03 	andeq	r8, lr, #3, 30
    2c80:	06000001 	streq	r0, [r0], -r1
    2c84:	00000c4d 	andeq	r0, r0, sp, asr #24
    2c88:	0c8f0600 	stceq	6, cr0, [pc], {0}
    2c8c:	06010000 	streq	r0, [r1], -r0
    2c90:	00000bf2 	strdeq	r0, [r0], -r2
    2c94:	e7030002 	str	r0, [r3, -r2]
    2c98:	0300000c 	movweq	r0, #12
    2c9c:	00e10393 	smlaleq	r0, r1, r3, r3
    2ca0:	07050000 	streq	r0, [r5, -r0]
    2ca4:	00004501 	andeq	r4, r0, r1, lsl #10
    2ca8:	0e980300 	cdpeq	3, 9, cr0, cr8, cr0, {0}
    2cac:	0000012f 	andeq	r0, r0, pc, lsr #2
    2cb0:	000e6406 	andeq	r6, lr, r6, lsl #8
    2cb4:	44060000 	strmi	r0, [r6], #-0
    2cb8:	0100000d 	tsteq	r0, sp
    2cbc:	000e1106 	andeq	r1, lr, r6, lsl #2
    2cc0:	03000200 	movweq	r0, #512	; 0x200
    2cc4:	00000e8d 	andeq	r0, r0, sp, lsl #29
    2cc8:	0e039c03 	cdpeq	12, 0, cr9, cr3, cr3, {0}
    2ccc:	07000001 	streq	r0, [r0, -r1]
    2cd0:	09a10310 	stmibeq	r1!, {r4, r8, r9}
    2cd4:	000001bd 			; <UNDEFINED> instruction: 0x000001bd
    2cd8:	000c1108 	andeq	r1, ip, r8, lsl #2
    2cdc:	0aa20300 	beq	fe8838e4 <_stack_end+0x3c87c8e4>
    2ce0:	000001bd 			; <UNDEFINED> instruction: 0x000001bd
    2ce4:	08002302 	stmdaeq	r0, {r1, r8, r9, sp}
    2ce8:	00000df3 	strdeq	r0, [r0], -r3
    2cec:	bd0aa303 	stclt	3, cr10, [sl, #-12]
    2cf0:	02000001 	andeq	r0, r0, #1
    2cf4:	ff080123 			; <UNDEFINED> instruction: 0xff080123
    2cf8:	0300000d 	movweq	r0, #13
    2cfc:	00530ea4 	subseq	r0, r3, r4, lsr #29
    2d00:	23020000 	movwcs	r0, #8192	; 0x2000
    2d04:	0d360804 	ldceq	8, cr0, [r6, #-16]!
    2d08:	a5030000 	strge	r0, [r3, #-0]
    2d0c:	0000a21f 	andeq	sl, r0, pc, lsl r2
    2d10:	08230200 	stmdaeq	r3!, {r9}
    2d14:	000b9b08 	andeq	r9, fp, r8, lsl #22
    2d18:	1fa60300 	svcne	0x00a60300
    2d1c:	000000a2 	andeq	r0, r0, r2, lsr #1
    2d20:	08092302 	stmdaeq	r9, {r1, r8, r9, sp}
    2d24:	00000e86 	andeq	r0, r0, r6, lsl #29
    2d28:	2f1ba703 	svccs	0x001ba703
    2d2c:	02000001 	andeq	r0, r0, #1
    2d30:	08080a23 	stmdaeq	r8, {r0, r1, r5, r9, fp}
    2d34:	0300000e 	movweq	r0, #14
    2d38:	01021da8 	smlatbeq	r2, r8, sp, r1
    2d3c:	23020000 	movwcs	r0, #8192	; 0x2000
    2d40:	0b81080b 	bleq	fe044d74 <_stack_end+0x3c03dd74>
    2d44:	a9030000 	stmdbge	r3, {}	; <UNPREDICTABLE>
    2d48:	0000d51f 	andeq	sp, r0, pc, lsl r5
    2d4c:	0c230200 	sfmeq	f0, 4, [r3], #-0
    2d50:	02010200 	andeq	r0, r1, #0, 4
    2d54:	00000352 	andeq	r0, r0, r2, asr r3
    2d58:	000cbd03 	andeq	fp, ip, r3, lsl #26
    2d5c:	03aa0300 			; <UNDEFINED> instruction: 0x03aa0300
    2d60:	0000013b 	andeq	r0, r0, fp, lsr r1
    2d64:	0001c409 	andeq	ip, r1, r9, lsl #8
    2d68:	10100a00 	andsne	r0, r0, r0, lsl #20
    2d6c:	01070000 	mrseq	r0, (UNDEF: 7)
    2d70:	00000045 	andeq	r0, r0, r5, asr #32
    2d74:	fa062804 	blx	18cd8c <SYS_MODE+0x18cd6d>
    2d78:	06000001 	streq	r0, [r0], -r1
    2d7c:	00001051 	andeq	r1, r0, r1, asr r0
    2d80:	0f840600 	svceq	0x00840600
    2d84:	06010000 	streq	r0, [r1], -r0
    2d88:	00000ee7 	andeq	r0, r0, r7, ror #29
    2d8c:	d10a0002 	tstle	sl, r2
    2d90:	0700000e 	streq	r0, [r0, -lr]
    2d94:	00004501 	andeq	r4, r0, r1, lsl #10
    2d98:	06310400 	ldrteq	r0, [r1], -r0, lsl #8
    2d9c:	0000021f 	andeq	r0, r0, pc, lsl r2
    2da0:	000ffc06 	andeq	pc, pc, r6, lsl #24
    2da4:	49060000 	stmdbmi	r6, {}	; <UNPREDICTABLE>
    2da8:	0100000f 	tsteq	r0, pc
    2dac:	000fdd06 	andeq	sp, pc, r6, lsl #26
    2db0:	0b000200 	bleq	35b8 <SYS_MODE+0x3599>
    2db4:	00000fd0 	ldrdeq	r0, [r0], -r0	; <UNPREDICTABLE>
    2db8:	d01d1301 	andsle	r1, sp, r1, lsl #6
    2dbc:	01000001 	tsteq	r0, r1
    2dc0:	2b280305 	blcs	a039dc <SYS_MODE+0xa039bd>
    2dc4:	010cc200 	mrseq	ip, R12_fiq
    2dc8:	00000764 	andeq	r0, r0, r4, ror #14
    2dcc:	01069901 	tsteq	r6, r1, lsl #18
    2dd0:	c2002560 	andgt	r2, r0, #96, 10	; 0x18000000
    2dd4:	c2002588 	andgt	r2, r0, #136, 10	; 0x22000000
    2dd8:	0000378d 	andeq	r3, r0, sp, lsl #15
    2ddc:	00027801 	andeq	r7, r2, r1, lsl #16
    2de0:	25780d00 	ldrbcs	r0, [r8, #-3328]!	; 0xfffff300
    2de4:	04cac200 	strbeq	ip, [sl], #512	; 0x200
    2de8:	02640000 	rsbeq	r0, r4, #0
    2dec:	010e0000 	mrseq	r0, (UNDEF: 14)
    2df0:	28030551 	stmdacs	r3, {r0, r4, r6, r8, sl}
    2df4:	00c2002b 	sbceq	r0, r2, fp, lsr #32
    2df8:	0025840f 	eoreq	r8, r5, pc, lsl #8
    2dfc:	0004d8c2 	andeq	sp, r4, r2, asr #17
    2e00:	50010e00 	andpl	r0, r1, r0, lsl #28
    2e04:	2af80305 	bcs	ffe03a20 <_stack_end+0x3ddfca20>
    2e08:	0000c200 	andeq	ip, r0, r0, lsl #4
    2e0c:	0ef9010c 	cdpeq	1, 15, cr0, cr9, cr12, {0}
    2e10:	7b010000 	blvc	42e18 <SYS_MODE+0x42df9>
    2e14:	00000106 	andeq	r0, r0, r6, lsl #2
    2e18:	00000000 	andeq	r0, r0, r0
    2e1c:	37ad0000 	strcc	r0, [sp, r0]!
    2e20:	52010000 	andpl	r0, r1, #0
    2e24:	10000003 	andne	r0, r0, r3
    2e28:	00000f9f 	muleq	r0, pc, pc	; <UNPREDICTABLE>
    2e2c:	531f7b01 	tstpl	pc, #1024	; 0x400
    2e30:	d1000000 	mrsle	r0, (UNDEF: 0)
    2e34:	cd000037 	stcgt	0, cr0, [r0, #-220]	; 0xffffff24
    2e38:	0d000037 	stceq	0, cr0, [r0, #-220]	; 0xffffff24
    2e3c:	00000000 	andeq	r0, r0, r0
    2e40:	000004e6 	andeq	r0, r0, r6, ror #9
    2e44:	000002bb 			; <UNDEFINED> instruction: 0x000002bb
    2e48:	0250010e 	subseq	r0, r0, #-2147483645	; 0x80000003
    2e4c:	0d000074 	stceq	0, cr0, [r0, #-464]	; 0xfffffe30
    2e50:	00000000 	andeq	r0, r0, r0
    2e54:	000004f4 	strdeq	r0, [r0], -r4
    2e58:	000002d6 	ldrdeq	r0, [r0], -r6
    2e5c:	0250010e 	subseq	r0, r0, #-2147483645	; 0x80000003
    2e60:	010e0074 	tsteq	lr, r4, ror r0
    2e64:	000b0351 	andeq	r0, fp, r1, asr r3
    2e68:	000d00ff 	strdeq	r0, [sp], -pc	; <UNPREDICTABLE>
    2e6c:	02000000 	andeq	r0, r0, #0
    2e70:	f1000005 	cps	#5
    2e74:	0e000002 	cdpeq	0, 0, cr0, cr0, cr2, {0}
    2e78:	74025001 	strvc	r5, [r2], #-1
    2e7c:	51010e00 	tstpl	r1, r0, lsl #28
    2e80:	ff000b03 			; <UNDEFINED> instruction: 0xff000b03
    2e84:	00000d00 	andeq	r0, r0, r0, lsl #26
    2e88:	05100000 	ldreq	r0, [r0, #-0]
    2e8c:	030a0000 	movweq	r0, #40960	; 0xa000
    2e90:	010e0000 	mrseq	r0, (UNDEF: 14)
    2e94:	00740250 	rsbseq	r0, r4, r0, asr r2
    2e98:	0151010e 	cmpeq	r1, lr, lsl #2
    2e9c:	000d0030 	andeq	r0, sp, r0, lsr r0
    2ea0:	1e000000 	cdpne	0, 0, cr0, cr0, cr0, {0}
    2ea4:	23000005 	movwcs	r0, #5
    2ea8:	0e000003 	cdpeq	0, 0, cr0, cr0, cr3, {0}
    2eac:	74025001 	strvc	r5, [r2], #-1
    2eb0:	51010e00 	tstpl	r1, r0, lsl #28
    2eb4:	0d003101 	stfeqs	f3, [r0, #-4]
    2eb8:	00000000 	andeq	r0, r0, r0
    2ebc:	0000052c 	andeq	r0, r0, ip, lsr #10
    2ec0:	00000341 	andeq	r0, r0, r1, asr #6
    2ec4:	0250010e 	subseq	r0, r0, #-2147483645	; 0x80000003
    2ec8:	010e4408 	tsteq	lr, r8, lsl #8
    2ecc:	0e3f0151 	mrceq	1, 1, r0, cr15, cr1, {2}
    2ed0:	30015201 	andcc	r5, r1, r1, lsl #4
    2ed4:	00000f00 	andeq	r0, r0, r0, lsl #30
    2ed8:	053a0000 	ldreq	r0, [sl, #-0]!
    2edc:	010e0000 	mrseq	r0, (UNDEF: 14)
    2ee0:	00740250 	rsbseq	r0, r4, r0, asr r2
    2ee4:	010c0000 	mrseq	r0, (UNDEF: 12)
    2ee8:	000007af 	andeq	r0, r0, pc, lsr #15
    2eec:	01067201 	tsteq	r6, r1, lsl #4
    2ef0:	c2002554 	andgt	r2, r0, #84, 10	; 0x15000000
    2ef4:	c2002560 	andgt	r2, r0, #96, 10	; 0x18000000
    2ef8:	000037ef 	andeq	r3, r0, pc, ror #15
    2efc:	00037701 	andeq	r7, r3, r1, lsl #14
    2f00:	255c1100 	ldrbcs	r1, [ip, #-256]	; 0xffffff00
    2f04:	0377c200 	cmneq	r7, #0, 4
    2f08:	12000000 	andne	r0, r0, #0
    2f0c:	00000f73 	andeq	r0, r0, r3, ror pc
    2f10:	010d2101 	tsteq	sp, r1, lsl #2
    2f14:	c20023d8 	andgt	r2, r0, #216, 6	; 0x60000003
    2f18:	c200253c 	andgt	r2, r0, #60, 10	; 0xf000000
    2f1c:	0000380f 	andeq	r3, r0, pc, lsl #16
    2f20:	00048401 	andeq	r8, r4, r1, lsl #8
    2f24:	0ff21300 	svceq	0x00f21300
    2f28:	29010000 	stmdbcs	r1, {}	; <UNPREDICTABLE>
    2f2c:	0000530f 	andeq	r5, r0, pc, lsl #6
    2f30:	00383b00 	eorseq	r3, r8, r0, lsl #22
    2f34:	00382f00 	eorseq	r2, r8, r0, lsl #30
    2f38:	10451300 	subne	r1, r5, r0, lsl #6
    2f3c:	2a010000 	bcs	42f44 <SYS_MODE+0x42f25>
    2f40:	0000530f 	andeq	r5, r0, pc, lsl #6
    2f44:	00389300 	eorseq	r9, r8, r0, lsl #6
    2f48:	00388900 	eorseq	r8, r8, r0, lsl #18
    2f4c:	10661300 	rsbne	r1, r6, r0, lsl #6
    2f50:	2b010000 	blcs	42f58 <SYS_MODE+0x42f39>
    2f54:	0004840f 	andeq	r8, r4, pc, lsl #8
    2f58:	0038d500 	eorseq	sp, r8, r0, lsl #10
    2f5c:	0038d300 	eorseq	sp, r8, r0, lsl #6
    2f60:	0f3c1300 	svceq	0x003c1300
    2f64:	44010000 	strmi	r0, [r1], #-0
    2f68:	0000530e 	andeq	r5, r0, lr, lsl #6
    2f6c:	0038ee00 	eorseq	lr, r8, r0, lsl #28
    2f70:	0038ec00 	eorseq	lr, r8, r0, lsl #24
    2f74:	0f9a1400 	svceq	0x009a1400
    2f78:	57010000 	strpl	r0, [r1, -r0]
    2f7c:	0004840f 	andeq	r8, r4, pc, lsl #8
    2f80:	10291300 	eorne	r1, r9, r0, lsl #6
    2f84:	58010000 	stmdapl	r1, {}	; <UNPREDICTABLE>
    2f88:	0000530f 	andeq	r5, r0, pc, lsl #6
    2f8c:	00390300 	eorseq	r0, r9, r0, lsl #6
    2f90:	00390100 	eorseq	r0, r9, r0, lsl #2
    2f94:	02681500 	rsbeq	r1, r8, #0, 10
    2f98:	041d0000 	ldreq	r0, [sp], #-0
    2f9c:	69160000 	ldmdbvs	r6, {}	; <UNPREDICTABLE>
    2fa0:	132c0100 			; <UNDEFINED> instruction: 0x132c0100
    2fa4:	00000053 	andeq	r0, r0, r3, asr r0
    2fa8:	0000391c 	andeq	r3, r0, ip, lsl r9
    2fac:	00003916 	andeq	r3, r0, r6, lsl r9
    2fb0:	02881500 	addeq	r1, r8, #0, 10
    2fb4:	04390000 	ldrteq	r0, [r9], #-0
    2fb8:	69160000 	ldmdbvs	r6, {}	; <UNPREDICTABLE>
    2fbc:	13450100 	movtne	r0, #20736	; 0x5100
    2fc0:	00000053 	andeq	r0, r0, r3, asr r0
    2fc4:	00003948 	andeq	r3, r0, r8, asr #18
    2fc8:	00003946 	andeq	r3, r0, r6, asr #18
    2fcc:	02a81500 	adceq	r1, r8, #0, 10
    2fd0:	04550000 	ldrbeq	r0, [r5], #-0
    2fd4:	69160000 	ldmdbvs	r6, {}	; <UNPREDICTABLE>
    2fd8:	13590100 	cmpne	r9, #0, 2
    2fdc:	00000053 	andeq	r0, r0, r3, asr r0
    2fe0:	0000395d 	andeq	r3, r0, sp, asr r9
    2fe4:	0000395b 	andeq	r3, r0, fp, asr r9
    2fe8:	23e40d00 	mvncs	r0, #0, 26
    2fec:	0548c200 	strbeq	ip, [r8, #-512]	; 0xfffffe00
    2ff0:	046b0000 	strbteq	r0, [fp], #-0
    2ff4:	010e0000 	mrseq	r0, (UNDEF: 14)
    2ff8:	4b400450 	blmi	1004140 <SYS_MODE+0x1004121>
    2ffc:	11001f24 	tstne	r0, r4, lsr #30
    3000:	c20023f0 	andgt	r2, r0, #240, 6	; 0xc0000003
    3004:	00000556 	andeq	r0, r0, r6, asr r5
    3008:	0023f80f 	eoreq	pc, r3, pc, lsl #16
    300c:	000564c2 	andeq	r6, r5, r2, asr #9
    3010:	50010e00 	andpl	r0, r1, r0, lsl #28
    3014:	00003101 	andeq	r3, r0, r1, lsl #2
    3018:	00530417 	subseq	r0, r3, r7, lsl r4
    301c:	010c0000 	mrseq	r0, (UNDEF: 12)
    3020:	0000039b 	muleq	r0, fp, r3
    3024:	01060e01 	tsteq	r6, r1, lsl #28
    3028:	c200253c 	andgt	r2, r0, #60, 10	; 0xf000000
    302c:	c2002554 	andgt	r2, r0, #84, 10	; 0x15000000
    3030:	00003970 	andeq	r3, r0, r0, ror r9
    3034:	0004c301 	andeq	ip, r4, r1, lsl #6
    3038:	03771000 	cmneq	r7, #0
    303c:	0e010000 	cdpeq	0, 0, cr0, cr1, cr0, {0}
    3040:	0004c314 	andeq	ip, r4, r4, lsl r3
    3044:	00399400 	eorseq	r9, r9, r0, lsl #8
    3048:	00399000 	eorseq	r9, r9, r0
    304c:	25501100 	ldrbcs	r1, [r0, #-256]	; 0xffffff00
    3050:	0572c200 	ldrbeq	ip, [r2, #-512]!	; 0xfffffe00
    3054:	02000000 	andeq	r0, r0, #0
    3058:	00310801 	eorseq	r0, r1, r1, lsl #16
    305c:	01180000 	tsteq	r8, r0
    3060:	000b8c01 	andeq	r8, fp, r1, lsl #24
    3064:	000b8c00 	andeq	r8, fp, r0, lsl #24
    3068:	06b10300 	ldrteq	r0, [r1], r0, lsl #6
    306c:	27010118 	smladcs	r1, r8, r1, r0
    3070:	27000003 	strcs	r0, [r0, -r3]
    3074:	05000003 	streq	r0, [r0, #-3]
    3078:	01180517 	tsteq	r8, r7, lsl r5
    307c:	000ea301 	andeq	sl, lr, r1, lsl #6
    3080:	000ea300 	andeq	sl, lr, r0, lsl #6
    3084:	06370400 	ldrteq	r0, [r7], -r0, lsl #8
    3088:	09010118 	stmdbeq	r1, {r3, r4, r8}
    308c:	0900000f 	stmdbeq	r0, {r0, r1, r2, r3}
    3090:	0400000f 	streq	r0, [r0], #-15
    3094:	01180643 	tsteq	r8, r3, asr #12
    3098:	0010c801 	andseq	ip, r0, r1, lsl #16
    309c:	0010c800 	andseq	ip, r0, r0, lsl #16
    30a0:	06450400 	strbeq	r0, [r5], -r0, lsl #8
    30a4:	21010118 	tstcs	r1, r8, lsl r1
    30a8:	2100000f 	tstcs	r0, pc
    30ac:	0400000f 	streq	r0, [r0], #-15
    30b0:	0118063d 	tsteq	r8, sp, lsr r6
    30b4:	000eba01 	andeq	fp, lr, r1, lsl #20
    30b8:	000eba00 	andeq	fp, lr, r0, lsl #20
    30bc:	064b0400 	strbeq	r0, [fp], -r0, lsl #8
    30c0:	23010118 	movwcs	r0, #4376	; 0x1118
    30c4:	23000009 	movwcs	r0, #9
    30c8:	06000009 	streq	r0, [r0], -r9
    30cc:	0118061a 	tsteq	r8, sl, lsl r6
    30d0:	00103201 	andseq	r3, r0, r1, lsl #4
    30d4:	00103200 	andseq	r3, r0, r0, lsl #4
    30d8:	06390400 	ldrteq	r0, [r9], -r0, lsl #8
    30dc:	ba010118 	blt	43544 <SYS_MODE+0x43525>
    30e0:	ba00000f 	blt	3124 <SYS_MODE+0x3105>
    30e4:	0700000f 	streq	r0, [r0, -pc]
    30e8:	01180609 	tsteq	r8, r9, lsl #12
    30ec:	000fa401 	andeq	sl, pc, r1, lsl #8
    30f0:	000fa400 	andeq	sl, pc, r0, lsl #8
    30f4:	060e0700 	streq	r0, [lr], -r0, lsl #14
    30f8:	5d010118 	stfpls	f0, [r1, #-96]	; 0xffffffa0
    30fc:	5d00000f 	stcpl	0, cr0, [r0, #-60]	; 0xffffffc4
    3100:	0700000f 	streq	r0, [r0, -pc]
    3104:	01180613 	tsteq	r8, r3, lsl r6
    3108:	000d1a01 	andeq	r1, sp, r1, lsl #20
    310c:	000d1a00 	andeq	r1, sp, r0, lsl #20
    3110:	06b80300 	ldrteq	r0, [r8], r0, lsl #6
    3114:	00019f00 	andeq	r9, r1, r0, lsl #30
    3118:	2e000200 	cdpcs	2, 0, cr0, cr0, cr0, {0}
    311c:	0400000d 	streq	r0, [r0], #-13
    3120:	00005f01 	andeq	r5, r0, r1, lsl #30
    3124:	11190c00 	tstne	r9, r0, lsl #24
    3128:	01be0000 			; <UNDEFINED> instruction: 0x01be0000
    312c:	02f00000 	rscseq	r0, r0, #0
	...
    3138:	2a8c0000 	bcs	fe303140 <_stack_end+0x3c2fc140>
    313c:	01020000 	mrseq	r0, (UNDEF: 2)
    3140:	00002a06 	andeq	r2, r0, r6, lsl #20
    3144:	05020200 	streq	r0, [r2, #-512]	; 0xfffffe00
    3148:	000001ae 	andeq	r0, r0, lr, lsr #3
    314c:	9e050402 	cdpls	4, 0, cr0, cr5, cr2, {0}
    3150:	02000001 	andeq	r0, r0, #1
    3154:	01990508 	orrseq	r0, r9, r8, lsl #10
    3158:	01020000 	mrseq	r0, (UNDEF: 2)
    315c:	00002808 	andeq	r2, r0, r8, lsl #16
    3160:	07020200 	streq	r0, [r2, -r0, lsl #4]
    3164:	0000003d 	andeq	r0, r0, sp, lsr r0
    3168:	00056303 	andeq	r6, r5, r3, lsl #6
    316c:	1d1f0500 	cfldr32ne	mvfx0, [pc, #-0]	; 3174 <SYS_MODE+0x3155>
    3170:	0000005f 	andeq	r0, r0, pc, asr r0
    3174:	80070402 	andhi	r0, r7, r2, lsl #8
    3178:	02000001 	andeq	r0, r0, #1
    317c:	017b0708 	cmneq	fp, r8, lsl #14
    3180:	04020000 	streq	r0, [r2], #-0
    3184:	00018507 	andeq	r8, r1, r7, lsl #10
    3188:	05040400 	streq	r0, [r4, #-1024]	; 0xfffffc00
    318c:	6e690504 	cdpvs	5, 6, cr0, cr9, cr4, {0}
    3190:	d1060074 	tstle	r6, r4, ror r0
    3194:	0700000e 	streq	r0, [r0, -lr]
    3198:	00004501 	andeq	r4, r0, r1, lsl #10
    319c:	06310300 	ldrteq	r0, [r1], -r0, lsl #6
    31a0:	000000a2 	andeq	r0, r0, r2, lsr #1
    31a4:	000ffc07 	andeq	pc, pc, r7, lsl #24
    31a8:	49070000 	stmdbmi	r7, {}	; <UNPREDICTABLE>
    31ac:	0100000f 	tsteq	r0, pc
    31b0:	000fdd07 	andeq	sp, pc, r7, lsl #26
    31b4:	08000200 	stmdaeq	r0, {r9}
    31b8:	0006e601 	andeq	lr, r6, r1, lsl #12
    31bc:	05230100 	streq	r0, [r3, #-256]!	; 0xffffff00
    31c0:	00007601 	andeq	r7, r0, r1, lsl #12
    31c4:	00258800 	eoreq	r8, r5, r0, lsl #16
    31c8:	002590c2 	eoreq	r9, r5, r2, asr #1
    31cc:	007d02c2 	rsbseq	r0, sp, r2, asr #5
    31d0:	df010901 	svcle	0x00010901
    31d4:	01000010 	tsteq	r0, r0, lsl r0
    31d8:	00010619 	andeq	r0, r1, r9, lsl r6
    31dc:	00000000 	andeq	r0, r0, r0
    31e0:	b5000000 	strlt	r0, [r0, #-0]
    31e4:	01000039 	tsteq	r0, r9, lsr r0
    31e8:	000000f5 	strdeq	r0, [r0], -r5
    31ec:	0009070a 	andeq	r0, r9, sl, lsl #14
    31f0:	29190100 	ldmdbcs	r9, {r8}
    31f4:	00000074 	andeq	r0, r0, r4, ror r0
    31f8:	000039d9 	ldrdeq	r3, [r0], -r9
    31fc:	000039d5 	ldrdeq	r3, [r0], -r5
    3200:	0000000b 	andeq	r0, r0, fp
    3204:	00017800 	andeq	r7, r1, r0, lsl #16
    3208:	01090000 	mrseq	r0, (UNDEF: 9)
    320c:	00001171 	andeq	r1, r0, r1, ror r1
    3210:	01061201 	tsteq	r6, r1, lsl #4
	...
    321c:	000039fa 	strdeq	r3, [r0], -sl
    3220:	00013401 	andeq	r3, r1, r1, lsl #8
    3224:	09070a00 	stmdbeq	r7, {r9, fp}
    3228:	12010000 	andne	r0, r1, #0
    322c:	00007424 	andeq	r7, r0, r4, lsr #8
    3230:	003a1e00 	eorseq	r1, sl, r0, lsl #28
    3234:	003a1a00 	eorseq	r1, sl, r0, lsl #20
    3238:	00000c00 	andeq	r0, r0, r0, lsl #24
    323c:	01860000 	orreq	r0, r6, r0
    3240:	010d0000 	mrseq	r0, (UNDEF: 13)
    3244:	00310151 	eorseq	r0, r1, r1, asr r1
    3248:	6a010900 	bvs	45650 <SYS_MODE+0x45631>
    324c:	01000011 	tsteq	r0, r1, lsl r0
    3250:	0001060a 	andeq	r0, r1, sl, lsl #12
    3254:	00000000 	andeq	r0, r0, r0
    3258:	3f000000 	svccc	0x00000000
    325c:	0100003a 	tsteq	r0, sl, lsr r0
    3260:	00000178 	andeq	r0, r0, r8, ror r1
    3264:	0073750e 	rsbseq	r7, r3, lr, lsl #10
    3268:	53160a01 	tstpl	r6, #4096	; 0x1000
    326c:	63000000 	movwvs	r0, #0
    3270:	5f00003a 	svcpl	0x0000003a
    3274:	0c00003a 	stceq	0, cr0, [r0], {58}	; 0x3a
    3278:	00000000 	andeq	r0, r0, r0
    327c:	00000194 	muleq	r0, r4, r1
    3280:	0750010d 	ldrbeq	r0, [r0, -sp, lsl #2]
    3284:	0a5001f3 	beq	1403a58 <SYS_MODE+0x1403a39>
    3288:	001e01f4 			; <UNDEFINED> instruction: 0x001e01f4
    328c:	01010f00 	tsteq	r1, r0, lsl #30
    3290:	00000ef9 	strdeq	r0, [r0], -r9
    3294:	00000ef9 	strdeq	r0, [r0], -r9
    3298:	0f060e02 	svceq	0x00060e02
    329c:	10fc0101 	rscsne	r0, ip, r1, lsl #2
    32a0:	10fc0000 	rscsne	r0, ip, r0
    32a4:	49030000 	stmdbmi	r3, {}	; <UNPREDICTABLE>
    32a8:	01010f06 	tsteq	r1, r6, lsl #30
    32ac:	00000553 	andeq	r0, r0, r3, asr r5
    32b0:	00000553 	andeq	r0, r0, r3, asr r5
    32b4:	00061504 	andeq	r1, r6, r4, lsl #10

Disassembly of section .debug_abbrev:

00000000 <.debug_abbrev>:
   0:	25011101 	strcs	r1, [r1, #-257]	; 0xfffffeff
   4:	030b130e 	movweq	r1, #45838	; 0xb30e
   8:	550e1b0e 	strpl	r1, [lr, #-2830]	; 0xfffff4f2
   c:	52011106 	andpl	r1, r1, #-2147483647	; 0x80000001
  10:	00061001 	andeq	r1, r6, r1
  14:	00240200 	eoreq	r0, r4, r0, lsl #4
  18:	0b3e0b0b 	bleq	f82c4c <SYS_MODE+0xf82c2d>
  1c:	00000e03 	andeq	r0, r0, r3, lsl #28
  20:	49002603 	stmdbmi	r0, {r0, r1, r9, sl, sp}
  24:	04000013 	streq	r0, [r0], #-19	; 0xffffffed
  28:	0e030016 	mcreq	0, 0, r0, cr3, cr6, {0}
  2c:	0b3b0b3a 	bleq	ec2d1c <SYS_MODE+0xec2cfd>
  30:	13490b39 	movtne	r0, #39737	; 0x9b39
  34:	0f050000 	svceq	0x00050000
  38:	000b0b00 	andeq	r0, fp, r0, lsl #22
  3c:	00240600 	eoreq	r0, r4, r0, lsl #12
  40:	0b3e0b0b 	bleq	f82c74 <SYS_MODE+0xf82c55>
  44:	00000803 	andeq	r0, r0, r3, lsl #16
  48:	3f012e07 	svccc	0x00012e07
  4c:	3a0e030c 	bcc	380c84 <SYS_MODE+0x380c65>
  50:	390b3b0b 	stmdbcc	fp, {r0, r1, r3, r8, r9, fp, ip, sp}
  54:	490c270b 	stmdbmi	ip, {r0, r1, r3, r8, r9, sl, sp}
  58:	12011113 	andne	r1, r1, #-1073741820	; 0xc0000004
  5c:	970a4001 	strls	r4, [sl, -r1]
  60:	13010c42 	movwne	r0, #7234	; 0x1c42
  64:	05080000 	streq	r0, [r8, #-0]
  68:	3a080300 	bcc	200c70 <SYS_MODE+0x200c51>
  6c:	390b3b0b 	stmdbcc	fp, {r0, r1, r3, r8, r9, fp, ip, sp}
  70:	0213490b 	andseq	r4, r3, #180224	; 0x2c000
  74:	0642b706 	strbeq	fp, [r2], -r6, lsl #14
  78:	05090000 	streq	r0, [r9, #-0]
  7c:	3a0e0300 	bcc	380c84 <SYS_MODE+0x380c65>
  80:	390b3b0b 	stmdbcc	fp, {r0, r1, r3, r8, r9, fp, ip, sp}
  84:	0213490b 	andseq	r4, r3, #180224	; 0x2c000
  88:	0642b706 	strbeq	fp, [r2], -r6, lsl #14
  8c:	340a0000 	strcc	r0, [sl], #-0
  90:	3a080300 	bcc	200c98 <SYS_MODE+0x200c79>
  94:	390b3b0b 	stmdbcc	fp, {r0, r1, r3, r8, r9, fp, ip, sp}
  98:	0213490b 	andseq	r4, r3, #180224	; 0x2c000
  9c:	0642b706 	strbeq	fp, [r2], -r6, lsl #14
  a0:	0f0b0000 	svceq	0x000b0000
  a4:	490b0b00 	stmdbmi	fp, {r8, r9, fp}
  a8:	0c000013 	stceq	0, cr0, [r0], {19}
  ac:	00000026 	andeq	r0, r0, r6, lsr #32
  b0:	0300050d 	movweq	r0, #1293	; 0x50d
  b4:	3b0b3a0e 	blcc	2ce8f4 <SYS_MODE+0x2ce8d5>
  b8:	490b390b 	stmdbmi	fp, {r0, r1, r3, r8, fp, ip, sp}
  bc:	000a0213 	andeq	r0, sl, r3, lsl r2
  c0:	00050e00 	andeq	r0, r5, r0, lsl #28
  c4:	0b3a0803 	bleq	e820d8 <SYS_MODE+0xe820b9>
  c8:	0b390b3b 	bleq	e42dbc <SYS_MODE+0xe42d9d>
  cc:	0a021349 	beq	84df8 <SYS_MODE+0x84dd9>
  d0:	340f0000 	strcc	r0, [pc], #-0	; d8 <SYS_MODE+0xb9>
  d4:	3a0e0300 	bcc	380cdc <SYS_MODE+0x380cbd>
  d8:	390b3b0b 	stmdbcc	fp, {r0, r1, r3, r8, r9, fp, ip, sp}
  dc:	0213490b 	andseq	r4, r3, #180224	; 0x2c000
  e0:	0642b706 	strbeq	fp, [r2], -r6, lsl #14
  e4:	2e100000 	cdpcs	0, 1, cr0, cr0, cr0, {0}
  e8:	030c3f01 	movweq	r3, #52993	; 0xcf01
  ec:	3b0b3a0e 	blcc	2ce92c <SYS_MODE+0x2ce90d>
  f0:	270b390b 	strcs	r3, [fp, -fp, lsl #18]
  f4:	1113490c 	tstne	r3, ip, lsl #18
  f8:	40011201 	andmi	r1, r1, r1, lsl #4
  fc:	0c42970a 	mcrreq	7, 0, r9, r2, cr10
 100:	01000000 	mrseq	r0, (UNDEF: 0)
 104:	0e250111 	mcreq	1, 1, r0, cr5, cr1, {0}
 108:	0e030b13 	vmoveq.32	d3[0], r0
 10c:	06550e1b 			; <UNDEFINED> instruction: 0x06550e1b
 110:	01520111 	cmpeq	r2, r1, lsl r1
 114:	00000610 	andeq	r0, r0, r0, lsl r6
 118:	0b002402 	bleq	9128 <SYS_MODE+0x9109>
 11c:	030b3e0b 	movweq	r3, #48651	; 0xbe0b
 120:	0300000e 	movweq	r0, #14
 124:	0b0b0024 	bleq	2c01bc <SYS_MODE+0x2c019d>
 128:	08030b3e 	stmdaeq	r3, {r1, r2, r3, r4, r5, r8, r9, fp}
 12c:	26040000 	strcs	r0, [r4], -r0
 130:	00134900 	andseq	r4, r3, r0, lsl #18
 134:	00160500 	andseq	r0, r6, r0, lsl #10
 138:	0b3a0e03 	bleq	e8394c <SYS_MODE+0xe8392d>
 13c:	0b390b3b 	bleq	e42e30 <SYS_MODE+0xe42e11>
 140:	00001349 	andeq	r1, r0, r9, asr #6
 144:	03011306 	movweq	r1, #4870	; 0x1306
 148:	3a0b0b0e 	bcc	2c2d88 <SYS_MODE+0x2c2d69>
 14c:	010b3b0b 	tsteq	fp, fp, lsl #22
 150:	07000013 	smladeq	r0, r3, r0, r0
 154:	0e03000d 	cdpeq	0, 0, cr0, cr3, cr13, {0}
 158:	0a381349 	beq	e04e84 <SYS_MODE+0xe04e65>
 15c:	00000c34 	andeq	r0, r0, r4, lsr ip
 160:	0b000f08 	bleq	3d88 <SYS_MODE+0x3d69>
 164:	0900000b 	stmdbeq	r0, {r0, r1, r3}
 168:	0b0b000f 	bleq	2c01ac <SYS_MODE+0x2c018d>
 16c:	00001349 	andeq	r1, r0, r9, asr #6
 170:	2701150a 	strcs	r1, [r1, -sl, lsl #10]
 174:	0013010c 	andseq	r0, r3, ip, lsl #2
 178:	00050b00 	andeq	r0, r5, r0, lsl #22
 17c:	00001349 	andeq	r1, r0, r9, asr #6
 180:	0b01130c 	bleq	44db8 <SYS_MODE+0x44d99>
 184:	3b0b3a0b 	blcc	2ce9b8 <SYS_MODE+0x2ce999>
 188:	010b390b 	tsteq	fp, fp, lsl #18
 18c:	0d000013 	stceq	0, cr0, [r0, #-76]	; 0xffffffb4
 190:	0803000d 	stmdaeq	r3, {r0, r2, r3}
 194:	0b3b0b3a 	bleq	ec2e84 <SYS_MODE+0xec2e65>
 198:	13490b39 	movtne	r0, #39737	; 0x9b39
 19c:	00000a38 	andeq	r0, r0, r8, lsr sl
 1a0:	3f012e0e 	svccc	0x00012e0e
 1a4:	3a0e030c 	bcc	380ddc <SYS_MODE+0x380dbd>
 1a8:	39053b0b 	stmdbcc	r5, {r0, r1, r3, r8, r9, fp, ip, sp}
 1ac:	490c270b 	stmdbmi	ip, {r0, r1, r3, r8, r9, sl, sp}
 1b0:	12011113 	andne	r1, r1, #-1073741820	; 0xc0000004
 1b4:	97064001 	strls	r4, [r6, -r1]
 1b8:	13010c42 	movwne	r0, #7234	; 0x1c42
 1bc:	050f0000 	streq	r0, [pc, #-0]	; 1c4 <SYS_MODE+0x1a5>
 1c0:	3a080300 	bcc	200dc8 <SYS_MODE+0x200da9>
 1c4:	39053b0b 	stmdbcc	r5, {r0, r1, r3, r8, r9, fp, ip, sp}
 1c8:	0213490b 	andseq	r4, r3, #180224	; 0x2c000
 1cc:	0642b706 	strbeq	fp, [r2], -r6, lsl #14
 1d0:	05100000 	ldreq	r0, [r0, #-0]
 1d4:	3a0e0300 	bcc	380ddc <SYS_MODE+0x380dbd>
 1d8:	39053b0b 	stmdbcc	r5, {r0, r1, r3, r8, r9, fp, ip, sp}
 1dc:	0213490b 	andseq	r4, r3, #180224	; 0x2c000
 1e0:	1100000a 	tstne	r0, sl
 1e4:	00000018 	andeq	r0, r0, r8, lsl r0
 1e8:	03003412 	movweq	r3, #1042	; 0x412
 1ec:	3b0b3a08 	blcc	2cea14 <SYS_MODE+0x2ce9f5>
 1f0:	490b3905 	stmdbmi	fp, {r0, r2, r8, fp, ip, sp}
 1f4:	000a0213 	andeq	r0, sl, r3, lsl r2
 1f8:	00341300 	eorseq	r1, r4, r0, lsl #6
 1fc:	0b3a0e03 	bleq	e83a10 <SYS_MODE+0xe839f1>
 200:	0b39053b 	bleq	e416f4 <SYS_MODE+0xe416d5>
 204:	0a021349 	beq	84f30 <SYS_MODE+0x84f11>
 208:	34140000 	ldrcc	r0, [r4], #-0
 20c:	3a080300 	bcc	200e14 <SYS_MODE+0x200df5>
 210:	39053b0b 	stmdbcc	r5, {r0, r1, r3, r8, r9, fp, ip, sp}
 214:	0213490b 	andseq	r4, r3, #180224	; 0x2c000
 218:	0642b706 	strbeq	fp, [r2], -r6, lsl #14
 21c:	89150000 	ldmdbhi	r5, {}	; <UNPREDICTABLE>
 220:	11010182 	smlabbne	r1, r2, r1, r0
 224:	00133101 	andseq	r3, r3, r1, lsl #2
 228:	828a1600 	addhi	r1, sl, #0, 12
 22c:	0a020001 	beq	80238 <SYS_MODE+0x80219>
 230:	000a4291 	muleq	sl, r1, r2
 234:	00051700 	andeq	r1, r5, r0, lsl #14
 238:	0b3a0e03 	bleq	e83a4c <SYS_MODE+0xe83a2d>
 23c:	0b39053b 	bleq	e41730 <SYS_MODE+0xe41711>
 240:	06021349 	streq	r1, [r2], -r9, asr #6
 244:	000642b7 			; <UNDEFINED> instruction: 0x000642b7
 248:	01011800 	tsteq	r1, r0, lsl #16
 24c:	13011349 	movwne	r1, #4937	; 0x1349
 250:	21190000 	tstcs	r9, r0
 254:	2f134900 	svccs	0x00134900
 258:	1a00000b 	bne	28c <SYS_MODE+0x26d>
 25c:	0e03012e 	adfeqsp	f0, f3, #0.5
 260:	053b0b3a 	ldreq	r0, [fp, #-2874]!	; 0xfffff4c6
 264:	0c270b39 			; <UNDEFINED> instruction: 0x0c270b39
 268:	01111349 	tsteq	r1, r9, asr #6
 26c:	06400112 			; <UNDEFINED> instruction: 0x06400112
 270:	010c4297 			; <UNDEFINED> instruction: 0x010c4297
 274:	1b000013 	blne	2c8 <SYS_MODE+0x2a9>
 278:	08030005 	stmdaeq	r3, {r0, r2}
 27c:	053b0b3a 	ldreq	r0, [fp, #-2874]!	; 0xfffff4c6
 280:	13490b39 	movtne	r0, #39737	; 0x9b39
 284:	00000a02 	andeq	r0, r0, r2, lsl #20
 288:	0300341c 	movweq	r3, #1052	; 0x41c
 28c:	3b0b3a0e 	blcc	2ceacc <SYS_MODE+0x2ceaad>
 290:	490b3905 	stmdbmi	fp, {r0, r2, r8, fp, ip, sp}
 294:	b7060213 	smladlt	r6, r3, r2, r0
 298:	00000642 	andeq	r0, r0, r2, asr #12
 29c:	11010b1d 	tstne	r1, sp, lsl fp
 2a0:	01011201 	tsteq	r1, r1, lsl #4
 2a4:	1e000013 	mcrne	0, 0, r0, cr0, cr3, {0}
 2a8:	0655010b 	ldrbeq	r0, [r5], -fp, lsl #2
 2ac:	00001301 	andeq	r1, r0, r1, lsl #6
 2b0:	0182891f 	orreq	r8, r2, pc, lsl r9
 2b4:	31011101 	tstcc	r1, r1, lsl #2
 2b8:	00130113 	andseq	r0, r3, r3, lsl r1
 2bc:	82892000 	addhi	r2, r9, #0
 2c0:	01110101 	tsteq	r1, r1, lsl #2
 2c4:	00001301 	andeq	r1, r0, r1, lsl #6
 2c8:	01828921 	orreq	r8, r2, r1, lsr #18
 2cc:	00011101 	andeq	r1, r1, r1, lsl #2
 2d0:	011d2200 	tsteq	sp, r0, lsl #4
 2d4:	01111331 	tsteq	r1, r1, lsr r3
 2d8:	0b580112 	bleq	1600728 <SYS_MODE+0x1600709>
 2dc:	0b570559 	bleq	15c1848 <SYS_MODE+0x15c1829>
 2e0:	00001301 	andeq	r1, r0, r1, lsl #6
 2e4:	31000523 	tstcc	r0, r3, lsr #10
 2e8:	b7060213 	smladlt	r6, r3, r2, r0
 2ec:	00000642 	andeq	r0, r0, r2, asr #12
 2f0:	31000524 	tstcc	r0, r4, lsr #10
 2f4:	25000013 	strcs	r0, [r0, #-19]	; 0xffffffed
 2f8:	13310034 	teqne	r1, #52	; 0x34
 2fc:	42b70602 	adcsmi	r0, r7, #2097152	; 0x200000
 300:	26000006 	strcs	r0, [r0], -r6
 304:	1331011d 	teqne	r1, #1073741831	; 0x40000007
 308:	42b80152 	adcsmi	r0, r8, #-2147483628	; 0x80000014
 30c:	12011105 	andne	r1, r1, #1073741825	; 0x40000001
 310:	590b5801 	stmdbpl	fp, {r0, fp, ip, lr}
 314:	010b5705 	tsteq	fp, r5, lsl #14
 318:	27000013 	smladcs	r0, r3, r0, r0
 31c:	01018289 	smlabbeq	r1, r9, r2, r8
 320:	42930111 	addsmi	r0, r3, #1073741828	; 0x40000004
 324:	0013010a 	andseq	r0, r3, sl, lsl #2
 328:	01172800 	tsteq	r7, r0, lsl #16
 32c:	0b3a0b0b 	bleq	e82f60 <SYS_MODE+0xe82f41>
 330:	0b39053b 	bleq	e41824 <SYS_MODE+0xe41805>
 334:	00001301 	andeq	r1, r0, r1, lsl #6
 338:	03000d29 	movweq	r0, #3369	; 0xd29
 33c:	3b0b3a08 	blcc	2ceb64 <SYS_MODE+0x2ceb45>
 340:	490b3905 	stmdbmi	fp, {r0, r2, r8, fp, ip, sp}
 344:	2a000013 	bcs	398 <SYS_MODE+0x379>
 348:	0e030034 	mcreq	0, 0, r0, cr3, cr4, {1}
 34c:	053b0b3a 	ldreq	r0, [fp, #-2874]!	; 0xfffff4c6
 350:	13490b39 	movtne	r0, #39737	; 0x9b39
 354:	892b0000 	stmdbhi	fp!, {}	; <UNPREDICTABLE>
 358:	11000182 	smlabbne	r0, r2, r1, r0
 35c:	00133101 	andseq	r3, r3, r1, lsl #2
 360:	012e2c00 			; <UNDEFINED> instruction: 0x012e2c00
 364:	0b3a0e03 	bleq	e83b78 <SYS_MODE+0xe83b59>
 368:	0b390b3b 	bleq	e4305c <SYS_MODE+0xe4303d>
 36c:	13490c27 	movtne	r0, #39975	; 0x9c27
 370:	01120111 	tsteq	r2, r1, lsl r1
 374:	42970640 	addsmi	r0, r7, #64, 12	; 0x4000000
 378:	0013010c 	andseq	r0, r3, ip, lsl #2
 37c:	00052d00 	andeq	r2, r5, r0, lsl #26
 380:	0b3a0803 	bleq	e82394 <SYS_MODE+0xe82375>
 384:	0b390b3b 	bleq	e43078 <SYS_MODE+0xe43059>
 388:	06021349 	streq	r1, [r2], -r9, asr #6
 38c:	000642b7 			; <UNDEFINED> instruction: 0x000642b7
 390:	00052e00 	andeq	r2, r5, r0, lsl #28
 394:	0b3a0e03 	bleq	e83ba8 <SYS_MODE+0xe83b89>
 398:	0b390b3b 	bleq	e4308c <SYS_MODE+0xe4306d>
 39c:	06021349 	streq	r1, [r2], -r9, asr #6
 3a0:	000642b7 			; <UNDEFINED> instruction: 0x000642b7
 3a4:	00052f00 	andeq	r2, r5, r0, lsl #30
 3a8:	0b3a0803 	bleq	e823bc <SYS_MODE+0xe8239d>
 3ac:	0b390b3b 	bleq	e430a0 <SYS_MODE+0xe43081>
 3b0:	0a021349 	beq	850dc <SYS_MODE+0x850bd>
 3b4:	05300000 	ldreq	r0, [r0, #-0]!
 3b8:	3a0e0300 	bcc	380fc0 <SYS_MODE+0x380fa1>
 3bc:	390b3b0b 	stmdbcc	fp, {r0, r1, r3, r8, r9, fp, ip, sp}
 3c0:	0213490b 	andseq	r4, r3, #180224	; 0x2c000
 3c4:	3100000a 	tstcc	r0, sl
 3c8:	0e030034 	mcreq	0, 0, r0, cr3, cr4, {1}
 3cc:	0b3b0b3a 	bleq	ec30bc <SYS_MODE+0xec309d>
 3d0:	13490b39 	movtne	r0, #39737	; 0x9b39
 3d4:	42b70602 	adcsmi	r0, r7, #2097152	; 0x200000
 3d8:	32000006 	andcc	r0, r0, #6
 3dc:	08030034 	stmdaeq	r3, {r2, r4, r5}
 3e0:	0b3b0b3a 	bleq	ec30d0 <SYS_MODE+0xec30b1>
 3e4:	13490b39 	movtne	r0, #39737	; 0x9b39
 3e8:	42b70602 	adcsmi	r0, r7, #2097152	; 0x200000
 3ec:	33000006 	movwcc	r0, #6
 3f0:	0e03012e 	adfeqsp	f0, f3, #0.5
 3f4:	0b3b0b3a 	bleq	ec30e4 <SYS_MODE+0xec30c5>
 3f8:	0c270b39 			; <UNDEFINED> instruction: 0x0c270b39
 3fc:	01111349 	tsteq	r1, r9, asr #6
 400:	0a400112 	beq	1000850 <SYS_MODE+0x1000831>
 404:	010c4297 			; <UNDEFINED> instruction: 0x010c4297
 408:	34000013 	strcc	r0, [r0], #-19	; 0xffffffed
 40c:	1331011d 	teqne	r1, #1073741831	; 0x40000007
 410:	42b80152 	adcsmi	r0, r8, #-2147483628	; 0x80000014
 414:	12011105 	andne	r1, r1, #1073741825	; 0x40000001
 418:	590b5801 	stmdbpl	fp, {r0, fp, ip, lr}
 41c:	000b570b 	andeq	r5, fp, fp, lsl #14
 420:	012e3500 			; <UNDEFINED> instruction: 0x012e3500
 424:	0b3a0e03 	bleq	e83c38 <SYS_MODE+0xe83c19>
 428:	0b390b3b 	bleq	e4311c <SYS_MODE+0xe430fd>
 42c:	13490c27 	movtne	r0, #39975	; 0x9c27
 430:	13010b20 	movwne	r0, #6944	; 0x1b20
 434:	05360000 	ldreq	r0, [r6, #-0]!
 438:	3a080300 	bcc	201040 <SYS_MODE+0x201021>
 43c:	390b3b0b 	stmdbcc	fp, {r0, r1, r3, r8, r9, fp, ip, sp}
 440:	0013490b 	andseq	r4, r3, fp, lsl #18
 444:	00053700 	andeq	r3, r5, r0, lsl #14
 448:	0b3a0e03 	bleq	e83c5c <SYS_MODE+0xe83c3d>
 44c:	0b390b3b 	bleq	e43140 <SYS_MODE+0xe43121>
 450:	00001349 	andeq	r1, r0, r9, asr #6
 454:	03003438 	movweq	r3, #1080	; 0x438
 458:	3b0b3a08 	blcc	2cec80 <SYS_MODE+0x2cec61>
 45c:	490b390b 	stmdbmi	fp, {r0, r1, r3, r8, fp, ip, sp}
 460:	39000013 	stmdbcc	r0, {r0, r1, r4}
 464:	0e03012e 	adfeqsp	f0, f3, #0.5
 468:	0b3b0b3a 	bleq	ec3158 <SYS_MODE+0xec3139>
 46c:	0c270b39 			; <UNDEFINED> instruction: 0x0c270b39
 470:	01120111 	tsteq	r2, r1, lsl r1
 474:	42960640 	addsmi	r0, r6, #64, 12	; 0x4000000
 478:	0013010c 	andseq	r0, r3, ip, lsl #2
 47c:	012e3a00 			; <UNDEFINED> instruction: 0x012e3a00
 480:	0b3a0e03 	bleq	e83c94 <SYS_MODE+0xe83c75>
 484:	0b390b3b 	bleq	e43178 <SYS_MODE+0xe43159>
 488:	01110c27 	tsteq	r1, r7, lsr #24
 48c:	06400112 			; <UNDEFINED> instruction: 0x06400112
 490:	010c4297 			; <UNDEFINED> instruction: 0x010c4297
 494:	3b000013 	blcc	4e8 <SYS_MODE+0x4c9>
 498:	0e03012e 	adfeqsp	f0, f3, #0.5
 49c:	0b3b0b3a 	bleq	ec318c <SYS_MODE+0xec316d>
 4a0:	0c270b39 			; <UNDEFINED> instruction: 0x0c270b39
 4a4:	01120111 	tsteq	r2, r1, lsl r1
 4a8:	42970a40 	addsmi	r0, r7, #64, 20	; 0x40000
 4ac:	0013010c 	andseq	r0, r3, ip, lsl #2
 4b0:	002e3c00 	eoreq	r3, lr, r0, lsl #24
 4b4:	0c3c0c3f 	ldceq	12, cr0, [ip], #-252	; 0xffffff04
 4b8:	030e4087 	movweq	r4, #57479	; 0xe087
 4bc:	3d00000e 	stccc	0, cr0, [r0, #-56]	; 0xffffffc8
 4c0:	0c3f002e 	ldceq	0, cr0, [pc], #-184	; 410 <SYS_MODE+0x3f1>
 4c4:	40870c3c 	addmi	r0, r7, ip, lsr ip
 4c8:	3a0e030e 	bcc	381108 <SYS_MODE+0x3810e9>
 4cc:	390b3b0b 	stmdbcc	fp, {r0, r1, r3, r8, r9, fp, ip, sp}
 4d0:	0000000b 	andeq	r0, r0, fp
 4d4:	10001101 	andne	r1, r0, r1, lsl #2
 4d8:	12011106 	andne	r1, r1, #-2147483647	; 0x80000001
 4dc:	1b0e0301 	blne	3810e8 <SYS_MODE+0x3810c9>
 4e0:	130e250e 	movwne	r2, #58638	; 0xe50e
 4e4:	00000005 	andeq	r0, r0, r5
 4e8:	10001101 	andne	r1, r0, r1, lsl #2
 4ec:	12011106 	andne	r1, r1, #-2147483647	; 0x80000001
 4f0:	1b0e0301 	blne	3810fc <SYS_MODE+0x3810dd>
 4f4:	130e250e 	movwne	r2, #58638	; 0xe50e
 4f8:	00000005 	andeq	r0, r0, r5
 4fc:	25011101 	strcs	r1, [r1, #-257]	; 0xfffffeff
 500:	030b130e 	movweq	r1, #45838	; 0xb30e
 504:	550e1b0e 	strpl	r1, [lr, #-2830]	; 0xfffff4f2
 508:	52011106 	andpl	r1, r1, #-2147483647	; 0x80000001
 50c:	00061001 	andeq	r1, r6, r1
 510:	00240200 	eoreq	r0, r4, r0, lsl #4
 514:	0b3e0b0b 	bleq	f83148 <SYS_MODE+0xf83129>
 518:	00000e03 	andeq	r0, r0, r3, lsl #28
 51c:	03001603 	movweq	r1, #1539	; 0x603
 520:	3b0b3a0e 	blcc	2ced60 <SYS_MODE+0x2ced41>
 524:	490b390b 	stmdbmi	fp, {r0, r1, r3, r8, fp, ip, sp}
 528:	04000013 	streq	r0, [r0], #-19	; 0xffffffed
 52c:	13490035 	movtne	r0, #36917	; 0x9035
 530:	24050000 	strcs	r0, [r5], #-0
 534:	3e0b0b00 	vmlacc.f64	d0, d11, d0
 538:	0008030b 	andeq	r0, r8, fp, lsl #6
 53c:	012e0600 			; <UNDEFINED> instruction: 0x012e0600
 540:	0e030c3f 	mcreq	12, 0, r0, cr3, cr15, {1}
 544:	0b3b0b3a 	bleq	ec3234 <SYS_MODE+0xec3215>
 548:	0c270b39 			; <UNDEFINED> instruction: 0x0c270b39
 54c:	01120111 	tsteq	r2, r1, lsl r1
 550:	42970640 	addsmi	r0, r7, #64, 12	; 0x4000000
 554:	0013010c 	andseq	r0, r3, ip, lsl #2
 558:	00050700 	andeq	r0, r5, r0, lsl #14
 55c:	0b3a0e03 	bleq	e83d70 <SYS_MODE+0xe83d51>
 560:	0b390b3b 	bleq	e43254 <SYS_MODE+0xe43235>
 564:	06021349 	streq	r1, [r2], -r9, asr #6
 568:	000642b7 			; <UNDEFINED> instruction: 0x000642b7
 56c:	00340800 	eorseq	r0, r4, r0, lsl #16
 570:	0b3a0e03 	bleq	e83d84 <SYS_MODE+0xe83d65>
 574:	0b390b3b 	bleq	e43268 <SYS_MODE+0xe43249>
 578:	0a021349 	beq	852a4 <SYS_MODE+0x85285>
 57c:	89090000 	stmdbhi	r9, {}	; <UNPREDICTABLE>
 580:	11000182 	smlabbne	r0, r2, r1, r0
 584:	00133101 	andseq	r3, r3, r1, lsl #2
 588:	012e0a00 			; <UNDEFINED> instruction: 0x012e0a00
 58c:	0e030c3f 	mcreq	12, 0, r0, cr3, cr15, {1}
 590:	0b3b0b3a 	bleq	ec3280 <SYS_MODE+0xec3261>
 594:	0c270b39 			; <UNDEFINED> instruction: 0x0c270b39
 598:	01111349 	tsteq	r1, r9, asr #6
 59c:	0a400112 	beq	10009ec <SYS_MODE+0x10009cd>
 5a0:	010c4297 			; <UNDEFINED> instruction: 0x010c4297
 5a4:	0b000013 	bleq	5f8 <SYS_MODE+0x5d9>
 5a8:	0e030034 	mcreq	0, 0, r0, cr3, cr4, {1}
 5ac:	0b3b0b3a 	bleq	ec329c <SYS_MODE+0xec327d>
 5b0:	13490b39 	movtne	r0, #39737	; 0x9b39
 5b4:	42b70602 	adcsmi	r0, r7, #2097152	; 0x200000
 5b8:	0c000006 	stceq	0, cr0, [r0], {6}
 5bc:	0c3f002e 	ldceq	0, cr0, [pc], #-184	; 50c <SYS_MODE+0x4ed>
 5c0:	0b3a0e03 	bleq	e83dd4 <SYS_MODE+0xe83db5>
 5c4:	0b390b3b 	bleq	e432b8 <SYS_MODE+0xe43299>
 5c8:	01110c27 	tsteq	r1, r7, lsr #24
 5cc:	0a400112 	beq	1000a1c <SYS_MODE+0x10009fd>
 5d0:	000c4297 	muleq	ip, r7, r2
 5d4:	002e0d00 	eoreq	r0, lr, r0, lsl #26
 5d8:	0c3c0c3f 	ldceq	12, cr0, [ip], #-252	; 0xffffff04
 5dc:	030e4087 	movweq	r4, #57479	; 0xe087
 5e0:	3b0b3a0e 	blcc	2cee20 <SYS_MODE+0x2cee01>
 5e4:	000b390b 	andeq	r3, fp, fp, lsl #18
 5e8:	11010000 	mrsne	r0, (UNDEF: 1)
 5ec:	11061000 	mrsne	r1, (UNDEF: 6)
 5f0:	03011201 	movweq	r1, #4609	; 0x1201
 5f4:	250e1b0e 	strcs	r1, [lr, #-2830]	; 0xfffff4f2
 5f8:	0005130e 	andeq	r1, r5, lr, lsl #6
 5fc:	11010000 	mrsne	r0, (UNDEF: 1)
 600:	11061000 	mrsne	r1, (UNDEF: 6)
 604:	03011201 	movweq	r1, #4609	; 0x1201
 608:	250e1b0e 	strcs	r1, [lr, #-2830]	; 0xfffff4f2
 60c:	0005130e 	andeq	r1, r5, lr, lsl #6
 610:	11010000 	mrsne	r0, (UNDEF: 1)
 614:	130e2501 	movwne	r2, #58625	; 0xe501
 618:	1b0e030b 	blne	38124c <SYS_MODE+0x38122d>
 61c:	1106550e 	tstne	r6, lr, lsl #10
 620:	10015201 	andne	r5, r1, r1, lsl #4
 624:	02000006 	andeq	r0, r0, #6
 628:	0b0b0024 	bleq	2c06c0 <SYS_MODE+0x2c06a1>
 62c:	0e030b3e 	vmoveq.16	d3[0], r0
 630:	16030000 	strne	r0, [r3], -r0
 634:	3a0e0300 	bcc	38123c <SYS_MODE+0x38121d>
 638:	390b3b0b 	stmdbcc	fp, {r0, r1, r3, r8, r9, fp, ip, sp}
 63c:	0013490b 	andseq	r4, r3, fp, lsl #18
 640:	00240400 	eoreq	r0, r4, r0, lsl #8
 644:	0b3e0b0b 	bleq	f83278 <SYS_MODE+0xf83259>
 648:	00000803 	andeq	r0, r0, r3, lsl #16
 64c:	49010105 	stmdbmi	r1, {r0, r2, r8}
 650:	00130113 	andseq	r0, r3, r3, lsl r1
 654:	00210600 	eoreq	r0, r1, r0, lsl #12
 658:	34070000 	strcc	r0, [r7], #-0
 65c:	3a0e0300 	bcc	381264 <SYS_MODE+0x381245>
 660:	390b3b0b 	stmdbcc	fp, {r0, r1, r3, r8, r9, fp, ip, sp}
 664:	3f13490b 	svccc	0x0013490b
 668:	000c3c0c 	andeq	r3, ip, ip, lsl #24
 66c:	012e0800 			; <UNDEFINED> instruction: 0x012e0800
 670:	0e030c3f 	mcreq	12, 0, r0, cr3, cr15, {1}
 674:	0b3b0b3a 	bleq	ec3364 <SYS_MODE+0xec3345>
 678:	0c270b39 			; <UNDEFINED> instruction: 0x0c270b39
 67c:	01120111 	tsteq	r2, r1, lsl r1
 680:	42970640 	addsmi	r0, r7, #64, 12	; 0x4000000
 684:	0013010c 	andseq	r0, r3, ip, lsl #2
 688:	82890900 	addhi	r0, r9, #0, 18
 68c:	01110101 	tsteq	r1, r1, lsl #2
 690:	13011331 	movwne	r1, #4913	; 0x1331
 694:	8a0a0000 	bhi	28069c <SYS_MODE+0x28067d>
 698:	02000182 	andeq	r0, r0, #-2147483616	; 0x80000020
 69c:	0a42910a 	beq	10a4acc <SYS_MODE+0x10a4aad>
 6a0:	890b0000 	stmdbhi	fp, {}	; <UNPREDICTABLE>
 6a4:	11000182 	smlabbne	r0, r2, r1, r0
 6a8:	00133101 	andseq	r3, r3, r1, lsl #2
 6ac:	002e0c00 	eoreq	r0, lr, r0, lsl #24
 6b0:	0c3c0c3f 	ldceq	12, cr0, [ip], #-252	; 0xffffff04
 6b4:	030e4087 	movweq	r4, #57479	; 0xe087
 6b8:	3b0b3a0e 	blcc	2ceef8 <SYS_MODE+0x2ceed9>
 6bc:	000b390b 	andeq	r3, fp, fp, lsl #18
 6c0:	11010000 	mrsne	r0, (UNDEF: 1)
 6c4:	130e2501 	movwne	r2, #58625	; 0xe501
 6c8:	1b0e030b 	blne	3812fc <SYS_MODE+0x3812dd>
 6cc:	1106550e 	tstne	r6, lr, lsl #10
 6d0:	10015201 	andne	r5, r1, r1, lsl #4
 6d4:	02000006 	andeq	r0, r0, #6
 6d8:	0b0b0024 	bleq	2c0770 <SYS_MODE+0x2c0751>
 6dc:	0e030b3e 	vmoveq.16	d3[0], r0
 6e0:	16030000 	strne	r0, [r3], -r0
 6e4:	3a0e0300 	bcc	3812ec <SYS_MODE+0x3812cd>
 6e8:	390b3b0b 	stmdbcc	fp, {r0, r1, r3, r8, r9, fp, ip, sp}
 6ec:	0013490b 	andseq	r4, r3, fp, lsl #18
 6f0:	000f0400 	andeq	r0, pc, r0, lsl #8
 6f4:	00000b0b 	andeq	r0, r0, fp, lsl #22
 6f8:	0b002405 	bleq	9714 <SYS_MODE+0x96f5>
 6fc:	030b3e0b 	movweq	r3, #48651	; 0xbe0b
 700:	06000008 	streq	r0, [r0], -r8
 704:	0b0b000f 	bleq	2c0748 <SYS_MODE+0x2c0729>
 708:	00001349 	andeq	r1, r0, r9, asr #6
 70c:	27011507 	strcs	r1, [r1, -r7, lsl #10]
 710:	0013010c 	andseq	r0, r3, ip, lsl #2
 714:	00050800 	andeq	r0, r5, r0, lsl #16
 718:	00001349 	andeq	r1, r0, r9, asr #6
 71c:	03011309 	movweq	r1, #4873	; 0x1309
 720:	3a0b0b0e 	bcc	2c3360 <SYS_MODE+0x2c3341>
 724:	390b3b0b 	stmdbcc	fp, {r0, r1, r3, r8, r9, fp, ip, sp}
 728:	0013010b 	andseq	r0, r3, fp, lsl #2
 72c:	000d0a00 	andeq	r0, sp, r0, lsl #20
 730:	0b3a0e03 	bleq	e83f44 <SYS_MODE+0xe83f25>
 734:	0b390b3b 	bleq	e43428 <SYS_MODE+0xe43409>
 738:	0a381349 	beq	e05464 <SYS_MODE+0xe05445>
 73c:	010b0000 	mrseq	r0, (UNDEF: 11)
 740:	01134901 	tsteq	r3, r1, lsl #18
 744:	0c000013 	stceq	0, cr0, [r0], {19}
 748:	13490021 	movtne	r0, #36897	; 0x9021
 74c:	00000b2f 	andeq	r0, r0, pc, lsr #22
 750:	0300340d 	movweq	r3, #1037	; 0x40d
 754:	3b0b3a0e 	blcc	2cef94 <SYS_MODE+0x2cef75>
 758:	490b390b 	stmdbmi	fp, {r0, r1, r3, r8, fp, ip, sp}
 75c:	000a0213 	andeq	r0, sl, r3, lsl r2
 760:	012e0e00 			; <UNDEFINED> instruction: 0x012e0e00
 764:	0e030c3f 	mcreq	12, 0, r0, cr3, cr15, {1}
 768:	0b3b0b3a 	bleq	ec3458 <SYS_MODE+0xec3439>
 76c:	0c270b39 			; <UNDEFINED> instruction: 0x0c270b39
 770:	01120111 	tsteq	r2, r1, lsl r1
 774:	42970640 	addsmi	r0, r7, #64, 12	; 0x4000000
 778:	0013010c 	andseq	r0, r3, ip, lsl #2
 77c:	00050f00 	andeq	r0, r5, r0, lsl #30
 780:	0b3a0803 	bleq	e82794 <SYS_MODE+0xe82775>
 784:	0b390b3b 	bleq	e43478 <SYS_MODE+0xe43459>
 788:	06021349 	streq	r1, [r2], -r9, asr #6
 78c:	000642b7 			; <UNDEFINED> instruction: 0x000642b7
 790:	82891000 	addhi	r1, r9, #0
 794:	01110101 	tsteq	r1, r1, lsl #2
 798:	00001331 	andeq	r1, r0, r1, lsr r3
 79c:	01828a11 	orreq	r8, r2, r1, lsl sl
 7a0:	910a0200 	mrsls	r0, R10_fiq
 7a4:	00000a42 	andeq	r0, r0, r2, asr #20
 7a8:	03000512 	movweq	r0, #1298	; 0x512
 7ac:	3b0b3a0e 	blcc	2cefec <SYS_MODE+0x2cefcd>
 7b0:	490b390b 	stmdbmi	fp, {r0, r1, r3, r8, fp, ip, sp}
 7b4:	b7060213 	smladlt	r6, r3, r2, r0
 7b8:	00000642 	andeq	r0, r0, r2, asr #12
 7bc:	01828913 	orreq	r8, r2, r3, lsl r9
 7c0:	31011101 	tstcc	r1, r1, lsl #2
 7c4:	00130113 	andseq	r0, r3, r3, lsl r1
 7c8:	010b1400 	tsteq	fp, r0, lsl #8
 7cc:	01120111 	tsteq	r2, r1, lsl r1
 7d0:	00001301 	andeq	r1, r0, r1, lsl #6
 7d4:	03003415 	movweq	r3, #1045	; 0x415
 7d8:	3b0b3a08 	blcc	2cf000 <SYS_MODE+0x2cefe1>
 7dc:	490b390b 	stmdbmi	fp, {r0, r1, r3, r8, fp, ip, sp}
 7e0:	b7060213 	smladlt	r6, r3, r2, r0
 7e4:	00000642 	andeq	r0, r0, r2, asr #12
 7e8:	01828916 	orreq	r8, r2, r6, lsl r9
 7ec:	31011100 	mrscc	r1, (UNDEF: 17)
 7f0:	17000013 	smladne	r0, r3, r0, r0
 7f4:	0c3f012e 	ldfeqs	f0, [pc], #-184	; 744 <SYS_MODE+0x725>
 7f8:	0b3a0e03 	bleq	e8400c <SYS_MODE+0xe83fed>
 7fc:	0b390b3b 	bleq	e434f0 <SYS_MODE+0xe434d1>
 800:	01110c27 	tsteq	r1, r7, lsr #24
 804:	06400112 			; <UNDEFINED> instruction: 0x06400112
 808:	010c4296 			; <UNDEFINED> instruction: 0x010c4296
 80c:	18000013 	stmdane	r0, {r0, r1, r4}
 810:	0e03012e 	adfeqsp	f0, f3, #0.5
 814:	0b3b0b3a 	bleq	ec3504 <SYS_MODE+0xec34e5>
 818:	0c270b39 			; <UNDEFINED> instruction: 0x0c270b39
 81c:	01120111 	tsteq	r2, r1, lsl r1
 820:	42970a40 	addsmi	r0, r7, #64, 20	; 0x40000
 824:	0013010c 	andseq	r0, r3, ip, lsl #2
 828:	00051900 	andeq	r1, r5, r0, lsl #18
 82c:	0b3a0e03 	bleq	e84040 <SYS_MODE+0xe84021>
 830:	0b390b3b 	bleq	e43524 <SYS_MODE+0xe43505>
 834:	0a021349 	beq	85560 <SYS_MODE+0x85541>
 838:	2e1a0000 	cdpcs	0, 1, cr0, cr10, cr0, {0}
 83c:	3c0c3f00 	stccc	15, cr3, [ip], {-0}
 840:	0e40870c 	cdpeq	7, 4, cr8, cr0, cr12, {0}
 844:	0b3a0e03 	bleq	e84058 <SYS_MODE+0xe84039>
 848:	0b390b3b 	bleq	e4353c <SYS_MODE+0xe4351d>
 84c:	01000000 	mrseq	r0, (UNDEF: 0)
 850:	06100011 			; <UNDEFINED> instruction: 0x06100011
 854:	01120111 	tsteq	r2, r1, lsl r1
 858:	0e1b0e03 	cdpeq	14, 1, cr0, cr11, cr3, {0}
 85c:	05130e25 	ldreq	r0, [r3, #-3621]	; 0xfffff1db
 860:	01000000 	mrseq	r0, (UNDEF: 0)
 864:	06100011 			; <UNDEFINED> instruction: 0x06100011
 868:	01120111 	tsteq	r2, r1, lsl r1
 86c:	0e1b0e03 	cdpeq	14, 1, cr0, cr11, cr3, {0}
 870:	05130e25 	ldreq	r0, [r3, #-3621]	; 0xfffff1db
 874:	01000000 	mrseq	r0, (UNDEF: 0)
 878:	06100011 			; <UNDEFINED> instruction: 0x06100011
 87c:	01120111 	tsteq	r2, r1, lsl r1
 880:	0e1b0e03 	cdpeq	14, 1, cr0, cr11, cr3, {0}
 884:	05130e25 	ldreq	r0, [r3, #-3621]	; 0xfffff1db
 888:	01000000 	mrseq	r0, (UNDEF: 0)
 88c:	06100011 			; <UNDEFINED> instruction: 0x06100011
 890:	01120111 	tsteq	r2, r1, lsl r1
 894:	0e1b0e03 	cdpeq	14, 1, cr0, cr11, cr3, {0}
 898:	05130e25 	ldreq	r0, [r3, #-3621]	; 0xfffff1db
 89c:	01000000 	mrseq	r0, (UNDEF: 0)
 8a0:	06100011 			; <UNDEFINED> instruction: 0x06100011
 8a4:	01120111 	tsteq	r2, r1, lsl r1
 8a8:	0e1b0e03 	cdpeq	14, 1, cr0, cr11, cr3, {0}
 8ac:	05130e25 	ldreq	r0, [r3, #-3621]	; 0xfffff1db
 8b0:	01000000 	mrseq	r0, (UNDEF: 0)
 8b4:	0e250111 	mcreq	1, 1, r0, cr5, cr1, {0}
 8b8:	0e030b13 	vmoveq.32	d3[0], r0
 8bc:	06550e1b 			; <UNDEFINED> instruction: 0x06550e1b
 8c0:	01520111 	cmpeq	r2, r1, lsl r1
 8c4:	00000610 	andeq	r0, r0, r0, lsl r6
 8c8:	0b002402 	bleq	98d8 <SYS_MODE+0x98b9>
 8cc:	030b3e0b 	movweq	r3, #48651	; 0xbe0b
 8d0:	0300000e 	movweq	r0, #14
 8d4:	0e030016 	mcreq	0, 0, r0, cr3, cr6, {0}
 8d8:	0b3b0b3a 	bleq	ec35c8 <SYS_MODE+0xec35a9>
 8dc:	13490b39 	movtne	r0, #39737	; 0x9b39
 8e0:	24040000 	strcs	r0, [r4], #-0
 8e4:	3e0b0b00 	vmlacc.f64	d0, d11, d0
 8e8:	0008030b 	andeq	r0, r8, fp, lsl #6
 8ec:	012e0500 			; <UNDEFINED> instruction: 0x012e0500
 8f0:	0e030c3f 	mcreq	12, 0, r0, cr3, cr15, {1}
 8f4:	0b3b0b3a 	bleq	ec35e4 <SYS_MODE+0xec35c5>
 8f8:	0c270b39 			; <UNDEFINED> instruction: 0x0c270b39
 8fc:	01120111 	tsteq	r2, r1, lsl r1
 900:	42970a40 	addsmi	r0, r7, #64, 20	; 0x40000
 904:	0013010c 	andseq	r0, r3, ip, lsl #2
 908:	00050600 	andeq	r0, r5, r0, lsl #12
 90c:	0b3a0803 	bleq	e82920 <SYS_MODE+0xe82901>
 910:	0b390b3b 	bleq	e43604 <SYS_MODE+0xe435e5>
 914:	06021349 	streq	r1, [r2], -r9, asr #6
 918:	000642b7 			; <UNDEFINED> instruction: 0x000642b7
 91c:	00340700 	eorseq	r0, r4, r0, lsl #14
 920:	0b3a0e03 	bleq	e84134 <SYS_MODE+0xe84115>
 924:	0b390b3b 	bleq	e43618 <SYS_MODE+0xe435f9>
 928:	06021349 	streq	r1, [r2], -r9, asr #6
 92c:	000642b7 			; <UNDEFINED> instruction: 0x000642b7
 930:	00340800 	eorseq	r0, r4, r0, lsl #16
 934:	0b3a0803 	bleq	e82948 <SYS_MODE+0xe82929>
 938:	0b390b3b 	bleq	e4362c <SYS_MODE+0xe4360d>
 93c:	06021349 	streq	r1, [r2], -r9, asr #6
 940:	000642b7 			; <UNDEFINED> instruction: 0x000642b7
 944:	00050900 	andeq	r0, r5, r0, lsl #18
 948:	0b3a0803 	bleq	e8295c <SYS_MODE+0xe8293d>
 94c:	0b390b3b 	bleq	e43640 <SYS_MODE+0xe43621>
 950:	0a021349 	beq	8567c <SYS_MODE+0x8565d>
 954:	050a0000 	streq	r0, [sl, #-0]
 958:	3a0e0300 	bcc	381560 <SYS_MODE+0x381541>
 95c:	390b3b0b 	stmdbcc	fp, {r0, r1, r3, r8, r9, fp, ip, sp}
 960:	0213490b 	andseq	r4, r3, #180224	; 0x2c000
 964:	0642b706 	strbeq	fp, [r2], -r6, lsl #14
 968:	2e0b0000 	cdpcs	0, 0, cr0, cr11, cr0, {0}
 96c:	030c3f01 	movweq	r3, #52993	; 0xcf01
 970:	3b0b3a0e 	blcc	2cf1b0 <SYS_MODE+0x2cf191>
 974:	270b390b 	strcs	r3, [fp, -fp, lsl #18]
 978:	1201110c 	andne	r1, r1, #12, 2
 97c:	970a4001 	strls	r4, [sl, -r1]
 980:	00000c42 	andeq	r0, r0, r2, asr #24
 984:	00110100 	andseq	r0, r1, r0, lsl #2
 988:	01110610 	tsteq	r1, r0, lsl r6
 98c:	0e030112 	mcreq	1, 0, r0, cr3, cr2, {0}
 990:	0e250e1b 	mcreq	14, 1, r0, cr5, cr11, {0}
 994:	00000513 	andeq	r0, r0, r3, lsl r5
 998:	01110100 	tsteq	r1, r0, lsl #2
 99c:	0b130e25 	bleq	4c4238 <SYS_MODE+0x4c4219>
 9a0:	0e1b0e03 	cdpeq	14, 1, cr0, cr11, cr3, {0}
 9a4:	01110655 	tsteq	r1, r5, asr r6
 9a8:	06100152 			; <UNDEFINED> instruction: 0x06100152
 9ac:	24020000 	strcs	r0, [r2], #-0
 9b0:	3e0b0b00 	vmlacc.f64	d0, d11, d0
 9b4:	000e030b 	andeq	r0, lr, fp, lsl #6
 9b8:	00160300 	andseq	r0, r6, r0, lsl #6
 9bc:	0b3a0e03 	bleq	e841d0 <SYS_MODE+0xe841b1>
 9c0:	0b390b3b 	bleq	e436b4 <SYS_MODE+0xe43695>
 9c4:	00001349 	andeq	r1, r0, r9, asr #6
 9c8:	49002604 	stmdbmi	r0, {r2, r9, sl, sp}
 9cc:	05000013 	streq	r0, [r0, #-19]	; 0xffffffed
 9d0:	0b0b0024 	bleq	2c0a68 <SYS_MODE+0x2c0a49>
 9d4:	08030b3e 	stmdaeq	r3, {r1, r2, r3, r4, r5, r8, r9, fp}
 9d8:	04060000 	streq	r0, [r6], #-0
 9dc:	0b0b3e01 	bleq	2d01e8 <SYS_MODE+0x2d01c9>
 9e0:	3a13490b 	bcc	4d2e14 <SYS_MODE+0x4d2df5>
 9e4:	390b3b0b 	stmdbcc	fp, {r0, r1, r3, r8, r9, fp, ip, sp}
 9e8:	0013010b 	andseq	r0, r3, fp, lsl #2
 9ec:	00280700 	eoreq	r0, r8, r0, lsl #14
 9f0:	0b1c0e03 	bleq	704204 <SYS_MODE+0x7041e5>
 9f4:	13080000 	movwne	r0, #32768	; 0x8000
 9f8:	3a0b0b01 	bcc	2c3604 <SYS_MODE+0x2c35e5>
 9fc:	390b3b0b 	stmdbcc	fp, {r0, r1, r3, r8, r9, fp, ip, sp}
 a00:	0013010b 	andseq	r0, r3, fp, lsl #2
 a04:	000d0900 	andeq	r0, sp, r0, lsl #18
 a08:	0b3a0e03 	bleq	e8421c <SYS_MODE+0xe841fd>
 a0c:	0b390b3b 	bleq	e43700 <SYS_MODE+0xe436e1>
 a10:	0a381349 	beq	e0573c <SYS_MODE+0xe0571d>
 a14:	0d0a0000 	stceq	0, cr0, [sl, #-0]
 a18:	3a080300 	bcc	201620 <SYS_MODE+0x201601>
 a1c:	390b3b0b 	stmdbcc	fp, {r0, r1, r3, r8, r9, fp, ip, sp}
 a20:	3813490b 	ldmdacc	r3, {r0, r1, r3, r8, fp, lr}
 a24:	0b00000a 	bleq	a54 <SYS_MODE+0xa35>
 a28:	13490101 	movtne	r0, #37121	; 0x9101
 a2c:	00001301 	andeq	r1, r0, r1, lsl #6
 a30:	4900210c 	stmdbmi	r0, {r2, r3, r8, sp}
 a34:	000b2f13 	andeq	r2, fp, r3, lsl pc
 a38:	00340d00 	eorseq	r0, r4, r0, lsl #26
 a3c:	0b3a0e03 	bleq	e84250 <SYS_MODE+0xe84231>
 a40:	0b390b3b 	bleq	e43734 <SYS_MODE+0xe43715>
 a44:	0a021349 	beq	85770 <SYS_MODE+0x85751>
 a48:	2e0e0000 	cdpcs	0, 0, cr0, cr14, cr0, {0}
 a4c:	030c3f01 	movweq	r3, #52993	; 0xcf01
 a50:	3b0b3a0e 	blcc	2cf290 <SYS_MODE+0x2cf271>
 a54:	270b3905 	strcs	r3, [fp, -r5, lsl #18]
 a58:	1201110c 	andne	r1, r1, #12, 2
 a5c:	970a4001 	strls	r4, [sl, -r1]
 a60:	13010c42 	movwne	r0, #7234	; 0x1c42
 a64:	050f0000 	streq	r0, [pc, #-0]	; a6c <SYS_MODE+0xa4d>
 a68:	3a0e0300 	bcc	381670 <SYS_MODE+0x381651>
 a6c:	39053b0b 	stmdbcc	r5, {r0, r1, r3, r8, r9, fp, ip, sp}
 a70:	0213490b 	andseq	r4, r3, #180224	; 0x2c000
 a74:	0642b706 	strbeq	fp, [r2], -r6, lsl #14
 a78:	34100000 	ldrcc	r0, [r0], #-0
 a7c:	3a0e0300 	bcc	381684 <SYS_MODE+0x381665>
 a80:	39053b0b 	stmdbcc	r5, {r0, r1, r3, r8, r9, fp, ip, sp}
 a84:	0213490b 	andseq	r4, r3, #180224	; 0x2c000
 a88:	0642b706 	strbeq	fp, [r2], -r6, lsl #14
 a8c:	2e110000 	cdpcs	0, 1, cr0, cr1, cr0, {0}
 a90:	030c3f01 	movweq	r3, #52993	; 0xcf01
 a94:	3b0b3a0e 	blcc	2cf2d4 <SYS_MODE+0x2cf2b5>
 a98:	270b3905 	strcs	r3, [fp, -r5, lsl #18]
 a9c:	1201110c 	andne	r1, r1, #12, 2
 aa0:	97064001 	strls	r4, [r6, -r1]
 aa4:	13010c42 	movwne	r0, #7234	; 0x1c42
 aa8:	89120000 	ldmdbhi	r2, {}	; <UNPREDICTABLE>
 aac:	11010182 	smlabbne	r1, r2, r1, r0
 ab0:	01133101 	tsteq	r3, r1, lsl #2
 ab4:	13000013 	movwne	r0, #19
 ab8:	0001828a 	andeq	r8, r1, sl, lsl #5
 abc:	42910a02 	addsmi	r0, r1, #8192	; 0x2000
 ac0:	1400000a 	strne	r0, [r0], #-10
 ac4:	01018289 	smlabbeq	r1, r9, r2, r8
 ac8:	13310111 	teqne	r1, #1073741828	; 0x40000004
 acc:	0f150000 	svceq	0x00150000
 ad0:	490b0b00 	stmdbmi	fp, {r8, r9, fp}
 ad4:	16000013 			; <UNDEFINED> instruction: 0x16000013
 ad8:	0e03012e 	adfeqsp	f0, f3, #0.5
 adc:	0b3b0b3a 	bleq	ec37cc <SYS_MODE+0xec37ad>
 ae0:	0c270b39 			; <UNDEFINED> instruction: 0x0c270b39
 ae4:	01120111 	tsteq	r2, r1, lsl r1
 ae8:	42970640 	addsmi	r0, r7, #64, 12	; 0x4000000
 aec:	0013010c 	andseq	r0, r3, ip, lsl #2
 af0:	00051700 	andeq	r1, r5, r0, lsl #14
 af4:	0b3a0e03 	bleq	e84308 <SYS_MODE+0xe842e9>
 af8:	0b390b3b 	bleq	e437ec <SYS_MODE+0xe437cd>
 afc:	06021349 	streq	r1, [r2], -r9, asr #6
 b00:	000642b7 			; <UNDEFINED> instruction: 0x000642b7
 b04:	00341800 	eorseq	r1, r4, r0, lsl #16
 b08:	0b3a0e03 	bleq	e8431c <SYS_MODE+0xe842fd>
 b0c:	0b390b3b 	bleq	e43800 <SYS_MODE+0xe437e1>
 b10:	06021349 	streq	r1, [r2], -r9, asr #6
 b14:	000642b7 			; <UNDEFINED> instruction: 0x000642b7
 b18:	00341900 	eorseq	r1, r4, r0, lsl #18
 b1c:	0b3a0803 	bleq	e82b30 <SYS_MODE+0xe82b11>
 b20:	0b390b3b 	bleq	e43814 <SYS_MODE+0xe437f5>
 b24:	0a021349 	beq	85850 <SYS_MODE+0x85831>
 b28:	051a0000 	ldreq	r0, [sl, #-0]
 b2c:	3a0e0300 	bcc	381734 <SYS_MODE+0x381715>
 b30:	390b3b0b 	stmdbcc	fp, {r0, r1, r3, r8, r9, fp, ip, sp}
 b34:	0213490b 	andseq	r4, r3, #180224	; 0x2c000
 b38:	1b00000a 	blne	b68 <SYS_MODE+0xb49>
 b3c:	0e03012e 	adfeqsp	f0, f3, #0.5
 b40:	0b3b0b3a 	bleq	ec3830 <SYS_MODE+0xec3811>
 b44:	0c270b39 			; <UNDEFINED> instruction: 0x0c270b39
 b48:	01120111 	tsteq	r2, r1, lsl r1
 b4c:	42970a40 	addsmi	r0, r7, #64, 20	; 0x40000
 b50:	0013010c 	andseq	r0, r3, ip, lsl #2
 b54:	012e1c00 			; <UNDEFINED> instruction: 0x012e1c00
 b58:	0b3a0e03 	bleq	e8436c <SYS_MODE+0xe8434d>
 b5c:	0b390b3b 	bleq	e43850 <SYS_MODE+0xe43831>
 b60:	13490c27 	movtne	r0, #39975	; 0x9c27
 b64:	01120111 	tsteq	r2, r1, lsl r1
 b68:	42970640 	addsmi	r0, r7, #64, 12	; 0x4000000
 b6c:	0013010c 	andseq	r0, r3, ip, lsl #2
 b70:	00051d00 	andeq	r1, r5, r0, lsl #26
 b74:	0b3a0803 	bleq	e82b88 <SYS_MODE+0xe82b69>
 b78:	0b390b3b 	bleq	e4386c <SYS_MODE+0xe4384d>
 b7c:	06021349 	streq	r1, [r2], -r9, asr #6
 b80:	000642b7 			; <UNDEFINED> instruction: 0x000642b7
 b84:	00341e00 	eorseq	r1, r4, r0, lsl #28
 b88:	0b3a0e03 	bleq	e8439c <SYS_MODE+0xe8437d>
 b8c:	0b390b3b 	bleq	e43880 <SYS_MODE+0xe43861>
 b90:	00001349 	andeq	r1, r0, r9, asr #6
 b94:	11010b1f 	tstne	r1, pc, lsl fp
 b98:	00011201 	andeq	r1, r1, r1, lsl #4
 b9c:	00342000 	eorseq	r2, r4, r0
 ba0:	0b3a0803 	bleq	e82bb4 <SYS_MODE+0xe82b95>
 ba4:	0b390b3b 	bleq	e43898 <SYS_MODE+0xe43879>
 ba8:	06021349 	streq	r1, [r2], -r9, asr #6
 bac:	000642b7 			; <UNDEFINED> instruction: 0x000642b7
 bb0:	11010000 	mrsne	r0, (UNDEF: 1)
 bb4:	130e2501 	movwne	r2, #58625	; 0xe501
 bb8:	1b0e030b 	blne	3817ec <SYS_MODE+0x3817cd>
 bbc:	1106550e 	tstne	r6, lr, lsl #10
 bc0:	10015201 	andne	r5, r1, r1, lsl #4
 bc4:	02000006 	andeq	r0, r0, #6
 bc8:	0b0b0024 	bleq	2c0c60 <SYS_MODE+0x2c0c41>
 bcc:	0e030b3e 	vmoveq.16	d3[0], r0
 bd0:	16030000 	strne	r0, [r3], -r0
 bd4:	3a0e0300 	bcc	3817dc <SYS_MODE+0x3817bd>
 bd8:	390b3b0b 	stmdbcc	fp, {r0, r1, r3, r8, r9, fp, ip, sp}
 bdc:	0013490b 	andseq	r4, r3, fp, lsl #18
 be0:	00240400 	eoreq	r0, r4, r0, lsl #8
 be4:	0b3e0b0b 	bleq	f83818 <SYS_MODE+0xf837f9>
 be8:	00000803 	andeq	r0, r0, r3, lsl #16
 bec:	3e010405 	cdpcc	4, 0, cr0, cr1, cr5, {0}
 bf0:	490b0b0b 	stmdbmi	fp, {r0, r1, r3, r8, r9, fp}
 bf4:	3b0b3a13 	blcc	2cf448 <SYS_MODE+0x2cf429>
 bf8:	010b390b 	tsteq	fp, fp, lsl #18
 bfc:	06000013 			; <UNDEFINED> instruction: 0x06000013
 c00:	0e030028 	cdpeq	0, 0, cr0, cr3, cr8, {1}
 c04:	00000b1c 	andeq	r0, r0, ip, lsl fp
 c08:	0b011307 	bleq	4582c <SYS_MODE+0x4580d>
 c0c:	3b0b3a0b 	blcc	2cf440 <SYS_MODE+0x2cf421>
 c10:	010b390b 	tsteq	fp, fp, lsl #18
 c14:	08000013 	stmdaeq	r0, {r0, r1, r4}
 c18:	0e03000d 	cdpeq	0, 0, cr0, cr3, cr13, {0}
 c1c:	0b3b0b3a 	bleq	ec390c <SYS_MODE+0xec38ed>
 c20:	13490b39 	movtne	r0, #39737	; 0x9b39
 c24:	00000a38 	andeq	r0, r0, r8, lsr sl
 c28:	49002609 	stmdbmi	r0, {r0, r3, r9, sl, sp}
 c2c:	0a000013 	beq	c80 <SYS_MODE+0xc61>
 c30:	0e030104 	adfeqs	f0, f3, f4
 c34:	0b0b0b3e 	bleq	2c3934 <SYS_MODE+0x2c3915>
 c38:	0b3a1349 	bleq	e85964 <SYS_MODE+0xe85945>
 c3c:	0b390b3b 	bleq	e43930 <SYS_MODE+0xe43911>
 c40:	00001301 	andeq	r1, r0, r1, lsl #6
 c44:	0300340b 	movweq	r3, #1035	; 0x40b
 c48:	3b0b3a0e 	blcc	2cf488 <SYS_MODE+0x2cf469>
 c4c:	490b390b 	stmdbmi	fp, {r0, r1, r3, r8, fp, ip, sp}
 c50:	020c3f13 	andeq	r3, ip, #19, 30	; 0x4c
 c54:	0c00000a 	stceq	0, cr0, [r0], {10}
 c58:	0c3f012e 	ldfeqs	f0, [pc], #-184	; ba8 <SYS_MODE+0xb89>
 c5c:	0b3a0e03 	bleq	e84470 <SYS_MODE+0xe84451>
 c60:	0b390b3b 	bleq	e43954 <SYS_MODE+0xe43935>
 c64:	01110c27 	tsteq	r1, r7, lsr #24
 c68:	06400112 			; <UNDEFINED> instruction: 0x06400112
 c6c:	010c4297 			; <UNDEFINED> instruction: 0x010c4297
 c70:	0d000013 	stceq	0, cr0, [r0, #-76]	; 0xffffffb4
 c74:	01018289 	smlabbeq	r1, r9, r2, r8
 c78:	13310111 	teqne	r1, #1073741828	; 0x40000004
 c7c:	00001301 	andeq	r1, r0, r1, lsl #6
 c80:	01828a0e 	orreq	r8, r2, lr, lsl #20
 c84:	910a0200 	mrsls	r0, R10_fiq
 c88:	00000a42 	andeq	r0, r0, r2, asr #20
 c8c:	0182890f 	orreq	r8, r2, pc, lsl #18
 c90:	31011101 	tstcc	r1, r1, lsl #2
 c94:	10000013 	andne	r0, r0, r3, lsl r0
 c98:	0e030005 	cdpeq	0, 0, cr0, cr3, cr5, {0}
 c9c:	0b3b0b3a 	bleq	ec398c <SYS_MODE+0xec396d>
 ca0:	13490b39 	movtne	r0, #39737	; 0x9b39
 ca4:	42b70602 	adcsmi	r0, r7, #2097152	; 0x200000
 ca8:	11000006 	tstne	r0, r6
 cac:	00018289 	andeq	r8, r1, r9, lsl #5
 cb0:	13310111 	teqne	r1, #1073741828	; 0x40000004
 cb4:	2e120000 	cdpcs	0, 1, cr0, cr2, cr0, {0}
 cb8:	3a0e0301 	bcc	3818c4 <SYS_MODE+0x3818a5>
 cbc:	390b3b0b 	stmdbcc	fp, {r0, r1, r3, r8, r9, fp, ip, sp}
 cc0:	110c270b 	tstne	ip, fp, lsl #14
 cc4:	40011201 	andmi	r1, r1, r1, lsl #4
 cc8:	0c429706 	mcrreq	7, 0, r9, r2, cr6
 ccc:	00001301 	andeq	r1, r0, r1, lsl #6
 cd0:	03003413 	movweq	r3, #1043	; 0x413
 cd4:	3b0b3a0e 	blcc	2cf514 <SYS_MODE+0x2cf4f5>
 cd8:	490b390b 	stmdbmi	fp, {r0, r1, r3, r8, fp, ip, sp}
 cdc:	b7060213 	smladlt	r6, r3, r2, r0
 ce0:	00000642 	andeq	r0, r0, r2, asr #12
 ce4:	03003414 	movweq	r3, #1044	; 0x414
 ce8:	3b0b3a0e 	blcc	2cf528 <SYS_MODE+0x2cf509>
 cec:	490b390b 	stmdbmi	fp, {r0, r1, r3, r8, fp, ip, sp}
 cf0:	15000013 	strne	r0, [r0, #-19]	; 0xffffffed
 cf4:	0655010b 	ldrbeq	r0, [r5], -fp, lsl #2
 cf8:	00001301 	andeq	r1, r0, r1, lsl #6
 cfc:	03003416 	movweq	r3, #1046	; 0x416
 d00:	3b0b3a08 	blcc	2cf528 <SYS_MODE+0x2cf509>
 d04:	490b390b 	stmdbmi	fp, {r0, r1, r3, r8, fp, ip, sp}
 d08:	b7060213 	smladlt	r6, r3, r2, r0
 d0c:	00000642 	andeq	r0, r0, r2, asr #12
 d10:	0b000f17 	bleq	4974 <SYS_MODE+0x4955>
 d14:	0013490b 	andseq	r4, r3, fp, lsl #18
 d18:	002e1800 	eoreq	r1, lr, r0, lsl #16
 d1c:	0c3c0c3f 	ldceq	12, cr0, [ip], #-252	; 0xffffff04
 d20:	030e4087 	movweq	r4, #57479	; 0xe087
 d24:	3b0b3a0e 	blcc	2cf564 <SYS_MODE+0x2cf545>
 d28:	000b390b 	andeq	r3, fp, fp, lsl #18
 d2c:	11010000 	mrsne	r0, (UNDEF: 1)
 d30:	130e2501 	movwne	r2, #58625	; 0xe501
 d34:	1b0e030b 	blne	381968 <SYS_MODE+0x381949>
 d38:	1106550e 	tstne	r6, lr, lsl #10
 d3c:	10015201 	andne	r5, r1, r1, lsl #4
 d40:	02000006 	andeq	r0, r0, #6
 d44:	0b0b0024 	bleq	2c0ddc <SYS_MODE+0x2c0dbd>
 d48:	0e030b3e 	vmoveq.16	d3[0], r0
 d4c:	16030000 	strne	r0, [r3], -r0
 d50:	3a0e0300 	bcc	381958 <SYS_MODE+0x381939>
 d54:	390b3b0b 	stmdbcc	fp, {r0, r1, r3, r8, r9, fp, ip, sp}
 d58:	0013490b 	andseq	r4, r3, fp, lsl #18
 d5c:	000f0400 	andeq	r0, pc, r0, lsl #8
 d60:	00000b0b 	andeq	r0, r0, fp, lsl #22
 d64:	0b002405 	bleq	9d80 <SYS_MODE+0x9d61>
 d68:	030b3e0b 	movweq	r3, #48651	; 0xbe0b
 d6c:	06000008 	streq	r0, [r0], -r8
 d70:	0e030104 	adfeqs	f0, f3, f4
 d74:	0b0b0b3e 	bleq	2c3a74 <SYS_MODE+0x2c3a55>
 d78:	0b3a1349 	bleq	e85aa4 <SYS_MODE+0xe85a85>
 d7c:	0b390b3b 	bleq	e43a70 <SYS_MODE+0xe43a51>
 d80:	00001301 	andeq	r1, r0, r1, lsl #6
 d84:	03002807 	movweq	r2, #2055	; 0x807
 d88:	000b1c0e 	andeq	r1, fp, lr, lsl #24
 d8c:	002e0800 	eoreq	r0, lr, r0, lsl #16
 d90:	0e030c3f 	mcreq	12, 0, r0, cr3, cr15, {1}
 d94:	0b3b0b3a 	bleq	ec3a84 <SYS_MODE+0xec3a65>
 d98:	0c270b39 			; <UNDEFINED> instruction: 0x0c270b39
 d9c:	01111349 	tsteq	r1, r9, asr #6
 da0:	0a400112 	beq	10011f0 <SYS_MODE+0x10011d1>
 da4:	000c4297 	muleq	ip, r7, r2
 da8:	012e0900 			; <UNDEFINED> instruction: 0x012e0900
 dac:	0e030c3f 	mcreq	12, 0, r0, cr3, cr15, {1}
 db0:	0b3b0b3a 	bleq	ec3aa0 <SYS_MODE+0xec3a81>
 db4:	0c270b39 			; <UNDEFINED> instruction: 0x0c270b39
 db8:	01120111 	tsteq	r2, r1, lsl r1
 dbc:	42970640 	addsmi	r0, r7, #64, 12	; 0x4000000
 dc0:	0013010c 	andseq	r0, r3, ip, lsl #2
 dc4:	00050a00 	andeq	r0, r5, r0, lsl #20
 dc8:	0b3a0e03 	bleq	e845dc <SYS_MODE+0xe845bd>
 dcc:	0b390b3b 	bleq	e43ac0 <SYS_MODE+0xe43aa1>
 dd0:	06021349 	streq	r1, [r2], -r9, asr #6
 dd4:	000642b7 			; <UNDEFINED> instruction: 0x000642b7
 dd8:	82890b00 	addhi	r0, r9, #0, 22
 ddc:	01110001 	tsteq	r1, r1
 de0:	00001331 	andeq	r1, r0, r1, lsr r3
 de4:	0182890c 	orreq	r8, r2, ip, lsl #18
 de8:	31011101 	tstcc	r1, r1, lsl #2
 dec:	0d000013 	stceq	0, cr0, [r0, #-76]	; 0xffffffb4
 df0:	0001828a 	andeq	r8, r1, sl, lsl #5
 df4:	42910a02 	addsmi	r0, r1, #8192	; 0x2000
 df8:	0e00000a 	cdpeq	0, 0, cr0, cr0, cr10, {0}
 dfc:	08030005 	stmdaeq	r3, {r0, r2}
 e00:	0b3b0b3a 	bleq	ec3af0 <SYS_MODE+0xec3ad1>
 e04:	13490b39 	movtne	r0, #39737	; 0x9b39
 e08:	42b70602 	adcsmi	r0, r7, #2097152	; 0x200000
 e0c:	0f000006 	svceq	0x00000006
 e10:	0c3f002e 	ldceq	0, cr0, [pc], #-184	; d60 <SYS_MODE+0xd41>
 e14:	40870c3c 	addmi	r0, r7, ip, lsr ip
 e18:	3a0e030e 	bcc	381a58 <SYS_MODE+0x381a39>
 e1c:	390b3b0b 	stmdbcc	fp, {r0, r1, r3, r8, r9, fp, ip, sp}
 e20:	0000000b 	andeq	r0, r0, fp

Disassembly of section .debug_loc:

00000000 <.debug_loc>:
	...
       c:	00010000 	andeq	r0, r1, r0
      10:	00000050 	andeq	r0, r0, r0, asr r0
      14:	00000000 	andeq	r0, r0, r0
      18:	53000100 	movwpl	r0, #256	; 0x100
	...
      24:	01f30004 	mvnseq	r0, r4
      28:	00009f50 	andeq	r9, r0, r0, asr pc
	...
      3c:	00010000 	andeq	r0, r1, r0
      40:	00000051 	andeq	r0, r0, r1, asr r0
      44:	00000000 	andeq	r0, r0, r0
      48:	f3000400 	vshl.u8	d0, d0, d0
      4c:	009f5101 	addseq	r5, pc, r1, lsl #2
	...
      60:	01000000 	mrseq	r0, (UNDEF: 0)
      64:	00005200 	andeq	r5, r0, r0, lsl #4
      68:	00000000 	andeq	r0, r0, r0
      6c:	00010000 	andeq	r0, r1, r0
      70:	00000052 	andeq	r0, r0, r2, asr r0
      74:	00000000 	andeq	r0, r0, r0
      78:	00000300 	andeq	r0, r0, r0, lsl #6
	...
      84:	50000100 	andpl	r0, r0, r0, lsl #2
	...
      90:	00530001 	subseq	r0, r3, r1
      94:	00000000 	andeq	r0, r0, r0
      98:	03000000 	movweq	r0, #0
	...
      a4:	51000100 	mrspl	r0, (UNDEF: 16)
	...
      b0:	00000002 	andeq	r0, r0, r2
	...
      c0:	9f300002 	svcls	0x00300002
	...
      cc:	00500001 	subseq	r0, r0, r1
      d0:	00000000 	andeq	r0, r0, r0
      d4:	06000000 	streq	r0, [r0], -r0
      d8:	7c007000 	stcvc	0, cr7, [r0], {-0}
      dc:	009f1c00 	addseq	r1, pc, r0, lsl #24
      e0:	00000000 	andeq	r0, r0, r0
      e4:	01000000 	mrseq	r0, (UNDEF: 0)
      e8:	00005000 	andeq	r5, r0, r0
	...
     100:	00010000 	andeq	r0, r1, r0
     104:	00000051 	andeq	r0, r0, r1, asr r0
     108:	00000000 	andeq	r0, r0, r0
     10c:	f3000400 	vshl.u8	d0, d0, d0
     110:	009f5101 	addseq	r5, pc, r1, lsl #2
     114:	00000000 	andeq	r0, r0, r0
     118:	01000000 	mrseq	r0, (UNDEF: 0)
     11c:	00005100 	andeq	r5, r0, r0, lsl #2
     120:	00000000 	andeq	r0, r0, r0
     124:	00040000 	andeq	r0, r4, r0
     128:	9f5101f3 	svcls	0x005101f3
	...
     14c:	00520001 	subseq	r0, r2, r1
     150:	00000000 	andeq	r0, r0, r0
     154:	01000000 	mrseq	r0, (UNDEF: 0)
     158:	00005c00 	andeq	r5, r0, r0, lsl #24
     15c:	00000000 	andeq	r0, r0, r0
     160:	00010000 	andeq	r0, r1, r0
     164:	00000052 	andeq	r0, r0, r2, asr r0
     168:	00000000 	andeq	r0, r0, r0
     16c:	5c000100 	stfpls	f0, [r0], {-0}
	...
     178:	00520001 	subseq	r0, r2, r1
     17c:	00000000 	andeq	r0, r0, r0
     180:	01000000 	mrseq	r0, (UNDEF: 0)
     184:	00005c00 	andeq	r5, r0, r0, lsl #24
     188:	00000000 	andeq	r0, r0, r0
     18c:	00010000 	andeq	r0, r1, r0
     190:	00000052 	andeq	r0, r0, r2, asr r0
     194:	00000000 	andeq	r0, r0, r0
     198:	5c000100 	stfpls	f0, [r0], {-0}
	...
     1a4:	00010100 	andeq	r0, r1, r0, lsl #2
     1a8:	01000000 	mrseq	r0, (UNDEF: 0)
     1ac:	00000001 	andeq	r0, r0, r1
	...
     1b8:	00530001 	subseq	r0, r3, r1
     1bc:	00000000 	andeq	r0, r0, r0
     1c0:	03000000 	movweq	r0, #0
     1c4:	9f017300 	svcls	0x00017300
	...
     1d0:	00530001 	subseq	r0, r3, r1
     1d4:	00000000 	andeq	r0, r0, r0
     1d8:	01000000 	mrseq	r0, (UNDEF: 0)
     1dc:	00005300 	andeq	r5, r0, r0, lsl #6
     1e0:	00000000 	andeq	r0, r0, r0
     1e4:	00030000 	andeq	r0, r3, r0
     1e8:	009f7f73 	addseq	r7, pc, r3, ror pc	; <UNPREDICTABLE>
     1ec:	00000000 	andeq	r0, r0, r0
     1f0:	01000000 	mrseq	r0, (UNDEF: 0)
     1f4:	00005300 	andeq	r5, r0, r0, lsl #6
     1f8:	00000000 	andeq	r0, r0, r0
     1fc:	01000000 	mrseq	r0, (UNDEF: 0)
     200:	00000001 	andeq	r0, r0, r1
     204:	00010100 	andeq	r0, r1, r0, lsl #2
	...
     210:	00010000 	andeq	r0, r1, r0
     214:	00000051 	andeq	r0, r0, r1, asr r0
     218:	00000000 	andeq	r0, r0, r0
     21c:	71000300 	mrsvc	r0, LR_irq
     220:	00009f01 	andeq	r9, r0, r1, lsl #30
     224:	00000000 	andeq	r0, r0, r0
     228:	00010000 	andeq	r0, r1, r0
     22c:	00000051 	andeq	r0, r0, r1, asr r0
     230:	00000000 	andeq	r0, r0, r0
     234:	51000100 	mrspl	r0, (UNDEF: 16)
	...
     240:	7f710003 	svcvc	0x00710003
     244:	0000009f 	muleq	r0, pc, r0	; <UNPREDICTABLE>
     248:	00000000 	andeq	r0, r0, r0
     24c:	51000100 	mrspl	r0, (UNDEF: 16)
	...
     264:	00510001 	subseq	r0, r1, r1
     268:	00000000 	andeq	r0, r0, r0
     26c:	04000000 	streq	r0, [r0], #-0
     270:	5101f300 	mrspl	pc, SP_irq	; <UNPREDICTABLE>
     274:	0000009f 	muleq	r0, pc, r0	; <UNPREDICTABLE>
	...
     28c:	52000100 	andpl	r0, r0, #0, 2
	...
     298:	005c0001 	subseq	r0, ip, r1
     29c:	00000000 	andeq	r0, r0, r0
     2a0:	01000000 	mrseq	r0, (UNDEF: 0)
     2a4:	00005200 	andeq	r5, r0, r0, lsl #4
     2a8:	00000000 	andeq	r0, r0, r0
     2ac:	00010000 	andeq	r0, r1, r0
     2b0:	0000005c 	andeq	r0, r0, ip, asr r0
     2b4:	00000000 	andeq	r0, r0, r0
     2b8:	00000200 	andeq	r0, r0, r0, lsl #4
     2bc:	00000101 	andeq	r0, r0, r1, lsl #2
	...
     2c8:	50000100 	andpl	r0, r0, r0, lsl #2
	...
     2d4:	00530001 	subseq	r0, r3, r1
     2d8:	00000000 	andeq	r0, r0, r0
     2dc:	03000000 	movweq	r0, #0
     2e0:	9f017300 	svcls	0x00017300
	...
     2ec:	00530001 	subseq	r0, r3, r1
     2f0:	00000000 	andeq	r0, r0, r0
     2f4:	02000000 	andeq	r0, r0, #0
     2f8:	00000101 	andeq	r0, r0, r1, lsl #2
	...
     304:	51000100 	mrspl	r0, (UNDEF: 16)
	...
     310:	01710003 	cmneq	r1, r3
     314:	0000009f 	muleq	r0, pc, r0	; <UNPREDICTABLE>
     318:	00000000 	andeq	r0, r0, r0
     31c:	51000100 	mrspl	r0, (UNDEF: 16)
	...
     330:	c20006e0 	andgt	r0, r0, #224, 12	; 0xe000000
     334:	c20006e8 	andgt	r0, r0, #232, 12	; 0xe800000
     338:	e8520001 	ldmda	r2, {r0}^
     33c:	f0c20006 			; <UNDEFINED> instruction: 0xf0c20006
     340:	01c20006 	biceq	r0, r2, r6
     344:	06f05c00 	ldrbteq	r5, [r0], r0, lsl #24
     348:	06f4c200 	ldrbteq	ip, [r4], r0, lsl #4
     34c:	0001c200 	andeq	ip, r1, r0, lsl #4
     350:	0006f452 	andeq	pc, r6, r2, asr r4	; <UNPREDICTABLE>
     354:	000700c2 	andeq	r0, r7, r2, asr #1
     358:	5c0001c2 	stfpls	f0, [r0], {194}	; 0xc2
	...
     364:	01000002 	tsteq	r0, r2
     368:	00000001 	andeq	r0, r0, r1
     36c:	c20006e0 	andgt	r0, r0, #224, 12	; 0xe000000
     370:	c20006e8 	andgt	r0, r0, #232, 12	; 0xe800000
     374:	e8500001 	ldmda	r0, {r0}^
     378:	e8c20006 	stmia	r2, {r1, r2}^
     37c:	01c20006 	biceq	r0, r2, r6
     380:	06e85300 	strbteq	r5, [r8], r0, lsl #6
     384:	06ecc200 	strbteq	ip, [ip], r0, lsl #4
     388:	0003c200 	andeq	ip, r3, r0, lsl #4
     38c:	ec9f0173 	ldfs	f0, [pc], {115}	; 0x73
     390:	00c20006 	sbceq	r0, r2, r6
     394:	01c20007 	biceq	r0, r2, r7
     398:	00005300 	andeq	r5, r0, r0, lsl #6
	...
     3ac:	00010000 	andeq	r0, r1, r0
     3b0:	00000050 	andeq	r0, r0, r0, asr r0
     3b4:	00000000 	andeq	r0, r0, r0
     3b8:	f3000400 	vshl.u8	d0, d0, d0
     3bc:	009f5001 	addseq	r5, pc, r1
     3c0:	00000000 	andeq	r0, r0, r0
     3c4:	03000000 	movweq	r0, #0
	...
     3d0:	01000000 	mrseq	r0, (UNDEF: 0)
     3d4:	00005000 	andeq	r5, r0, r0
     3d8:	00000000 	andeq	r0, r0, r0
     3dc:	00010000 	andeq	r0, r1, r0
     3e0:	00000053 	andeq	r0, r0, r3, asr r0
	...
     3f4:	50000100 	andpl	r0, r0, r0, lsl #2
	...
     400:	00520001 	subseq	r0, r2, r1
	...
     418:	51000100 	mrspl	r0, (UNDEF: 16)
	...
     424:	00510001 	subseq	r0, r1, r1
     428:	00000000 	andeq	r0, r0, r0
     42c:	03000000 	movweq	r0, #0
     430:	9f7f7100 	svcls	0x007f7100
	...
     444:	00010000 	andeq	r0, r1, r0
     448:	00000050 	andeq	r0, r0, r0, asr r0
	...
     460:	50000100 	andpl	r0, r0, r0, lsl #2
	...
     46c:	00530001 	subseq	r0, r3, r1
     470:	00000000 	andeq	r0, r0, r0
     474:	03000000 	movweq	r0, #0
     478:	9f017300 	svcls	0x00017300
	...
     484:	00530001 	subseq	r0, r3, r1
	...
     49c:	51000100 	mrspl	r0, (UNDEF: 16)
	...
     4a8:	01710003 	cmneq	r1, r3
     4ac:	0000009f 	muleq	r0, pc, r0	; <UNPREDICTABLE>
     4b0:	00000000 	andeq	r0, r0, r0
     4b4:	51000100 	mrspl	r0, (UNDEF: 16)
	...
     4cc:	00010000 	andeq	r0, r1, r0
     4d0:	00000052 	andeq	r0, r0, r2, asr r0
     4d4:	00000000 	andeq	r0, r0, r0
     4d8:	52000100 	andpl	r0, r0, #0, 2
	...
     4e4:	01720003 	cmneq	r2, r3
     4e8:	0000009f 	muleq	r0, pc, r0	; <UNPREDICTABLE>
     4ec:	00000000 	andeq	r0, r0, r0
     4f0:	00000200 	andeq	r0, r0, r0, lsl #4
     4f4:	00000000 	andeq	r0, r0, r0
     4f8:	01000000 	mrseq	r0, (UNDEF: 0)
     4fc:	00005000 	andeq	r5, r0, r0
	...
     514:	00500001 	subseq	r0, r0, r1
     518:	00000000 	andeq	r0, r0, r0
     51c:	01000000 	mrseq	r0, (UNDEF: 0)
     520:	00005c00 	andeq	r5, r0, r0, lsl #24
     524:	00000000 	andeq	r0, r0, r0
     528:	00030000 	andeq	r0, r3, r0
     52c:	009f7f7c 	addseq	r7, pc, ip, ror pc	; <UNPREDICTABLE>
	...
     544:	51000100 	mrspl	r0, (UNDEF: 16)
	...
     550:	00510001 	subseq	r0, r1, r1
     554:	00000000 	andeq	r0, r0, r0
     558:	03000000 	movweq	r0, #0
     55c:	9f7f7100 	svcls	0x007f7100
	...
     568:	00000002 	andeq	r0, r0, r2
     56c:	00000000 	andeq	r0, r0, r0
     570:	00010000 	andeq	r0, r1, r0
     574:	00000050 	andeq	r0, r0, r0, asr r0
	...
     584:	7d000200 	sfmvc	f0, 4, [r0, #-0]
	...
     590:	7d000200 	sfmvc	f0, 4, [r0, #-0]
     594:	00000008 	andeq	r0, r0, r8
     598:	00000000 	andeq	r0, r0, r0
     59c:	7d000200 	sfmvc	f0, 4, [r0, #-0]
     5a0:	0000000c 	andeq	r0, r0, ip
     5a4:	00000000 	andeq	r0, r0, r0
     5a8:	7d000200 	sfmvc	f0, 4, [r0, #-0]
     5ac:	00000028 	andeq	r0, r0, r8, lsr #32
     5b0:	00000000 	andeq	r0, r0, r0
     5b4:	7d000200 	sfmvc	f0, 4, [r0, #-0]
     5b8:	0000000c 	andeq	r0, r0, ip
     5bc:	00000000 	andeq	r0, r0, r0
     5c0:	7d000200 	sfmvc	f0, 4, [r0, #-0]
     5c4:	00000008 	andeq	r0, r0, r8
     5c8:	00000000 	andeq	r0, r0, r0
     5cc:	7d000200 	sfmvc	f0, 4, [r0, #-0]
	...
     5e4:	01000000 	mrseq	r0, (UNDEF: 0)
     5e8:	00005000 	andeq	r5, r0, r0
     5ec:	00000000 	andeq	r0, r0, r0
     5f0:	00020000 	andeq	r0, r2, r0
     5f4:	00004c91 	muleq	r0, r1, ip
     5f8:	00000000 	andeq	r0, r0, r0
     5fc:	00040000 	andeq	r0, r4, r0
     600:	9f5001f3 	svcls	0x005001f3
	...
     618:	00510001 	subseq	r0, r1, r1
     61c:	00000000 	andeq	r0, r0, r0
     620:	04000000 	streq	r0, [r0], #-0
     624:	5101f300 	mrspl	pc, SP_irq	; <UNPREDICTABLE>
     628:	0000009f 	muleq	r0, pc, r0	; <UNPREDICTABLE>
	...
     638:	01000000 	mrseq	r0, (UNDEF: 0)
     63c:	00005000 	andeq	r5, r0, r0
	...
     64c:	00020000 	andeq	r0, r2, r0
     650:	0000007d 	andeq	r0, r0, sp, ror r0
     654:	00000000 	andeq	r0, r0, r0
     658:	00020000 	andeq	r0, r2, r0
     65c:	0000047d 	andeq	r0, r0, sp, ror r4
     660:	00000000 	andeq	r0, r0, r0
     664:	00020000 	andeq	r0, r2, r0
     668:	0000107d 	andeq	r1, r0, sp, ror r0
     66c:	00000000 	andeq	r0, r0, r0
     670:	00020000 	andeq	r0, r2, r0
     674:	0000047d 	andeq	r0, r0, sp, ror r4
	...
     68c:	00500001 	subseq	r0, r0, r1
     690:	00000000 	andeq	r0, r0, r0
     694:	01000000 	mrseq	r0, (UNDEF: 0)
     698:	00005100 	andeq	r5, r0, r0, lsl #2
     69c:	00000000 	andeq	r0, r0, r0
     6a0:	00040000 	andeq	r0, r4, r0
     6a4:	9f5001f3 	svcls	0x005001f3
	...
     6bc:	00010000 	andeq	r0, r1, r0
     6c0:	00000051 	andeq	r0, r0, r1, asr r0
     6c4:	00000000 	andeq	r0, r0, r0
     6c8:	52000100 	andpl	r0, r0, #0, 2
	...
     6d4:	01f30004 	mvnseq	r0, r4
     6d8:	00009f51 	andeq	r9, r0, r1, asr pc
	...
     6f0:	00520001 	subseq	r0, r2, r1
     6f4:	00000000 	andeq	r0, r0, r0
     6f8:	01000000 	mrseq	r0, (UNDEF: 0)
     6fc:	00005300 	andeq	r5, r0, r0, lsl #6
     700:	00000000 	andeq	r0, r0, r0
     704:	00040000 	andeq	r0, r4, r0
     708:	9f5201f3 	svcls	0x005201f3
	...
     71c:	00010000 	andeq	r0, r1, r0
     720:	00000053 	andeq	r0, r0, r3, asr r0
	...
     730:	7d000200 	sfmvc	f0, 4, [r0, #-0]
	...
     73c:	7d000200 	sfmvc	f0, 4, [r0, #-0]
     740:	00000004 	andeq	r0, r0, r4
     744:	00000000 	andeq	r0, r0, r0
     748:	7d000200 	sfmvc	f0, 4, [r0, #-0]
     74c:	00000018 	andeq	r0, r0, r8, lsl r0
     750:	00000000 	andeq	r0, r0, r0
     754:	7d000200 	sfmvc	f0, 4, [r0, #-0]
     758:	00000004 	andeq	r0, r0, r4
	...
     76c:	01000000 	mrseq	r0, (UNDEF: 0)
     770:	00005000 	andeq	r5, r0, r0
     774:	00000000 	andeq	r0, r0, r0
     778:	00010000 	andeq	r0, r1, r0
     77c:	00000053 	andeq	r0, r0, r3, asr r0
     780:	00000000 	andeq	r0, r0, r0
     784:	f3000400 	vshl.u8	d0, d0, d0
     788:	009f5001 	addseq	r5, pc, r1
	...
     79c:	51000100 	mrspl	r0, (UNDEF: 16)
	...
     7b0:	007d0002 	rsbseq	r0, sp, r2
	...
     7bc:	087d0002 	ldmdaeq	sp!, {r1}^
	...
     7c8:	0c7d0002 	ldcleq	0, cr0, [sp], #-8
	...
     7d4:	207d0002 	rsbscs	r0, sp, r2
	...
     7e0:	0c7d0002 	ldcleq	0, cr0, [sp], #-8
	...
     7ec:	087d0002 	ldmdaeq	sp!, {r1}^
	...
     7f8:	007d0002 	rsbseq	r0, sp, r2
	...
     810:	00010000 	andeq	r0, r1, r0
     814:	00000050 	andeq	r0, r0, r0, asr r0
     818:	00000000 	andeq	r0, r0, r0
     81c:	51000100 	mrspl	r0, (UNDEF: 16)
	...
     828:	01f30004 	mvnseq	r0, r4
     82c:	00009f50 	andeq	r9, r0, r0, asr pc
	...
     844:	00510001 	subseq	r0, r1, r1
     848:	00000000 	andeq	r0, r0, r0
     84c:	01000000 	mrseq	r0, (UNDEF: 0)
     850:	00005200 	andeq	r5, r0, r0, lsl #4
     854:	00000000 	andeq	r0, r0, r0
     858:	00040000 	andeq	r0, r4, r0
     85c:	9f5101f3 	svcls	0x005101f3
	...
     870:	00010000 	andeq	r0, r1, r0
     874:	00000050 	andeq	r0, r0, r0, asr r0
	...
     884:	7d000200 	sfmvc	f0, 4, [r0, #-0]
	...
     890:	7d000200 	sfmvc	f0, 4, [r0, #-0]
     894:	0000000c 	andeq	r0, r0, ip
     898:	00000000 	andeq	r0, r0, r0
     89c:	7d000200 	sfmvc	f0, 4, [r0, #-0]
     8a0:	00000010 	andeq	r0, r0, r0, lsl r0
     8a4:	00000000 	andeq	r0, r0, r0
     8a8:	7d000200 	sfmvc	f0, 4, [r0, #-0]
     8ac:	00000020 	andeq	r0, r0, r0, lsr #32
     8b0:	00000000 	andeq	r0, r0, r0
     8b4:	7d000200 	sfmvc	f0, 4, [r0, #-0]
     8b8:	00000010 	andeq	r0, r0, r0, lsl r0
     8bc:	00000000 	andeq	r0, r0, r0
     8c0:	7d000200 	sfmvc	f0, 4, [r0, #-0]
     8c4:	0000000c 	andeq	r0, r0, ip
     8c8:	00000000 	andeq	r0, r0, r0
     8cc:	7d000200 	sfmvc	f0, 4, [r0, #-0]
	...
     8e4:	01000000 	mrseq	r0, (UNDEF: 0)
     8e8:	00005000 	andeq	r5, r0, r0
     8ec:	00000000 	andeq	r0, r0, r0
     8f0:	00010000 	andeq	r0, r1, r0
     8f4:	00000051 	andeq	r0, r0, r1, asr r0
     8f8:	00000000 	andeq	r0, r0, r0
     8fc:	f3000400 	vshl.u8	d0, d0, d0
     900:	009f5001 	addseq	r5, pc, r1
	...
     914:	50000100 	andpl	r0, r0, r0, lsl #2
	...
     920:	c2001f0c 	andgt	r1, r0, #12, 30	; 0x30
     924:	c2001f10 	andgt	r1, r0, #16, 30	; 0x40
     928:	007d0002 	rsbseq	r0, sp, r2
     92c:	c2001f10 	andgt	r1, r0, #16, 30	; 0x40
     930:	c2001f14 	andgt	r1, r0, #20, 30	; 0x50
     934:	107d0002 	rsbsne	r0, sp, r2
     938:	c2001f14 	andgt	r1, r0, #20, 30	; 0x50
     93c:	c2001f18 	andgt	r1, r0, #24, 30	; 0x60
     940:	147d0002 	ldrbtne	r0, [sp], #-2
     944:	c2001f18 	andgt	r1, r0, #24, 30	; 0x60
     948:	c2001f40 	andgt	r1, r0, #64, 30	; 0x100
     94c:	287d0002 	ldmdacs	sp!, {r1}^
     950:	c2001f40 	andgt	r1, r0, #64, 30	; 0x100
     954:	c2001f44 	andgt	r1, r0, #68, 30	; 0x110
     958:	147d0002 	ldrbtne	r0, [sp], #-2
     95c:	c2001f44 	andgt	r1, r0, #68, 30	; 0x110
     960:	c2001f48 	andgt	r1, r0, #72, 30	; 0x120
     964:	107d0002 	rsbsne	r0, sp, r2
     968:	c2001f48 	andgt	r1, r0, #72, 30	; 0x120
     96c:	c2001f4c 	andgt	r1, r0, #76, 30	; 0x130
     970:	007d0002 	rsbseq	r0, sp, r2
	...
     97c:	1f3c0000 	svcne	0x003c0000
     980:	1f4cc200 	svcne	0x004cc200
     984:	0001c200 	andeq	ip, r1, r0, lsl #4
     988:	00000050 	andeq	r0, r0, r0, asr r0
     98c:	00000000 	andeq	r0, r0, r0
     990:	0013b000 	andseq	fp, r3, r0
     994:	0013b4c2 	andseq	fp, r3, r2, asr #9
     998:	7d0002c2 	sfmvc	f0, 4, [r0, #-776]	; 0xfffffcf8
     99c:	0013b400 	andseq	fp, r3, r0, lsl #8
     9a0:	0013b8c2 	andseq	fp, r3, r2, asr #17
     9a4:	7d0002c2 	sfmvc	f0, 4, [r0, #-776]	; 0xfffffcf8
     9a8:	0013b824 	andseq	fp, r3, r4, lsr #16
     9ac:	001ef4c2 	andseq	pc, lr, r2, asr #9
     9b0:	7d0003c2 	stcvc	3, cr0, [r0, #-776]	; 0xfffffcf8
     9b4:	1ef400e0 	cdpne	0, 15, cr0, cr4, cr0, {7}
     9b8:	1ef8c200 	cdpne	2, 15, cr12, cr8, cr0, {0}
     9bc:	0002c200 	andeq	ip, r2, r0, lsl #4
     9c0:	0000247d 	andeq	r2, r0, sp, ror r4
	...
     9d0:	13b00000 	movsne	r0, #0
     9d4:	13ccc200 	bicne	ip, ip, #0, 4
     9d8:	0001c200 	andeq	ip, r1, r0, lsl #4
     9dc:	0013d050 	andseq	sp, r3, r0, asr r0
     9e0:	001ec4c2 	andseq	ip, lr, r2, asr #9
     9e4:	580001c2 	stmdapl	r0, {r1, r6, r7, r8}
     9e8:	c2001ec4 	andgt	r1, r0, #196, 28	; 0xc40
     9ec:	c2001ed0 	andgt	r1, r0, #208, 28	; 0xd00
     9f0:	d0500001 	subsle	r0, r0, r1
     9f4:	f8c2001e 			; <UNDEFINED> instruction: 0xf8c2001e
     9f8:	01c2001e 	biceq	r0, r2, lr, lsl r0
     9fc:	00005800 	andeq	r5, r0, r0, lsl #16
	...
     a0c:	13b00000 	movsne	r0, #0
     a10:	13d0c200 	bicsne	ip, r0, #0, 4
     a14:	0001c200 	andeq	ip, r1, r0, lsl #4
     a18:	0013d051 	andseq	sp, r3, r1, asr r0
     a1c:	001ec4c2 	andseq	ip, lr, r2, asr #9
     a20:	570001c2 	strpl	r0, [r0, -r2, asr #3]
     a24:	c2001ec4 	andgt	r1, r0, #196, 28	; 0xc40
     a28:	c2001ed0 	andgt	r1, r0, #208, 28	; 0xd00
     a2c:	d0510001 	subsle	r0, r1, r1
     a30:	f8c2001e 			; <UNDEFINED> instruction: 0xf8c2001e
     a34:	01c2001e 	biceq	r0, r2, lr, lsl r0
     a38:	00005700 	andeq	r5, r0, r0, lsl #14
	...
     a48:	13b00000 	movsne	r0, #0
     a4c:	13d0c200 	bicsne	ip, r0, #0, 4
     a50:	0001c200 	andeq	ip, r1, r0, lsl #4
     a54:	0013d052 	andseq	sp, r3, r2, asr r0
     a58:	001ec4c2 	andseq	ip, lr, r2, asr #9
     a5c:	560001c2 	strpl	r0, [r0], -r2, asr #3
     a60:	c2001ec4 	andgt	r1, r0, #196, 28	; 0xc40
     a64:	c2001ed0 	andgt	r1, r0, #208, 28	; 0xd00
     a68:	d0520001 	subsle	r0, r2, r1
     a6c:	f8c2001e 			; <UNDEFINED> instruction: 0xf8c2001e
     a70:	01c2001e 	biceq	r0, r2, lr, lsl r0
     a74:	00005600 	andeq	r5, r0, r0, lsl #12
	...
     a80:	13b00000 	movsne	r0, #0
     a84:	13d0c200 	bicsne	ip, r0, #0, 4
     a88:	0001c200 	andeq	ip, r1, r0, lsl #4
     a8c:	001ec453 	andseq	ip, lr, r3, asr r4
     a90:	001ed0c2 	andseq	sp, lr, r2, asr #1
     a94:	530001c2 	movwpl	r0, #450	; 0x1c2
	...
     aa0:	00000001 	andeq	r0, r0, r1
	...
     ab0:	14180000 	ldrne	r0, [r8], #-0
     ab4:	141cc200 	ldrne	ip, [ip], #-512	; 0xfffffe00
     ab8:	0002c200 	andeq	ip, r2, r0, lsl #4
     abc:	141c9f30 	ldrne	r9, [ip], #-3888	; 0xfffff0d0
     ac0:	1614c200 	ldrne	ip, [r4], -r0, lsl #4
     ac4:	0001c200 	andeq	ip, r1, r0, lsl #4
     ac8:	00161455 	andseq	r1, r6, r5, asr r4
     acc:	001630c2 	andseq	r3, r6, r2, asr #1
     ad0:	510001c2 	smlabtpl	r0, r2, r1, r0
     ad4:	c2001630 	andgt	r1, r0, #48, 12	; 0x3000000
     ad8:	c2001640 	andgt	r1, r0, #64, 12	; 0x4000000
     adc:	40550001 	subsmi	r0, r5, r1
     ae0:	5cc20016 	stclpl	0, cr0, [r2], {22}
     ae4:	01c20016 	biceq	r0, r2, r6, lsl r0
     ae8:	165c5100 	ldrbne	r5, [ip], -r0, lsl #2
     aec:	1bf8c200 	blne	ffe312f4 <_stack_end+0x3de2a2f4>
     af0:	0001c200 	andeq	ip, r1, r0, lsl #4
     af4:	001cbc55 	andseq	fp, ip, r5, asr ip
     af8:	001d48c2 	andseq	r4, sp, r2, asr #17
     afc:	550001c2 	strpl	r0, [r0, #-450]	; 0xfffffe3e
     b00:	c2001e10 	andgt	r1, r0, #16, 28	; 0x100
     b04:	c2001e74 	andgt	r1, r0, #116, 28	; 0x740
     b08:	9c550001 	mrrcls	0, 0, r0, r5, cr1
     b0c:	a0c2001e 	sbcge	r0, r2, lr, lsl r0
     b10:	01c2001e 	biceq	r0, r2, lr, lsl r0
     b14:	00005500 	andeq	r5, r0, r0, lsl #10
     b18:	00000000 	andeq	r0, r0, r0
     b1c:	00020000 	andeq	r0, r2, r0
	...
     b2c:	02000000 	andeq	r0, r0, #0
     b30:	00000002 	andeq	r0, r0, r2
     b34:	c2001478 	andgt	r1, r0, #120, 8	; 0x78000000
     b38:	c2001498 	andgt	r1, r0, #152, 8	; 0x98000000
     b3c:	9f300002 	svcls	0x00300002
     b40:	c2001498 	andgt	r1, r0, #152, 8	; 0x98000000
     b44:	c2001510 	andgt	r1, r0, #16, 10	; 0x4000000
     b48:	40910002 	addsmi	r0, r1, r2
     b4c:	c2001560 	andgt	r1, r0, #96, 10	; 0x18000000
     b50:	c200156c 	andgt	r1, r0, #108, 10	; 0x1b000000
     b54:	9f300002 	svcls	0x00300002
     b58:	c200156c 	andgt	r1, r0, #108, 10	; 0x1b000000
     b5c:	c2001570 	andgt	r1, r0, #112, 10	; 0x1c000000
     b60:	70500001 	subsvc	r0, r0, r1
     b64:	8cc20015 	stclhi	0, cr0, [r2], {21}
     b68:	02c20015 	sbceq	r0, r2, #21
     b6c:	8c9f3000 	ldchi	0, cr3, [pc], {0}
     b70:	9cc20015 	stclls	0, cr0, [r2], {21}
     b74:	02c20015 	sbceq	r0, r2, #21
     b78:	9c409100 	stflsp	f1, [r0], {-0}
     b7c:	a8c20015 	stmiage	r2, {r0, r2, r4}^
     b80:	02c20015 	sbceq	r0, r2, #21
     b84:	a89f3000 	ldmge	pc, {ip, sp}	; <UNPREDICTABLE>
     b88:	acc20015 	stclge	0, cr0, [r2], {21}
     b8c:	01c20015 	biceq	r0, r2, r5, lsl r0
     b90:	15ac5300 	strne	r5, [ip, #768]!	; 0x300
     b94:	1e10c200 	cdpne	2, 1, cr12, cr0, cr0, {0}
     b98:	0002c200 	andeq	ip, r2, r0, lsl #4
     b9c:	1e104091 	mrcne	0, 0, r4, cr0, cr1, {4}
     ba0:	1e70c200 	cdpne	2, 7, cr12, cr0, cr0, {0}
     ba4:	0002c200 	andeq	ip, r2, r0, lsl #4
     ba8:	1e709f38 	mrcne	15, 3, r9, cr0, cr8, {1}
     bac:	1ec4c200 	cdpne	2, 12, cr12, cr4, cr0, {0}
     bb0:	0002c200 	andeq	ip, r2, r0, lsl #4
     bb4:	00004091 	muleq	r0, r1, r0
     bb8:	00000000 	andeq	r0, r0, r0
     bbc:	00010000 	andeq	r0, r1, r0
	...
     bd4:	14980000 	ldrne	r0, [r8], #0
     bd8:	14acc200 	strtne	ip, [ip], #512	; 0x200
     bdc:	0002c200 	andeq	ip, r2, r0, lsl #4
     be0:	14ac9f30 	strtne	r9, [ip], #3888	; 0xf30
     be4:	1510c200 	ldrne	ip, [r0, #-512]	; 0xfffffe00
     be8:	0001c200 	andeq	ip, r1, r0, lsl #4
     bec:	0015ac5b 	andseq	sl, r5, fp, asr ip
     bf0:	0015e8c2 	andseq	lr, r5, r2, asr #17
     bf4:	300002c2 	andcc	r0, r0, r2, asr #5
     bf8:	0015e89f 	mulseq	r5, pc, r8	; <UNPREDICTABLE>
     bfc:	0015ecc2 	andseq	lr, r5, r2, asr #25
     c00:	500001c2 	andpl	r0, r0, r2, asr #3
     c04:	c20015ec 	andgt	r1, r0, #236, 10	; 0x3b000000
     c08:	c2001600 	andgt	r1, r0, #0, 12
     c0c:	9f300002 	svcls	0x00300002
     c10:	c2001600 	andgt	r1, r0, #0, 12
     c14:	c2001c00 	andgt	r1, r0, #0, 24
     c18:	705b0001 	subsvc	r0, fp, r1
     c1c:	78c2001c 	stmiavc	r2, {r2, r3, r4}^
     c20:	01c2001c 	biceq	r0, r2, ip, lsl r0
     c24:	1cbc5b00 	vldmiane	ip!, {d5-d4}
     c28:	1d7cc200 	lfmne	f4, 3, [ip, #-0]
     c2c:	0001c200 	andeq	ip, r1, r0, lsl #4
     c30:	001d7c5b 	andseq	r7, sp, fp, asr ip
     c34:	001d80c2 	andseq	r8, sp, r2, asr #1
     c38:	530001c2 	movwpl	r0, #450	; 0x1c2
     c3c:	c2001d80 	andgt	r1, r0, #128, 26	; 0x2000
     c40:	c2001db0 	andgt	r1, r0, #176, 26	; 0x2c00
     c44:	b05b0001 	subslt	r0, fp, r1
     c48:	b8c2001d 	stmialt	r2, {r0, r2, r3, r4}^
     c4c:	01c2001d 	biceq	r0, r2, sp, lsl r0
     c50:	1e105300 	cdpne	3, 1, cr5, cr0, cr0, {0}
     c54:	1ec4c200 	cdpne	2, 12, cr12, cr4, cr0, {0}
     c58:	0001c200 	andeq	ip, r1, r0, lsl #4
     c5c:	0000005b 	andeq	r0, r0, fp, asr r0
     c60:	00000000 	andeq	r0, r0, r0
     c64:	01000000 	mrseq	r0, (UNDEF: 0)
     c68:	01000100 	mrseq	r0, (UNDEF: 16)
     c6c:	01000100 	mrseq	r0, (UNDEF: 16)
     c70:	78000000 	stmdavc	r0, {}	; <UNPREDICTABLE>
     c74:	10c20014 	sbcne	r0, r2, r4, lsl r0
     c78:	02c20015 	sbceq	r0, r2, #21
     c7c:	1c9f3000 	ldcne	0, cr3, [pc], {0}
     c80:	20c20015 	sbccs	r0, r2, r5, lsl r0
     c84:	02c20015 	sbceq	r0, r2, #21
     c88:	2c9f3100 	ldfcss	f3, [pc], {0}
     c8c:	30c20015 	sbccc	r0, r2, r5, lsl r0
     c90:	02c20015 	sbceq	r0, r2, #21
     c94:	3c9f3100 	ldfccs	f3, [pc], {0}
     c98:	40c20015 	sbcmi	r0, r2, r5, lsl r0
     c9c:	02c20015 	sbceq	r0, r2, #21
     ca0:	4c9f3100 	ldfmis	f3, [pc], {0}
     ca4:	50c20015 	sbcpl	r0, r2, r5, lsl r0
     ca8:	02c20015 	sbceq	r0, r2, #21
     cac:	5c9f3100 	ldfpls	f3, [pc], {0}
     cb0:	60c20015 	sbcvs	r0, r2, r5, lsl r0
     cb4:	02c20015 	sbceq	r0, r2, #21
     cb8:	609f3100 	addsvs	r3, pc, r0, lsl #2
     cbc:	c4c20015 	strbgt	r0, [r2], #21
     cc0:	02c2001e 	sbceq	r0, r2, #30
     cc4:	009f3000 	addseq	r3, pc, r0
     cc8:	00000000 	andeq	r0, r0, r0
     ccc:	02000000 	andeq	r0, r0, #0
	...
     d2c:	0013c400 	andseq	ip, r3, r0, lsl #8
     d30:	0013d0c2 	andseq	sp, r3, r2, asr #1
     d34:	300002c2 	andcc	r0, r0, r2, asr #5
     d38:	0013d09f 	mulseq	r3, pc, r0	; <UNPREDICTABLE>
     d3c:	0013ecc2 	andseq	lr, r3, r2, asr #25
     d40:	540001c2 	strpl	r0, [r0], #-450	; 0xfffffe3e
     d44:	c20013ec 	andgt	r1, r0, #236, 6	; 0xb0000003
     d48:	c2001410 	andgt	r1, r0, #16, 8	; 0x10000000
     d4c:	10550001 	subsne	r0, r5, r1
     d50:	b8c20014 	stmialt	r2, {r2, r4}^
     d54:	01c20018 	biceq	r0, r2, r8, lsl r0
     d58:	18b85400 	ldmne	r8!, {sl, ip, lr}
     d5c:	18c8c200 	stmiane	r8, {r9, lr, pc}^
     d60:	0001c200 	andeq	ip, r1, r0, lsl #4
     d64:	0018c850 	andseq	ip, r8, r0, asr r8
     d68:	001954c2 	andseq	r5, r9, r2, asr #9
     d6c:	540001c2 	strpl	r0, [r0], #-450	; 0xfffffe3e
     d70:	c2001954 	andgt	r1, r0, #84, 18	; 0x150000
     d74:	c2001958 	andgt	r1, r0, #88, 18	; 0x160000
     d78:	58500001 	ldmdapl	r0, {r0}^
     d7c:	a8c20019 	stmiage	r2, {r0, r3, r4}^
     d80:	01c20019 	biceq	r0, r2, r9, lsl r0
     d84:	19a85400 	stmibne	r8!, {sl, ip, lr}
     d88:	19acc200 	stmibne	ip!, {r9, lr, pc}
     d8c:	0001c200 	andeq	ip, r1, r0, lsl #4
     d90:	0019ac50 	andseq	sl, r9, r0, asr ip
     d94:	001a3cc2 	andseq	r3, sl, r2, asr #25
     d98:	540001c2 	strpl	r0, [r0], #-450	; 0xfffffe3e
     d9c:	c2001a3c 	andgt	r1, r0, #60, 20	; 0x3c000
     da0:	c2001a40 	andgt	r1, r0, #64, 20	; 0x40000
     da4:	40500001 	subsmi	r0, r0, r1
     da8:	94c2001a 	strbls	r0, [r2], #26
     dac:	01c2001a 	biceq	r0, r2, sl, lsl r0
     db0:	1a945400 	bne	fe515db8 <_stack_end+0x3c50edb8>
     db4:	1a98c200 	bne	fe6315bc <_stack_end+0x3c62a5bc>
     db8:	0001c200 	andeq	ip, r1, r0, lsl #4
     dbc:	001a9850 	andseq	r9, sl, r0, asr r8
     dc0:	001ae0c2 	andseq	lr, sl, r2, asr #1
     dc4:	540001c2 	strpl	r0, [r0], #-450	; 0xfffffe3e
     dc8:	c2001ae0 	andgt	r1, r0, #224, 20	; 0xe0000
     dcc:	c2001ae4 	andgt	r1, r0, #228, 20	; 0xe4000
     dd0:	e4500001 	ldrb	r0, [r0], #-1
     dd4:	5cc2001a 	stclpl	0, cr0, [r2], {26}
     dd8:	01c2001b 	biceq	r0, r2, fp, lsl r0
     ddc:	1b5c5400 	blne	1715de4 <SYS_MODE+0x1715dc5>
     de0:	1b6cc200 	blne	1b315e8 <SYS_MODE+0x1b315c9>
     de4:	0001c200 	andeq	ip, r1, r0, lsl #4
     de8:	001b6c50 	andseq	r6, fp, r0, asr ip
     dec:	001be4c2 	andseq	lr, fp, r2, asr #9
     df0:	540001c2 	strpl	r0, [r0], #-450	; 0xfffffe3e
     df4:	c2001be4 	andgt	r1, r0, #228, 22	; 0x39000
     df8:	c2001bf4 	andgt	r1, r0, #244, 22	; 0x3d000
     dfc:	f4500001 			; <UNDEFINED> instruction: 0xf4500001
     e00:	10c2001b 	sbcne	r0, r2, fp, lsl r0
     e04:	01c2001c 	biceq	r0, r2, ip, lsl r0
     e08:	1c105400 	cfldrsne	mvf5, [r0], {-0}
     e0c:	1c40c200 	sfmne	f4, 3, [r0], {-0}
     e10:	0001c200 	andeq	ip, r1, r0, lsl #4
     e14:	001c405a 	andseq	r4, ip, sl, asr r0
     e18:	001c44c2 	andseq	r4, ip, r2, asr #9
     e1c:	520001c2 	andpl	r0, r0, #-2147483600	; 0x80000030
     e20:	c2001c44 	andgt	r1, r0, #68, 24	; 0x4400
     e24:	c2001c5c 	andgt	r1, r0, #92, 24	; 0x5c00
     e28:	5c5a0001 	mrrcpl	0, 0, r0, sl, cr1
     e2c:	70c2001c 	sbcvc	r0, r2, ip, lsl r0
     e30:	01c2001c 	biceq	r0, r2, ip, lsl r0
     e34:	1c705200 	lfmne	f5, 2, [r0], #-0
     e38:	1c80c200 	sfmne	f4, 1, [r0], {0}
     e3c:	0001c200 	andeq	ip, r1, r0, lsl #4
     e40:	001c8054 	andseq	r8, ip, r4, asr r0
     e44:	001c88c2 	andseq	r8, ip, r2, asr #17
     e48:	5a0001c2 	bpl	1558 <SYS_MODE+0x1539>
     e4c:	c2001c88 	andgt	r1, r0, #136, 24	; 0x8800
     e50:	c2001c90 	andgt	r1, r0, #144, 24	; 0x9000
     e54:	90520001 	subsls	r0, r2, r1
     e58:	a8c2001c 	stmiage	r2, {r2, r3, r4}^
     e5c:	01c2001c 	biceq	r0, r2, ip, lsl r0
     e60:	1ca85500 	cfstr32ne	mvfx5, [r8]
     e64:	1cbcc200 	lfmne	f4, 1, [ip]
     e68:	0001c200 	andeq	ip, r1, r0, lsl #4
     e6c:	001cbc52 	andseq	fp, ip, r2, asr ip
     e70:	001d2cc2 	andseq	r2, sp, r2, asr #25
     e74:	540001c2 	strpl	r0, [r0], #-450	; 0xfffffe3e
     e78:	c2001d2c 	andgt	r1, r0, #44, 26	; 0xb00
     e7c:	c2001d30 	andgt	r1, r0, #48, 26	; 0xc00
     e80:	30520001 	subscc	r0, r2, r1
     e84:	40c2001d 	sbcmi	r0, r2, sp, lsl r0
     e88:	01c2001d 	biceq	r0, r2, sp, lsl r0
     e8c:	1d405400 	cfstrdne	mvd5, [r0, #-0]
     e90:	1d4cc200 	sfmne	f4, 3, [ip, #-0]
     e94:	0001c200 	andeq	ip, r1, r0, lsl #4
     e98:	001d4c52 	andseq	r4, sp, r2, asr ip
     e9c:	001d64c2 	andseq	r6, sp, r2, asr #9
     ea0:	590001c2 	stmdbpl	r0, {r1, r6, r7, r8}
     ea4:	c2001d64 	andgt	r1, r0, #100, 26	; 0x1900
     ea8:	c2001d88 	andgt	r1, r0, #136, 26	; 0x2200
     eac:	88520001 	ldmdahi	r2, {r0}^
     eb0:	98c2001d 	stmials	r2, {r0, r2, r3, r4}^
     eb4:	01c2001d 	biceq	r0, r2, sp, lsl r0
     eb8:	1d985500 	cfldr32ne	mvfx5, [r8]
     ebc:	1de4c200 	sfmne	f4, 3, [r4]
     ec0:	0001c200 	andeq	ip, r1, r0, lsl #4
     ec4:	001de452 	andseq	lr, sp, r2, asr r4
     ec8:	001dfcc2 	andseq	pc, sp, r2, asr #25
     ecc:	550001c2 	strpl	r0, [r0, #-450]	; 0xfffffe3e
     ed0:	c2001dfc 	andgt	r1, r0, #252, 26	; 0x3f00
     ed4:	c2001e10 	andgt	r1, r0, #16, 28	; 0x100
     ed8:	10520001 	subsne	r0, r2, r1
     edc:	60c2001e 	sbcvs	r0, r2, lr, lsl r0
     ee0:	01c2001e 	biceq	r0, r2, lr, lsl r0
     ee4:	1e605400 	cdpne	4, 6, cr5, cr0, cr0, {0}
     ee8:	1e70c200 	cdpne	2, 7, cr12, cr0, cr0, {0}
     eec:	0001c200 	andeq	ip, r1, r0, lsl #4
     ef0:	001e7050 	andseq	r7, lr, r0, asr r0
     ef4:	001e74c2 	andseq	r7, lr, r2, asr #9
     ef8:	540001c2 	strpl	r0, [r0], #-450	; 0xfffffe3e
     efc:	c2001e74 	andgt	r1, r0, #116, 28	; 0x740
     f00:	c2001e9c 	andgt	r1, r0, #156, 28	; 0x9c0
     f04:	9c550001 	mrrcls	0, 0, r0, r5, cr1
     f08:	a0c2001e 	sbcge	r0, r2, lr, lsl r0
     f0c:	01c2001e 	biceq	r0, r2, lr, lsl r0
     f10:	1ea05400 	cdpne	4, 10, cr5, cr0, cr0, {0}
     f14:	1ec4c200 	cdpne	2, 12, cr12, cr4, cr0, {0}
     f18:	0001c200 	andeq	ip, r1, r0, lsl #4
     f1c:	001ec455 	andseq	ip, lr, r5, asr r4
     f20:	001ed0c2 	andseq	sp, lr, r2, asr #1
     f24:	300002c2 	andcc	r0, r0, r2, asr #5
     f28:	001ed09f 	mulseq	lr, pc, r0	; <UNPREDICTABLE>
     f2c:	001ef8c2 	andseq	pc, lr, r2, asr #17
     f30:	540001c2 	strpl	r0, [r0], #-450	; 0xfffffe3e
	...
     f3c:	00000001 	andeq	r0, r0, r1
	...
     f58:	c2001818 	andgt	r1, r0, #24, 16	; 0x180000
     f5c:	c2001824 	andgt	r1, r0, #36, 16	; 0x240000
     f60:	9f3a0002 	svcls	0x003a0002
     f64:	c2001828 	andgt	r1, r0, #40, 16	; 0x280000
     f68:	c20018a4 	andgt	r1, r0, #164, 16	; 0xa40000
     f6c:	a4530001 	ldrbge	r0, [r3], #-1
     f70:	b3c20018 	biclt	r0, r2, #24
     f74:	03c20018 	biceq	r0, r2, #24
     f78:	7fa09100 	svcvc	0x00a09100
     f7c:	c20018d8 	andgt	r1, r0, #216, 16	; 0xd80000
     f80:	c2001928 	andgt	r1, r0, #40, 18	; 0xa0000
     f84:	28530001 	ldmdacs	r3, {r0}^
     f88:	4fc20019 	svcmi	0x00c20019
     f8c:	03c20019 	biceq	r0, r2, #25
     f90:	7fa89100 	svcvc	0x00a89100
     f94:	c2001958 	andgt	r1, r0, #88, 18	; 0x160000
     f98:	c2001994 	andgt	r1, r0, #148, 18	; 0x250000
     f9c:	94530001 	ldrbls	r0, [r3], #-1
     fa0:	a3c20019 	bicge	r0, r2, #25
     fa4:	03c20019 	biceq	r0, r2, #25
     fa8:	7fa09100 	svcvc	0x00a09100
     fac:	c20019ac 	andgt	r1, r0, #172, 18	; 0x2b0000
     fb0:	c2001a1c 	andgt	r1, r0, #28, 20	; 0x1c000
     fb4:	1c530001 	mrrcne	0, 0, r0, r3, cr1
     fb8:	37c2001a 	bficc	r0, sl, #0, #3
     fbc:	03c2001a 	biceq	r0, r2, #26
     fc0:	7fa09100 	svcvc	0x00a09100
     fc4:	c2001a40 	andgt	r1, r0, #64, 20	; 0x40000
     fc8:	c2001a80 	andgt	r1, r0, #128, 20	; 0x80000
     fcc:	80530001 	subshi	r0, r3, r1
     fd0:	8fc2001a 	svchi	0x00c2001a
     fd4:	03c2001a 	biceq	r0, r2, #26
     fd8:	7fa89100 	svcvc	0x00a89100
     fdc:	c2001a98 	andgt	r1, r0, #152, 20	; 0x98000
     fe0:	c2001abc 	andgt	r1, r0, #188, 20	; 0xbc000
     fe4:	bc530001 	mrrclt	0, 0, r0, r3, cr1
     fe8:	dbc2001a 	blle	ff081058 <_stack_end+0x3d07a058>
     fec:	03c2001a 	biceq	r0, r2, #26
     ff0:	7fa09100 	svcvc	0x00a09100
     ff4:	c2001ae4 	andgt	r1, r0, #228, 20	; 0xe4000
     ff8:	c2001b14 	andgt	r1, r0, #20, 22	; 0x5000
     ffc:	00530001 	subseq	r0, r3, r1
	...
    1008:	00187800 	andseq	r7, r8, r0, lsl #16
    100c:	001898c2 	andseq	r9, r8, r2, asr #17
    1010:	520001c2 	andpl	r0, r0, #-2147483600	; 0x80000030
	...
    1020:	c2001a04 	andgt	r1, r0, #4, 20	; 0x4000
    1024:	c2001a2c 	andgt	r1, r0, #44, 20	; 0x2c000
    1028:	2c520001 	mrrccs	0, 0, r0, r2, cr1
    102c:	37c2001a 	bficc	r0, sl, #0, #3
    1030:	03c2001a 	biceq	r0, r2, #26
    1034:	7f989100 	svcvc	0x00989100
	...
    1040:	00000001 	andeq	r0, r0, r1
	...
    1054:	c2001bf4 	andgt	r1, r0, #244, 22	; 0x3d000
    1058:	c2001c00 	andgt	r1, r0, #0, 24
    105c:	9f310002 	svcls	0x00310002
    1060:	c2001c00 	andgt	r1, r0, #0, 24
    1064:	c2001c2c 	andgt	r1, r0, #44, 24	; 0x2c00
    1068:	40590001 	subsmi	r0, r9, r1
    106c:	5cc2001c 	stclpl	0, cr0, [r2], {28}
    1070:	01c2001c 	biceq	r0, r2, ip, lsl r0
    1074:	1c5c5900 	mrrcne	9, 0, r5, ip, cr0	; <UNPREDICTABLE>
    1078:	1c60c200 	sfmne	f4, 3, [r0], #-0
    107c:	0001c200 	andeq	ip, r1, r0, lsl #4
    1080:	001c6053 	andseq	r6, ip, r3, asr r0
    1084:	001c70c2 	andseq	r7, ip, r2, asr #1
    1088:	590001c2 	stmdbpl	r0, {r1, r6, r7, r8}
    108c:	c2001c70 	andgt	r1, r0, #112, 24	; 0x7000
    1090:	c2001c80 	andgt	r1, r0, #128, 24	; 0x8000
    1094:	9f310002 	svcls	0x00310002
    1098:	c2001c80 	andgt	r1, r0, #128, 24	; 0x8000
    109c:	c2001c8c 	andgt	r1, r0, #140, 24	; 0x8c00
    10a0:	8c590001 	mrrchi	0, 0, r0, r9, cr1
    10a4:	a8c2001c 	stmiage	r2, {r2, r3, r4}^
    10a8:	01c2001c 	biceq	r0, r2, ip, lsl r0
    10ac:	1ca85400 	cfstrsne	mvf5, [r8]
    10b0:	1cacc200 	sfmne	f4, 1, [ip]
    10b4:	0001c200 	andeq	ip, r1, r0, lsl #4
    10b8:	001cac59 	andseq	sl, ip, r9, asr ip
    10bc:	001cbcc2 	andseq	fp, ip, r2, asr #25
    10c0:	540001c2 	strpl	r0, [r0], #-450	; 0xfffffe3e
	...
    10d0:	c2001d7c 	andgt	r1, r0, #124, 26	; 0x1f00
    10d4:	c2001dc8 	andgt	r1, r0, #200, 26	; 0x3200
    10d8:	d85a0001 	ldmdale	sl, {r0}^
    10dc:	dcc2001d 	stclle	0, cr0, [r2], {29}
    10e0:	01c2001d 	biceq	r0, r2, sp, lsl r0
    10e4:	00005a00 	andeq	r5, r0, r0, lsl #20
	...
    1104:	c2001d04 	andgt	r1, r0, #4, 26	; 0x100
    1108:	c2001d30 	andgt	r1, r0, #48, 26	; 0xc00
    110c:	38590001 	ldmdacc	r9, {r0}^
    1110:	48c2001d 	stmiami	r2, {r0, r2, r3, r4}^
    1114:	01c2001d 	biceq	r0, r2, sp, lsl r0
    1118:	1d485900 	vstrne.16	s11, [r8, #-0]	; <UNPREDICTABLE>
    111c:	1d64c200 	sfmne	f4, 3, [r4, #-0]
    1120:	0001c200 	andeq	ip, r1, r0, lsl #4
    1124:	001d6455 	andseq	r6, sp, r5, asr r4
    1128:	001d68c2 	andseq	r6, sp, r2, asr #17
    112c:	530001c2 	movwpl	r0, #450	; 0x1c2
    1130:	c2001d68 	andgt	r1, r0, #104, 26	; 0x1a00
    1134:	c2001d7c 	andgt	r1, r0, #124, 26	; 0x1f00
    1138:	7c550001 	mrrcvc	0, 0, r0, r5, cr1
    113c:	c8c2001d 	stmiagt	r2, {r0, r2, r3, r4}^
    1140:	01c2001d 	biceq	r0, r2, sp, lsl r0
    1144:	1dd85900 	vldrne.16	s11, [r8]	; <UNPREDICTABLE>
    1148:	1de0c200 	sfmne	f4, 3, [r0]
    114c:	0001c200 	andeq	ip, r1, r0, lsl #4
    1150:	001de059 	andseq	lr, sp, r9, asr r0
    1154:	001dfcc2 	andseq	pc, sp, r2, asr #25
    1158:	540001c2 	strpl	r0, [r0], #-450	; 0xfffffe3e
    115c:	c2001dfc 	andgt	r1, r0, #252, 26	; 0x3f00
    1160:	c2001e00 	andgt	r1, r0, #0, 28
    1164:	00590001 	subseq	r0, r9, r1
    1168:	0cc2001e 	stcleq	0, cr0, [r2], {30}
    116c:	01c2001e 	biceq	r0, r2, lr, lsl r0
    1170:	1e0c5400 	cfcpysne	mvf5, mvf12
    1174:	1e10c200 	cdpne	2, 1, cr12, cr0, cr0, {0}
    1178:	0003c200 	andeq	ip, r3, r0, lsl #4
    117c:	009f0179 	addseq	r0, pc, r9, ror r1	; <UNPREDICTABLE>
	...
    118c:	001ce000 	andseq	lr, ip, r0
    1190:	001ce8c2 	andseq	lr, ip, r2, asr #17
    1194:	520001c2 	andpl	r0, r0, #-2147483600	; 0x80000030
    1198:	c2001ce8 	andgt	r1, r0, #232, 24	; 0xe800
    119c:	c2001cf8 	andgt	r1, r0, #248, 24	; 0xf800
    11a0:	f8530001 			; <UNDEFINED> instruction: 0xf8530001
    11a4:	00c2001c 	sbceq	r0, r2, ip, lsl r0
    11a8:	01c2001d 	biceq	r0, r2, sp, lsl r0
    11ac:	00005200 	andeq	r5, r0, r0, lsl #4
	...
    11b8:	c2001ce0 	andgt	r1, r0, #224, 24	; 0xe000
    11bc:	c2001d04 	andgt	r1, r0, #4, 26	; 0x100
    11c0:	00590001 	subseq	r0, r9, r1
    11c4:	00000000 	andeq	r0, r0, r0
    11c8:	01000000 	mrseq	r0, (UNDEF: 0)
    11cc:	001e1400 	andseq	r1, lr, r0, lsl #8
    11d0:	001e70c2 	andseq	r7, lr, r2, asr #1
    11d4:	300002c2 	andcc	r0, r0, r2, asr #5
    11d8:	0000009f 	muleq	r0, pc, r0	; <UNPREDICTABLE>
    11dc:	00000000 	andeq	r0, r0, r0
    11e0:	78000300 	stmdavc	r0, {r8, r9}
    11e4:	80c20014 	sbchi	r0, r2, r4, lsl r0
    11e8:	01c20014 	biceq	r0, r2, r4, lsl r0
    11ec:	00005100 	andeq	r5, r0, r0, lsl #2
	...
    11f8:	c20015bc 	andgt	r1, r0, #188, 10	; 0x2f000000
    11fc:	c20015c4 	andgt	r1, r0, #196, 10	; 0x31000000
    1200:	00520001 	subseq	r0, r2, r1
    1204:	00000000 	andeq	r0, r0, r0
    1208:	18000000 	stmdane	r0, {}	; <UNPREDICTABLE>
    120c:	1cc2000c 	stclne	0, cr0, [r2], {12}
    1210:	02c2000c 	sbceq	r0, r2, #12
    1214:	1c007d00 	stcne	13, cr7, [r0], {-0}
    1218:	20c2000c 	sbccs	r0, r2, ip
    121c:	02c2000c 	sbceq	r0, r2, #12
    1220:	20247d00 	eorcs	r7, r4, r0, lsl #26
    1224:	dcc2000c 	stclle	0, cr0, [r2], {12}
    1228:	03c2000d 	biceq	r0, r2, #13
    122c:	00c87d00 	sbceq	r7, r8, r0, lsl #26
    1230:	c2000ddc 	andgt	r0, r0, #220, 26	; 0x3700
    1234:	c2000de0 	andgt	r0, r0, #224, 26	; 0x3800
    1238:	247d0002 	ldrbtcs	r0, [sp], #-2
    123c:	c2000de0 	andgt	r0, r0, #224, 26	; 0x3800
    1240:	c2000f98 	andgt	r0, r0, #152, 30	; 0x260
    1244:	c87d0003 	ldmdagt	sp!, {r0, r1}^
	...
    125c:	000c1800 	andeq	r1, ip, r0, lsl #16
    1260:	000c7cc2 	andeq	r7, ip, r2, asr #25
    1264:	500001c2 	andpl	r0, r0, r2, asr #3
    1268:	c2000c7c 	andgt	r0, r0, #124, 24	; 0x7c00
    126c:	c2000db8 	andgt	r0, r0, #184, 26	; 0x2e00
    1270:	b8540001 	ldmdalt	r4, {r0}^
    1274:	d4c2000d 	strble	r0, [r2], #13
    1278:	01c2000d 	biceq	r0, r2, sp
    127c:	0dd45000 	ldcleq	0, cr5, [r4]
    1280:	0de0c200 	sfmeq	f4, 3, [r0]
    1284:	0001c200 	andeq	ip, r1, r0, lsl #4
    1288:	000de054 	andeq	lr, sp, r4, asr r0
    128c:	000de8c2 	andeq	lr, sp, r2, asr #17
    1290:	500001c2 	andpl	r0, r0, r2, asr #3
    1294:	c2000de8 	andgt	r0, r0, #232, 26	; 0x3a00
    1298:	c2000f98 	andgt	r0, r0, #152, 30	; 0x260
    129c:	00540001 	subseq	r0, r4, r1
	...
    12a8:	18000000 	stmdane	r0, {}	; <UNPREDICTABLE>
    12ac:	34c2000c 	strbcc	r0, [r2], #12
    12b0:	01c2000c 	biceq	r0, r2, ip
    12b4:	0c345100 	ldfeqs	f5, [r4], #-0
    12b8:	0f98c200 	svceq	0x0098c200
    12bc:	0001c200 	andeq	ip, r1, r0, lsl #4
    12c0:	00000055 	andeq	r0, r0, r5, asr r0
	...
    12e4:	000c1800 	andeq	r1, ip, r0, lsl #16
    12e8:	000c98c2 	andeq	r9, ip, r2, asr #17
    12ec:	520001c2 	andpl	r0, r0, #-2147483600	; 0x80000030
    12f0:	c2000c98 	andgt	r0, r0, #152, 24	; 0x9800
    12f4:	c2000db8 	andgt	r0, r0, #184, 26	; 0x2e00
    12f8:	b8570001 	ldmdalt	r7, {r0}^
    12fc:	ccc2000d 	stclgt	0, cr0, [r2], {13}
    1300:	01c2000d 	biceq	r0, r2, sp
    1304:	0dcc5200 	sfmeq	f5, 2, [ip]
    1308:	0dd8c200 	lfmeq	f4, 3, [r8]
    130c:	0001c200 	andeq	ip, r1, r0, lsl #4
    1310:	000de057 	andeq	lr, sp, r7, asr r0
    1314:	000de8c2 	andeq	lr, sp, r2, asr #17
    1318:	520001c2 	andpl	r0, r0, #-2147483600	; 0x80000030
    131c:	c2000de8 	andgt	r0, r0, #232, 26	; 0x3a00
    1320:	c2000e78 	andgt	r0, r0, #120, 28	; 0x780
    1324:	78570001 	ldmdavc	r7, {r0}^
    1328:	90c2000e 	sbcls	r0, r2, lr
    132c:	01c2000e 	biceq	r0, r2, lr
    1330:	0e905000 	cdpeq	0, 9, cr5, cr0, cr0, {0}
    1334:	0eecc200 	cdpeq	2, 14, cr12, cr12, cr0, {0}
    1338:	0001c200 	andeq	ip, r1, r0, lsl #4
    133c:	000eec59 	andeq	lr, lr, r9, asr ip
    1340:	000f00c2 	andeq	r0, pc, r2, asr #1
    1344:	500001c2 	andpl	r0, r0, r2, asr #3
    1348:	c2000f00 	andgt	r0, r0, #0, 30
    134c:	c2000f08 	andgt	r0, r0, #8, 30
    1350:	08570001 	ldmdaeq	r7, {r0}^
    1354:	10c2000f 	sbcne	r0, r2, pc
    1358:	01c2000f 	biceq	r0, r2, pc
    135c:	0f105000 	svceq	0x00105000
    1360:	0f14c200 	svceq	0x0014c200
    1364:	0001c200 	andeq	ip, r1, r0, lsl #4
    1368:	000f1452 	andeq	r1, pc, r2, asr r4	; <UNPREDICTABLE>
    136c:	000f28c2 	andeq	r2, pc, r2, asr #17
    1370:	580001c2 	stmdapl	r0, {r1, r6, r7, r8}
    1374:	c2000f28 	andgt	r0, r0, #40, 30	; 0xa0
    1378:	c2000f98 	andgt	r0, r0, #152, 30	; 0x260
    137c:	00520001 	subseq	r0, r2, r1
	...
    1390:	18000000 	stmdane	r0, {}	; <UNPREDICTABLE>
    1394:	84c2000c 	strbhi	r0, [r2], #12
    1398:	01c2000c 	biceq	r0, r2, ip
    139c:	0c845300 	stceq	3, cr5, [r4], {0}
    13a0:	0db8c200 	lfmeq	f4, 1, [r8]
    13a4:	0001c200 	andeq	ip, r1, r0, lsl #4
    13a8:	000db856 	andeq	fp, sp, r6, asr r8
    13ac:	000dc8c2 	andeq	ip, sp, r2, asr #17
    13b0:	530001c2 	movwpl	r0, #450	; 0x1c2
    13b4:	c2000dc8 	andgt	r0, r0, #200, 26	; 0x3200
    13b8:	c2000de0 	andgt	r0, r0, #224, 26	; 0x3800
    13bc:	e0560001 	subs	r0, r6, r1
    13c0:	e8c2000d 	stmia	r2, {r0, r2, r3}^
    13c4:	01c2000d 	biceq	r0, r2, sp
    13c8:	0de85300 	stcleq	3, cr5, [r8]
    13cc:	0f98c200 	svceq	0x0098c200
    13d0:	0001c200 	andeq	ip, r1, r0, lsl #4
    13d4:	00000056 	andeq	r0, r0, r6, asr r0
	...
    13e8:	18000000 	stmdane	r0, {}	; <UNPREDICTABLE>
    13ec:	78c2000c 	stmiavc	r2, {r2, r3}^
    13f0:	08c2000c 	stmiaeq	r2, {r2, r3}^
    13f4:	93409000 	movtls	r9, #0
    13f8:	93419004 	movtls	r9, #4100	; 0x1004
    13fc:	000c7804 	andeq	r7, ip, r4, lsl #16
    1400:	000db8c2 	andeq	fp, sp, r2, asr #17
    1404:	900008c2 	andls	r0, r0, r2, asr #17
    1408:	9004934a 	andls	r9, r4, sl, asr #6
    140c:	b804934b 	stmdalt	r4, {r0, r1, r3, r6, r8, r9, ip, pc}
    1410:	d7c2000d 	strble	r0, [r2, sp]
    1414:	08c2000d 	stmiaeq	r2, {r0, r2, r3}^
    1418:	93409000 	movtls	r9, #0
    141c:	93419004 	movtls	r9, #4100	; 0x1004
    1420:	000dd704 	andeq	sp, sp, r4, lsl #14
    1424:	000dd8c2 	andeq	sp, sp, r2, asr #17
    1428:	f30006c2 	vmax.u8	q0, q8, q1
    142c:	2940f503 	stmdbcs	r0, {r0, r1, r8, sl, ip, sp, lr, pc}^
    1430:	000de09f 	muleq	sp, pc, r0	; <UNPREDICTABLE>
    1434:	000de4c2 	andeq	lr, sp, r2, asr #9
    1438:	900008c2 	andls	r0, r0, r2, asr #17
    143c:	90049340 	andls	r9, r4, r0, asr #6
    1440:	e4049341 	str	r9, [r4], #-833	; 0xfffffcbf
    1444:	50c2000d 	sbcpl	r0, r2, sp
    1448:	08c2000e 	stmiaeq	r2, {r1, r2, r3}^
    144c:	934a9000 	movtls	r9, #40960	; 0xa000
    1450:	934b9004 	movtls	r9, #45060	; 0xb004
    1454:	000f0004 	andeq	r0, pc, r4
    1458:	000f04c2 	andeq	r0, pc, r2, asr #9
    145c:	900008c2 	andls	r0, r0, r2, asr #17
    1460:	9004934a 	andls	r9, r4, sl, asr #6
    1464:	0004934b 	andeq	r9, r4, fp, asr #6
	...
    147c:	18000000 	stmdane	r0, {}	; <UNPREDICTABLE>
    1480:	80c2000c 	sbchi	r0, r2, ip
    1484:	02c2000c 	sbceq	r0, r2, #12
    1488:	80009100 	andhi	r9, r0, r0, lsl #2
    148c:	b0c2000c 	sbclt	r0, r2, ip
    1490:	01c2000d 	biceq	r0, r2, sp
    1494:	0db45100 	ldfeqs	f5, [r4]
    1498:	0db8c200 	lfmeq	f4, 1, [r8]
    149c:	0001c200 	andeq	ip, r1, r0, lsl #4
    14a0:	000db851 	andeq	fp, sp, r1, asr r8
    14a4:	000dd8c2 	andeq	sp, sp, r2, asr #17
    14a8:	910002c2 	smlabtls	r0, r2, r2, r0
    14ac:	000de000 	andeq	lr, sp, r0
    14b0:	000de8c2 	andeq	lr, sp, r2, asr #17
    14b4:	910002c2 	smlabtls	r0, r2, r2, r0
    14b8:	000de800 	andeq	lr, sp, r0, lsl #16
    14bc:	000e70c2 	andeq	r7, lr, r2, asr #1
    14c0:	510001c2 	smlabtpl	r0, r2, r1, r0
    14c4:	c2000e70 	andgt	r0, r0, #112, 28	; 0x700
    14c8:	c2000e77 	andgt	r0, r0, #1904	; 0x770
    14cc:	b0910003 	addslt	r0, r1, r3
    14d0:	000f007f 	andeq	r0, pc, pc, ror r0	; <UNPREDICTABLE>
    14d4:	000f08c2 	andeq	r0, pc, r2, asr #17
    14d8:	510001c2 	smlabtpl	r0, r2, r1, r0
	...
    14f0:	c2000c18 	andgt	r0, r0, #24, 24	; 0x1800
    14f4:	c2000dd8 	andgt	r0, r0, #216, 26	; 0x3600
    14f8:	08910002 	ldmeq	r1, {r1}
    14fc:	c2000de0 	andgt	r0, r0, #224, 26	; 0x3800
    1500:	c2000df8 	andgt	r0, r0, #248, 26	; 0x3e00
    1504:	08910002 	ldmeq	r1, {r1}
    1508:	c2000df8 	andgt	r0, r0, #248, 26	; 0x3e00
    150c:	c2000e10 	andgt	r0, r0, #16, 28	; 0x100
    1510:	10590001 	subsne	r0, r9, r1
    1514:	24c2000e 	strbcs	r0, [r2], #14
    1518:	02c2000e 	sbceq	r0, r2, #14
    151c:	24089100 	strcs	r9, [r8], #-256	; 0xffffff00
    1520:	90c2000e 	sbcls	r0, r2, lr
    1524:	01c2000e 	biceq	r0, r2, lr
    1528:	0f005900 	svceq	0x00005900
    152c:	0f10c200 	svceq	0x0010c200
    1530:	0001c200 	andeq	ip, r1, r0, lsl #4
    1534:	00000059 	andeq	r0, r0, r9, asr r0
    1538:	00000000 	andeq	r0, r0, r0
    153c:	00000100 	andeq	r0, r0, r0, lsl #2
    1540:	00000000 	andeq	r0, r0, r0
    1544:	68000000 	stmdavs	r0, {}	; <UNPREDICTABLE>
    1548:	b8c2000c 	stmialt	r2, {r2, r3}^
    154c:	10c2000d 	sbcne	r0, r2, sp
    1550:	2940f500 	stmdbcs	r0, {r8, sl, ip, sp, lr, pc}^
    1554:	000829f4 	strdeq	r2, [r8], -r4
    1558:	00000000 	andeq	r0, r0, r0
    155c:	2d000000 	stccs	0, cr0, [r0, #-0]
    1560:	000de09f 	muleq	sp, pc, r0	; <UNPREDICTABLE>
    1564:	000e64c2 	andeq	r6, lr, r2, asr #9
    1568:	f50010c2 			; <UNDEFINED> instruction: 0xf50010c2
    156c:	29f42940 	ldmibcs	r4!, {r6, r8, fp, sp}^
    1570:	00000008 	andeq	r0, r0, r8
    1574:	00000000 	andeq	r0, r0, r0
    1578:	649f2d00 	ldrvs	r2, [pc], #3328	; 1580 <SYS_MODE+0x1561>
    157c:	00c2000e 	sbceq	r0, r2, lr
    1580:	12c2000f 	sbcne	r0, r2, #15
    1584:	f503f300 			; <UNDEFINED> instruction: 0xf503f300
    1588:	29f42940 	ldmibcs	r4!, {r6, r8, fp, sp}^
    158c:	00000008 	andeq	r0, r0, r8
    1590:	00000000 	andeq	r0, r0, r0
    1594:	009f2d00 	addseq	r2, pc, r0, lsl #26
    1598:	08c2000f 	stmiaeq	r2, {r0, r1, r2, r3}^
    159c:	10c2000f 	sbcne	r0, r2, pc
    15a0:	2940f500 	stmdbcs	r0, {r8, sl, ip, sp, lr, pc}^
    15a4:	000829f4 	strdeq	r2, [r8], -r4
    15a8:	00000000 	andeq	r0, r0, r0
    15ac:	2d000000 	stccs	0, cr0, [r0, #-0]
    15b0:	000f089f 	muleq	pc, pc, r8	; <UNPREDICTABLE>
    15b4:	000f98c2 	andeq	r9, pc, r2, asr #17
    15b8:	f30012c2 	vhsub.u8	<illegal reg q0.5>, q8, q1
    15bc:	2940f503 	stmdbcs	r0, {r0, r1, r8, sl, ip, sp, lr, pc}^
    15c0:	000829f4 	strdeq	r2, [r8], -r4
    15c4:	00000000 	andeq	r0, r0, r0
    15c8:	2d000000 	stccs	0, cr0, [r0, #-0]
    15cc:	0000009f 	muleq	r0, pc, r0	; <UNPREDICTABLE>
	...
    15e4:	000c9000 	andeq	r9, ip, r0
    15e8:	000ce4c2 	andeq	lr, ip, r2, asr #9
    15ec:	5c0001c2 	stfpls	f0, [r0], {194}	; 0xc2
    15f0:	c2000ce4 	andgt	r0, r0, #228, 24	; 0xe400
    15f4:	c2000d0c 	andgt	r0, r0, #12, 26	; 0x300
    15f8:	4e900002 	cdpmi	0, 9, cr0, cr0, cr2, {0}
    15fc:	c2000d0c 	andgt	r0, r0, #12, 26	; 0x300
    1600:	c2000d10 	andgt	r0, r0, #16, 26	; 0x400
    1604:	81730004 	cmnhi	r3, r4
    1608:	0d109f78 	ldceq	15, cr9, [r0, #-480]	; 0xfffffe20
    160c:	0d1cc200 	lfmeq	f4, 1, [ip, #-0]
    1610:	0022c200 	eoreq	ip, r2, r0, lsl #4
    1614:	f42948f5 	vld2.<illegal width 64>	{d4-d5}, [r9 :256], r5
    1618:	a3710829 	cmnge	r1, #2686976	; 0x290000
    161c:	934f0979 	movtls	r0, #63865	; 0xf979
    1620:	f41e400a 			; <UNDEFINED> instruction: 0xf41e400a
    1624:	00000829 	andeq	r0, r0, r9, lsr #16
    1628:	00000000 	andeq	r0, r0, r0
    162c:	f7223fe0 			; <UNDEFINED> instruction: 0xf7223fe0
    1630:	f730f729 			; <UNDEFINED> instruction: 0xf730f729
    1634:	0d1c9f00 	ldceq	15, cr9, [ip, #-0]
    1638:	0d64c200 	sfmeq	f4, 3, [r4, #-0]
    163c:	0025c200 	eoreq	ip, r5, r0, lsl #4
    1640:	30f70078 	rscscc	r0, r7, r8, ror r0
    1644:	29f429f7 	ldmibcs	r4!, {r0, r1, r2, r4, r5, r6, r7, r8, fp, sp}^
    1648:	79a37108 	stmibvc	r3!, {r3, r8, ip, sp, lr}
    164c:	0a934f09 	beq	fe4d5278 <_stack_end+0x3c4ce278>
    1650:	29f41e40 	ldmibcs	r4!, {r6, r9, sl, fp, ip}^
    1654:	00000008 	andeq	r0, r0, r8
    1658:	e0000000 	and	r0, r0, r0
    165c:	29f7223f 	ldmibcs	r7!, {r0, r1, r2, r3, r4, r5, r9, sp}^
    1660:	00f730f7 	ldrshteq	r3, [r7], #7
    1664:	000d649f 	muleq	sp, pc, r4	; <UNPREDICTABLE>
    1668:	000d6cc2 	andeq	r6, sp, r2, asr #25
    166c:	780025c2 	stmdavc	r0, {r1, r6, r7, r8, sl, sp}
    1670:	f730f701 			; <UNDEFINED> instruction: 0xf730f701
    1674:	0829f429 	stmdaeq	r9!, {r0, r3, r5, sl, ip, sp, lr, pc}
    1678:	0979a371 	ldmdbeq	r9!, {r0, r4, r5, r6, r8, r9, sp, pc}^
    167c:	400a934f 	andmi	r9, sl, pc, asr #6
    1680:	0829f41e 	stmdaeq	r9!, {r1, r2, r3, r4, sl, ip, sp, lr, pc}
    1684:	00000000 	andeq	r0, r0, r0
    1688:	3fe00000 	svccc	0x00e00000
    168c:	f729f722 			; <UNDEFINED> instruction: 0xf729f722
    1690:	9f00f730 	svcls	0x0000f730
    1694:	c2000d6c 	andgt	r0, r0, #108, 26	; 0x1b00
    1698:	c2000db8 	andgt	r0, r0, #184, 26	; 0x2e00
    169c:	02f50063 	rscseq	r0, r5, #99	; 0x63
    16a0:	0829f429 	stmdaeq	r9!, {r0, r3, r5, sl, ip, sp, lr, pc}
    16a4:	00000000 	andeq	r0, r0, r0
    16a8:	3ff80000 	svccc	0x00f80000
    16ac:	0829f41c 	stmdaeq	r9!, {r2, r3, r4, sl, ip, sp, lr, pc}
    16b0:	636f4361 	cmnvs	pc, #-2080374783	; 0x84000001
    16b4:	3fd287a7 	svccc	0x00d287a7
    16b8:	f7007c1e 			; <UNDEFINED> instruction: 0xf7007c1e
    16bc:	f429f730 	vld1.8	{d15}, [r9 :256], r0
    16c0:	79fb0829 	ldmibvc	fp!, {r0, r3, r5, fp}^
    16c4:	4413509f 	ldrmi	r5, [r3], #-159	; 0xffffff61
    16c8:	f41e3fd3 			; <UNDEFINED> instruction: 0xf41e3fd3
    16cc:	c8b30829 	ldmgt	r3!, {r0, r3, r5, fp}
    16d0:	8a288b60 	bhi	a24458 <SYS_MODE+0xa24439>
    16d4:	22223fc6 	eorcs	r3, r2, #792	; 0x318
    16d8:	30f729f7 	ldrshtcc	r2, [r7], #151	; 0x97
    16dc:	30f700f7 	ldrshtcc	r0, [r7], #7
    16e0:	29f429f7 	ldmibcs	r4!, {r0, r1, r2, r4, r5, r6, r7, r8, fp, sp}^
    16e4:	79a37108 	stmibvc	r3!, {r3, r8, ip, sp, lr}
    16e8:	0a934f09 	beq	fe4d5314 <_stack_end+0x3c4ce314>
    16ec:	29f41e40 	ldmibcs	r4!, {r6, r9, sl, fp, ip}^
    16f0:	00000008 	andeq	r0, r0, r8
    16f4:	e0000000 	and	r0, r0, r0
    16f8:	29f7223f 	ldmibcs	r7!, {r0, r1, r2, r3, r4, r5, r9, sp}^
    16fc:	00f730f7 	ldrshteq	r3, [r7], #7
    1700:	000de89f 	muleq	sp, pc, r8	; <UNPREDICTABLE>
    1704:	000e2cc2 	andeq	r2, lr, r2, asr #25
    1708:	f50063c2 			; <UNDEFINED> instruction: 0xf50063c2
    170c:	29f42902 	ldmibcs	r4!, {r1, r8, fp, sp}^
    1710:	00000008 	andeq	r0, r0, r8
    1714:	f8000000 			; <UNDEFINED> instruction: 0xf8000000
    1718:	29f41c3f 	ldmibcs	r4!, {r0, r1, r2, r3, r4, r5, sl, fp, ip}^
    171c:	6f436108 	svcvs	0x00436108
    1720:	d287a763 	addle	sl, r7, #25952256	; 0x18c0000
    1724:	007c1e3f 	rsbseq	r1, ip, pc, lsr lr
    1728:	29f730f7 	ldmibcs	r7!, {r0, r1, r2, r4, r5, r6, r7, ip, sp}^
    172c:	fb0829f4 	blx	20bf06 <SYS_MODE+0x20bee7>
    1730:	13509f79 	cmpne	r0, #484	; 0x1e4
    1734:	1e3fd344 	cdpne	3, 3, cr13, cr15, cr4, {2}
    1738:	b30829f4 	movwlt	r2, #35316	; 0x89f4
    173c:	288b60c8 	stmcs	fp, {r3, r6, r7, sp, lr}
    1740:	223fc68a 	eorscs	ip, pc, #144703488	; 0x8a00000
    1744:	f729f722 			; <UNDEFINED> instruction: 0xf729f722
    1748:	f700f730 			; <UNDEFINED> instruction: 0xf700f730
    174c:	f429f730 	vld1.8	{d15}, [r9 :256], r0
    1750:	a3710829 	cmnge	r1, #2686976	; 0x290000
    1754:	934f0979 	movtls	r0, #63865	; 0xf979
    1758:	f41e400a 			; <UNDEFINED> instruction: 0xf41e400a
    175c:	00000829 	andeq	r0, r0, r9, lsr #16
    1760:	00000000 	andeq	r0, r0, r0
    1764:	f7223fe0 			; <UNDEFINED> instruction: 0xf7223fe0
    1768:	f730f729 			; <UNDEFINED> instruction: 0xf730f729
    176c:	00009f00 	andeq	r9, r0, r0, lsl #30
	...
    1778:	00020200 	andeq	r0, r2, r0, lsl #4
    177c:	00000000 	andeq	r0, r0, r0
    1780:	c2000cd0 	andgt	r0, r0, #208, 24	; 0xd000
    1784:	c2000db8 	andgt	r0, r0, #184, 26	; 0x2e00
    1788:	e8580001 	ldmda	r8, {r0}^
    178c:	f8c2000d 			; <UNDEFINED> instruction: 0xf8c2000d
    1790:	01c2000d 	biceq	r0, r2, sp
    1794:	0df85800 	ldcleq	8, cr5, [r8]
    1798:	0e00c200 	cdpeq	2, 0, cr12, cr0, cr0, {0}
    179c:	0002c200 	andeq	ip, r2, r0, lsl #4
    17a0:	0e009f30 	mcreq	15, 0, r9, cr0, cr0, {1}
    17a4:	0ed0c200 	cdpeq	2, 13, cr12, cr0, cr0, {0}
    17a8:	0001c200 	andeq	ip, r1, r0, lsl #4
    17ac:	000f0058 	andeq	r0, pc, r8, asr r0	; <UNPREDICTABLE>
    17b0:	000f10c2 	andeq	r1, pc, r2, asr #1
    17b4:	580001c2 	stmdapl	r0, {r1, r6, r7, r8}
	...
    17cc:	c2000cf8 	andgt	r0, r0, #248, 24	; 0xf800
    17d0:	c2000d20 	andgt	r0, r0, #32, 26	; 0x800
    17d4:	4c900008 	ldcmi	0, cr0, [r0], {8}
    17d8:	4d900493 	cfldrsmi	mvf0, [r0, #588]	; 0x24c
    17dc:	0d200493 	cfstrseq	mvf0, [r0, #-588]!	; 0xfffffdb4
    17e0:	0d24c200 	sfmeq	f4, 1, [r4, #-0]
    17e4:	0040c200 	subeq	ip, r0, r0, lsl #4
    17e8:	30f70078 	rscscc	r0, r7, r8, ror r0
    17ec:	46f529f7 			; <UNDEFINED> instruction: 0x46f529f7
    17f0:	00781e29 	rsbseq	r1, r8, r9, lsr #28
    17f4:	29f730f7 	ldmibcs	r7!, {r0, r1, r2, r4, r5, r6, r7, ip, sp}^
    17f8:	710829f4 	strdvc	r2, [r8, -r4]
    17fc:	4f0979a3 	svcmi	0x000979a3
    1800:	1e400a93 			; <UNDEFINED> instruction: 0x1e400a93
    1804:	000829f4 	strdeq	r2, [r8], -r4
    1808:	00000000 	andeq	r0, r0, r0
    180c:	223fe000 	eorscs	lr, pc, #0
    1810:	30f729f7 	ldrshtcc	r2, [r7], #151	; 0x97
    1814:	30f700f7 	ldrshtcc	r0, [r7], #7
    1818:	29f429f7 	ldmibcs	r4!, {r0, r1, r2, r4, r5, r6, r7, r8, fp, sp}^
    181c:	fa39ef08 	blx	e7d444 <SYS_MODE+0xe7d425>
    1820:	e62e42fe 			; <UNDEFINED> instruction: 0xe62e42fe
    1824:	9f1c1e3f 	svcls	0x001c1e3f
    1828:	c2000d24 	andgt	r0, r0, #36, 26	; 0x900
    182c:	c2000d64 	andgt	r0, r0, #100, 26	; 0x1900
    1830:	00780048 	rsbseq	r0, r8, r8, asr #32
    1834:	29f730f7 	ldmibcs	r7!, {r0, r1, r2, r4, r5, r6, r7, ip, sp}^
    1838:	160829f4 			; <UNDEFINED> instruction: 0x160829f4
    183c:	b1bbb555 			; <UNDEFINED> instruction: 0xb1bbb555
    1840:	1e40026b 	cdpne	2, 4, cr0, cr0, cr11, {3}
    1844:	30f70078 	rscscc	r0, r7, r8, ror r0
    1848:	29f429f7 	ldmibcs	r4!, {r0, r1, r2, r4, r5, r6, r7, r8, fp, sp}^
    184c:	79a37108 	stmibvc	r3!, {r3, r8, ip, sp, lr}
    1850:	0a934f09 	beq	fe4d547c <_stack_end+0x3c4ce47c>
    1854:	29f41e40 	ldmibcs	r4!, {r6, r9, sl, fp, ip}^
    1858:	00000008 	andeq	r0, r0, r8
    185c:	e0000000 	and	r0, r0, r0
    1860:	29f7223f 	ldmibcs	r7!, {r0, r1, r2, r3, r4, r5, r9, sp}^
    1864:	00f730f7 	ldrshteq	r3, [r7], #7
    1868:	29f730f7 	ldmibcs	r7!, {r0, r1, r2, r4, r5, r6, r7, ip, sp}^
    186c:	ef0829f4 	svc	0x000829f4
    1870:	42fefa39 	rscsmi	pc, lr, #233472	; 0x39000
    1874:	1e3fe62e 	cfmsuba32ne	mvax1, mvax14, mvfx15, mvfx14
    1878:	0d649f1c 	stcleq	15, cr9, [r4, #-112]!	; 0xffffff90
    187c:	0d6cc200 	sfmeq	f4, 3, [ip, #-0]
    1880:	0048c200 	subeq	ip, r8, r0, lsl #4
    1884:	30f70178 	rscscc	r0, r7, r8, ror r1
    1888:	29f429f7 	ldmibcs	r4!, {r0, r1, r2, r4, r5, r6, r7, r8, fp, sp}^
    188c:	b5551608 	ldrblt	r1, [r5, #-1544]	; 0xfffff9f8
    1890:	026bb1bb 	rsbeq	fp, fp, #-1073741778	; 0xc000002e
    1894:	01781e40 	cmneq	r8, r0, asr #28
    1898:	29f730f7 	ldmibcs	r7!, {r0, r1, r2, r4, r5, r6, r7, ip, sp}^
    189c:	710829f4 	strdvc	r2, [r8, -r4]
    18a0:	4f0979a3 	svcmi	0x000979a3
    18a4:	1e400a93 			; <UNDEFINED> instruction: 0x1e400a93
    18a8:	000829f4 	strdeq	r2, [r8], -r4
    18ac:	00000000 	andeq	r0, r0, r0
    18b0:	223fe000 	eorscs	lr, pc, #0
    18b4:	30f729f7 	ldrshtcc	r2, [r7], #151	; 0x97
    18b8:	30f700f7 	ldrshtcc	r0, [r7], #7
    18bc:	29f429f7 	ldmibcs	r4!, {r0, r1, r2, r4, r5, r6, r7, r8, fp, sp}^
    18c0:	fa39ef08 	blx	e7d4e8 <SYS_MODE+0xe7d4c9>
    18c4:	e62e42fe 			; <UNDEFINED> instruction: 0xe62e42fe
    18c8:	9f1c1e3f 	svcls	0x001c1e3f
    18cc:	c2000d6c 	andgt	r0, r0, #108, 26	; 0x1b00
    18d0:	c2000db8 	andgt	r0, r0, #184, 26	; 0x2e00
    18d4:	02f500c4 	rscseq	r0, r5, #196	; 0xc4
    18d8:	0829f429 	stmdaeq	r9!, {r0, r3, r5, sl, ip, sp, lr, pc}
    18dc:	00000000 	andeq	r0, r0, r0
    18e0:	3ff80000 	svccc	0x00f80000
    18e4:	0829f41c 	stmdaeq	r9!, {r2, r3, r4, sl, ip, sp, lr, pc}
    18e8:	636f4361 	cmnvs	pc, #-2080374783	; 0x84000001
    18ec:	3fd287a7 	svccc	0x00d287a7
    18f0:	f7007c1e 			; <UNDEFINED> instruction: 0xf7007c1e
    18f4:	f429f730 	vld1.8	{d15}, [r9 :256], r0
    18f8:	79fb0829 	ldmibvc	fp!, {r0, r3, r5, fp}^
    18fc:	4413509f 	ldrmi	r5, [r3], #-159	; 0xffffff61
    1900:	f41e3fd3 			; <UNDEFINED> instruction: 0xf41e3fd3
    1904:	c8b30829 	ldmgt	r3!, {r0, r3, r5, fp}
    1908:	8a288b60 	bhi	a24690 <SYS_MODE+0xa24671>
    190c:	22223fc6 	eorcs	r3, r2, #792	; 0x318
    1910:	30f729f7 	ldrshtcc	r2, [r7], #151	; 0x97
    1914:	30f700f7 	ldrshtcc	r0, [r7], #7
    1918:	29f429f7 	ldmibcs	r4!, {r0, r1, r2, r4, r5, r6, r7, r8, fp, sp}^
    191c:	b5551608 	ldrblt	r1, [r5, #-1544]	; 0xfffff9f8
    1920:	026bb1bb 	rsbeq	fp, fp, #-1073741778	; 0xc000002e
    1924:	02f51e40 	rscseq	r1, r5, #64, 28	; 0x400
    1928:	0829f429 	stmdaeq	r9!, {r0, r3, r5, sl, ip, sp, lr, pc}
    192c:	00000000 	andeq	r0, r0, r0
    1930:	3ff80000 	svccc	0x00f80000
    1934:	0829f41c 	stmdaeq	r9!, {r2, r3, r4, sl, ip, sp, lr, pc}
    1938:	636f4361 	cmnvs	pc, #-2080374783	; 0x84000001
    193c:	3fd287a7 	svccc	0x00d287a7
    1940:	f7007c1e 			; <UNDEFINED> instruction: 0xf7007c1e
    1944:	f429f730 	vld1.8	{d15}, [r9 :256], r0
    1948:	79fb0829 	ldmibvc	fp!, {r0, r3, r5, fp}^
    194c:	4413509f 	ldrmi	r5, [r3], #-159	; 0xffffff61
    1950:	f41e3fd3 			; <UNDEFINED> instruction: 0xf41e3fd3
    1954:	c8b30829 	ldmgt	r3!, {r0, r3, r5, fp}
    1958:	8a288b60 	bhi	a246e0 <SYS_MODE+0xa246c1>
    195c:	22223fc6 	eorcs	r3, r2, #792	; 0x318
    1960:	30f729f7 	ldrshtcc	r2, [r7], #151	; 0x97
    1964:	30f700f7 	ldrshtcc	r0, [r7], #7
    1968:	29f429f7 	ldmibcs	r4!, {r0, r1, r2, r4, r5, r6, r7, r8, fp, sp}^
    196c:	79a37108 	stmibvc	r3!, {r3, r8, ip, sp, lr}
    1970:	0a934f09 	beq	fe4d559c <_stack_end+0x3c4ce59c>
    1974:	29f41e40 	ldmibcs	r4!, {r6, r9, sl, fp, ip}^
    1978:	00000008 	andeq	r0, r0, r8
    197c:	e0000000 	and	r0, r0, r0
    1980:	29f7223f 	ldmibcs	r7!, {r0, r1, r2, r3, r4, r5, r9, sp}^
    1984:	00f730f7 	ldrshteq	r3, [r7], #7
    1988:	29f730f7 	ldmibcs	r7!, {r0, r1, r2, r4, r5, r6, r7, ip, sp}^
    198c:	ef0829f4 	svc	0x000829f4
    1990:	42fefa39 	rscsmi	pc, lr, #233472	; 0x39000
    1994:	1e3fe62e 	cfmsuba32ne	mvax1, mvax14, mvfx15, mvfx14
    1998:	0de89f1c 	stcleq	15, cr9, [r8, #112]!	; 0x70
    199c:	0e2cc200 	cdpeq	2, 2, cr12, cr12, cr0, {0}
    19a0:	00c4c200 	sbceq	ip, r4, r0, lsl #4
    19a4:	f42902f5 	vld1.64	{d0-d3}, [r9 :256], r5
    19a8:	00000829 	andeq	r0, r0, r9, lsr #16
    19ac:	00000000 	andeq	r0, r0, r0
    19b0:	f41c3ff8 			; <UNDEFINED> instruction: 0xf41c3ff8
    19b4:	43610829 	cmnmi	r1, #2686976	; 0x290000
    19b8:	87a7636f 	strhi	r6, [r7, pc, ror #6]!
    19bc:	7c1e3fd2 	ldcvc	15, cr3, [lr], {210}	; 0xd2
    19c0:	f730f700 			; <UNDEFINED> instruction: 0xf730f700
    19c4:	0829f429 	stmdaeq	r9!, {r0, r3, r5, sl, ip, sp, lr, pc}
    19c8:	509f79fb 			; <UNDEFINED> instruction: 0x509f79fb
    19cc:	3fd34413 	svccc	0x00d34413
    19d0:	0829f41e 	stmdaeq	r9!, {r1, r2, r3, r4, sl, ip, sp, lr, pc}
    19d4:	8b60c8b3 	blhi	1833ca8 <SYS_MODE+0x1833c89>
    19d8:	3fc68a28 	svccc	0x00c68a28
    19dc:	29f72222 	ldmibcs	r7!, {r1, r5, r9, sp}^
    19e0:	00f730f7 	ldrshteq	r3, [r7], #7
    19e4:	29f730f7 	ldmibcs	r7!, {r0, r1, r2, r4, r5, r6, r7, ip, sp}^
    19e8:	160829f4 			; <UNDEFINED> instruction: 0x160829f4
    19ec:	b1bbb555 			; <UNDEFINED> instruction: 0xb1bbb555
    19f0:	1e40026b 	cdpne	2, 4, cr0, cr0, cr11, {3}
    19f4:	f42902f5 	vld1.64	{d0-d3}, [r9 :256], r5
    19f8:	00000829 	andeq	r0, r0, r9, lsr #16
    19fc:	00000000 	andeq	r0, r0, r0
    1a00:	f41c3ff8 			; <UNDEFINED> instruction: 0xf41c3ff8
    1a04:	43610829 	cmnmi	r1, #2686976	; 0x290000
    1a08:	87a7636f 	strhi	r6, [r7, pc, ror #6]!
    1a0c:	7c1e3fd2 	ldcvc	15, cr3, [lr], {210}	; 0xd2
    1a10:	f730f700 			; <UNDEFINED> instruction: 0xf730f700
    1a14:	0829f429 	stmdaeq	r9!, {r0, r3, r5, sl, ip, sp, lr, pc}
    1a18:	509f79fb 			; <UNDEFINED> instruction: 0x509f79fb
    1a1c:	3fd34413 	svccc	0x00d34413
    1a20:	0829f41e 	stmdaeq	r9!, {r1, r2, r3, r4, sl, ip, sp, lr, pc}
    1a24:	8b60c8b3 	blhi	1833cf8 <SYS_MODE+0x1833cd9>
    1a28:	3fc68a28 	svccc	0x00c68a28
    1a2c:	29f72222 	ldmibcs	r7!, {r1, r5, r9, sp}^
    1a30:	00f730f7 	ldrshteq	r3, [r7], #7
    1a34:	29f730f7 	ldmibcs	r7!, {r0, r1, r2, r4, r5, r6, r7, ip, sp}^
    1a38:	710829f4 	strdvc	r2, [r8, -r4]
    1a3c:	4f0979a3 	svcmi	0x000979a3
    1a40:	1e400a93 			; <UNDEFINED> instruction: 0x1e400a93
    1a44:	000829f4 	strdeq	r2, [r8], -r4
    1a48:	00000000 	andeq	r0, r0, r0
    1a4c:	223fe000 	eorscs	lr, pc, #0
    1a50:	30f729f7 	ldrshtcc	r2, [r7], #151	; 0x97
    1a54:	30f700f7 	ldrshtcc	r0, [r7], #7
    1a58:	29f429f7 	ldmibcs	r4!, {r0, r1, r2, r4, r5, r6, r7, r8, fp, sp}^
    1a5c:	fa39ef08 	blx	e7d684 <SYS_MODE+0xe7d665>
    1a60:	e62e42fe 			; <UNDEFINED> instruction: 0xe62e42fe
    1a64:	9f1c1e3f 	svcls	0x001c1e3f
	...
    1a74:	0cfc0000 	ldcleq	0, cr0, [ip]
    1a78:	0db8c200 	lfmeq	f4, 1, [r8]
    1a7c:	0008c200 	andeq	ip, r8, r0, lsl #4
    1a80:	04934490 	ldreq	r4, [r3], #1168	; 0x490
    1a84:	04934590 	ldreq	r4, [r3], #1424	; 0x590
    1a88:	c2000de8 	andgt	r0, r0, #232, 26	; 0x3a00
    1a8c:	c2000e77 	andgt	r0, r0, #1904	; 0x770
    1a90:	44900008 	ldrmi	r0, [r0], #8
    1a94:	45900493 	ldrmi	r0, [r0, #1171]	; 0x493
    1a98:	0f000493 	svceq	0x00000493
    1a9c:	0f08c200 	svceq	0x0008c200
    1aa0:	0008c200 	andeq	ip, r8, r0, lsl #4
    1aa4:	04934490 	ldreq	r4, [r3], #1168	; 0x490
    1aa8:	04934590 	ldreq	r4, [r3], #1424	; 0x590
	...
    1ab4:	01000000 	mrseq	r0, (UNDEF: 0)
    1ab8:	00000001 	andeq	r0, r0, r1
    1abc:	00000000 	andeq	r0, r0, r0
    1ac0:	0d7c0000 	ldcleq	0, cr0, [ip, #-0]
    1ac4:	0db8c200 	lfmeq	f4, 1, [r8]
    1ac8:	0001c200 	andeq	ip, r1, r0, lsl #4
    1acc:	000df05b 	andeq	pc, sp, fp, asr r0	; <UNPREDICTABLE>
    1ad0:	000df8c2 	andeq	pc, sp, r2, asr #17
    1ad4:	5b0001c2 	blpl	21e4 <SYS_MODE+0x21c5>
    1ad8:	c2000df8 	andgt	r0, r0, #248, 26	; 0x3e00
    1adc:	c2000e00 	andgt	r0, r0, #0, 28
    1ae0:	9f300002 	svcls	0x00300002
    1ae4:	c2000e00 	andgt	r0, r0, #0, 28
    1ae8:	c2000eb8 	andgt	r0, r0, #184, 28	; 0xb80
    1aec:	b85b0001 	ldmdalt	fp, {r0}^
    1af0:	00c2000e 	sbceq	r0, r2, lr
    1af4:	03c2000f 	biceq	r0, r2, #15
    1af8:	9f017b00 	svcls	0x00017b00
    1afc:	c2000f00 	andgt	r0, r0, #0, 30
    1b00:	c2000f10 	andgt	r0, r0, #16, 30	; 0x40
    1b04:	105b0001 	subsne	r0, fp, r1
    1b08:	98c2000f 	stmials	r2, {r0, r1, r2, r3}^
    1b0c:	03c2000f 	biceq	r0, r2, #15
    1b10:	9f017b00 	svcls	0x00017b00
	...
    1b1c:	00000001 	andeq	r0, r0, r1
	...
    1b28:	c2000e00 	andgt	r0, r0, #0, 28
    1b2c:	c2000e0c 	andgt	r0, r0, #12, 28	; 0xc0
    1b30:	0c5a0001 	mrrceq	0, 0, r0, sl, cr1
    1b34:	10c2000e 	sbcne	r0, r2, lr
    1b38:	01c2000e 	biceq	r0, r2, lr
    1b3c:	0e245300 	cdpeq	3, 2, cr5, cr4, cr0, {0}
    1b40:	0e28c200 	cdpeq	2, 2, cr12, cr8, cr0, {0}
    1b44:	0001c200 	andeq	ip, r1, r0, lsl #4
    1b48:	000e285a 	andeq	r2, lr, sl, asr r8
    1b4c:	000e68c2 	andeq	r6, lr, r2, asr #17
    1b50:	530001c2 	movwpl	r0, #450	; 0x1c2
    1b54:	c2000e68 	andgt	r0, r0, #104, 28	; 0x680
    1b58:	c2000e77 	andgt	r0, r0, #1904	; 0x770
    1b5c:	b4910003 	ldrlt	r0, [r1], #3
    1b60:	000f007f 	andeq	r0, pc, pc, ror r0	; <UNPREDICTABLE>
    1b64:	000f08c2 	andeq	r0, pc, r2, asr #17
    1b68:	530001c2 	movwpl	r0, #450	; 0x1c2
	...
    1b74:	0e440001 	cdpeq	0, 4, cr0, cr4, cr1, {0}
    1b78:	0f98c200 	svceq	0x0098c200
    1b7c:	0001c200 	andeq	ip, r1, r0, lsl #4
    1b80:	00000057 	andeq	r0, r0, r7, asr r0
    1b84:	00000000 	andeq	r0, r0, r0
    1b88:	000f9800 	andeq	r9, pc, r0, lsl #16
    1b8c:	000f9cc2 	andeq	r9, pc, r2, asr #25
    1b90:	7d0002c2 	sfmvc	f0, 4, [r0, #-776]	; 0xfffffcf8
    1b94:	000f9c00 	andeq	r9, pc, r0, lsl #24
    1b98:	000fa0c2 	andeq	sl, pc, r2, asr #1
    1b9c:	7d0002c2 	sfmvc	f0, 4, [r0, #-776]	; 0xfffffcf8
    1ba0:	000fa024 	andeq	sl, pc, r4, lsr #32
    1ba4:	001300c2 	andseq	r0, r3, r2, asr #1
    1ba8:	7d0003c2 	stcvc	3, cr0, [r0, #-776]	; 0xfffffcf8
    1bac:	130000d8 	movwne	r0, #216	; 0xd8
    1bb0:	1304c200 	movwne	ip, #16896	; 0x4200
    1bb4:	0002c200 	andeq	ip, r2, r0, lsl #4
    1bb8:	1304247d 	movwne	r2, #17533	; 0x447d
    1bbc:	13b0c200 	movsne	ip, #0, 4
    1bc0:	0003c200 	andeq	ip, r3, r0, lsl #4
    1bc4:	0000d87d 	andeq	sp, r0, sp, ror r8
	...
    1be4:	000f9800 	andeq	r9, pc, r0, lsl #16
    1be8:	001037c2 	andseq	r3, r0, r2, asr #15
    1bec:	500001c2 	andpl	r0, r0, r2, asr #3
    1bf0:	c2001037 	andgt	r1, r0, #55	; 0x37
    1bf4:	c200103c 	andgt	r1, r0, #60	; 0x3c
    1bf8:	01f30004 	mvnseq	r0, r4
    1bfc:	103c9f50 	eorsne	r9, ip, r0, asr pc
    1c00:	105bc200 	subsne	ip, fp, r0, lsl #4
    1c04:	0001c200 	andeq	ip, r1, r0, lsl #4
    1c08:	00105b50 	andseq	r5, r0, r0, asr fp
    1c0c:	001060c2 	andseq	r6, r0, r2, asr #1
    1c10:	f30004c2 	vshl.u8	q0, q1, q8
    1c14:	609f5001 	addsvs	r5, pc, r1
    1c18:	8fc20010 	svchi	0x00c20010
    1c1c:	01c20010 	biceq	r0, r2, r0, lsl r0
    1c20:	108f5000 	addne	r5, pc, r0
    1c24:	1094c200 	addsne	ip, r4, r0, lsl #4
    1c28:	0004c200 	andeq	ip, r4, r0, lsl #4
    1c2c:	9f5001f3 	svcls	0x005001f3
    1c30:	c2001094 	andgt	r1, r0, #148	; 0x94
    1c34:	c20010b7 	andgt	r1, r0, #183	; 0xb7
    1c38:	b7500001 	ldrblt	r0, [r0, -r1]
    1c3c:	bcc20010 	stcllt	0, cr0, [r2], {16}
    1c40:	04c20010 	strbeq	r0, [r2], #16
    1c44:	5001f300 	andpl	pc, r1, r0, lsl #6
    1c48:	0010bc9f 	mulseq	r0, pc, ip	; <UNPREDICTABLE>
    1c4c:	0012fbc2 	andseq	pc, r2, r2, asr #23
    1c50:	500001c2 	andpl	r0, r0, r2, asr #3
    1c54:	c20012fb 	andgt	r1, r0, #-1342177265	; 0xb000000f
    1c58:	c2001304 	andgt	r1, r0, #4, 6	; 0x10000000
    1c5c:	01f30004 	mvnseq	r0, r4
    1c60:	13049f50 	movwne	r9, #20304	; 0x4f50
    1c64:	13b0c200 	movsne	ip, #0, 4
    1c68:	0001c200 	andeq	ip, r1, r0, lsl #4
    1c6c:	00000050 	andeq	r0, r0, r0, asr r0
	...
    1c88:	98000000 	stmdals	r0, {}	; <UNPREDICTABLE>
    1c8c:	37c2000f 	strbcc	r0, [r2, pc]
    1c90:	01c20010 	biceq	r0, r2, r0, lsl r0
    1c94:	10375100 	eorsne	r5, r7, r0, lsl #2
    1c98:	103cc200 	eorsne	ip, ip, r0, lsl #4
    1c9c:	0004c200 	andeq	ip, r4, r0, lsl #4
    1ca0:	9f5101f3 	svcls	0x005101f3
    1ca4:	c200103c 	andgt	r1, r0, #60	; 0x3c
    1ca8:	c200105b 	andgt	r1, r0, #91	; 0x5b
    1cac:	5b510001 	blpl	1441cb8 <SYS_MODE+0x1441c99>
    1cb0:	60c20010 	sbcvs	r0, r2, r0, lsl r0
    1cb4:	04c20010 	strbeq	r0, [r2], #16
    1cb8:	5101f300 	mrspl	pc, SP_irq	; <UNPREDICTABLE>
    1cbc:	0010609f 	mulseq	r0, pc, r0	; <UNPREDICTABLE>
    1cc0:	00108fc2 	andseq	r8, r0, r2, asr #31
    1cc4:	510001c2 	smlabtpl	r0, r2, r1, r0
    1cc8:	c200108f 	andgt	r1, r0, #143	; 0x8f
    1ccc:	c2001094 	andgt	r1, r0, #148	; 0x94
    1cd0:	01f30004 	mvnseq	r0, r4
    1cd4:	10949f51 	addsne	r9, r4, r1, asr pc
    1cd8:	10b7c200 	adcsne	ip, r7, r0, lsl #4
    1cdc:	0001c200 	andeq	ip, r1, r0, lsl #4
    1ce0:	0010b751 	andseq	fp, r0, r1, asr r7
    1ce4:	0010bcc2 	andseq	fp, r0, r2, asr #25
    1ce8:	f30004c2 	vshl.u8	q0, q1, q8
    1cec:	bc9f5101 	ldflts	f5, [pc], {1}
    1cf0:	fbc20010 	blx	ff081d3a <_stack_end+0x3d07ad3a>
    1cf4:	01c20012 	biceq	r0, r2, r2, lsl r0
    1cf8:	12fb5100 	rscsne	r5, fp, #0, 2
    1cfc:	1304c200 	movwne	ip, #16896	; 0x4200
    1d00:	0004c200 	andeq	ip, r4, r0, lsl #4
    1d04:	9f5101f3 	svcls	0x005101f3
    1d08:	c2001304 	andgt	r1, r0, #4, 6	; 0x10000000
    1d0c:	c20013b0 	andgt	r1, r0, #176, 6	; 0xc0000002
    1d10:	00510001 	subseq	r0, r1, r1
	...
    1d30:	000f9800 	andeq	r9, pc, r0, lsl #16
    1d34:	001037c2 	andseq	r3, r0, r2, asr #15
    1d38:	520001c2 	andpl	r0, r0, #-2147483600	; 0x80000030
    1d3c:	c2001037 	andgt	r1, r0, #55	; 0x37
    1d40:	c200103c 	andgt	r1, r0, #60	; 0x3c
    1d44:	01f30004 	mvnseq	r0, r4
    1d48:	103c9f52 	eorsne	r9, ip, r2, asr pc
    1d4c:	105bc200 	subsne	ip, fp, r0, lsl #4
    1d50:	0001c200 	andeq	ip, r1, r0, lsl #4
    1d54:	00105b52 	andseq	r5, r0, r2, asr fp
    1d58:	001060c2 	andseq	r6, r0, r2, asr #1
    1d5c:	f30004c2 	vshl.u8	q0, q1, q8
    1d60:	609f5201 	addsvs	r5, pc, r1, lsl #4
    1d64:	8fc20010 	svchi	0x00c20010
    1d68:	01c20010 	biceq	r0, r2, r0, lsl r0
    1d6c:	108f5200 	addne	r5, pc, r0, lsl #4
    1d70:	1094c200 	addsne	ip, r4, r0, lsl #4
    1d74:	0004c200 	andeq	ip, r4, r0, lsl #4
    1d78:	9f5201f3 	svcls	0x005201f3
    1d7c:	c2001094 	andgt	r1, r0, #148	; 0x94
    1d80:	c20010b7 	andgt	r1, r0, #183	; 0xb7
    1d84:	b7520001 	ldrblt	r0, [r2, -r1]
    1d88:	bcc20010 	stcllt	0, cr0, [r2], {16}
    1d8c:	04c20010 	strbeq	r0, [r2], #16
    1d90:	5201f300 	andpl	pc, r1, #0, 6
    1d94:	0010bc9f 	mulseq	r0, pc, ip	; <UNPREDICTABLE>
    1d98:	0012fbc2 	andseq	pc, r2, r2, asr #23
    1d9c:	520001c2 	andpl	r0, r0, #-2147483600	; 0x80000030
    1da0:	c20012fb 	andgt	r1, r0, #-1342177265	; 0xb000000f
    1da4:	c2001304 	andgt	r1, r0, #4, 6	; 0x10000000
    1da8:	01f30004 	mvnseq	r0, r4
    1dac:	13049f52 	movwne	r9, #20306	; 0x4f52
    1db0:	13b0c200 	movsne	ip, #0, 4
    1db4:	0001c200 	andeq	ip, r1, r0, lsl #4
    1db8:	00000052 	andeq	r0, r0, r2, asr r0
	...
    1dd4:	98000000 	stmdals	r0, {}	; <UNPREDICTABLE>
    1dd8:	37c2000f 	strbcc	r0, [r2, pc]
    1ddc:	01c20010 	biceq	r0, r2, r0, lsl r0
    1de0:	10375300 	eorsne	r5, r7, r0, lsl #6
    1de4:	103cc200 	eorsne	ip, ip, r0, lsl #4
    1de8:	0004c200 	andeq	ip, r4, r0, lsl #4
    1dec:	9f5301f3 	svcls	0x005301f3
    1df0:	c200103c 	andgt	r1, r0, #60	; 0x3c
    1df4:	c200105b 	andgt	r1, r0, #91	; 0x5b
    1df8:	5b530001 	blpl	14c1e04 <SYS_MODE+0x14c1de5>
    1dfc:	60c20010 	sbcvs	r0, r2, r0, lsl r0
    1e00:	04c20010 	strbeq	r0, [r2], #16
    1e04:	5301f300 	movwpl	pc, #4864	; 0x1300	; <UNPREDICTABLE>
    1e08:	0010609f 	mulseq	r0, pc, r0	; <UNPREDICTABLE>
    1e0c:	00108fc2 	andseq	r8, r0, r2, asr #31
    1e10:	530001c2 	movwpl	r0, #450	; 0x1c2
    1e14:	c200108f 	andgt	r1, r0, #143	; 0x8f
    1e18:	c2001094 	andgt	r1, r0, #148	; 0x94
    1e1c:	01f30004 	mvnseq	r0, r4
    1e20:	10949f53 	addsne	r9, r4, r3, asr pc
    1e24:	10b7c200 	adcsne	ip, r7, r0, lsl #4
    1e28:	0001c200 	andeq	ip, r1, r0, lsl #4
    1e2c:	0010b753 	andseq	fp, r0, r3, asr r7
    1e30:	0010bcc2 	andseq	fp, r0, r2, asr #25
    1e34:	f30004c2 	vshl.u8	q0, q1, q8
    1e38:	bc9f5301 	ldclt	3, cr5, [pc], {1}
    1e3c:	fbc20010 	blx	ff081e86 <_stack_end+0x3d07ae86>
    1e40:	01c20012 	biceq	r0, r2, r2, lsl r0
    1e44:	12fb5300 	rscsne	r5, fp, #0, 6
    1e48:	1304c200 	movwne	ip, #16896	; 0x4200
    1e4c:	0004c200 	andeq	ip, r4, r0, lsl #4
    1e50:	9f5301f3 	svcls	0x005301f3
    1e54:	c2001304 	andgt	r1, r0, #4, 6	; 0x10000000
    1e58:	c20013b0 	andgt	r1, r0, #176, 6	; 0xc0000002
    1e5c:	00530001 	subseq	r0, r3, r1
	...
    1e7c:	000f9800 	andeq	r9, pc, r0, lsl #16
    1e80:	001037c2 	andseq	r3, r0, r2, asr #15
    1e84:	900008c2 	andls	r0, r0, r2, asr #17
    1e88:	90049340 	andls	r9, r4, r0, asr #6
    1e8c:	37049341 	strcc	r9, [r4, -r1, asr #6]
    1e90:	3cc20010 	stclcc	0, cr0, [r2], {16}
    1e94:	06c20010 			; <UNDEFINED> instruction: 0x06c20010
    1e98:	f503f300 			; <UNDEFINED> instruction: 0xf503f300
    1e9c:	3c9f2940 			; <UNDEFINED> instruction: 0x3c9f2940
    1ea0:	5bc20010 	blpl	ff081ee8 <_stack_end+0x3d07aee8>
    1ea4:	08c20010 	stmiaeq	r2, {r4}^
    1ea8:	93409000 	movtls	r9, #0
    1eac:	93419004 	movtls	r9, #4100	; 0x1004
    1eb0:	00105b04 	andseq	r5, r0, r4, lsl #22
    1eb4:	001060c2 	andseq	r6, r0, r2, asr #1
    1eb8:	f30006c2 	vmax.u8	q0, q8, q1
    1ebc:	2940f503 	stmdbcs	r0, {r0, r1, r8, sl, ip, sp, lr, pc}^
    1ec0:	0010609f 	mulseq	r0, pc, r0	; <UNPREDICTABLE>
    1ec4:	00108fc2 	andseq	r8, r0, r2, asr #31
    1ec8:	900008c2 	andls	r0, r0, r2, asr #17
    1ecc:	90049340 	andls	r9, r4, r0, asr #6
    1ed0:	8f049341 	svchi	0x00049341
    1ed4:	94c20010 	strbls	r0, [r2], #16
    1ed8:	06c20010 			; <UNDEFINED> instruction: 0x06c20010
    1edc:	f503f300 			; <UNDEFINED> instruction: 0xf503f300
    1ee0:	949f2940 	ldrls	r2, [pc], #2368	; 1ee8 <SYS_MODE+0x1ec9>
    1ee4:	b7c20010 	bfilt	r0, r0, #0, #3
    1ee8:	08c20010 	stmiaeq	r2, {r4}^
    1eec:	93409000 	movtls	r9, #0
    1ef0:	93419004 	movtls	r9, #4100	; 0x1004
    1ef4:	0010b704 	andseq	fp, r0, r4, lsl #14
    1ef8:	0010bcc2 	andseq	fp, r0, r2, asr #25
    1efc:	f30006c2 	vmax.u8	q0, q8, q1
    1f00:	2940f503 	stmdbcs	r0, {r0, r1, r8, sl, ip, sp, lr, pc}^
    1f04:	0010bc9f 	mulseq	r0, pc, ip	; <UNPREDICTABLE>
    1f08:	001174c2 	andseq	r7, r1, r2, asr #9
    1f0c:	900008c2 	andls	r0, r0, r2, asr #17
    1f10:	90049340 	andls	r9, r4, r0, asr #6
    1f14:	94049341 	strls	r9, [r4], #-833	; 0xfffffcbf
    1f18:	5cc20011 	stclpl	0, cr0, [r2], {17}
    1f1c:	08c20012 	stmiaeq	r2, {r1, r4}^
    1f20:	93409000 	movtls	r9, #0
    1f24:	93419004 	movtls	r9, #4100	; 0x1004
    1f28:	0012a804 	andseq	sl, r2, r4, lsl #16
    1f2c:	0012b0c2 	andseq	fp, r2, r2, asr #1
    1f30:	900008c2 	andls	r0, r0, r2, asr #17
    1f34:	90049340 	andls	r9, r4, r0, asr #6
    1f38:	00049341 	andeq	r9, r4, r1, asr #6
	...
    1f4c:	000f9800 	andeq	r9, pc, r0, lsl #16
    1f50:	001010c2 	andseq	r1, r0, r2, asr #1
    1f54:	910002c2 	smlabtls	r0, r2, r2, r0
    1f58:	00101800 	andseq	r1, r0, r0, lsl #16
    1f5c:	0010ccc2 	andseq	ip, r0, r2, asr #25
    1f60:	910002c2 	smlabtls	r0, r2, r2, r0
    1f64:	0010cc00 	andseq	ip, r0, r0, lsl #24
    1f68:	001194c2 	andseq	r9, r1, r2, asr #9
    1f6c:	5e0001c2 	adfpldm	f0, f0, f2
    1f70:	c2001194 	andgt	r1, r0, #148, 2	; 0x25
    1f74:	c200119c 	andgt	r1, r0, #156, 2	; 0x27
    1f78:	00910002 	addseq	r0, r1, r2
    1f7c:	c200119c 	andgt	r1, r0, #156, 2	; 0x27
    1f80:	c20011c4 	andgt	r1, r0, #196, 2	; 0x31
    1f84:	005e0001 	subseq	r0, lr, r1
	...
    1f94:	98000000 	stmdals	r0, {}	; <UNPREDICTABLE>
    1f98:	c0c2000f 	sbcgt	r0, r2, pc
    1f9c:	02c20012 	sbceq	r0, r2, #18
    1fa0:	c0049100 	andgt	r9, r4, r0, lsl #2
    1fa4:	fcc20012 	stc2l	0, cr0, [r2], {18}
    1fa8:	01c20012 	biceq	r0, r2, r2, lsl r0
    1fac:	13045600 	movwne	r5, #17920	; 0x4600
    1fb0:	1320c200 	nopne	{0}	; <UNPREDICTABLE>
    1fb4:	0002c200 	andeq	ip, r2, r0, lsl #4
    1fb8:	13200491 			; <UNDEFINED> instruction: 0x13200491
    1fbc:	13b0c200 	movsne	ip, #0, 4
    1fc0:	0001c200 	andeq	ip, r1, r0, lsl #4
    1fc4:	00000056 	andeq	r0, r0, r6, asr r0
    1fc8:	00000000 	andeq	r0, r0, r0
    1fcc:	00000200 	andeq	r0, r0, r0, lsl #4
    1fd0:	00000101 	andeq	r0, r0, r1, lsl #2
	...
    1fdc:	00000101 	andeq	r0, r0, r1, lsl #2
    1fe0:	00000101 	andeq	r0, r0, r1, lsl #2
    1fe4:	00000000 	andeq	r0, r0, r0
    1fe8:	00000101 	andeq	r0, r0, r1, lsl #2
    1fec:	01010000 	mrseq	r0, (UNDEF: 1)
    1ff0:	01010000 	mrseq	r0, (UNDEF: 1)
    1ff4:	01010000 	mrseq	r0, (UNDEF: 1)
    1ff8:	ac000000 	stcge	0, cr0, [r0], {-0}
    1ffc:	ccc2000f 	stclgt	0, cr0, [r2], {15}
    2000:	02c20010 	sbceq	r0, r2, #16
    2004:	cc9f3000 	ldcgt	0, cr3, [pc], {0}
    2008:	ccc20010 	stclgt	0, cr0, [r2], {16}
    200c:	01c20010 	biceq	r0, r2, r0, lsl r0
    2010:	10cc5c00 	sbcne	r5, ip, r0, lsl #24
    2014:	10e4c200 	rscne	ip, r4, r0, lsl #4
    2018:	0003c200 	andeq	ip, r3, r0, lsl #4
    201c:	e49f017c 	ldr	r0, [pc], #380	; 2024 <SYS_MODE+0x2005>
    2020:	94c20010 	strbls	r0, [r2], #16
    2024:	01c20011 	biceq	r0, r2, r1, lsl r0
    2028:	11945c00 	orrsne	r5, r4, r0, lsl #24
    202c:	119cc200 	orrsne	ip, ip, r0, lsl #4
    2030:	0002c200 	andeq	ip, r2, r0, lsl #4
    2034:	119c9f30 	orrsne	r9, ip, r0, lsr pc
    2038:	11ecc200 	mvnne	ip, r0, lsl #4
    203c:	0001c200 	andeq	ip, r1, r0, lsl #4
    2040:	0011ec5c 	andseq	lr, r1, ip, asr ip
    2044:	001214c2 	andseq	r1, r2, r2, asr #9
    2048:	5a0001c2 	bpl	2758 <SYS_MODE+0x2739>
    204c:	c2001214 	andgt	r1, r0, #20, 4	; 0x40000001
    2050:	c2001214 	andgt	r1, r0, #20, 4	; 0x40000001
    2054:	145c0001 	ldrbne	r0, [ip], #-1
    2058:	2cc20012 	stclcs	0, cr0, [r2], {18}
    205c:	03c20012 	biceq	r0, r2, #18
    2060:	9f017c00 	svcls	0x00017c00
    2064:	c200122c 	andgt	r1, r0, #44, 4	; 0xc0000002
    2068:	c2001248 	andgt	r1, r0, #72, 4	; 0x80000004
    206c:	485c0001 	ldmdami	ip, {r0}^
    2070:	5cc20012 	stclpl	0, cr0, [r2], {18}
    2074:	03c20012 	biceq	r0, r2, #18
    2078:	9f017c00 	svcls	0x00017c00
    207c:	c200125c 	andgt	r1, r0, #92, 4	; 0xc0000005
    2080:	c2001288 	andgt	r1, r0, #136, 4	; 0x80000008
    2084:	885c0001 	ldmdahi	ip, {r0}^
    2088:	b4c20012 	strblt	r0, [r2], #18
    208c:	01c20012 	biceq	r0, r2, r2, lsl r0
    2090:	12b45a00 	adcsne	r5, r4, #0, 20
    2094:	12d0c200 	sbcsne	ip, r0, #0, 4
    2098:	0001c200 	andeq	ip, r1, r0, lsl #4
    209c:	0012d05c 	andseq	sp, r2, ip, asr r0
    20a0:	0012e4c2 	andseq	lr, r2, r2, asr #9
    20a4:	7c0003c2 	stcvc	3, cr0, [r0], {194}	; 0xc2
    20a8:	12e49f01 	rscne	r9, r4, #1, 30
    20ac:	12fbc200 	rscsne	ip, fp, #0, 4
    20b0:	0001c200 	andeq	ip, r1, r0, lsl #4
    20b4:	0013045c 	andseq	r0, r3, ip, asr r4
    20b8:	001324c2 	andseq	r2, r3, r2, asr #9
    20bc:	5c0001c2 	stfpls	f0, [r0], {194}	; 0xc2
    20c0:	c2001324 	andgt	r1, r0, #36, 6	; 0x90000000
    20c4:	c2001338 	andgt	r1, r0, #56, 6	; 0xe0000000
    20c8:	017c0003 	cmneq	ip, r3
    20cc:	0013389f 	mulseq	r3, pc, r8	; <UNPREDICTABLE>
    20d0:	001350c2 	andseq	r5, r3, r2, asr #1
    20d4:	5c0001c2 	stfpls	f0, [r0], {194}	; 0xc2
    20d8:	c2001350 	andgt	r1, r0, #80, 6	; 0x40000001
    20dc:	c2001364 	andgt	r1, r0, #100, 6	; 0x90000001
    20e0:	017c0003 	cmneq	ip, r3
    20e4:	0013649f 	mulseq	r3, pc, r4	; <UNPREDICTABLE>
    20e8:	001370c2 	andseq	r7, r3, r2, asr #1
    20ec:	5c0001c2 	stfpls	f0, [r0], {194}	; 0xc2
    20f0:	c2001370 	andgt	r1, r0, #112, 6	; 0xc0000001
    20f4:	c2001384 	andgt	r1, r0, #132, 6	; 0x10000002
    20f8:	017c0003 	cmneq	ip, r3
    20fc:	0013849f 	mulseq	r3, pc, r4	; <UNPREDICTABLE>
    2100:	0013b0c2 	andseq	fp, r3, r2, asr #1
    2104:	5c0001c2 	stfpls	f0, [r0], {194}	; 0xc2
	...
    2110:	00000003 	andeq	r0, r0, r3
	...
    2120:	c2000fac 	andgt	r0, r0, #172, 30	; 0x2b0
    2124:	c2001134 	andgt	r1, r0, #52, 2
    2128:	089e000a 	ldmeq	lr, {r1, r3}
	...
    2134:	c2001134 	andgt	r1, r0, #52, 2
    2138:	c2001150 	andgt	r1, r0, #80, 2
    213c:	4e900008 	cdpmi	0, 9, cr0, cr0, cr8, {0}
    2140:	4f900493 	svcmi	0x00900493
    2144:	11500493 			; <UNDEFINED> instruction: 0x11500493
    2148:	115cc200 	cmpne	ip, r0, lsl #4
    214c:	0017c200 	andseq	ip, r7, r0, lsl #4
    2150:	782940f5 	stmdavc	r9!, {r0, r2, r4, r5, r6, r7, lr}
    2154:	f730f700 			; <UNDEFINED> instruction: 0xf730f700
    2158:	4cf51c29 	ldclmi	12, cr1, [r5], #164	; 0xa4
    215c:	4b921e29 	blmi	fe489a08 <_stack_end+0x3c482a08>
    2160:	f737f700 			; <UNDEFINED> instruction: 0xf737f700
    2164:	5c9f1c29 	ldcpl	12, cr1, [pc], {41}	; 0x29
    2168:	60c20011 	sbcvs	r0, r2, r1, lsl r0
    216c:	17c20011 	bfine	r0, r1, #0, #3
    2170:	2940f500 	stmdbcs	r0, {r8, sl, ip, sp, lr, pc}^
    2174:	30f77f78 	rscscc	r7, r7, r8, ror pc
    2178:	f51c29f7 			; <UNDEFINED> instruction: 0xf51c29f7
    217c:	921e294c 	andsls	r2, lr, #76, 18	; 0x130000
    2180:	37f7004b 	ldrbcc	r0, [r7, fp, asr #32]!
    2184:	9f1c29f7 	svcls	0x001c29f7
    2188:	c2001160 	andgt	r1, r0, #96, 2
    218c:	c2001174 	andgt	r1, r0, #116, 2
    2190:	40f5001e 	rscsmi	r0, r5, lr, lsl r0
    2194:	2940f529 	stmdbcs	r0, {r0, r3, r5, r8, sl, ip, sp, lr, pc}^
    2198:	00f730f7 	ldrshteq	r3, [r7], #7
    219c:	29f730f7 	ldmibcs	r7!, {r0, r1, r2, r4, r5, r6, r7, ip, sp}^
    21a0:	f600741c 			; <UNDEFINED> instruction: 0xf600741c
    21a4:	921e2908 	andsls	r2, lr, #8, 18	; 0x20000
    21a8:	37f7004b 	ldrbcc	r0, [r7, fp, asr #32]!
    21ac:	9f1c29f7 	svcls	0x001c29f7
    21b0:	c2001174 	andgt	r1, r0, #116, 2
    21b4:	c2001194 	andgt	r1, r0, #148, 2	; 0x25
    21b8:	40900008 	addsmi	r0, r0, r8
    21bc:	41900493 			; <UNDEFINED> instruction: 0x41900493
    21c0:	11940493 			; <UNDEFINED> instruction: 0x11940493
    21c4:	119cc200 	orrsne	ip, ip, r0, lsl #4
    21c8:	000ac200 	andeq	ip, sl, r0, lsl #4
    21cc:	0000089e 	muleq	r0, lr, r8
    21d0:	00000000 	andeq	r0, r0, r0
    21d4:	119c0000 	orrsne	r0, ip, r0
    21d8:	11c4c200 	bicne	ip, r4, r0, lsl #4
    21dc:	0008c200 	andeq	ip, r8, r0, lsl #4
    21e0:	04934e90 	ldreq	r4, [r3], #3728	; 0xe90
    21e4:	04934f90 	ldreq	r4, [r3], #3984	; 0xf90
	...
    21f0:	00000001 	andeq	r0, r0, r1
    21f4:	00010100 	andeq	r0, r1, r0, lsl #2
    21f8:	00000000 	andeq	r0, r0, r0
    21fc:	c2000ff8 	andgt	r0, r0, #248, 30	; 0x3e0
    2200:	c2001008 	andgt	r1, r0, #8
    2204:	9f300002 	svcls	0x00300002
    2208:	c2001008 	andgt	r1, r0, #8
    220c:	c2001018 	andgt	r1, r0, #24
    2210:	bc570001 	mrrclt	0, 0, r0, r7, cr1
    2214:	bcc20010 	stcllt	0, cr0, [r2], {16}
    2218:	02c20010 	sbceq	r0, r2, #16
    221c:	bc9f3000 	ldclt	0, cr3, [pc], {0}
    2220:	ccc20010 	stclgt	0, cr0, [r2], {16}
    2224:	02c20010 	sbceq	r0, r2, #16
    2228:	cc9f3100 	ldfgts	f3, [pc], {0}
    222c:	fcc20010 	stc2l	0, cr0, [r2], {16}
    2230:	01c20012 	biceq	r0, r2, r2, lsl r0
    2234:	13045700 	movwne	r5, #18176	; 0x4700
    2238:	13b0c200 	movsne	ip, #0, 4
    223c:	0001c200 	andeq	ip, r1, r0, lsl #4
    2240:	00000057 	andeq	r0, r0, r7, asr r0
	...
    224c:	00000101 	andeq	r0, r0, r1, lsl #2
    2250:	00110800 	andseq	r0, r1, r0, lsl #16
    2254:	001194c2 	andseq	r9, r1, r2, asr #9
    2258:	580001c2 	stmdapl	r0, {r1, r6, r7, r8}
    225c:	c200119c 	andgt	r1, r0, #156, 2	; 0x27
    2260:	c2001298 	andgt	r1, r0, #152, 4	; 0x80000009
    2264:	98580001 	ldmdals	r8, {r0}^
    2268:	9cc20012 	stclls	0, cr0, [r2], {18}
    226c:	06c20012 			; <UNDEFINED> instruction: 0x06c20012
    2270:	79007e00 	stmdbvc	r0, {r9, sl, fp, ip, sp, lr}
    2274:	9c9f1c00 	ldcls	12, cr1, [pc], {0}
    2278:	b4c20012 	strblt	r0, [r2], #18
    227c:	01c20012 	biceq	r0, r2, r2, lsl r0
    2280:	00005800 	andeq	r5, r0, r0, lsl #16
	...
    2294:	11240000 			; <UNDEFINED> instruction: 0x11240000
    2298:	1134c200 	teqne	r4, r0, lsl #4
    229c:	0008c200 	andeq	ip, r8, r0, lsl #4
    22a0:	04934e90 	ldreq	r4, [r3], #3728	; 0xe90
    22a4:	04934f90 	ldreq	r4, [r3], #3984	; 0xf90
    22a8:	c2001134 	andgt	r1, r0, #52, 2
    22ac:	c200115c 	andgt	r1, r0, #92, 2
    22b0:	40f5000f 	rscsmi	r0, r5, pc
    22b4:	f7007829 			; <UNDEFINED> instruction: 0xf7007829
    22b8:	1c29f730 	stcne	7, cr15, [r9], #-192	; 0xffffff40
    22bc:	1e294cf5 	mcrne	12, 1, r4, cr9, cr5, {7}
    22c0:	00115c9f 	mulseq	r1, pc, ip	; <UNPREDICTABLE>
    22c4:	001160c2 	andseq	r6, r1, r2, asr #1
    22c8:	f5000fc2 			; <UNDEFINED> instruction: 0xf5000fc2
    22cc:	7f782940 	svcvc	0x00782940
    22d0:	29f730f7 	ldmibcs	r7!, {r0, r1, r2, r4, r5, r6, r7, ip, sp}^
    22d4:	294cf51c 	stmdbcs	ip, {r2, r3, r4, r8, sl, ip, sp, lr, pc}^
    22d8:	11609f1e 	cmnne	r0, lr, lsl pc
    22dc:	1174c200 	cmnne	r4, r0, lsl #4
    22e0:	0016c200 	andseq	ip, r6, r0, lsl #4
    22e4:	f52940f5 			; <UNDEFINED> instruction: 0xf52940f5
    22e8:	30f72940 	rscscc	r2, r7, r0, asr #18
    22ec:	30f700f7 	ldrshtcc	r0, [r7], #7
    22f0:	741c29f7 	ldrvc	r2, [ip], #-2551	; 0xfffff609
    22f4:	2908f600 	stmdbcs	r8, {r9, sl, ip, sp, lr, pc}
    22f8:	119c9f1e 	orrsne	r9, ip, lr, lsl pc
    22fc:	11a0c200 	lslne	ip, r0, #4
    2300:	000fc200 	andeq	ip, pc, r0, lsl #4
    2304:	782940f5 	stmdavc	r9!, {r0, r2, r4, r5, r6, r7, lr}
    2308:	f730f700 			; <UNDEFINED> instruction: 0xf730f700
    230c:	4cf51c29 	ldclmi	12, cr1, [r5], #164	; 0xa4
    2310:	a09f1e29 	addsge	r1, pc, r9, lsr #28
    2314:	c4c20011 	strbgt	r0, [r2], #17
    2318:	11c20011 	bicne	r0, r2, r1, lsl r0
    231c:	2940f500 	stmdbcs	r0, {r8, sl, ip, sp, lr, pc}^
    2320:	30f70078 	rscscc	r0, r7, r8, ror r0
    2324:	741c29f7 	ldrvc	r2, [ip], #-2551	; 0xfffff609
    2328:	2908f600 	stmdbcs	r8, {r9, sl, ip, sp, lr, pc}
    232c:	00009f1e 	andeq	r9, r0, lr, lsl pc
    2330:	00000000 	andeq	r0, r0, r0
    2334:	01000000 	mrseq	r0, (UNDEF: 0)
    2338:	00000001 	andeq	r0, r0, r1
	...
    2344:	112c0000 			; <UNDEFINED> instruction: 0x112c0000
    2348:	1158c200 	cmpne	r8, r0, lsl #4
    234c:	0001c200 	andeq	ip, r1, r0, lsl #4
    2350:	00115859 	andseq	r5, r1, r9, asr r8
    2354:	001160c2 	andseq	r6, r1, r2, asr #1
    2358:	300002c2 	andcc	r0, r0, r2, asr #5
    235c:	0011609f 	mulseq	r1, pc, r0	; <UNPREDICTABLE>
    2360:	001194c2 	andseq	r9, r1, r2, asr #9
    2364:	590001c2 	stmdbpl	r0, {r1, r6, r7, r8}
    2368:	c200119c 	andgt	r1, r0, #156, 2	; 0x27
    236c:	c2001200 	andgt	r1, r0, #0, 4
    2370:	00590001 	subseq	r0, r9, r1
    2374:	10c20012 	sbcne	r0, r2, r2, lsl r0
    2378:	01c20012 	biceq	r0, r2, r2, lsl r0
    237c:	12105c00 	andsne	r5, r0, #0, 24
    2380:	1214c200 	andsne	ip, r4, #0, 4
    2384:	0001c200 	andeq	ip, r1, r0, lsl #4
    2388:	0012a859 	andseq	sl, r2, r9, asr r8
    238c:	0012acc2 	andseq	sl, r2, r2, asr #25
    2390:	5c0001c2 	stfpls	f0, [r0], {194}	; 0xc2
    2394:	c20012ac 	andgt	r1, r0, #172, 4	; 0xc000000a
    2398:	c20012b0 	andgt	r1, r0, #176, 4
    239c:	00740005 	rsbseq	r0, r4, r5
    23a0:	009f2533 	addseq	r2, pc, r3, lsr r5	; <UNPREDICTABLE>
	...
    23b4:	0011c400 	andseq	ip, r1, r0, lsl #8
    23b8:	001214c2 	andseq	r1, r2, r2, asr #9
    23bc:	5e0001c2 	adfpldm	f0, f0, f2
    23c0:	c2001214 	andgt	r1, r0, #20, 4	; 0x40000001
    23c4:	c200122c 	andgt	r1, r0, #44, 4	; 0xc0000002
    23c8:	2c540001 	mrrccs	0, 0, r0, r4, cr1
    23cc:	38c20012 	stmiacc	r2, {r1, r4}^
    23d0:	01c20012 	biceq	r0, r2, r2, lsl r0
    23d4:	12385e00 	eorsne	r5, r8, #0, 28
    23d8:	1240c200 	subne	ip, r0, #0, 4
    23dc:	0001c200 	andeq	ip, r1, r0, lsl #4
    23e0:	0012a854 	andseq	sl, r2, r4, asr r8
    23e4:	0012b0c2 	andseq	fp, r2, r2, asr #1
    23e8:	5e0001c2 	adfpldm	f0, f0, f2
	...
    23f4:	c2000adc 	andgt	r0, r0, #220, 20	; 0xdc000
    23f8:	c2000ae0 	andgt	r0, r0, #224, 20	; 0xe0000
    23fc:	007d0002 	rsbseq	r0, sp, r2
    2400:	c2000ae0 	andgt	r0, r0, #224, 20	; 0xe0000
    2404:	c2000ae4 	andgt	r0, r0, #228, 20	; 0xe4000
    2408:	247d0002 	ldrbtcs	r0, [sp], #-2
    240c:	c2000ae4 	andgt	r0, r0, #228, 20	; 0xe4000
    2410:	c2000c14 	andgt	r0, r0, #20, 24	; 0x1400
    2414:	f87d0003 			; <UNDEFINED> instruction: 0xf87d0003
    2418:	000c1400 	andeq	r1, ip, r0, lsl #8
    241c:	000c18c2 	andeq	r1, ip, r2, asr #17
    2420:	7d0002c2 	sfmvc	f0, 4, [r0, #-776]	; 0xfffffcf8
    2424:	00000024 	andeq	r0, r0, r4, lsr #32
	...
    2434:	000adc00 	andeq	sp, sl, r0, lsl #24
    2438:	000b28c2 	andeq	r2, fp, r2, asr #17
    243c:	500001c2 	andpl	r0, r0, r2, asr #3
    2440:	c2000b28 	andgt	r0, r0, #40, 22	; 0xa000
    2444:	c2000bcc 	andgt	r0, r0, #204, 22	; 0x33000
    2448:	a4910003 	ldrge	r0, [r1], #3
    244c:	000bcc7f 	andeq	ip, fp, pc, ror ip
    2450:	000bd0c2 	andeq	sp, fp, r2, asr #1
    2454:	500001c2 	andpl	r0, r0, r2, asr #3
    2458:	c2000bd0 	andgt	r0, r0, #208, 22	; 0x34000
    245c:	c2000c18 	andgt	r0, r0, #24, 24	; 0x1800
    2460:	a4910003 	ldrge	r0, [r1], #3
    2464:	0000007f 	andeq	r0, r0, pc, ror r0
	...
    2474:	000adc00 	andeq	sp, sl, r0, lsl #24
    2478:	000b28c2 	andeq	r2, fp, r2, asr #17
    247c:	510001c2 	smlabtpl	r0, r2, r1, r0
    2480:	c2000b28 	andgt	r0, r0, #40, 22	; 0xa000
    2484:	c2000bcc 	andgt	r0, r0, #204, 22	; 0x33000
    2488:	a8910003 	ldmge	r1, {r0, r1}
    248c:	000bcc7f 	andeq	ip, fp, pc, ror ip
    2490:	000bd0c2 	andeq	sp, fp, r2, asr #1
    2494:	510001c2 	smlabtpl	r0, r2, r1, r0
    2498:	c2000bd0 	andgt	r0, r0, #208, 22	; 0x34000
    249c:	c2000c18 	andgt	r0, r0, #24, 24	; 0x1800
    24a0:	a8910003 	ldmge	r1, {r0, r1}
    24a4:	0000007f 	andeq	r0, r0, pc, ror r0
	...
    24b4:	000adc00 	andeq	sp, sl, r0, lsl #24
    24b8:	000b28c2 	andeq	r2, fp, r2, asr #17
    24bc:	520001c2 	andpl	r0, r0, #-2147483600	; 0x80000030
    24c0:	c2000b28 	andgt	r0, r0, #40, 22	; 0xa000
    24c4:	c2000bcc 	andgt	r0, r0, #204, 22	; 0x33000
    24c8:	ac910003 	ldcge	0, cr0, [r1], {3}
    24cc:	000bcc7f 	andeq	ip, fp, pc, ror ip
    24d0:	000bd0c2 	andeq	sp, fp, r2, asr #1
    24d4:	520001c2 	andpl	r0, r0, #-2147483600	; 0x80000030
    24d8:	c2000bd0 	andgt	r0, r0, #208, 22	; 0x34000
    24dc:	c2000c18 	andgt	r0, r0, #24, 24	; 0x1800
    24e0:	ac910003 	ldcge	0, cr0, [r1], {3}
    24e4:	0000007f 	andeq	r0, r0, pc, ror r0
	...
    24f0:	000adc00 	andeq	sp, sl, r0, lsl #24
    24f4:	000b0cc2 	andeq	r0, fp, r2, asr #25
    24f8:	530001c2 	movwpl	r0, #450	; 0x1c2
    24fc:	c2000b0c 	andgt	r0, r0, #12, 22	; 0x3000
    2500:	c2000c18 	andgt	r0, r0, #24, 24	; 0x1800
    2504:	005b0001 	subseq	r0, fp, r1
	...
    2518:	000adc00 	andeq	sp, sl, r0, lsl #24
    251c:	000b28c2 	andeq	r2, fp, r2, asr #17
    2520:	910002c2 	smlabtls	r0, r2, r2, r0
    2524:	000b2800 	andeq	r2, fp, r0, lsl #16
    2528:	000b54c2 	andeq	r5, fp, r2, asr #9
    252c:	550006c2 	strpl	r0, [r0, #-1730]	; 0xfffff93e
    2530:	93560493 	cmpls	r6, #-1828716544	; 0x93000000
    2534:	000b5404 	andeq	r5, fp, r4, lsl #8
    2538:	000b84c2 	andeq	r8, fp, r2, asr #9
    253c:	500006c2 	andpl	r0, r0, r2, asr #13
    2540:	93510493 	cmpls	r1, #-1828716544	; 0x93000000
    2544:	000b8404 	andeq	r8, fp, r4, lsl #8
    2548:	000bccc2 	andeq	ip, fp, r2, asr #25
    254c:	550006c2 	strpl	r0, [r0, #-1730]	; 0xfffff93e
    2550:	93560493 	cmpls	r6, #-1828716544	; 0x93000000
    2554:	000bcc04 	andeq	ip, fp, r4, lsl #24
    2558:	000bd0c2 	andeq	sp, fp, r2, asr #1
    255c:	910002c2 	smlabtls	r0, r2, r2, r0
	...
    256c:	000adc00 	andeq	sp, sl, r0, lsl #24
    2570:	000b10c2 	andeq	r1, fp, r2, asr #1
    2574:	910002c2 	smlabtls	r0, r2, r2, r0
    2578:	000b1020 	andeq	r1, fp, r0, lsr #32
    257c:	000c18c2 	andeq	r1, ip, r2, asr #17
    2580:	5a0001c2 	bpl	2c90 <SYS_MODE+0x2c71>
	...
    258c:	00000002 	andeq	r0, r0, r2
	...
    2598:	c2000b08 	andgt	r0, r0, #8, 22	; 0x2000
    259c:	c2000b28 	andgt	r0, r0, #40, 22	; 0xa000
    25a0:	9f300002 	svcls	0x00300002
    25a4:	c2000b28 	andgt	r0, r0, #40, 22	; 0xa000
    25a8:	c2000b34 	andgt	r0, r0, #52, 22	; 0xd000
    25ac:	34540001 	ldrbcc	r0, [r4], #-1
    25b0:	84c2000b 	strbhi	r0, [r2], #11
    25b4:	01c2000b 	biceq	r0, r2, fp
    25b8:	0b845900 	bleq	fe1189c0 <_stack_end+0x3c1119c0>
    25bc:	0bccc200 	bleq	ff332dc4 <_stack_end+0x3d32bdc4>
    25c0:	0001c200 	andeq	ip, r1, r0, lsl #4
    25c4:	000bcc54 	andeq	ip, fp, r4, asr ip
    25c8:	000bd0c2 	andeq	sp, fp, r2, asr #1
    25cc:	300002c2 	andcc	r0, r0, r2, asr #5
    25d0:	000bd09f 	muleq	fp, pc, r0	; <UNPREDICTABLE>
    25d4:	000c18c2 	andeq	r1, ip, r2, asr #17
    25d8:	590001c2 	stmdbpl	r0, {r1, r6, r7, r8}
	...
    25e8:	c2000b28 	andgt	r0, r0, #40, 22	; 0xa000
    25ec:	c2000b38 	andgt	r0, r0, #56, 22	; 0xe000
    25f0:	9c530001 	mrrcls	0, 0, r0, r3, cr1
    25f4:	ccc2000b 	stclgt	0, cr0, [r2], {11}
    25f8:	01c2000b 	biceq	r0, r2, fp
    25fc:	00005300 	andeq	r5, r0, r0, lsl #6
    2600:	00000000 	andeq	r0, r0, r0
    2604:	09c40000 	stmibeq	r4, {}^	; <UNPREDICTABLE>
    2608:	09c8c200 	stmibeq	r8, {r9, lr, pc}^
    260c:	0002c200 	andeq	ip, r2, r0, lsl #4
    2610:	09c8007d 	stmibeq	r8, {r0, r2, r3, r4, r5, r6}^
    2614:	09ccc200 	stmibeq	ip, {r9, lr, pc}^
    2618:	0002c200 	andeq	ip, r2, r0, lsl #4
    261c:	09cc247d 	stmibeq	ip, {r0, r2, r3, r4, r5, r6, sl, sp}^
    2620:	0ad8c200 	beq	ff632e28 <_stack_end+0x3d62be28>
    2624:	0003c200 	andeq	ip, r3, r0, lsl #4
    2628:	d800f07d 	stmdale	r0, {r0, r2, r3, r4, r5, r6, ip, sp, lr, pc}
    262c:	dcc2000a 	stclle	0, cr0, [r2], {10}
    2630:	02c2000a 	sbceq	r0, r2, #10
    2634:	00247d00 	eoreq	r7, r4, r0, lsl #26
	...
    2644:	c4000000 	strgt	r0, [r0], #-0
    2648:	08c20009 	stmiaeq	r2, {r0, r3}^
    264c:	01c2000a 	biceq	r0, r2, sl
    2650:	0a085000 	beq	216658 <SYS_MODE+0x216639>
    2654:	0a90c200 	beq	fe432e5c <_stack_end+0x3c42be5c>
    2658:	0001c200 	andeq	ip, r1, r0, lsl #4
    265c:	000a9059 	andeq	r9, sl, r9, asr r0
    2660:	000a94c2 	andeq	r9, sl, r2, asr #9
    2664:	500001c2 	andpl	r0, r0, r2, asr #3
    2668:	c2000a94 	andgt	r0, r0, #148, 20	; 0x94000
    266c:	c2000adc 	andgt	r0, r0, #220, 20	; 0xdc000
    2670:	00590001 	subseq	r0, r9, r1
	...
    2680:	c4000000 	strgt	r0, [r0], #-0
    2684:	08c20009 	stmiaeq	r2, {r0, r3}^
    2688:	01c2000a 	biceq	r0, r2, sl
    268c:	0a085100 	beq	216a94 <SYS_MODE+0x216a75>
    2690:	0a90c200 	beq	fe432e98 <_stack_end+0x3c42be98>
    2694:	0001c200 	andeq	ip, r1, r0, lsl #4
    2698:	000a905a 	andeq	r9, sl, sl, asr r0
    269c:	000a94c2 	andeq	r9, sl, r2, asr #9
    26a0:	510001c2 	smlabtpl	r0, r2, r1, r0
    26a4:	c2000a94 	andgt	r0, r0, #148, 20	; 0x94000
    26a8:	c2000adc 	andgt	r0, r0, #220, 20	; 0xdc000
    26ac:	005a0001 	subseq	r0, sl, r1
	...
    26bc:	c4000000 	strgt	r0, [r0], #-0
    26c0:	08c20009 	stmiaeq	r2, {r0, r3}^
    26c4:	01c2000a 	biceq	r0, r2, sl
    26c8:	0a085200 	beq	216ed0 <SYS_MODE+0x216eb1>
    26cc:	0a90c200 	beq	fe432ed4 <_stack_end+0x3c42bed4>
    26d0:	0003c200 	andeq	ip, r3, r0, lsl #4
    26d4:	907fac91 			; <UNDEFINED> instruction: 0x907fac91
    26d8:	94c2000a 	strbls	r0, [r2], #10
    26dc:	01c2000a 	biceq	r0, r2, sl
    26e0:	0a945200 	beq	fe516ee8 <_stack_end+0x3c50fee8>
    26e4:	0adcc200 	beq	ff732eec <_stack_end+0x3d72beec>
    26e8:	0003c200 	andeq	ip, r3, r0, lsl #4
    26ec:	007fac91 			; <UNDEFINED> instruction: 0x007fac91
	...
    26fc:	c4000000 	strgt	r0, [r0], #-0
    2700:	08c20009 	stmiaeq	r2, {r0, r3}^
    2704:	01c2000a 	biceq	r0, r2, sl
    2708:	0a085300 	beq	217310 <SYS_MODE+0x2172f1>
    270c:	0a90c200 	beq	fe432f14 <_stack_end+0x3c42bf14>
    2710:	0001c200 	andeq	ip, r1, r0, lsl #4
    2714:	000a905b 	andeq	r9, sl, fp, asr r0
    2718:	000a94c2 	andeq	r9, sl, r2, asr #9
    271c:	530001c2 	movwpl	r0, #450	; 0x1c2
    2720:	c2000a94 	andgt	r0, r0, #148, 20	; 0x94000
    2724:	c2000adc 	andgt	r0, r0, #220, 20	; 0xdc000
    2728:	005b0001 	subseq	r0, fp, r1
	...
    273c:	0009c400 	andeq	ip, r9, r0, lsl #8
    2740:	000a08c2 	andeq	r0, sl, r2, asr #17
    2744:	910002c2 	smlabtls	r0, r2, r2, r0
    2748:	000a0800 	andeq	r0, sl, r0, lsl #16
    274c:	000a2cc2 	andeq	r2, sl, r2, asr #25
    2750:	540001c2 	strpl	r0, [r0], #-450	; 0xfffffe3e
    2754:	c2000a2c 	andgt	r0, r0, #44, 20	; 0x2c000
    2758:	c2000a50 	andgt	r0, r0, #80, 20	; 0x50000
    275c:	50500001 	subspl	r0, r0, r1
    2760:	90c2000a 	sbcls	r0, r2, sl
    2764:	01c2000a 	biceq	r0, r2, sl
    2768:	0a905400 	beq	fe417770 <_stack_end+0x3c410770>
    276c:	0a94c200 	beq	fe532f74 <_stack_end+0x3c52bf74>
    2770:	0002c200 	andeq	ip, r2, r0, lsl #4
    2774:	00000091 	muleq	r0, r1, r0
	...
    2780:	09c40000 	stmibeq	r4, {}^	; <UNPREDICTABLE>
    2784:	09f0c200 	ldmibeq	r0!, {r9, lr, pc}^
    2788:	0002c200 	andeq	ip, r2, r0, lsl #4
    278c:	09f01491 	ldmibeq	r0!, {r0, r4, r7, sl, ip}^
    2790:	0adcc200 	beq	ff732f98 <_stack_end+0x3d72bf98>
    2794:	0001c200 	andeq	ip, r1, r0, lsl #4
    2798:	00000058 	andeq	r0, r0, r8, asr r0
    279c:	00000000 	andeq	r0, r0, r0
    27a0:	00000200 	andeq	r0, r0, r0, lsl #4
	...
    27ac:	0009e800 	andeq	lr, r9, r0, lsl #16
    27b0:	000a08c2 	andeq	r0, sl, r2, asr #17
    27b4:	300002c2 	andcc	r0, r0, r2, asr #5
    27b8:	000a089f 	muleq	sl, pc, r8	; <UNPREDICTABLE>
    27bc:	000a14c2 	andeq	r1, sl, r2, asr #9
    27c0:	550001c2 	strpl	r0, [r0, #-450]	; 0xfffffe3e
    27c4:	c2000a14 	andgt	r0, r0, #20, 20	; 0x14000
    27c8:	c2000a50 	andgt	r0, r0, #80, 20	; 0x50000
    27cc:	50570001 	subspl	r0, r7, r1
    27d0:	90c2000a 	sbcls	r0, r2, sl
    27d4:	01c2000a 	biceq	r0, r2, sl
    27d8:	0a905500 	beq	fe417be0 <_stack_end+0x3c410be0>
    27dc:	0a94c200 	beq	fe532fe4 <_stack_end+0x3c52bfe4>
    27e0:	0002c200 	andeq	ip, r2, r0, lsl #4
    27e4:	0a949f30 	beq	fe52a4ac <_stack_end+0x3c5234ac>
    27e8:	0adcc200 	beq	ff732ff0 <_stack_end+0x3d72bff0>
    27ec:	0001c200 	andeq	ip, r1, r0, lsl #4
    27f0:	00000057 	andeq	r0, r0, r7, asr r0
	...
    27fc:	000a0800 	andeq	r0, sl, r0, lsl #16
    2800:	000a18c2 	andeq	r1, sl, r2, asr #17
    2804:	530001c2 	movwpl	r0, #450	; 0x1c2
    2808:	c2000a60 	andgt	r0, r0, #96, 20	; 0x60000
    280c:	c2000a90 	andgt	r0, r0, #144, 20	; 0x90000
    2810:	00530001 	subseq	r0, r3, r1
    2814:	00000000 	andeq	r0, r0, r0
    2818:	10000000 	andne	r0, r0, r0
    281c:	14c20008 	strbne	r0, [r2], #8
    2820:	02c20008 	sbceq	r0, r2, #8
    2824:	14007d00 	strne	r7, [r0], #-3328	; 0xfffff300
    2828:	18c20008 	stmiane	r2, {r3}^
    282c:	02c20008 	sbceq	r0, r2, #8
    2830:	181c7d00 	ldmdane	ip, {r8, sl, fp, ip, sp, lr}
    2834:	50c20008 	sbcpl	r0, r2, r8
    2838:	02c20009 	sbceq	r0, r2, #9
    283c:	50307d00 	eorspl	r7, r0, r0, lsl #26
    2840:	54c20009 	strbpl	r0, [r2], #9
    2844:	02c20009 	sbceq	r0, r2, #9
    2848:	541c7d00 	ldrpl	r7, [ip], #-3328	; 0xfffff300
    284c:	c4c20009 	strbgt	r0, [r2], #9
    2850:	02c20009 	sbceq	r0, r2, #9
    2854:	00307d00 	eorseq	r7, r0, r0, lsl #26
	...
    2864:	00081000 	andeq	r1, r8, r0
    2868:	00094bc2 	andeq	r4, r9, r2, asr #23
    286c:	500001c2 	andpl	r0, r0, r2, asr #3
    2870:	c200094b 	andgt	r0, r0, #1228800	; 0x12c000
    2874:	c2000954 	andgt	r0, r0, #84, 18	; 0x150000
    2878:	01f30004 	mvnseq	r0, r4
    287c:	09549f50 	ldmdbeq	r4, {r4, r6, r8, r9, sl, fp, ip, pc}^
    2880:	09c4c200 	stmibeq	r4, {r9, lr, pc}^
    2884:	0001c200 	andeq	ip, r1, r0, lsl #4
    2888:	00000050 	andeq	r0, r0, r0, asr r0
	...
    2894:	10000000 	andne	r0, r0, r0
    2898:	4bc20008 	blmi	ff0828c0 <_stack_end+0x3d07b8c0>
    289c:	01c20009 	biceq	r0, r2, r9
    28a0:	094b5100 	stmdbeq	fp, {r8, ip, lr}^
    28a4:	0954c200 	ldmdbeq	r4, {r9, lr, pc}^
    28a8:	0004c200 	andeq	ip, r4, r0, lsl #4
    28ac:	9f5101f3 	svcls	0x005101f3
    28b0:	c2000954 	andgt	r0, r0, #84, 18	; 0x150000
    28b4:	c20009c4 	andgt	r0, r0, #196, 18	; 0x310000
    28b8:	00510001 	subseq	r0, r1, r1
	...
    28c8:	00081000 	andeq	r1, r8, r0
    28cc:	00094bc2 	andeq	r4, r9, r2, asr #23
    28d0:	520001c2 	andpl	r0, r0, #-2147483600	; 0x80000030
    28d4:	c200094b 	andgt	r0, r0, #1228800	; 0x12c000
    28d8:	c2000954 	andgt	r0, r0, #84, 18	; 0x150000
    28dc:	01f30004 	mvnseq	r0, r4
    28e0:	09549f52 	ldmdbeq	r4, {r1, r4, r6, r8, r9, sl, fp, ip, pc}^
    28e4:	09c4c200 	stmibeq	r4, {r9, lr, pc}^
    28e8:	0001c200 	andeq	ip, r1, r0, lsl #4
    28ec:	00000052 	andeq	r0, r0, r2, asr r0
	...
    28f8:	10000000 	andne	r0, r0, r0
    28fc:	4bc20008 	blmi	ff082924 <_stack_end+0x3d07b924>
    2900:	01c20009 	biceq	r0, r2, r9
    2904:	094b5300 	stmdbeq	fp, {r8, r9, ip, lr}^
    2908:	0954c200 	ldmdbeq	r4, {r9, lr, pc}^
    290c:	0004c200 	andeq	ip, r4, r0, lsl #4
    2910:	9f5301f3 	svcls	0x005301f3
    2914:	c2000954 	andgt	r0, r0, #84, 18	; 0x150000
    2918:	c20009c4 	andgt	r0, r0, #196, 18	; 0x310000
    291c:	00530001 	subseq	r0, r3, r1
	...
    2928:	01010000 	mrseq	r0, (UNDEF: 1)
    292c:	01010000 	mrseq	r0, (UNDEF: 1)
    2930:	01010000 	mrseq	r0, (UNDEF: 1)
    2934:	00000000 	andeq	r0, r0, r0
    2938:	00000101 	andeq	r0, r0, r1, lsl #2
    293c:	00000101 	andeq	r0, r0, r1, lsl #2
    2940:	00000101 	andeq	r0, r0, r1, lsl #2
    2944:	00000000 	andeq	r0, r0, r0
    2948:	00000101 	andeq	r0, r0, r1, lsl #2
    294c:	00000101 	andeq	r0, r0, r1, lsl #2
    2950:	00000101 	andeq	r0, r0, r1, lsl #2
    2954:	00000101 	andeq	r0, r0, r1, lsl #2
    2958:	00081000 	andeq	r1, r8, r0
    295c:	000864c2 	andeq	r6, r8, r2, asr #9
    2960:	910002c2 	smlabtls	r0, r2, r2, r0
    2964:	00086404 	andeq	r6, r8, r4, lsl #8
    2968:	000864c2 	andeq	r6, r8, r2, asr #9
    296c:	5c0001c2 	stfpls	f0, [r0], {194}	; 0xc2
    2970:	c2000864 	andgt	r0, r0, #100, 16	; 0x640000
    2974:	c2000870 	andgt	r0, r0, #112, 16	; 0x700000
    2978:	017c0003 	cmneq	ip, r3
    297c:	0008709f 	muleq	r8, pc, r0	; <UNPREDICTABLE>
    2980:	000880c2 	andeq	r8, r8, r2, asr #1
    2984:	5c0001c2 	stfpls	f0, [r0], {194}	; 0xc2
    2988:	c2000880 	andgt	r0, r0, #128, 16	; 0x800000
    298c:	c200088c 	andgt	r0, r0, #140, 16	; 0x8c0000
    2990:	017c0003 	cmneq	ip, r3
    2994:	00088c9f 	muleq	r8, pc, ip	; <UNPREDICTABLE>
    2998:	0008c4c2 	andeq	ip, r8, r2, asr #9
    299c:	5c0001c2 	stfpls	f0, [r0], {194}	; 0xc2
    29a0:	c20008c4 	andgt	r0, r0, #196, 16	; 0xc40000
    29a4:	c20008c8 	andgt	r0, r0, #200, 16	; 0xc80000
    29a8:	7f7c0003 	svcvc	0x007c0003
    29ac:	0008c89f 	muleq	r8, pc, r8	; <UNPREDICTABLE>
    29b0:	0008e8c2 	andeq	lr, r8, r2, asr #17
    29b4:	570001c2 	strpl	r0, [r0, -r2, asr #3]
    29b8:	c20008e8 	andgt	r0, r0, #232, 16	; 0xe80000
    29bc:	c2000900 	andgt	r0, r0, #0, 18
    29c0:	005c0001 	subseq	r0, ip, r1
    29c4:	0cc20009 	stcleq	0, cr0, [r2], {9}
    29c8:	03c20009 	biceq	r0, r2, #9
    29cc:	9f017c00 	svcls	0x00017c00
    29d0:	c200090c 	andgt	r0, r0, #12, 18	; 0x30000
    29d4:	c2000910 	andgt	r0, r0, #16, 18	; 0x40000
    29d8:	105c0001 	subsne	r0, ip, r1
    29dc:	1cc20009 	stclne	0, cr0, [r2], {9}
    29e0:	03c20009 	biceq	r0, r2, #9
    29e4:	9f017c00 	svcls	0x00017c00
    29e8:	c200091c 	andgt	r0, r0, #28, 18	; 0x70000
    29ec:	c200092c 	andgt	r0, r0, #44, 18	; 0xb0000
    29f0:	2c5c0001 	mrrccs	0, 0, r0, ip, cr1
    29f4:	38c20009 	stmiacc	r2, {r0, r3}^
    29f8:	03c20009 	biceq	r0, r2, #9
    29fc:	9f017c00 	svcls	0x00017c00
    2a00:	c2000938 	andgt	r0, r0, #56, 18	; 0xe0000
    2a04:	c200094b 	andgt	r0, r0, #1228800	; 0x12c000
    2a08:	545c0001 	ldrbpl	r0, [ip], #-1
    2a0c:	5cc20009 	stclpl	0, cr0, [r2], {9}
    2a10:	01c20009 	biceq	r0, r2, r9
    2a14:	095c5700 	ldmdbeq	ip, {r8, r9, sl, ip, lr}^
    2a18:	096cc200 	stmdbeq	ip!, {r9, lr, pc}^
    2a1c:	0001c200 	andeq	ip, r1, r0, lsl #4
    2a20:	00096c5c 	andeq	r6, r9, ip, asr ip
    2a24:	000978c2 	andeq	r7, r9, r2, asr #17
    2a28:	7c0003c2 	stcvc	3, cr0, [r0], {194}	; 0xc2
    2a2c:	09789f01 	ldmdbeq	r8!, {r0, r8, r9, sl, fp, ip, pc}^
    2a30:	098cc200 	stmibeq	ip, {r9, lr, pc}
    2a34:	0001c200 	andeq	ip, r1, r0, lsl #4
    2a38:	00098c5c 	andeq	r8, r9, ip, asr ip
    2a3c:	000998c2 	andeq	r9, r9, r2, asr #17
    2a40:	7c0003c2 	stcvc	3, cr0, [r0], {194}	; 0xc2
    2a44:	09989f01 	ldmibeq	r8, {r0, r8, r9, sl, fp, ip, pc}
    2a48:	09a0c200 	stmibeq	r0!, {r9, lr, pc}
    2a4c:	0001c200 	andeq	ip, r1, r0, lsl #4
    2a50:	0009a05c 	andeq	sl, r9, ip, asr r0
    2a54:	0009acc2 	andeq	sl, r9, r2, asr #25
    2a58:	7c0003c2 	stcvc	3, cr0, [r0], {194}	; 0xc2
    2a5c:	09ac9f01 	stmibeq	ip!, {r0, r8, r9, sl, fp, ip, pc}
    2a60:	09b4c200 	ldmibeq	r4!, {r9, lr, pc}
    2a64:	0001c200 	andeq	ip, r1, r0, lsl #4
    2a68:	0009b45c 	andeq	fp, r9, ip, asr r4
    2a6c:	0009c0c2 	andeq	ip, r9, r2, asr #1
    2a70:	7c0003c2 	stcvc	3, cr0, [r0], {194}	; 0xc2
    2a74:	09c09f01 	stmibeq	r0, {r0, r8, r9, sl, fp, ip, pc}^
    2a78:	09c4c200 	stmibeq	r4, {r9, lr, pc}^
    2a7c:	0001c200 	andeq	ip, r1, r0, lsl #4
    2a80:	0000005c 	andeq	r0, r0, ip, asr r0
	...
    2a8c:	00081000 	andeq	r1, r8, r0
    2a90:	000860c2 	andeq	r6, r8, r2, asr #1
    2a94:	910002c2 	smlabtls	r0, r2, r2, r0
    2a98:	00086014 	andeq	r6, r8, r4, lsl r0
    2a9c:	0009c4c2 	andeq	ip, r9, r2, asr #9
    2aa0:	560001c2 	strpl	r0, [r0], -r2, asr #3
	...
    2aac:	c2000744 	andgt	r0, r0, #68, 14	; 0x1100000
    2ab0:	c2000748 	andgt	r0, r0, #72, 14	; 0x1200000
    2ab4:	007d0002 	rsbseq	r0, sp, r2
    2ab8:	c2000748 	andgt	r0, r0, #72, 14	; 0x1200000
    2abc:	c200074c 	andgt	r0, r0, #76, 14	; 0x1300000
    2ac0:	247d0002 	ldrbtcs	r0, [sp], #-2
    2ac4:	c200074c 	andgt	r0, r0, #76, 14	; 0x1300000
    2ac8:	c20007e4 	andgt	r0, r0, #228, 14	; 0x3900000
    2acc:	307d0002 	rsbscc	r0, sp, r2
    2ad0:	c20007e4 	andgt	r0, r0, #228, 14	; 0x3900000
    2ad4:	c20007e8 	andgt	r0, r0, #232, 14	; 0x3a00000
    2ad8:	247d0002 	ldrbtcs	r0, [sp], #-2
    2adc:	c20007e8 	andgt	r0, r0, #232, 14	; 0x3a00000
    2ae0:	c2000810 	andgt	r0, r0, #16, 16	; 0x100000
    2ae4:	307d0002 	rsbscc	r0, sp, r2
	...
    2af4:	c2000744 	andgt	r0, r0, #68, 14	; 0x1100000
    2af8:	c200077c 	andgt	r0, r0, #124, 14	; 0x1f00000
    2afc:	7c500001 	mrrcvc	0, 0, r0, r0, cr1	; <UNPREDICTABLE>
    2b00:	10c20007 	sbcne	r0, r2, r7
    2b04:	01c20008 	biceq	r0, r2, r8
    2b08:	00005500 	andeq	r5, r0, r0, lsl #10
	...
    2b14:	07440000 	strbeq	r0, [r4, -r0]
    2b18:	077cc200 	ldrbeq	ip, [ip, -r0, lsl #4]!
    2b1c:	0001c200 	andeq	ip, r1, r0, lsl #4
    2b20:	00077c51 	andeq	r7, r7, r1, asr ip
    2b24:	000810c2 	andeq	r1, r8, r2, asr #1
    2b28:	560001c2 	strpl	r0, [r0], -r2, asr #3
	...
    2b40:	c2000744 	andgt	r0, r0, #68, 14	; 0x1100000
    2b44:	c2000788 	andgt	r0, r0, #136, 14	; 0x2200000
    2b48:	88520001 	ldmdahi	r2, {r0}^
    2b4c:	a4c20007 	strbge	r0, [r2], #7
    2b50:	01c20007 	biceq	r0, r2, r7
    2b54:	07a45b00 	streq	r5, [r4, r0, lsl #22]!
    2b58:	07b4c200 	ldreq	ip, [r4, r0, lsl #4]!
    2b5c:	0001c200 	andeq	ip, r1, r0, lsl #4
    2b60:	0007b452 	andeq	fp, r7, r2, asr r4
    2b64:	0007c8c2 	andeq	ip, r7, r2, asr #17
    2b68:	580001c2 	stmdapl	r0, {r1, r6, r7, r8}
    2b6c:	c20007c8 	andgt	r0, r0, #200, 14	; 0x3200000
    2b70:	c20007f8 	andgt	r0, r0, #248, 14	; 0x3e00000
    2b74:	f8520001 			; <UNDEFINED> instruction: 0xf8520001
    2b78:	10c20007 	sbcne	r0, r2, r7
    2b7c:	01c20008 	biceq	r0, r2, r8
    2b80:	00005400 	andeq	r5, r0, r0, lsl #8
	...
    2b8c:	07440000 	strbeq	r0, [r4, -r0]
    2b90:	076cc200 	strbeq	ip, [ip, -r0, lsl #4]!
    2b94:	0001c200 	andeq	ip, r1, r0, lsl #4
    2b98:	00076c53 	andeq	r6, r7, r3, asr ip
    2b9c:	000810c2 	andeq	r1, r8, r2, asr #1
    2ba0:	570001c2 	strpl	r0, [r0, -r2, asr #3]
	...
    2bb0:	c2000744 	andgt	r0, r0, #68, 14	; 0x1100000
    2bb4:	c20007ac 	andgt	r0, r0, #172, 14	; 0x2b00000
    2bb8:	04910002 	ldreq	r0, [r1], #2
    2bbc:	c20007ac 	andgt	r0, r0, #172, 14	; 0x2b00000
    2bc0:	c20007dc 	andgt	r0, r0, #220, 14	; 0x3700000
    2bc4:	00540001 	subseq	r0, r4, r1
    2bc8:	00000000 	andeq	r0, r0, r0
    2bcc:	01000000 	mrseq	r0, (UNDEF: 0)
    2bd0:	00000000 	andeq	r0, r0, r0
    2bd4:	00076800 	andeq	r6, r7, r0, lsl #16
    2bd8:	00077cc2 	andeq	r7, r7, r2, asr #25
    2bdc:	520001c2 	andpl	r0, r0, #-2147483600	; 0x80000030
    2be0:	c200077c 	andgt	r0, r0, #124, 14	; 0x1f00000
    2be4:	c20007ac 	andgt	r0, r0, #172, 14	; 0x2b00000
    2be8:	4c910002 	ldcmi	0, cr0, [r1], {2}
    2bec:	c20007ac 	andgt	r0, r0, #172, 14	; 0x2b00000
    2bf0:	c2000810 	andgt	r0, r0, #16, 16	; 0x100000
    2bf4:	01f30004 	mvnseq	r0, r4
    2bf8:	00009f52 	andeq	r9, r0, r2, asr pc
	...
    2c04:	c200077c 	andgt	r0, r0, #124, 14	; 0x1f00000
    2c08:	c20007ac 	andgt	r0, r0, #172, 14	; 0x2b00000
    2c0c:	00580001 	subseq	r0, r8, r1
	...
    2c18:	04000000 	streq	r0, [r0], #-0
    2c1c:	0cc20007 	stcleq	0, cr0, [r2], {7}
    2c20:	01c20007 	biceq	r0, r2, r7
    2c24:	070c5000 	streq	r5, [ip, -r0]
    2c28:	0744c200 	strbeq	ip, [r4, -r0, lsl #4]
    2c2c:	0001c200 	andeq	ip, r1, r0, lsl #4
    2c30:	00000051 	andeq	r0, r0, r1, asr r0
    2c34:	00000000 	andeq	r0, r0, r0
    2c38:	00000100 	andeq	r0, r0, r0, lsl #2
    2c3c:	08000000 	stmdaeq	r0, {}	; <UNPREDICTABLE>
    2c40:	10c20007 	sbcne	r0, r2, r7
    2c44:	02c20007 	sbceq	r0, r2, #7
    2c48:	109f3000 	addsne	r3, pc, r0
    2c4c:	24c20007 	strbcs	r0, [r2], #7
    2c50:	01c20007 	biceq	r0, r2, r7
    2c54:	07285000 	streq	r5, [r8, -r0]!
    2c58:	0744c200 	strbeq	ip, [r4, -r0, lsl #4]
    2c5c:	0001c200 	andeq	ip, r1, r0, lsl #4
    2c60:	00000050 	andeq	r0, r0, r0, asr r0
	...
    2c6c:	00073000 	andeq	r3, r7, r0
    2c70:	000734c2 	andeq	r3, r7, r2, asr #9
    2c74:	530001c2 	movwpl	r0, #450	; 0x1c2
    2c78:	c2000734 	andgt	r0, r0, #52, 14	; 0xd00000
    2c7c:	c2000738 	andgt	r0, r0, #56, 14	; 0xe00000
    2c80:	30730003 	rsbscc	r0, r3, r3
    2c84:	0000009f 	muleq	r0, pc, r0	; <UNPREDICTABLE>
	...
    2c94:	7d000200 	sfmvc	f0, 4, [r0, #-0]
	...
    2ca0:	7d000200 	sfmvc	f0, 4, [r0, #-0]
    2ca4:	00000008 	andeq	r0, r0, r8
	...
    2cb8:	50000100 	andpl	r0, r0, r0, lsl #2
	...
    2cc4:	01f30004 	mvnseq	r0, r4
    2cc8:	00009f50 	andeq	r9, r0, r0, asr pc
	...
    2cdc:	00010000 	andeq	r0, r1, r0
    2ce0:	00000051 	andeq	r0, r0, r1, asr r0
    2ce4:	00000000 	andeq	r0, r0, r0
    2ce8:	f3000400 	vshl.u8	d0, d0, d0
    2cec:	009f5101 	addseq	r5, pc, r1, lsl #2
	...
    2d00:	01000000 	mrseq	r0, (UNDEF: 0)
    2d04:	00005200 	andeq	r5, r0, r0, lsl #4
    2d08:	00000000 	andeq	r0, r0, r0
    2d0c:	00040000 	andeq	r0, r4, r0
    2d10:	9f5201f3 	svcls	0x005201f3
	...
    2d28:	00530001 	subseq	r0, r3, r1
    2d2c:	00000000 	andeq	r0, r0, r0
    2d30:	04000000 	streq	r0, [r0], #-0
    2d34:	5301f300 	movwpl	pc, #4864	; 0x1300	; <UNPREDICTABLE>
    2d38:	0000009f 	muleq	r0, pc, r0	; <UNPREDICTABLE>
    2d3c:	00000000 	andeq	r0, r0, r0
    2d40:	001ef800 	andseq	pc, lr, r0, lsl #16
    2d44:	001f04c2 	andseq	r0, pc, r2, asr #9
    2d48:	7d0002c2 	sfmvc	f0, 4, [r0, #-776]	; 0xfffffcf8
    2d4c:	001f0400 	andseq	r0, pc, r0, lsl #8
    2d50:	001f0cc2 	andseq	r0, pc, r2, asr #25
    2d54:	7d0002c2 	sfmvc	f0, 4, [r0, #-776]	; 0xfffffcf8
    2d58:	00000008 	andeq	r0, r0, r8
	...
    2d64:	001ef800 	andseq	pc, lr, r0, lsl #16
    2d68:	001efcc2 	andseq	pc, lr, r2, asr #25
    2d6c:	500001c2 	andpl	r0, r0, r2, asr #3
    2d70:	c2001efc 	andgt	r1, r0, #252, 28	; 0xfc0
    2d74:	c2001f0c 	andgt	r1, r0, #12, 30	; 0x30
    2d78:	01f30004 	mvnseq	r0, r4
    2d7c:	00009f50 	andeq	r9, r0, r0, asr pc
	...
    2d88:	1ef80000 	cdpne	0, 15, cr0, cr8, cr0, {0}
    2d8c:	1f07c200 	svcne	0x0007c200
    2d90:	0001c200 	andeq	ip, r1, r0, lsl #4
    2d94:	001f0751 	andseq	r0, pc, r1, asr r7	; <UNPREDICTABLE>
    2d98:	001f0cc2 	andseq	r0, pc, r2, asr #25
    2d9c:	f30004c2 	vshl.u8	q0, q1, q8
    2da0:	009f5101 	addseq	r5, pc, r1, lsl #2
	...
    2dac:	f8000000 			; <UNDEFINED> instruction: 0xf8000000
    2db0:	07c2001e 	bfieq	r0, lr, #0, #3
    2db4:	01c2001f 	biceq	r0, r2, pc, lsl r0
    2db8:	1f075200 	svcne	0x00075200
    2dbc:	1f0cc200 	svcne	0x000cc200
    2dc0:	0004c200 	andeq	ip, r4, r0, lsl #4
    2dc4:	9f5201f3 	svcls	0x005201f3
	...
    2dd4:	c2001ef8 	andgt	r1, r0, #248, 28	; 0xf80
    2dd8:	c2001f07 	andgt	r1, r0, #7, 30
    2ddc:	07530001 	ldrbeq	r0, [r3, -r1]
    2de0:	0cc2001f 	stcleq	0, cr0, [r2], {31}
    2de4:	04c2001f 	strbeq	r0, [r2], #31
    2de8:	5301f300 	movwpl	pc, #4864	; 0x1300	; <UNPREDICTABLE>
    2dec:	0000009f 	muleq	r0, pc, r0	; <UNPREDICTABLE>
	...
    2dfc:	7d000200 	sfmvc	f0, 4, [r0, #-0]
	...
    2e08:	7d000200 	sfmvc	f0, 4, [r0, #-0]
    2e0c:	00000008 	andeq	r0, r0, r8
    2e10:	00000000 	andeq	r0, r0, r0
    2e14:	7d000200 	sfmvc	f0, 4, [r0, #-0]
    2e18:	00000018 	andeq	r0, r0, r8, lsl r0
    2e1c:	00000000 	andeq	r0, r0, r0
    2e20:	7d000200 	sfmvc	f0, 4, [r0, #-0]
    2e24:	00000008 	andeq	r0, r0, r8
	...
    2e38:	50000100 	andpl	r0, r0, r0, lsl #2
	...
    2e44:	00540001 	subseq	r0, r4, r1
    2e48:	00000000 	andeq	r0, r0, r0
    2e4c:	02000000 	andeq	r0, r0, #0
	...
    2e58:	02000000 	andeq	r0, r0, #0
    2e5c:	009f3000 	addseq	r3, pc, r0
    2e60:	00000000 	andeq	r0, r0, r0
    2e64:	01000000 	mrseq	r0, (UNDEF: 0)
    2e68:	00005000 	andeq	r5, r0, r0
    2e6c:	00000000 	andeq	r0, r0, r0
    2e70:	1f5c0000 	svcne	0x005c0000
    2e74:	1f60c200 	svcne	0x0060c200
    2e78:	0002c200 	andeq	ip, r2, r0, lsl #4
    2e7c:	1f60007d 	svcne	0x0060007d
    2e80:	1fccc200 	svcne	0x00ccc200
    2e84:	0002c200 	andeq	ip, r2, r0, lsl #4
    2e88:	0000087d 	andeq	r0, r0, sp, ror r8
	...
    2e98:	00020000 	andeq	r0, r2, r0
    2e9c:	0000007d 	andeq	r0, r0, sp, ror r0
    2ea0:	00000000 	andeq	r0, r0, r0
    2ea4:	00020000 	andeq	r0, r2, r0
    2ea8:	0000087d 	andeq	r0, r0, sp, ror r8
	...
    2ebc:	00010000 	andeq	r0, r1, r0
    2ec0:	00000050 	andeq	r0, r0, r0, asr r0
    2ec4:	00000000 	andeq	r0, r0, r0
    2ec8:	54000100 	strpl	r0, [r0], #-256	; 0xffffff00
	...
    2edc:	007d0002 	rsbseq	r0, sp, r2
	...
    2ee8:	087d0002 	ldmdaeq	sp!, {r1}^
	...
    2f00:	00500001 	subseq	r0, r0, r1
    2f04:	00000000 	andeq	r0, r0, r0
    2f08:	01000000 	mrseq	r0, (UNDEF: 0)
    2f0c:	00005400 	andeq	r5, r0, r0, lsl #8
	...
    2f20:	00010000 	andeq	r0, r1, r0
    2f24:	00000051 	andeq	r0, r0, r1, asr r0
    2f28:	00000000 	andeq	r0, r0, r0
    2f2c:	f3000400 	vshl.u8	d0, d0, d0
    2f30:	009f5101 	addseq	r5, pc, r1, lsl #2
	...
    2f44:	01000000 	mrseq	r0, (UNDEF: 0)
    2f48:	00005200 	andeq	r5, r0, r0, lsl #4
    2f4c:	00000000 	andeq	r0, r0, r0
    2f50:	00040000 	andeq	r0, r4, r0
    2f54:	9f5201f3 	svcls	0x005201f3
	...
    2f6c:	00530001 	subseq	r0, r3, r1
    2f70:	00000000 	andeq	r0, r0, r0
    2f74:	04000000 	streq	r0, [r0], #-0
    2f78:	5301f300 	movwpl	pc, #4864	; 0x1300	; <UNPREDICTABLE>
    2f7c:	0000009f 	muleq	r0, pc, r0	; <UNPREDICTABLE>
    2f80:	00000000 	andeq	r0, r0, r0
    2f84:	001ff800 	andseq	pc, pc, r0, lsl #16
    2f88:	001ffcc2 	andseq	pc, pc, r2, asr #25
    2f8c:	7d0002c2 	sfmvc	f0, 4, [r0, #-776]	; 0xfffffcf8
    2f90:	001ffc00 	andseq	pc, pc, r0, lsl #24
    2f94:	002038c2 	eoreq	r3, r0, r2, asr #17
    2f98:	7d0002c2 	sfmvc	f0, 4, [r0, #-776]	; 0xfffffcf8
    2f9c:	00000008 	andeq	r0, r0, r8
    2fa0:	00000000 	andeq	r0, r0, r0
    2fa4:	00000200 	andeq	r0, r0, r0, lsl #4
    2fa8:	001ffc00 	andseq	pc, pc, r0, lsl #24
    2fac:	002004c2 	eoreq	r0, r0, r2, asr #9
    2fb0:	300002c2 	andcc	r0, r0, r2, asr #5
    2fb4:	0020049f 	mlaeq	r0, pc, r4, r0	; <UNPREDICTABLE>
    2fb8:	002033c2 	eoreq	r3, r0, r2, asr #7
    2fbc:	530001c2 	movwpl	r0, #450	; 0x1c2
	...
    2fc8:	c2001fd0 	andgt	r1, r0, #208, 30	; 0x340
    2fcc:	c2001fd4 	andgt	r1, r0, #212, 30	; 0x350
    2fd0:	007d0002 	rsbseq	r0, sp, r2
    2fd4:	c2001fd4 	andgt	r1, r0, #212, 30	; 0x350
    2fd8:	c2001ff8 	andgt	r1, r0, #248, 30	; 0x3e0
    2fdc:	087d0002 	ldmdaeq	sp!, {r1}^
	...
    2fec:	c2001fd0 	andgt	r1, r0, #208, 30	; 0x340
    2ff0:	c2001fdb 	andgt	r1, r0, #876	; 0x36c
    2ff4:	db500001 	blle	1403000 <SYS_MODE+0x1402fe1>
    2ff8:	f8c2001f 			; <UNDEFINED> instruction: 0xf8c2001f
    2ffc:	01c2001f 	biceq	r0, r2, pc, lsl r0
    3000:	00005400 	andeq	r5, r0, r0, lsl #8
	...
    3014:	00010000 	andeq	r0, r1, r0
    3018:	00000050 	andeq	r0, r0, r0, asr r0
    301c:	00000000 	andeq	r0, r0, r0
    3020:	f3000400 	vshl.u8	d0, d0, d0
    3024:	009f5001 	addseq	r5, pc, r1
    3028:	00000000 	andeq	r0, r0, r0
    302c:	02000000 	andeq	r0, r0, #0
    3030:	00000101 	andeq	r0, r0, r1, lsl #2
	...
    303c:	30000200 	andcc	r0, r0, r0, lsl #4
    3040:	0000009f 	muleq	r0, pc, r0	; <UNPREDICTABLE>
    3044:	00000000 	andeq	r0, r0, r0
    3048:	70000500 	andvc	r0, r0, r0, lsl #10
    304c:	9f253500 	svcls	0x00253500
	...
    3058:	01f30006 	mvnseq	r0, r6
    305c:	9f253550 	svcls	0x00253550
	...
    3068:	00000003 	andeq	r0, r0, r3
	...
    3074:	00020000 	andeq	r0, r2, r0
    3078:	00009f30 	andeq	r9, r0, r0, lsr pc
    307c:	00000000 	andeq	r0, r0, r0
    3080:	00010000 	andeq	r0, r1, r0
    3084:	00000052 	andeq	r0, r0, r2, asr r0
    3088:	00000000 	andeq	r0, r0, r0
    308c:	f3000600 	vmax.u8	d0, d0, d0
    3090:	1a4f5001 	bne	13d709c <SYS_MODE+0x13d707d>
    3094:	0000009f 	muleq	r0, pc, r0	; <UNPREDICTABLE>
	...
    30a0:	00207000 	eoreq	r7, r0, r0
    30a4:	002088c2 	eoreq	r8, r0, r2, asr #17
    30a8:	500001c2 	andpl	r0, r0, r2, asr #3
    30ac:	c2002088 	andgt	r2, r0, #136	; 0x88
    30b0:	c2002098 	andgt	r2, r0, #152	; 0x98
    30b4:	01f30004 	mvnseq	r0, r4
    30b8:	00009f50 	andeq	r9, r0, r0, asr pc
    30bc:	00000000 	andeq	r0, r0, r0
    30c0:	01020000 	mrseq	r0, (UNDEF: 2)
    30c4:	00000001 	andeq	r0, r0, r1
    30c8:	c2002070 	andgt	r2, r0, #112	; 0x70
    30cc:	c2002078 	andgt	r2, r0, #120	; 0x78
    30d0:	9f300002 	svcls	0x00300002
    30d4:	c2002078 	andgt	r2, r0, #120	; 0x78
    30d8:	c2002088 	andgt	r2, r0, #136	; 0x88
    30dc:	00700005 	rsbseq	r0, r0, r5
    30e0:	889f2535 	ldmhi	pc, {r0, r2, r4, r5, r8, sl, sp}	; <UNPREDICTABLE>
    30e4:	98c20020 	stmials	r2, {r5}^
    30e8:	06c20020 	strbeq	r0, [r2], r0, lsr #32
    30ec:	5001f300 	andpl	pc, r1, r0, lsl #6
    30f0:	009f2535 	addseq	r2, pc, r5, lsr r5	; <UNPREDICTABLE>
    30f4:	00000000 	andeq	r0, r0, r0
    30f8:	03000000 	movweq	r0, #0
    30fc:	00000000 	andeq	r0, r0, r0
    3100:	00207000 	eoreq	r7, r0, r0
    3104:	00207cc2 	eoreq	r7, r0, r2, asr #25
    3108:	300002c2 	andcc	r0, r0, r2, asr #5
    310c:	00207c9f 	mlaeq	r0, pc, ip, r7	; <UNPREDICTABLE>
    3110:	00208cc2 	eoreq	r8, r0, r2, asr #25
    3114:	520001c2 	andpl	r0, r0, #-2147483600	; 0x80000030
    3118:	c200208c 	andgt	r2, r0, #140	; 0x8c
    311c:	c2002098 	andgt	r2, r0, #152	; 0x98
    3120:	01f30006 	mvnseq	r0, r6
    3124:	9f1a4f50 	svcls	0x001a4f50
	...
    313c:	00500001 	subseq	r0, r0, r1
    3140:	00000000 	andeq	r0, r0, r0
    3144:	04000000 	streq	r0, [r0], #-0
    3148:	5001f300 	andpl	pc, r1, r0, lsl #6
    314c:	0000009f 	muleq	r0, pc, r0	; <UNPREDICTABLE>
    3150:	00000000 	andeq	r0, r0, r0
    3154:	01010200 	mrseq	r0, R9_usr
	...
    3160:	02000000 	andeq	r0, r0, #0
    3164:	009f3000 	addseq	r3, pc, r0
    3168:	00000000 	andeq	r0, r0, r0
    316c:	05000000 	streq	r0, [r0, #-0]
    3170:	35007000 	strcc	r7, [r0, #-0]
    3174:	00009f25 	andeq	r9, r0, r5, lsr #30
    3178:	00000000 	andeq	r0, r0, r0
    317c:	00060000 	andeq	r0, r6, r0
    3180:	355001f3 	ldrbcc	r0, [r0, #-499]	; 0xfffffe0d
    3184:	00009f25 	andeq	r9, r0, r5, lsr #30
    3188:	00000000 	andeq	r0, r0, r0
    318c:	00030000 	andeq	r0, r3, r0
	...
    319c:	9f300002 	svcls	0x00300002
	...
    31a8:	00520001 	subseq	r0, r2, r1
    31ac:	00000000 	andeq	r0, r0, r0
    31b0:	06000000 	streq	r0, [r0], -r0
    31b4:	5001f300 	andpl	pc, r1, r0, lsl #6
    31b8:	009f1a4f 	addseq	r1, pc, pc, asr #20
	...
    31cc:	01000000 	mrseq	r0, (UNDEF: 0)
    31d0:	00005000 	andeq	r5, r0, r0
    31d4:	00000000 	andeq	r0, r0, r0
    31d8:	00040000 	andeq	r0, r4, r0
    31dc:	9f5001f3 	svcls	0x005001f3
	...
    31e8:	00010102 	andeq	r0, r1, r2, lsl #2
	...
    31f4:	00020000 	andeq	r0, r2, r0
    31f8:	00009f30 	andeq	r9, r0, r0, lsr pc
    31fc:	00000000 	andeq	r0, r0, r0
    3200:	00050000 	andeq	r0, r5, r0
    3204:	25350070 	ldrcs	r0, [r5, #-112]!	; 0xffffff90
    3208:	0000009f 	muleq	r0, pc, r0	; <UNPREDICTABLE>
    320c:	00000000 	andeq	r0, r0, r0
    3210:	f3000600 	vmax.u8	d0, d0, d0
    3214:	25355001 	ldrcs	r5, [r5, #-1]!
    3218:	0000009f 	muleq	r0, pc, r0	; <UNPREDICTABLE>
    321c:	00000000 	andeq	r0, r0, r0
    3220:	00000300 	andeq	r0, r0, r0, lsl #6
	...
    322c:	02000000 	andeq	r0, r0, #0
    3230:	009f3000 	addseq	r3, pc, r0
    3234:	00000000 	andeq	r0, r0, r0
    3238:	01000000 	mrseq	r0, (UNDEF: 0)
    323c:	00005200 	andeq	r5, r0, r0, lsl #4
    3240:	00000000 	andeq	r0, r0, r0
    3244:	00060000 	andeq	r0, r6, r0
    3248:	4f5001f3 	svcmi	0x005001f3
    324c:	00009f1a 	andeq	r9, r0, sl, lsl pc
	...
    3260:	00010000 	andeq	r0, r1, r0
    3264:	00000051 	andeq	r0, r0, r1, asr r0
    3268:	00000000 	andeq	r0, r0, r0
    326c:	f3000400 	vshl.u8	d0, d0, d0
    3270:	009f5101 	addseq	r5, pc, r1, lsl #2
    3274:	00000000 	andeq	r0, r0, r0
    3278:	02000000 	andeq	r0, r0, #0
    327c:	38000000 	stmdacc	r0, {}	; <UNPREDICTABLE>
    3280:	44c20020 	strbmi	r0, [r2], #32
    3284:	02c20020 	sbceq	r0, r2, #32
    3288:	449f3000 	ldrmi	r3, [pc], #0	; 3290 <SYS_MODE+0x3271>
    328c:	70c20020 	sbcvc	r0, r2, r0, lsr #32
    3290:	01c20020 	biceq	r0, r2, r0, lsr #32
    3294:	00005200 	andeq	r5, r0, r0, lsl #4
    3298:	00000000 	andeq	r0, r0, r0
    329c:	00030000 	andeq	r0, r3, r0
    32a0:	00000000 	andeq	r0, r0, r0
    32a4:	c2002038 	andgt	r2, r0, #56	; 0x38
    32a8:	c2002054 	andgt	r2, r0, #84	; 0x54
    32ac:	9f300002 	svcls	0x00300002
    32b0:	c2002054 	andgt	r2, r0, #84	; 0x54
    32b4:	c2002058 	andgt	r2, r0, #88	; 0x58
    32b8:	64530001 	ldrbvs	r0, [r3], #-1
    32bc:	70c20020 	sbcvc	r0, r2, r0, lsr #32
    32c0:	01c20020 	biceq	r0, r2, r0, lsr #32
    32c4:	00005300 	andeq	r5, r0, r0, lsl #6
    32c8:	00000000 	andeq	r0, r0, r0
    32cc:	00010000 	andeq	r0, r1, r0
    32d0:	c20023c4 	andgt	r2, r0, #196, 6	; 0x10000003
    32d4:	c20023d8 	andgt	r2, r0, #216, 6	; 0x60000003
    32d8:	00500001 	subseq	r0, r0, r1
    32dc:	00000000 	andeq	r0, r0, r0
    32e0:	01000000 	mrseq	r0, (UNDEF: 0)
    32e4:	0023c400 	eoreq	ip, r3, r0, lsl #8
    32e8:	0023d8c2 	eoreq	sp, r3, r2, asr #17
    32ec:	510001c2 	smlabtpl	r0, r2, r1, r0
	...
    32f8:	00010100 	andeq	r0, r1, r0, lsl #2
    32fc:	c20023c8 	andgt	r2, r0, #200, 6	; 0x20000003
    3300:	c20023c8 	andgt	r2, r0, #200, 6	; 0x20000003
    3304:	c8530001 	ldmdagt	r3, {r0}^
    3308:	d8c20023 	stmiale	r2, {r0, r1, r5}^
    330c:	08c20023 	stmiaeq	r2, {r0, r1, r5}^
    3310:	09007300 	stmdbeq	r0, {r8, r9, ip, sp, lr}
    3314:	253324fe 	ldrcs	r2, [r3, #-1278]!	; 0xfffffb02
    3318:	0000009f 	muleq	r0, pc, r0	; <UNPREDICTABLE>
    331c:	00000000 	andeq	r0, r0, r0
    3320:	00239400 	eoreq	r9, r3, r0, lsl #8
    3324:	002398c2 	eoreq	r9, r3, r2, asr #17
    3328:	7d0002c2 	sfmvc	f0, 4, [r0, #-776]	; 0xfffffcf8
    332c:	00239800 	eoreq	r9, r3, r0, lsl #16
    3330:	0023c4c2 	eoreq	ip, r3, r2, asr #9
    3334:	7d0002c2 	sfmvc	f0, 4, [r0, #-776]	; 0xfffffcf8
    3338:	00000010 	andeq	r0, r0, r0, lsl r0
	...
    3344:	00239400 	eoreq	r9, r3, r0, lsl #8
    3348:	0023a7c2 	eoreq	sl, r3, r2, asr #15
    334c:	500001c2 	andpl	r0, r0, r2, asr #3
    3350:	c20023a7 	andgt	r2, r0, #-1677721598	; 0x9c000002
    3354:	c20023c4 	andgt	r2, r0, #196, 6	; 0x10000003
    3358:	00550001 	subseq	r0, r5, r1
	...
    3364:	94000000 	strls	r0, [r0], #-0
    3368:	a7c20023 	strbge	r0, [r2, r3, lsr #32]
    336c:	01c20023 	biceq	r0, r2, r3, lsr #32
    3370:	23a75100 			; <UNDEFINED> instruction: 0x23a75100
    3374:	23c4c200 	biccs	ip, r4, #0, 4
    3378:	0001c200 	andeq	ip, r1, r0, lsl #4
    337c:	00000054 	andeq	r0, r0, r4, asr r0
    3380:	00000000 	andeq	r0, r0, r0
    3384:	00228000 	eoreq	r8, r2, r0
    3388:	002284c2 	eoreq	r8, r2, r2, asr #9
    338c:	7d0002c2 	sfmvc	f0, 4, [r0, #-776]	; 0xfffffcf8
    3390:	00228400 	eoreq	r8, r2, r0, lsl #8
    3394:	002288c2 	eoreq	r8, r2, r2, asr #17
    3398:	7d0002c2 	sfmvc	f0, 4, [r0, #-776]	; 0xfffffcf8
    339c:	0022880c 	eoreq	r8, r2, ip, lsl #16
    33a0:	002354c2 	eoreq	r5, r3, r2, asr #9
    33a4:	7d0002c2 	sfmvc	f0, 4, [r0, #-776]	; 0xfffffcf8
    33a8:	00235418 	eoreq	r5, r3, r8, lsl r4
    33ac:	002358c2 	eoreq	r5, r3, r2, asr #17
    33b0:	7d0002c2 	sfmvc	f0, 4, [r0, #-776]	; 0xfffffcf8
    33b4:	0023580c 	eoreq	r5, r3, ip, lsl #16
    33b8:	002394c2 	eoreq	r9, r3, r2, asr #9
    33bc:	7d0002c2 	sfmvc	f0, 4, [r0, #-776]	; 0xfffffcf8
    33c0:	00000018 	andeq	r0, r0, r8, lsl r0
	...
    33cc:	00228000 	eoreq	r8, r2, r0
    33d0:	0022a8c2 	eoreq	sl, r2, r2, asr #17
    33d4:	500001c2 	andpl	r0, r0, r2, asr #3
    33d8:	c20022a8 	andgt	r2, r0, #168, 4	; 0x8000000a
    33dc:	c2002394 	andgt	r2, r0, #148, 6	; 0x50000002
    33e0:	00540001 	subseq	r0, r4, r1
	...
    33ec:	80000000 	andhi	r0, r0, r0
    33f0:	abc20022 	blge	ff083480 <_stack_end+0x3d07c480>
    33f4:	01c20022 	biceq	r0, r2, r2, lsr #32
    33f8:	22ab5100 	adccs	r5, fp, #0, 2
    33fc:	2394c200 	orrscs	ip, r4, #0, 4
    3400:	0001c200 	andeq	ip, r1, r0, lsl #4
    3404:	00000055 	andeq	r0, r0, r5, asr r0
    3408:	00000000 	andeq	r0, r0, r0
    340c:	00000100 	andeq	r0, r0, r0, lsl #2
	...
    3418:	00000101 	andeq	r0, r0, r1, lsl #2
    341c:	00000000 	andeq	r0, r0, r0
    3420:	02020101 	andeq	r0, r2, #1073741824	; 0x40000000
    3424:	01010000 	mrseq	r0, (UNDEF: 1)
    3428:	00000202 	andeq	r0, r0, r2, lsl #4
    342c:	00229000 	eoreq	r9, r2, r0
    3430:	0022c8c2 	eoreq	ip, r2, r2, asr #17
    3434:	300002c2 	andcc	r0, r0, r2, asr #5
    3438:	0022c89f 	mlaeq	r2, pc, r8, ip	; <UNPREDICTABLE>
    343c:	0022ccc2 	eoreq	ip, r2, r2, asr #25
    3440:	510001c2 	smlabtpl	r0, r2, r1, r0
    3444:	c20022cc 	andgt	r2, r0, #204, 4	; 0xc000000c
    3448:	c20022d4 	andgt	r2, r0, #212, 4	; 0x4000000d
    344c:	d4530001 	ldrble	r0, [r3], #-1
    3450:	d8c20022 	stmiale	r2, {r1, r5}^
    3454:	02c20022 	sbceq	r0, r2, #34	; 0x22
    3458:	d8087400 	stmdale	r8, {sl, ip, sp, lr}
    345c:	00c20022 	sbceq	r0, r2, r2, lsr #32
    3460:	05c20023 	strbeq	r0, [r2, #35]	; 0x23
    3464:	40007100 	andmi	r7, r0, r0, lsl #2
    3468:	23009f21 	movwcs	r9, #3873	; 0xf21
    346c:	2340c200 	movtcs	ip, #512	; 0x200
    3470:	0001c200 	andeq	ip, r1, r0, lsl #4
    3474:	00234053 	eoreq	r4, r3, r3, asr r0
    3478:	002344c2 	eoreq	r4, r3, r2, asr #9
    347c:	730007c2 	movwvc	r0, #1986	; 0x7c2
    3480:	ff7f0b00 			; <UNDEFINED> instruction: 0xff7f0b00
    3484:	23449f1a 	movtcs	r9, #20250	; 0x4f1a
    3488:	234cc200 	movtcs	ip, #49664	; 0xc200
    348c:	0001c200 	andeq	ip, r1, r0, lsl #4
    3490:	00234c53 	eoreq	r4, r3, r3, asr ip
    3494:	002350c2 	eoreq	r5, r3, r2, asr #1
    3498:	740002c2 	strvc	r0, [r0], #-706	; 0xfffffd3e
    349c:	0023580c 	eoreq	r5, r3, ip, lsl #16
    34a0:	002384c2 	eoreq	r8, r3, r2, asr #9
    34a4:	530001c2 	movwpl	r0, #450	; 0x1c2
    34a8:	c2002384 	andgt	r2, r0, #132, 6	; 0x10000002
    34ac:	c2002384 	andgt	r2, r0, #132, 6	; 0x10000002
    34b0:	00730005 	rsbseq	r0, r3, r5
    34b4:	849f2138 	ldrhi	r2, [pc], #312	; 34bc <SYS_MODE+0x349d>
    34b8:	88c20023 	stmiahi	r2, {r0, r1, r5}^
    34bc:	05c20023 	strbeq	r0, [r2, #35]	; 0x23
    34c0:	48007300 	stmdami	r0, {r8, r9, ip, sp, lr}
    34c4:	23889f21 	orrcs	r9, r8, #33, 30	; 0x84
    34c8:	238cc200 	orrcs	ip, ip, #0, 4
    34cc:	0001c200 	andeq	ip, r1, r0, lsl #4
    34d0:	00238c53 	eoreq	r8, r3, r3, asr ip
    34d4:	00238cc2 	eoreq	r8, r3, r2, asr #25
    34d8:	730005c2 	movwvc	r0, #1474	; 0x5c2
    34dc:	9f213800 	svcls	0x00213800
    34e0:	c200238c 	andgt	r2, r0, #140, 6	; 0x30000002
    34e4:	c2002390 	andgt	r2, r0, #144, 6	; 0x40000002
    34e8:	00730008 	rsbseq	r0, r3, r8
    34ec:	381aef09 	ldmdacc	sl, {r0, r3, r8, r9, sl, fp, sp, lr, pc}
    34f0:	23909f21 	orrscs	r9, r0, #33, 30	; 0x84
    34f4:	2394c200 	orrscs	ip, r4, #0, 4
    34f8:	0001c200 	andeq	ip, r1, r0, lsl #4
    34fc:	00000053 	andeq	r0, r0, r3, asr r0
    3500:	00000000 	andeq	r0, r0, r0
    3504:	01010100 	mrseq	r0, (UNDEF: 17)
    3508:	90000000 	andls	r0, r0, r0
    350c:	c8c20022 	stmiagt	r2, {r1, r5}^
    3510:	02c20022 	sbceq	r0, r2, #34	; 0x22
    3514:	c89f3000 	ldmgt	pc, {ip, sp}	; <UNPREDICTABLE>
    3518:	14c20022 	strbne	r0, [r2], #34	; 0x22
    351c:	08c20023 	stmiaeq	r2, {r0, r1, r5}^
    3520:	09007100 	stmdbeq	r0, {r8, ip, sp, lr}
    3524:	253324ff 	ldrcs	r2, [r3, #-1279]!	; 0xfffffb01
    3528:	0023589f 	mlaeq	r3, pc, r8, r5	; <UNPREDICTABLE>
    352c:	002360c2 	eoreq	r6, r3, r2, asr #1
    3530:	710008c2 	smlabtvc	r0, r2, r8, r0
    3534:	24ff0900 	ldrbtcs	r0, [pc], #2304	; 353c <SYS_MODE+0x351d>
    3538:	009f2533 	addseq	r2, pc, r3, lsr r5	; <UNPREDICTABLE>
    353c:	00000000 	andeq	r0, r0, r0
    3540:	a4000000 	strge	r0, [r0], #-0
    3544:	a8c20021 	stmiage	r2, {r0, r5}^
    3548:	02c20021 	sbceq	r0, r2, #33	; 0x21
    354c:	a8007d00 	stmdage	r0, {r8, sl, fp, ip, sp, lr}
    3550:	80c20021 	sbchi	r0, r2, r1, lsr #32
    3554:	02c20022 	sbceq	r0, r2, #34	; 0x22
    3558:	00087d00 	andeq	r7, r8, r0, lsl #26
    355c:	00000000 	andeq	r0, r0, r0
    3560:	01000000 	mrseq	r0, (UNDEF: 0)
    3564:	00000000 	andeq	r0, r0, r0
    3568:	01010000 	mrseq	r0, (UNDEF: 1)
	...
    357c:	0021a800 	eoreq	sl, r1, r0, lsl #16
    3580:	0021b8c2 	eoreq	fp, r1, r2, asr #17
    3584:	300002c2 	andcc	r0, r0, r2, asr #5
    3588:	0021b89f 	mlaeq	r1, pc, r8, fp	; <UNPREDICTABLE>
    358c:	0021c8c2 	eoreq	ip, r1, r2, asr #17
    3590:	530001c2 	movwpl	r0, #450	; 0x1c2
    3594:	c20021c8 	andgt	r2, r0, #200, 2	; 0x32
    3598:	c20021cc 	andgt	r2, r0, #204, 2	; 0x33
    359c:	08700002 	ldmdaeq	r0!, {r1}^
    35a0:	c20021d0 	andgt	r2, r0, #208, 2	; 0x34
    35a4:	c20021dc 	andgt	r2, r0, #220, 2	; 0x37
    35a8:	dc530001 	mrrcle	0, 0, r0, r3, cr1
    35ac:	ecc20021 	stcl	0, cr0, [r2], {33}	; 0x21
    35b0:	02c20021 	sbceq	r0, r2, #33	; 0x21
    35b4:	ec9f3600 	ldc	6, cr3, [pc], {0}
    35b8:	18c20021 	stmiane	r2, {r0, r5}^
    35bc:	01c20022 	biceq	r0, r2, r2, lsr #32
    35c0:	22185200 	andscs	r5, r8, #0, 4
    35c4:	2220c200 	eorcs	ip, r0, #0, 4
    35c8:	0001c200 	andeq	ip, r1, r0, lsl #4
    35cc:	00222053 	eoreq	r2, r2, r3, asr r0
    35d0:	002224c2 	eoreq	r2, r2, r2, asr #9
    35d4:	700002c2 	andvc	r0, r0, r2, asr #5
    35d8:	00223408 	eoreq	r3, r2, r8, lsl #8
    35dc:	002248c2 	eoreq	r4, r2, r2, asr #17
    35e0:	530001c2 	movwpl	r0, #450	; 0x1c2
    35e4:	c2002248 	andgt	r2, r0, #72, 4	; 0x80000004
    35e8:	c200224c 	andgt	r2, r0, #76, 4	; 0xc0000004
    35ec:	08700002 	ldmdaeq	r0!, {r1}^
    35f0:	c2002250 	andgt	r2, r0, #80, 4
    35f4:	c2002268 	andgt	r2, r0, #104, 4	; 0x80000006
    35f8:	68530001 	ldmdavs	r3, {r0}^
    35fc:	70c20022 	sbcvc	r0, r2, r2, lsr #32
    3600:	02c20022 	sbceq	r0, r2, #34	; 0x22
    3604:	709f3600 	addsvc	r3, pc, r0, lsl #12
    3608:	80c20022 	sbchi	r0, r2, r2, lsr #32
    360c:	01c20022 	biceq	r0, r2, r2, lsr #32
    3610:	00005300 	andeq	r5, r0, r0, lsl #6
    3614:	00000000 	andeq	r0, r0, r0
    3618:	00010000 	andeq	r0, r1, r0
    361c:	21a80000 			; <UNDEFINED> instruction: 0x21a80000
    3620:	21acc200 			; <UNDEFINED> instruction: 0x21acc200
    3624:	0002c200 	andeq	ip, r2, r0, lsl #4
    3628:	21ac9f30 			; <UNDEFINED> instruction: 0x21ac9f30
    362c:	2280c200 	addcs	ip, r0, #0, 4
    3630:	0001c200 	andeq	ip, r1, r0, lsl #4
    3634:	0000005c 	andeq	r0, r0, ip, asr r0
    3638:	00000000 	andeq	r0, r0, r0
    363c:	00000100 	andeq	r0, r0, r0, lsl #2
    3640:	0021a800 	eoreq	sl, r1, r0, lsl #16
    3644:	0021bcc2 	eoreq	fp, r1, r2, asr #25
    3648:	300002c2 	andcc	r0, r0, r2, asr #5
    364c:	0021bc9f 	mlaeq	r1, pc, ip, fp	; <UNPREDICTABLE>
    3650:	002280c2 	eoreq	r8, r2, r2, asr #1
    3654:	540001c2 	strpl	r0, [r0], #-450	; 0xfffffe3e
	...
    3660:	00000001 	andeq	r0, r0, r1
    3664:	c20021a8 	andgt	r2, r0, #168, 2	; 0x2a
    3668:	c20021d4 	andgt	r2, r0, #212, 2	; 0x35
    366c:	9f300002 	svcls	0x00300002
    3670:	c20021d4 	andgt	r2, r0, #212, 2	; 0x35
    3674:	c2002280 	andgt	r2, r0, #128, 4
    3678:	005e0001 	subseq	r0, lr, r1
    367c:	00000000 	andeq	r0, r0, r0
    3680:	02000000 	andeq	r0, r0, #0
    3684:	00000000 	andeq	r0, r0, r0
    3688:	00218000 	eoreq	r8, r1, r0
    368c:	002184c2 	eoreq	r8, r1, r2, asr #9
    3690:	300002c2 	andcc	r0, r0, r2, asr #5
    3694:	0021849f 	mlaeq	r1, pc, r4, r8	; <UNPREDICTABLE>
    3698:	002190c2 	eoreq	r9, r1, r2, asr #1
    369c:	530001c2 	movwpl	r0, #450	; 0x1c2
    36a0:	c2002190 	andgt	r2, r0, #144, 2	; 0x24
    36a4:	c20021a4 	andgt	r2, r0, #164, 2	; 0x29
    36a8:	d4700003 	ldrbtle	r0, [r0], #-3
	...
    36b4:	00000200 	andeq	r0, r0, r0, lsl #4
    36b8:	00218000 	eoreq	r8, r1, r0
    36bc:	002194c2 	eoreq	r9, r1, r2, asr #9
    36c0:	300002c2 	andcc	r0, r0, r2, asr #5
    36c4:	0021949f 	mlaeq	r1, pc, r4, r9	; <UNPREDICTABLE>
    36c8:	0021a4c2 	eoreq	sl, r1, r2, asr #9
    36cc:	530001c2 	movwpl	r0, #450	; 0x1c2
	...
    36d8:	c2002108 	andgt	r2, r0, #8, 2
    36dc:	c200210c 	andgt	r2, r0, #12, 2
    36e0:	007d0002 	rsbseq	r0, sp, r2
    36e4:	c200210c 	andgt	r2, r0, #12, 2
    36e8:	c2002180 	andgt	r2, r0, #128, 2
    36ec:	107d0002 	rsbsne	r0, sp, r2
	...
    36fc:	c2002108 	andgt	r2, r0, #8, 2
    3700:	c200211c 	andgt	r2, r0, #28, 2
    3704:	1c500001 	mrrcne	0, 0, r0, r0, cr1	; <UNPREDICTABLE>
    3708:	80c20021 	sbchi	r0, r2, r1, lsr #32
    370c:	01c20021 	biceq	r0, r2, r1, lsr #32
    3710:	00005400 	andeq	r5, r0, r0, lsl #8
	...
    3720:	c2002108 	andgt	r2, r0, #8, 2
    3724:	c200215c 	andgt	r2, r0, #92, 2
    3728:	5c510001 	mrrcpl	0, 0, r0, r1, cr1
    372c:	78c20021 	stmiavc	r2, {r0, r5}^
    3730:	01c20021 	biceq	r0, r2, r1, lsr #32
    3734:	21785600 	cmncs	r8, r0, lsl #12
    3738:	2180c200 	orrcs	ip, r0, r0, lsl #4
    373c:	0001c200 	andeq	ip, r1, r0, lsl #4
    3740:	00000051 	andeq	r0, r0, r1, asr r0
	...
    374c:	08000000 	stmdaeq	r0, {}	; <UNPREDICTABLE>
    3750:	64c20021 	strbvs	r0, [r2], #33	; 0x21
    3754:	01c20021 	biceq	r0, r2, r1, lsr #32
    3758:	21645200 	cmncs	r4, r0, lsl #4
    375c:	2178c200 	cmncs	r8, r0, lsl #4
    3760:	0001c200 	andeq	ip, r1, r0, lsl #4
    3764:	00217855 	eoreq	r7, r1, r5, asr r8
    3768:	002180c2 	eoreq	r8, r1, r2, asr #1
    376c:	520001c2 	andpl	r0, r0, #-2147483600	; 0x80000030
	...
    3778:	21300000 	teqcs	r0, r0
    377c:	2160c200 	cmncs	r0, r0, lsl #4
    3780:	0001c200 	andeq	ip, r1, r0, lsl #4
    3784:	00000053 	andeq	r0, r0, r3, asr r0
    3788:	00000000 	andeq	r0, r0, r0
    378c:	00256000 	eoreq	r6, r5, r0
    3790:	002564c2 	eoreq	r6, r5, r2, asr #9
    3794:	7d0002c2 	sfmvc	f0, 4, [r0, #-776]	; 0xfffffcf8
    3798:	00256400 	eoreq	r6, r5, r0, lsl #8
    379c:	002588c2 	eoreq	r8, r5, r2, asr #17
    37a0:	7d0002c2 	sfmvc	f0, 4, [r0, #-776]	; 0xfffffcf8
    37a4:	00000008 	andeq	r0, r0, r8
	...
    37b4:	7d000200 	sfmvc	f0, 4, [r0, #-0]
	...
    37c0:	7d000200 	sfmvc	f0, 4, [r0, #-0]
    37c4:	00000008 	andeq	r0, r0, r8
	...
    37d8:	50000100 	andpl	r0, r0, r0, lsl #2
	...
    37e4:	00540001 	subseq	r0, r4, r1
    37e8:	00000000 	andeq	r0, r0, r0
    37ec:	54000000 	strpl	r0, [r0], #-0
    37f0:	58c20025 	stmiapl	r2, {r0, r2, r5}^
    37f4:	02c20025 	sbceq	r0, r2, #37	; 0x25
    37f8:	58007d00 	stmdapl	r0, {r8, sl, fp, ip, sp, lr}
    37fc:	60c20025 	sbcvs	r0, r2, r5, lsr #32
    3800:	02c20025 	sbceq	r0, r2, #37	; 0x25
    3804:	00087d00 	andeq	r7, r8, r0, lsl #26
    3808:	00000000 	andeq	r0, r0, r0
    380c:	d8000000 	stmdale	r0, {}	; <UNPREDICTABLE>
    3810:	dcc20023 	stclle	0, cr0, [r2], {35}	; 0x23
    3814:	02c20023 	sbceq	r0, r2, #35	; 0x23
    3818:	dc007d00 	stcle	13, cr7, [r0], {-0}
    381c:	3cc20023 	stclcc	0, cr0, [r2], {35}	; 0x23
    3820:	02c20025 	sbceq	r0, r2, #37	; 0x25
    3824:	00087d00 	andeq	r7, r8, r0, lsl #26
    3828:	00000000 	andeq	r0, r0, r0
    382c:	01000000 	mrseq	r0, (UNDEF: 0)
    3830:	01000000 	mrseq	r0, (UNDEF: 0)
    3834:	01000100 	mrseq	r0, (UNDEF: 16)
    3838:	f8000000 			; <UNDEFINED> instruction: 0xf8000000
    383c:	04c20023 	strbeq	r0, [r2], #35	; 0x23
    3840:	02c20024 	sbceq	r0, r2, #36	; 0x24
    3844:	1c9f3000 	ldcne	0, cr3, [pc], {0}
    3848:	34c20024 	strbcc	r0, [r2], #36	; 0x24
    384c:	01c20024 	biceq	r0, r2, r4, lsr #32
    3850:	24745000 	ldrbtcs	r5, [r4], #-0
    3854:	2488c200 	strcs	ip, [r8], #512	; 0x200
    3858:	0002c200 	andeq	ip, r2, r0, lsl #4
    385c:	24949f30 	ldrcs	r9, [r4], #3888	; 0xf30
    3860:	24a8c200 	strtcs	ip, [r8], #512	; 0x200
    3864:	0002c200 	andeq	ip, r2, r0, lsl #4
    3868:	24c49f30 	strbcs	r9, [r4], #3888	; 0xf30
    386c:	24e8c200 	strbtcs	ip, [r8], #512	; 0x200
    3870:	0002c200 	andeq	ip, r2, r0, lsl #4
    3874:	24fc9f39 	ldrbtcs	r9, [ip], #3897	; 0xf39
    3878:	2520c200 	strcs	ip, [r0, #-512]!	; 0xfffffe00
    387c:	0001c200 	andeq	ip, r1, r0, lsl #4
    3880:	0000005c 	andeq	r0, r0, ip, asr r0
    3884:	00000000 	andeq	r0, r0, r0
    3888:	00000200 	andeq	r0, r0, r0, lsl #4
    388c:	00000000 	andeq	r0, r0, r0
    3890:	f8000000 			; <UNDEFINED> instruction: 0xf8000000
    3894:	04c20023 	strbeq	r0, [r2], #35	; 0x23
    3898:	02c20024 	sbceq	r0, r2, #36	; 0x24
    389c:	049f3000 	ldreq	r3, [pc], #0	; 38a4 <SYS_MODE+0x3885>
    38a0:	48c20024 	stmiami	r2, {r2, r5}^
    38a4:	01c20024 	biceq	r0, r2, r4, lsr #32
    38a8:	24585200 	ldrbcs	r5, [r8], #-512	; 0xfffffe00
    38ac:	2488c200 	strcs	ip, [r8], #512	; 0x200
    38b0:	0001c200 	andeq	ip, r1, r0, lsl #4
    38b4:	00248852 	eoreq	r8, r4, r2, asr r8
    38b8:	0024c0c2 	eoreq	ip, r4, r2, asr #1
    38bc:	510001c2 	smlabtpl	r0, r2, r1, r0
    38c0:	c20024c4 	andgt	r2, r0, #196, 8	; 0xc4000000
    38c4:	c20024e8 	andgt	r2, r0, #232, 8	; 0xe8000000
    38c8:	00510001 	subseq	r0, r1, r1
    38cc:	00000000 	andeq	r0, r0, r0
    38d0:	03000000 	movweq	r0, #0
    38d4:	0023f800 	eoreq	pc, r3, r0, lsl #16
    38d8:	002488c2 	eoreq	r8, r4, r2, asr #17
    38dc:	400005c2 	andmi	r0, r0, r2, asr #11
    38e0:	9f1f244b 	svcls	0x001f244b
	...
    38ec:	24880000 	strcs	r0, [r8], #0
    38f0:	24e8c200 	strbtcs	ip, [r8], #512	; 0x200
    38f4:	0001c200 	andeq	ip, r1, r0, lsl #4
    38f8:	0000005c 	andeq	r0, r0, ip, asr r0
    38fc:	00000000 	andeq	r0, r0, r0
    3900:	e8000000 	stmda	r0, {}	; <UNPREDICTABLE>
    3904:	3cc20024 	stclcc	0, cr0, [r2], {36}	; 0x24
    3908:	01c20025 	biceq	r0, r2, r5, lsr #32
    390c:	00005100 	andeq	r5, r0, r0, lsl #2
    3910:	00000000 	andeq	r0, r0, r0
    3914:	00050000 	andeq	r0, r5, r0
    3918:	00000000 	andeq	r0, r0, r0
    391c:	c20023f8 	andgt	r2, r0, #248, 6	; 0xe0000003
    3920:	c2002404 	andgt	r2, r0, #4, 8	; 0x4000000
    3924:	9f300002 	svcls	0x00300002
    3928:	c2002404 	andgt	r2, r0, #4, 8	; 0x4000000
    392c:	c2002454 	andgt	r2, r0, #84, 8	; 0x54000000
    3930:	58510001 	ldmdapl	r1, {r0}^
    3934:	88c20024 	stmiahi	r2, {r2, r5}^
    3938:	01c20024 	biceq	r0, r2, r4, lsr #32
    393c:	00005100 	andeq	r5, r0, r0, lsl #2
	...
    3948:	c2002488 	andgt	r2, r0, #136, 8	; 0x88000000
    394c:	c20024e8 	andgt	r2, r0, #232, 8	; 0xe8000000
    3950:	00520001 	subseq	r0, r2, r1
	...
    395c:	0024e800 	eoreq	lr, r4, r0, lsl #16
    3960:	00253cc2 	eoreq	r3, r5, r2, asr #25
    3964:	500001c2 	andpl	r0, r0, r2, asr #3
	...
    3970:	c200253c 	andgt	r2, r0, #60, 10	; 0xf000000
    3974:	c2002540 	andgt	r2, r0, #64, 10	; 0x10000000
    3978:	007d0002 	rsbseq	r0, sp, r2
    397c:	c2002540 	andgt	r2, r0, #64, 10	; 0x10000000
    3980:	c2002554 	andgt	r2, r0, #84, 10	; 0x15000000
    3984:	087d0002 	ldmdaeq	sp!, {r1}^
	...
    3994:	c200253c 	andgt	r2, r0, #60, 10	; 0xf000000
    3998:	c2002548 	andgt	r2, r0, #72, 10	; 0x12000000
    399c:	48500001 	ldmdami	r0, {r0}^
    39a0:	54c20025 	strbpl	r0, [r2], #37	; 0x25
    39a4:	04c20025 	strbeq	r0, [r2], #37	; 0x25
    39a8:	5001f300 	andpl	pc, r1, r0, lsl #6
    39ac:	0000009f 	muleq	r0, pc, r0	; <UNPREDICTABLE>
	...
    39bc:	7d000200 	sfmvc	f0, 4, [r0, #-0]
	...
    39c8:	7d000200 	sfmvc	f0, 4, [r0, #-0]
    39cc:	00000008 	andeq	r0, r0, r8
	...
    39e0:	50000100 	andpl	r0, r0, r0, lsl #2
	...
    39ec:	01f30004 	mvnseq	r0, r4
    39f0:	00009f50 	andeq	r9, r0, r0, asr pc
	...
    3a00:	00020000 	andeq	r0, r2, r0
    3a04:	0000007d 	andeq	r0, r0, sp, ror r0
    3a08:	00000000 	andeq	r0, r0, r0
    3a0c:	00020000 	andeq	r0, r2, r0
    3a10:	0000087d 	andeq	r0, r0, sp, ror r8
	...
    3a24:	00010000 	andeq	r0, r1, r0
    3a28:	00000050 	andeq	r0, r0, r0, asr r0
    3a2c:	00000000 	andeq	r0, r0, r0
    3a30:	f3000400 	vshl.u8	d0, d0, d0
    3a34:	009f5001 	addseq	r5, pc, r1
	...
    3a44:	02000000 	andeq	r0, r0, #0
    3a48:	00007d00 	andeq	r7, r0, r0, lsl #26
    3a4c:	00000000 	andeq	r0, r0, r0
    3a50:	02000000 	andeq	r0, r0, #0
    3a54:	00087d00 	andeq	r7, r8, r0, lsl #26
	...
    3a68:	01000000 	mrseq	r0, (UNDEF: 0)
    3a6c:	00005000 	andeq	r5, r0, r0
    3a70:	00000000 	andeq	r0, r0, r0
    3a74:	00040000 	andeq	r0, r4, r0
    3a78:	9f5001f3 	svcls	0x005001f3
	...

Disassembly of section .debug_aranges:

00000000 <.debug_aranges>:
   0:	00000054 	andeq	r0, r0, r4, asr r0
   4:	00000002 	andeq	r0, r0, r2
   8:	00040000 	andeq	r0, r4, r0
	...
  14:	00000020 	andeq	r0, r0, r0, lsr #32
  18:	00000000 	andeq	r0, r0, r0
  1c:	00000024 	andeq	r0, r0, r4, lsr #32
  20:	00000000 	andeq	r0, r0, r0
  24:	00000030 	andeq	r0, r0, r0, lsr r0
  28:	00000000 	andeq	r0, r0, r0
  2c:	00000020 	andeq	r0, r0, r0, lsr #32
  30:	c20006e0 	andgt	r0, r0, #224, 12	; 0xe000000
  34:	00000020 	andeq	r0, r0, r0, lsr #32
  38:	00000000 	andeq	r0, r0, r0
  3c:	00000024 	andeq	r0, r0, r4, lsr #32
  40:	00000000 	andeq	r0, r0, r0
  44:	00000054 	andeq	r0, r0, r4, asr r0
  48:	00000000 	andeq	r0, r0, r0
  4c:	00000034 	andeq	r0, r0, r4, lsr r0
	...
  58:	000000a4 	andeq	r0, r0, r4, lsr #1
  5c:	03f40002 	mvnseq	r0, #2
  60:	00040000 	andeq	r0, r4, r0
	...
  6c:	0000000c 	andeq	r0, r0, ip
  70:	c2000700 	andgt	r0, r0, #0, 14
  74:	00000004 	andeq	r0, r0, r4
  78:	00000000 	andeq	r0, r0, r0
  7c:	0000001c 	andeq	r0, r0, ip, lsl r0
  80:	c2000704 	andgt	r0, r0, #4, 14	; 0x100000
  84:	00000040 	andeq	r0, r0, r0, asr #32
  88:	c2000744 	andgt	r0, r0, #68, 14	; 0x1100000
  8c:	000000cc 	andeq	r0, r0, ip, asr #1
  90:	c2000810 	andgt	r0, r0, #16, 16	; 0x100000
  94:	000001b4 			; <UNDEFINED> instruction: 0x000001b4
  98:	c20009c4 	andgt	r0, r0, #196, 18	; 0x310000
  9c:	00000118 	andeq	r0, r0, r8, lsl r1
  a0:	c2000adc 	andgt	r0, r0, #220, 20	; 0xdc000
  a4:	0000013c 	andeq	r0, r0, ip, lsr r1
  a8:	c2000c18 	andgt	r0, r0, #24, 24	; 0x1800
  ac:	00000380 	andeq	r0, r0, r0, lsl #7
  b0:	c2000f98 	andgt	r0, r0, #152, 30	; 0x260
  b4:	00000418 	andeq	r0, r0, r8, lsl r4
  b8:	c20013b0 	andgt	r1, r0, #176, 6	; 0xc0000002
  bc:	00000b48 	andeq	r0, r0, r8, asr #22
  c0:	c2001ef8 	andgt	r1, r0, #248, 28	; 0xf80
  c4:	00000014 	andeq	r0, r0, r4, lsl r0
  c8:	c2001f0c 	andgt	r1, r0, #12, 30	; 0x30
  cc:	00000040 	andeq	r0, r0, r0, asr #32
  d0:	00000000 	andeq	r0, r0, r0
  d4:	00000040 	andeq	r0, r0, r0, asr #32
  d8:	00000000 	andeq	r0, r0, r0
  dc:	00000040 	andeq	r0, r0, r0, asr #32
  e0:	00000000 	andeq	r0, r0, r0
  e4:	0000002c 	andeq	r0, r0, ip, lsr #32
  e8:	00000000 	andeq	r0, r0, r0
  ec:	0000002c 	andeq	r0, r0, ip, lsr #32
  f0:	00000000 	andeq	r0, r0, r0
  f4:	00000048 	andeq	r0, r0, r8, asr #32
	...
 100:	0000001c 	andeq	r0, r0, ip, lsl r0
 104:	1c1f0002 	ldcne	0, cr0, [pc], {2}
 108:	00040000 	andeq	r0, r4, r0
 10c:	00000000 	andeq	r0, r0, r0
 110:	c20000f4 	andgt	r0, r0, #244	; 0xf4
 114:	00000078 	andeq	r0, r0, r8, ror r0
	...
 120:	0000001c 	andeq	r0, r0, ip, lsl r0
 124:	1c450002 	mcrrne	0, 0, r0, r5, cr2
 128:	00040000 	andeq	r0, r4, r0
 12c:	00000000 	andeq	r0, r0, r0
 130:	c200016c 	andgt	r0, r0, #108, 2
 134:	00000334 	andeq	r0, r0, r4, lsr r3
	...
 140:	0000002c 	andeq	r0, r0, ip, lsr #32
 144:	1c6b0002 	stclne	0, cr0, [fp], #-8
 148:	00040000 	andeq	r0, r4, r0
 14c:	00000000 	andeq	r0, r0, r0
 150:	c2001f4c 	andgt	r1, r0, #76, 30	; 0x130
 154:	00000010 	andeq	r0, r0, r0, lsl r0
 158:	00000000 	andeq	r0, r0, r0
 15c:	00000008 	andeq	r0, r0, r8
 160:	00000000 	andeq	r0, r0, r0
 164:	0000009c 	muleq	r0, ip, r0
	...
 170:	0000001c 	andeq	r0, r0, ip, lsl r0
 174:	1dbb0002 	ldcne	0, cr0, [fp, #8]!
 178:	00040000 	andeq	r0, r4, r0
 17c:	00000000 	andeq	r0, r0, r0
 180:	c20004a0 	andgt	r0, r0, #160, 8	; 0xa0000000
 184:	00000018 	andeq	r0, r0, r8, lsl r0
	...
 190:	0000001c 	andeq	r0, r0, ip, lsl r0
 194:	1de10002 	stclne	0, cr0, [r1, #8]!
 198:	00040000 	andeq	r0, r4, r0
 19c:	00000000 	andeq	r0, r0, r0
 1a0:	c20004b8 	andgt	r0, r0, #184, 8	; 0xb8000000
 1a4:	00000044 	andeq	r0, r0, r4, asr #32
	...
 1b0:	0000001c 	andeq	r0, r0, ip, lsl r0
 1b4:	1e070002 	cdpne	0, 0, cr0, cr7, cr2, {0}
 1b8:	00040000 	andeq	r0, r4, r0
 1bc:	00000000 	andeq	r0, r0, r0
 1c0:	c2001f5c 	andgt	r1, r0, #92, 30	; 0x170
 1c4:	00000070 	andeq	r0, r0, r0, ror r0
	...
 1d0:	0000003c 	andeq	r0, r0, ip, lsr r0
 1d4:	206e0002 	rsbcs	r0, lr, r2
 1d8:	00040000 	andeq	r0, r4, r0
 1dc:	00000000 	andeq	r0, r0, r0
 1e0:	c2001fcc 	andgt	r1, r0, #204, 30	; 0x330
 1e4:	00000004 	andeq	r0, r0, r4
 1e8:	c2001fd0 	andgt	r1, r0, #208, 30	; 0x340
 1ec:	00000028 	andeq	r0, r0, r8, lsr #32
 1f0:	c2001ff8 	andgt	r1, r0, #248, 30	; 0x3e0
 1f4:	00000040 	andeq	r0, r0, r0, asr #32
 1f8:	00000000 	andeq	r0, r0, r0
 1fc:	00000040 	andeq	r0, r0, r0, asr #32
 200:	00000000 	andeq	r0, r0, r0
 204:	00000030 	andeq	r0, r0, r0, lsr r0
	...
 210:	0000001c 	andeq	r0, r0, ip, lsl r0
 214:	23220002 			; <UNDEFINED> instruction: 0x23220002
 218:	00040000 	andeq	r0, r4, r0
 21c:	00000000 	andeq	r0, r0, r0
 220:	c20004fc 	andgt	r0, r0, #252, 8	; 0xfc000000
 224:	00000048 	andeq	r0, r0, r8, asr #32
	...
 230:	0000001c 	andeq	r0, r0, ip, lsl r0
 234:	23480002 	movtcs	r0, #32770	; 0x8002
 238:	00040000 	andeq	r0, r4, r0
 23c:	00000000 	andeq	r0, r0, r0
 240:	c2000544 	andgt	r0, r0, #68, 10	; 0x11000000
 244:	00000050 	andeq	r0, r0, r0, asr r0
	...
 250:	0000001c 	andeq	r0, r0, ip, lsl r0
 254:	236e0002 	cmncs	lr, #2
 258:	00040000 	andeq	r0, r4, r0
 25c:	00000000 	andeq	r0, r0, r0
 260:	c2000594 	andgt	r0, r0, #148, 10	; 0x25000000
 264:	0000014c 	andeq	r0, r0, ip, asr #2
	...
 270:	0000001c 	andeq	r0, r0, ip, lsl r0
 274:	23940002 	orrscs	r0, r4, #2
 278:	00040000 	andeq	r0, r4, r0
 27c:	00000000 	andeq	r0, r0, r0
 280:	c200005c 	andgt	r0, r0, #92	; 0x5c
 284:	00000098 	muleq	r0, r8, r0
	...
 290:	0000001c 	andeq	r0, r0, ip, lsl r0
 294:	23ba0002 			; <UNDEFINED> instruction: 0x23ba0002
 298:	00040000 	andeq	r0, r4, r0
 29c:	00000000 	andeq	r0, r0, r0
 2a0:	c2000000 	andgt	r0, r0, #0
 2a4:	0000005c 	andeq	r0, r0, ip, asr r0
	...
 2b0:	00000044 	andeq	r0, r0, r4, asr #32
 2b4:	23e00002 	mvncs	r0, #2
 2b8:	00040000 	andeq	r0, r4, r0
 2bc:	00000000 	andeq	r0, r0, r0
 2c0:	c2002038 	andgt	r2, r0, #56	; 0x38
 2c4:	00000038 	andeq	r0, r0, r8, lsr r0
 2c8:	00000000 	andeq	r0, r0, r0
 2cc:	00000028 	andeq	r0, r0, r8, lsr #32
 2d0:	00000000 	andeq	r0, r0, r0
 2d4:	00000028 	andeq	r0, r0, r8, lsr #32
 2d8:	00000000 	andeq	r0, r0, r0
 2dc:	00000028 	andeq	r0, r0, r8, lsr #32
 2e0:	c2002070 	andgt	r2, r0, #112	; 0x70
 2e4:	00000028 	andeq	r0, r0, r8, lsr #32
 2e8:	00000000 	andeq	r0, r0, r0
 2ec:	00000028 	andeq	r0, r0, r8, lsr #32
	...
 2f8:	0000001c 	andeq	r0, r0, ip, lsl r0
 2fc:	26340002 	ldrtcs	r0, [r4], -r2
 300:	00040000 	andeq	r0, r4, r0
 304:	00000000 	andeq	r0, r0, r0
 308:	c2002098 	andgt	r2, r0, #152	; 0x98
 30c:	00000070 	andeq	r0, r0, r0, ror r0
	...
 318:	00000044 	andeq	r0, r0, r4, asr #32
 31c:	265a0002 	ldrbcs	r0, [sl], -r2
 320:	00040000 	andeq	r0, r4, r0
 324:	00000000 	andeq	r0, r0, r0
 328:	c2002108 	andgt	r2, r0, #8, 2
 32c:	00000078 	andeq	r0, r0, r8, ror r0
 330:	c2002180 	andgt	r2, r0, #128, 2
 334:	00000024 	andeq	r0, r0, r4, lsr #32
 338:	c20021a4 	andgt	r2, r0, #164, 2	; 0x29
 33c:	000000dc 	ldrdeq	r0, [r0], -ip
 340:	c2002280 	andgt	r2, r0, #128, 4
 344:	00000114 	andeq	r0, r0, r4, lsl r1
 348:	c2002394 	andgt	r2, r0, #148, 6	; 0x50000002
 34c:	00000030 	andeq	r0, r0, r0, lsr r0
 350:	c20023c4 	andgt	r2, r0, #196, 6	; 0x10000003
 354:	00000014 	andeq	r0, r0, r4, lsl r0
	...
 360:	0000003c 	andeq	r0, r0, ip, lsr r0
 364:	2b940002 	blcs	fe500374 <_stack_end+0x3c4f9374>
 368:	00040000 	andeq	r0, r4, r0
 36c:	00000000 	andeq	r0, r0, r0
 370:	c20023d8 	andgt	r2, r0, #216, 6	; 0x60000003
 374:	00000164 	andeq	r0, r0, r4, ror #2
 378:	c200253c 	andgt	r2, r0, #60, 10	; 0xf000000
 37c:	00000018 	andeq	r0, r0, r8, lsl r0
 380:	c2002554 	andgt	r2, r0, #84, 10	; 0x15000000
 384:	0000000c 	andeq	r0, r0, ip
 388:	00000000 	andeq	r0, r0, r0
 38c:	00000070 	andeq	r0, r0, r0, ror r0
 390:	c2002560 	andgt	r2, r0, #96, 10	; 0x18000000
 394:	00000028 	andeq	r0, r0, r8, lsr #32
	...
 3a0:	00000034 	andeq	r0, r0, r4, lsr r0
 3a4:	31150002 	tstcc	r5, r2
 3a8:	00040000 	andeq	r0, r4, r0
	...
 3b4:	00000014 	andeq	r0, r0, r4, lsl r0
 3b8:	00000000 	andeq	r0, r0, r0
 3bc:	00000018 	andeq	r0, r0, r8, lsl r0
 3c0:	00000000 	andeq	r0, r0, r0
 3c4:	00000014 	andeq	r0, r0, r4, lsl r0
 3c8:	c2002588 	andgt	r2, r0, #136, 10	; 0x22000000
 3cc:	00000008 	andeq	r0, r0, r8
	...

Disassembly of section .debug_ranges:

00000000 <.debug_ranges>:
   0:	00000001 	andeq	r0, r0, r1
   4:	00000001 	andeq	r0, r0, r1
   8:	00000001 	andeq	r0, r0, r1
   c:	00000001 	andeq	r0, r0, r1
  10:	00000001 	andeq	r0, r0, r1
  14:	00000001 	andeq	r0, r0, r1
  18:	00000001 	andeq	r0, r0, r1
  1c:	00000001 	andeq	r0, r0, r1
  20:	c20006e0 	andgt	r0, r0, #224, 12	; 0xe000000
  24:	c2000700 	andgt	r0, r0, #0, 14
  28:	00000001 	andeq	r0, r0, r1
  2c:	00000001 	andeq	r0, r0, r1
  30:	00000001 	andeq	r0, r0, r1
  34:	00000001 	andeq	r0, r0, r1
  38:	00000001 	andeq	r0, r0, r1
  3c:	00000001 	andeq	r0, r0, r1
	...
  48:	c2000774 	andgt	r0, r0, #116, 14	; 0x1d00000
  4c:	c2000778 	andgt	r0, r0, #120, 14	; 0x1e00000
  50:	c200077c 	andgt	r0, r0, #124, 14	; 0x1f00000
  54:	c20007ac 	andgt	r0, r0, #172, 14	; 0x2b00000
	...
  60:	c2000a08 	andgt	r0, r0, #8, 20	; 0x8000
  64:	c2000a2c 	andgt	r0, r0, #44, 20	; 0x2c000
  68:	c2000a48 	andgt	r0, r0, #72, 20	; 0x48000
  6c:	c2000a50 	andgt	r0, r0, #80, 20	; 0x50000
  70:	c2000a50 	andgt	r0, r0, #80, 20	; 0x50000
  74:	c2000a90 	andgt	r0, r0, #144, 20	; 0x90000
	...
  80:	c2000b28 	andgt	r0, r0, #40, 22	; 0xa000
  84:	c2000b54 	andgt	r0, r0, #84, 22	; 0x15000
  88:	c2000b78 	andgt	r0, r0, #120, 22	; 0x1e000
  8c:	c2000b84 	andgt	r0, r0, #132, 22	; 0x21000
  90:	c2000b84 	andgt	r0, r0, #132, 22	; 0x21000
  94:	c2000bcc 	andgt	r0, r0, #204, 22	; 0x33000
	...
  a0:	c20011c4 	andgt	r1, r0, #196, 2	; 0x31
  a4:	c200125c 	andgt	r1, r0, #92, 4	; 0xc0000005
  a8:	c20012a8 	andgt	r1, r0, #168, 4	; 0x8000000a
  ac:	c20012b0 	andgt	r1, r0, #176, 4
	...
  b8:	c20013cc 	andgt	r1, r0, #204, 6	; 0x30000003
  bc:	c20013d0 	andgt	r1, r0, #208, 6	; 0x40000003
  c0:	c2001bf4 	andgt	r1, r0, #244, 22	; 0x3d000
  c4:	c2001cbc 	andgt	r1, r0, #188, 24	; 0xbc00
	...
  d0:	c2001860 	andgt	r1, r0, #96, 16	; 0x600000
  d4:	c20018b8 	andgt	r1, r0, #184, 16	; 0xb80000
  d8:	c20019ac 	andgt	r1, r0, #172, 18	; 0x2b0000
  dc:	c20019dc 	andgt	r1, r0, #220, 18	; 0x370000
	...
  e8:	c20019ec 	andgt	r1, r0, #236, 18	; 0x3b0000
  ec:	c2001a40 	andgt	r1, r0, #64, 20	; 0x40000
  f0:	c2001ae4 	andgt	r1, r0, #228, 20	; 0xe4000
  f4:	c2001b14 	andgt	r1, r0, #20, 22	; 0x5000
	...
 100:	00000001 	andeq	r0, r0, r1
 104:	00000001 	andeq	r0, r0, r1
 108:	c2000700 	andgt	r0, r0, #0, 14
 10c:	c2000704 	andgt	r0, r0, #4, 14	; 0x100000
 110:	00000001 	andeq	r0, r0, r1
 114:	00000001 	andeq	r0, r0, r1
 118:	c2000704 	andgt	r0, r0, #4, 14	; 0x100000
 11c:	c2000744 	andgt	r0, r0, #68, 14	; 0x1100000
 120:	c2000744 	andgt	r0, r0, #68, 14	; 0x1100000
 124:	c2000810 	andgt	r0, r0, #16, 16	; 0x100000
 128:	c2000810 	andgt	r0, r0, #16, 16	; 0x100000
 12c:	c20009c4 	andgt	r0, r0, #196, 18	; 0x310000
 130:	c20009c4 	andgt	r0, r0, #196, 18	; 0x310000
 134:	c2000adc 	andgt	r0, r0, #220, 20	; 0xdc000
 138:	c2000adc 	andgt	r0, r0, #220, 20	; 0xdc000
 13c:	c2000c18 	andgt	r0, r0, #24, 24	; 0x1800
 140:	c2000c18 	andgt	r0, r0, #24, 24	; 0x1800
 144:	c2000f98 	andgt	r0, r0, #152, 30	; 0x260
 148:	c2000f98 	andgt	r0, r0, #152, 30	; 0x260
 14c:	c20013b0 	andgt	r1, r0, #176, 6	; 0xc0000002
 150:	c20013b0 	andgt	r1, r0, #176, 6	; 0xc0000002
 154:	c2001ef8 	andgt	r1, r0, #248, 28	; 0xf80
 158:	c2001ef8 	andgt	r1, r0, #248, 28	; 0xf80
 15c:	c2001f0c 	andgt	r1, r0, #12, 30	; 0x30
 160:	c2001f0c 	andgt	r1, r0, #12, 30	; 0x30
 164:	c2001f4c 	andgt	r1, r0, #76, 30	; 0x130
 168:	00000001 	andeq	r0, r0, r1
 16c:	00000001 	andeq	r0, r0, r1
 170:	00000001 	andeq	r0, r0, r1
 174:	00000001 	andeq	r0, r0, r1
 178:	00000001 	andeq	r0, r0, r1
 17c:	00000001 	andeq	r0, r0, r1
 180:	00000001 	andeq	r0, r0, r1
 184:	00000001 	andeq	r0, r0, r1
 188:	00000001 	andeq	r0, r0, r1
 18c:	00000001 	andeq	r0, r0, r1
	...
 198:	c2001f4c 	andgt	r1, r0, #76, 30	; 0x130
 19c:	c2001f5c 	andgt	r1, r0, #92, 30	; 0x170
 1a0:	00000001 	andeq	r0, r0, r1
 1a4:	00000001 	andeq	r0, r0, r1
 1a8:	00000001 	andeq	r0, r0, r1
 1ac:	00000001 	andeq	r0, r0, r1
	...
 1b8:	c2001f5c 	andgt	r1, r0, #92, 30	; 0x170
 1bc:	c2001fcc 	andgt	r1, r0, #204, 30	; 0x330
	...
 1c8:	c2001fcc 	andgt	r1, r0, #204, 30	; 0x330
 1cc:	c2001fd0 	andgt	r1, r0, #208, 30	; 0x340
 1d0:	c2001fd0 	andgt	r1, r0, #208, 30	; 0x340
 1d4:	c2001ff8 	andgt	r1, r0, #248, 30	; 0x3e0
 1d8:	c2001ff8 	andgt	r1, r0, #248, 30	; 0x3e0
 1dc:	c2002038 	andgt	r2, r0, #56	; 0x38
 1e0:	00000001 	andeq	r0, r0, r1
 1e4:	00000001 	andeq	r0, r0, r1
 1e8:	00000001 	andeq	r0, r0, r1
 1ec:	00000001 	andeq	r0, r0, r1
	...
 1f8:	c2002038 	andgt	r2, r0, #56	; 0x38
 1fc:	c2002070 	andgt	r2, r0, #112	; 0x70
 200:	00000001 	andeq	r0, r0, r1
 204:	00000001 	andeq	r0, r0, r1
 208:	00000001 	andeq	r0, r0, r1
 20c:	00000001 	andeq	r0, r0, r1
 210:	00000001 	andeq	r0, r0, r1
 214:	00000001 	andeq	r0, r0, r1
 218:	c2002070 	andgt	r2, r0, #112	; 0x70
 21c:	c2002098 	andgt	r2, r0, #152	; 0x98
 220:	00000001 	andeq	r0, r0, r1
 224:	00000001 	andeq	r0, r0, r1
	...
 230:	c2002108 	andgt	r2, r0, #8, 2
 234:	c2002180 	andgt	r2, r0, #128, 2
 238:	c2002180 	andgt	r2, r0, #128, 2
 23c:	c20021a4 	andgt	r2, r0, #164, 2	; 0x29
 240:	c20021a4 	andgt	r2, r0, #164, 2	; 0x29
 244:	c2002280 	andgt	r2, r0, #128, 4
 248:	c2002280 	andgt	r2, r0, #128, 4
 24c:	c2002394 	andgt	r2, r0, #148, 6	; 0x50000002
 250:	c2002394 	andgt	r2, r0, #148, 6	; 0x50000002
 254:	c20023c4 	andgt	r2, r0, #196, 6	; 0x10000003
 258:	c20023c4 	andgt	r2, r0, #196, 6	; 0x10000003
 25c:	c20023d8 	andgt	r2, r0, #216, 6	; 0x60000003
	...
 268:	c20023f8 	andgt	r2, r0, #248, 6	; 0xe0000003
 26c:	c20023fc 	andgt	r2, r0, #252, 6	; 0xf0000003
 270:	c2002400 	andgt	r2, r0, #0, 8
 274:	c2002444 	andgt	r2, r0, #68, 8	; 0x44000000
 278:	c2002458 	andgt	r2, r0, #88, 8	; 0x58000000
 27c:	c2002488 	andgt	r2, r0, #136, 8	; 0x88000000
	...
 288:	c2002444 	andgt	r2, r0, #68, 8	; 0x44000000
 28c:	c2002448 	andgt	r2, r0, #72, 8	; 0x48000000
 290:	c2002488 	andgt	r2, r0, #136, 8	; 0x88000000
 294:	c20024b8 	andgt	r2, r0, #184, 8	; 0xb8000000
 298:	c20024c4 	andgt	r2, r0, #196, 8	; 0xc4000000
 29c:	c20024e8 	andgt	r2, r0, #232, 8	; 0xe8000000
	...
 2a8:	c20024b8 	andgt	r2, r0, #184, 8	; 0xb8000000
 2ac:	c20024bc 	andgt	r2, r0, #188, 8	; 0xbc000000
 2b0:	c20024e8 	andgt	r2, r0, #232, 8	; 0xe8000000
 2b4:	c200253c 	andgt	r2, r0, #60, 10	; 0xf000000
	...
 2c0:	c20023d8 	andgt	r2, r0, #216, 6	; 0x60000003
 2c4:	c200253c 	andgt	r2, r0, #60, 10	; 0xf000000
 2c8:	c200253c 	andgt	r2, r0, #60, 10	; 0xf000000
 2cc:	c2002554 	andgt	r2, r0, #84, 10	; 0x15000000
 2d0:	c2002554 	andgt	r2, r0, #84, 10	; 0x15000000
 2d4:	c2002560 	andgt	r2, r0, #96, 10	; 0x18000000
 2d8:	00000001 	andeq	r0, r0, r1
 2dc:	00000001 	andeq	r0, r0, r1
 2e0:	c2002560 	andgt	r2, r0, #96, 10	; 0x18000000
 2e4:	c2002588 	andgt	r2, r0, #136, 10	; 0x22000000
	...
 2f0:	00000001 	andeq	r0, r0, r1
 2f4:	00000001 	andeq	r0, r0, r1
 2f8:	00000001 	andeq	r0, r0, r1
 2fc:	00000001 	andeq	r0, r0, r1
 300:	00000001 	andeq	r0, r0, r1
 304:	00000001 	andeq	r0, r0, r1
 308:	c2002588 	andgt	r2, r0, #136, 10	; 0x22000000
 30c:	c2002590 	andgt	r2, r0, #144, 10	; 0x24000000
	...

Disassembly of section .debug_line:

00000000 <.debug_line>:
       0:	000002df 	ldrdeq	r0, [r0], -pc	; <UNPREDICTABLE>
       4:	00b30003 	adcseq	r0, r3, r3
       8:	01020000 	mrseq	r0, (UNDEF: 2)
       c:	000d0efb 	strdeq	r0, [sp], -fp
      10:	01010101 	tsteq	r1, r1, lsl #2
      14:	01000000 	mrseq	r0, (UNDEF: 0)
      18:	2f010000 	svccs	0x00010000
      1c:	656d6f68 	strbvs	r6, [sp, #-3944]!	; 0xfffff098
      20:	6c7a632f 	ldclvs	3, cr6, [sl], #-188	; 0xffffff44
      24:	2f786d69 	svccs	0x00786d69
      28:	65646f63 	strbvs	r6, [r4, #-3939]!	; 0xfffff09d
      2c:	63617073 	cmnvs	r1, #115	; 0x73
      30:	65742f65 	ldrbvs	r2, [r4, #-3941]!	; 0xfffff09b
      34:	622f706d 	eorvs	r7, pc, #109	; 0x6d
      38:	6d657261 	sfmvs	f7, 2, [r5, #-388]!	; 0xfffffe7c
      3c:	6c617465 	cfstrdvs	mvd7, [r1], #-404	; 0xfffffe6c
      40:	726f665f 	rsbvc	r6, pc, #99614720	; 0x5f00000
      44:	632f635f 			; <UNDEFINED> instruction: 0x632f635f
      48:	2f65646f 	svccs	0x0065646f
      4c:	6362696c 	cmnvs	r2, #108, 18	; 0x1b0000
      50:	6372732f 	cmnvs	r2, #-1140850688	; 0xbc000000
      54:	6f682f00 	svcvs	0x00682f00
      58:	632f656d 			; <UNDEFINED> instruction: 0x632f656d
      5c:	6d696c7a 	stclvs	12, cr6, [r9, #-488]!	; 0xfffffe18
      60:	6f632f78 	svcvs	0x00632f78
      64:	70736564 	rsbsvc	r6, r3, r4, ror #10
      68:	2f656361 	svccs	0x00656361
      6c:	706d6574 	rsbvc	r6, sp, r4, ror r5
      70:	7261622f 	rsbvc	r6, r1, #-268435454	; 0xf0000002
      74:	74656d65 	strbtvc	r6, [r5], #-3429	; 0xfffff29b
      78:	665f6c61 	ldrbvs	r6, [pc], -r1, ror #24
      7c:	635f726f 	cmpvs	pc, #-268435450	; 0xf0000006
      80:	646f632f 	strbtvs	r6, [pc], #-815	; 88 <SYS_MODE+0x69>
      84:	72612f65 	rsbvc	r2, r1, #404	; 0x194
      88:	612f6863 			; <UNDEFINED> instruction: 0x612f6863
      8c:	37766d72 			; <UNDEFINED> instruction: 0x37766d72
      90:	692f612d 	stmdbvs	pc!, {r0, r2, r3, r5, r8, sp, lr}	; <UNPREDICTABLE>
      94:	0000636e 	andeq	r6, r0, lr, ror #6
      98:	6362696c 	cmnvs	r2, #108, 18	; 0x1b0000
      9c:	6d656d5f 	stclvs	13, cr6, [r5, #-380]!	; 0xfffffe84
      a0:	2e79726f 	cdpcs	2, 7, cr7, cr9, cr15, {3}
      a4:	00010063 	andeq	r0, r1, r3, rrx
      a8:	63726100 	cmnvs	r2, #0, 2
      ac:	6f635f68 	svcvs	0x00635f68
      b0:	6c69706d 	stclvs	0, cr7, [r9], #-436	; 0xfffffe4c
      b4:	682e7265 	stmdavs	lr!, {r0, r2, r5, r6, r9, ip, sp, lr}
      b8:	00000200 	andeq	r0, r0, r0, lsl #4
      bc:	00010500 	andeq	r0, r1, r0, lsl #10
      c0:	00000205 	andeq	r0, r0, r5, lsl #4
      c4:	051a0000 	ldreq	r0, [sl, #-0]
      c8:	05141302 	ldreq	r1, [r4, #-770]	; 0xfffffcfe
      cc:	05010608 	streq	r0, [r1, #-1544]	; 0xfffff9f8
      d0:	04020010 	streq	r0, [r2], #-16
      d4:	052f0601 	streq	r0, [pc, #-1537]!	; fffffadb <_stack_end+0x3dff8adb>
      d8:	04020008 	streq	r0, [r2], #-8
      dc:	14051101 	strne	r1, [r5], #-257	; 0xfffffeff
      e0:	01040200 	mrseq	r0, R12_usr
      e4:	12050106 	andne	r0, r5, #-2147483647	; 0x80000001
      e8:	01040200 	mrseq	r0, R12_usr
      ec:	0008054a 	andeq	r0, r8, sl, asr #10
      f0:	4a010402 	bmi	41100 <SYS_MODE+0x410e1>
      f4:	01000602 	tsteq	r0, r2, lsl #12
      f8:	00010501 	andeq	r0, r1, r1, lsl #10
      fc:	00000205 	andeq	r0, r0, r5, lsl #4
     100:	1b030000 	blne	c0108 <SYS_MODE+0xc00e9>
     104:	13020501 	movwne	r0, #9473	; 0x2501
     108:	06080514 			; <UNDEFINED> instruction: 0x06080514
     10c:	00100501 	andseq	r0, r0, r1, lsl #10
     110:	06020402 	streq	r0, [r2], -r2, lsl #8
     114:	0008052f 	andeq	r0, r8, pc, lsr #10
     118:	11020402 	tstne	r2, r2, lsl #8
     11c:	02040200 	andeq	r0, r4, #0, 4
     120:	02000106 	andeq	r0, r0, #-2147483647	; 0x80000001
     124:	054a0204 	strbeq	r0, [sl, #-516]	; 0xfffffdfc
     128:	0402001f 	streq	r0, [r2], #-31	; 0xffffffe1
     12c:	1d052e01 	stcne	14, cr2, [r5, #-4]
     130:	01040200 	mrseq	r0, R12_usr
     134:	0011052e 	andseq	r0, r1, lr, lsr #10
     138:	2e010402 	cdpcs	4, 0, cr0, cr1, cr2, {0}
     13c:	01000602 	tsteq	r0, r2, lsl #12
     140:	00010501 	andeq	r0, r1, r1, lsl #10
     144:	00000205 	andeq	r0, r0, r5, lsl #4
     148:	2a030000 	bcs	c0150 <SYS_MODE+0xc0131>
     14c:	05010601 	streq	r0, [r1, #-1537]	; 0xfffff9ff
     150:	142f0602 	strtne	r0, [pc], #-1538	; 158 <SYS_MODE+0x139>
     154:	05130305 	ldreq	r0, [r3, #-773]	; 0xfffffcfb
     158:	05010610 	streq	r0, [r1, #-1552]	; 0xfffff9f0
     15c:	14052e16 	strne	r2, [r5], #-3606	; 0xfffff1ea
     160:	2e0e054a 	cfsh32cs	mvfx0, mvfx14, #42
     164:	052e0605 	streq	r0, [lr, #-1541]!	; 0xfffff9fb
     168:	04020029 	streq	r0, [r2], #-41	; 0xffffffd7
     16c:	22054a01 	andcs	r4, r5, #4096	; 0x1000
     170:	01040200 	mrseq	r0, R12_usr
     174:	0006022e 	andeq	r0, r6, lr, lsr #4
     178:	01050101 	tsteq	r5, r1, lsl #2
     17c:	00020500 	andeq	r0, r2, r0, lsl #10
     180:	03000000 	movweq	r0, #0
     184:	0205013a 	andeq	r0, r5, #-2147483634	; 0x8000000e
     188:	0a051413 	beq	1451dc <SYS_MODE+0x1451bd>
     18c:	02050106 	andeq	r0, r5, #-2147483647	; 0x80000001
     190:	0010052e 	andseq	r0, r0, lr, lsr #10
     194:	06030402 	streq	r0, [r3], -r2, lsl #8
     198:	001c052f 	andseq	r0, ip, pc, lsr #10
     19c:	11030402 	tstne	r3, r2, lsl #8
     1a0:	02000f05 	andeq	r0, r0, #5, 30
     1a4:	052e0104 	streq	r0, [lr, #-260]!	; 0xfffffefc
     1a8:	04020002 	streq	r0, [r2], #-2
     1ac:	062e0601 	strteq	r0, [lr], -r1, lsl #12
     1b0:	0601054c 	streq	r0, [r1], -ip, asr #10
     1b4:	02022e13 	andeq	r2, r2, #304	; 0x130
     1b8:	05010100 	streq	r0, [r1, #-256]	; 0xffffff00
     1bc:	02050001 	andeq	r0, r5, #1
     1c0:	c20006e0 	andgt	r0, r0, #224, 12	; 0xe000000
     1c4:	0100cb03 	tsteq	r0, r3, lsl #22
     1c8:	14130205 	ldrne	r0, [r3], #-517	; 0xfffffdfb
     1cc:	10060805 	andne	r0, r6, r5, lsl #16
     1d0:	06030530 			; <UNDEFINED> instruction: 0x06030530
     1d4:	0609052f 	streq	r0, [r9], -pc, lsr #10
     1d8:	2d0e0501 	cfstr32cs	mvfx0, [lr, #-4]
     1dc:	2e060805 	cdpcs	8, 0, cr0, cr6, cr5, {0}
     1e0:	01060e05 	tsteq	r6, r5, lsl #28
     1e4:	4a2e0805 	bmi	b82200 <SYS_MODE+0xb821e1>
     1e8:	01000202 	tsteq	r0, r2, lsl #4
     1ec:	00010501 	andeq	r0, r1, r1, lsl #10
     1f0:	00000205 	andeq	r0, r0, r5, lsl #4
     1f4:	de030000 	cdple	0, 0, cr0, cr3, cr0, {0}
     1f8:	02050100 	andeq	r0, r5, #0, 2
     1fc:	08051413 	stmdaeq	r5, {r0, r1, r4, sl, ip}
     200:	05301006 	ldreq	r1, [r0, #-6]!
     204:	052f0603 	streq	r0, [pc, #-1539]!	; fffffc09 <_stack_end+0x3dff8c09>
     208:	0501060c 	streq	r0, [r1, #-1548]	; 0xfffff9f4
     20c:	0e052e0a 	cdpeq	14, 0, cr2, cr5, cr10, {0}
     210:	0608052d 	streq	r0, [r8], -sp, lsr #10
     214:	060e052e 	streq	r0, [lr], -lr, lsr #10
     218:	2e080501 	cfsh32cs	mvfx0, mvfx8, #1
     21c:	0002024a 	andeq	r0, r2, sl, asr #4
     220:	01050101 	tsteq	r5, r1, lsl #2
     224:	00020500 	andeq	r0, r2, r0, lsl #10
     228:	03000000 	movweq	r0, #0
     22c:	050100f0 	streq	r0, [r1, #-240]	; 0xffffff10
     230:	05141302 	ldreq	r1, [r4, #-770]	; 0xfffffcfe
     234:	05010605 	streq	r0, [r1, #-1541]	; 0xfffff9fb
     238:	05510603 	ldrbeq	r0, [r1, #-1539]	; 0xfffff9fd
     23c:	05010607 	streq	r0, [r1, #-1543]	; 0xfffff9f9
     240:	052f0603 	streq	r0, [pc, #-1539]!	; fffffc45 <_stack_end+0x3dff8c45>
     244:	05010605 	streq	r0, [r1, #-1541]	; 0xfffff9fb
     248:	052f0603 	streq	r0, [pc, #-1539]!	; fffffc4d <_stack_end+0x3dff8c4d>
     24c:	05010609 	streq	r0, [r1, #-1545]	; 0xfffff9f7
     250:	05290604 	streq	r0, [r9, #-1540]!	; 0xfffff9fc
     254:	0501060d 	streq	r0, [r1, #-1549]	; 0xfffff9f3
     258:	0f052e0b 	svceq	0x00052e0b
     25c:	0609052d 	streq	r0, [r9], -sp, lsr #10
     260:	060f052e 	streq	r0, [pc], -lr, lsr #10
     264:	2e090501 	cfsh32cs	mvfx0, mvfx9, #1
     268:	05640705 	strbeq	r0, [r4, #-1797]!	; 0xfffff8fb
     26c:	09030604 	stmdbeq	r3, {r2, r9, sl}
     270:	060d054a 	streq	r0, [sp], -sl, asr #10
     274:	2e0b0501 	cfsh32cs	mvfx0, mvfx11, #1
     278:	052d0f05 	streq	r0, [sp, #-3845]!	; 0xfffff0fb
     27c:	052e0609 	streq	r0, [lr, #-1545]!	; 0xfffff9f7
     280:	0501060f 	streq	r0, [r1, #-1551]	; 0xfffff9f1
     284:	024a2e09 	subeq	r2, sl, #9, 28	; 0x90
     288:	01010002 	tsteq	r1, r2
     28c:	05000105 	streq	r0, [r0, #-261]	; 0xfffffefb
     290:	00000002 	andeq	r0, r0, r2
     294:	018a0300 	orreq	r0, sl, r0, lsl #6
     298:	05010601 	streq	r0, [r1, #-1537]	; 0xfffff9ff
     29c:	132f0602 			; <UNDEFINED> instruction: 0x132f0602
     2a0:	06060514 			; <UNDEFINED> instruction: 0x06060514
     2a4:	30020510 	andcc	r0, r2, r0, lsl r5
     2a8:	02005405 	andeq	r5, r0, #83886080	; 0x5000000
     2ac:	2e060204 	cdpcs	2, 0, cr0, cr6, cr4, {0}
     2b0:	02005b05 	andeq	r5, r0, #5120	; 0x1400
     2b4:	2e060204 	cdpcs	2, 0, cr0, cr6, cr4, {0}
     2b8:	02006705 	andeq	r6, r0, #1310720	; 0x140000
     2bc:	052e0204 	streq	r0, [lr, #-516]!	; 0xfffffdfc
     2c0:	04020049 	streq	r0, [r2], #-73	; 0xffffffb7
     2c4:	052e0601 	streq	r0, [lr, #-1537]!	; 0xfffff9ff
     2c8:	04020002 	streq	r0, [r2], #-2
     2cc:	05010601 	streq	r0, [r1, #-1537]	; 0xfffff9ff
     2d0:	054b0603 	strbeq	r0, [fp, #-1539]	; 0xfffff9fd
     2d4:	0501060e 	streq	r0, [r1, #-1550]	; 0xfffff9f2
     2d8:	06052e15 			; <UNDEFINED> instruction: 0x06052e15
     2dc:	04022e2e 	streq	r2, [r2], #-3630	; 0xfffff1d2
     2e0:	35010100 	strcc	r0, [r1, #-256]	; 0xffffff00
     2e4:	03000011 	movweq	r0, #17
     2e8:	00010c00 	andeq	r0, r1, r0, lsl #24
     2ec:	fb010200 	blx	40af6 <SYS_MODE+0x40ad7>
     2f0:	01000d0e 	tsteq	r0, lr, lsl #26
     2f4:	00010101 	andeq	r0, r1, r1, lsl #2
     2f8:	00010000 	andeq	r0, r1, r0
     2fc:	682f0100 	stmdavs	pc!, {r8}	; <UNPREDICTABLE>
     300:	2f656d6f 	svccs	0x00656d6f
     304:	696c7a63 	stmdbvs	ip!, {r0, r1, r5, r6, r9, fp, ip, sp, lr}^
     308:	632f786d 			; <UNDEFINED> instruction: 0x632f786d
     30c:	7365646f 	cmnvc	r5, #1862270976	; 0x6f000000
     310:	65636170 	strbvs	r6, [r3, #-368]!	; 0xfffffe90
     314:	6d65742f 	cfstrdvs	mvd7, [r5, #-188]!	; 0xffffff44
     318:	61622f70 	smcvs	8944	; 0x22f0
     31c:	656d6572 	strbvs	r6, [sp, #-1394]!	; 0xfffffa8e
     320:	5f6c6174 	svcpl	0x006c6174
     324:	5f726f66 	svcpl	0x00726f66
     328:	6f632f63 	svcvs	0x00632f63
     32c:	6c2f6564 	cfstr32vs	mvfx6, [pc], #-400	; 1a4 <SYS_MODE+0x185>
     330:	2f636269 	svccs	0x00636269
     334:	00637273 	rsbeq	r7, r3, r3, ror r2
     338:	6d6f682f 	stclvs	8, cr6, [pc, #-188]!	; 284 <SYS_MODE+0x265>
     33c:	7a632f65 	bvc	18cc0d8 <SYS_MODE+0x18cc0b9>
     340:	786d696c 	stmdavc	sp!, {r2, r3, r5, r6, r8, fp, sp, lr}^
     344:	646f632f 	strbtvs	r6, [pc], #-815	; 34c <SYS_MODE+0x32d>
     348:	61707365 	cmnvs	r0, r5, ror #6
     34c:	742f6563 	strtvc	r6, [pc], #-1379	; 354 <SYS_MODE+0x335>
     350:	2f706d65 	svccs	0x00706d65
     354:	65726162 	ldrbvs	r6, [r2, #-354]!	; 0xfffffe9e
     358:	6174656d 	cmnvs	r4, sp, ror #10
     35c:	6f665f6c 	svcvs	0x00665f6c
     360:	2f635f72 	svccs	0x00635f72
     364:	65646f63 	strbvs	r6, [r4, #-3939]!	; 0xfffff09d
     368:	6372612f 	cmnvs	r2, #-1073741813	; 0xc000000b
     36c:	72612f68 	rsbvc	r2, r1, #104, 30	; 0x1a0
     370:	2d37766d 	ldccs	6, cr7, [r7, #-436]!	; 0xfffffe4c
     374:	6e692f61 	cdpvs	15, 6, cr2, cr9, cr1, {3}
     378:	682f0063 	stmdavs	pc!, {r0, r1, r5, r6}	; <UNPREDICTABLE>
     37c:	2f656d6f 	svccs	0x00656d6f
     380:	696c7a63 	stmdbvs	ip!, {r0, r1, r5, r6, r9, fp, ip, sp, lr}^
     384:	632f786d 			; <UNDEFINED> instruction: 0x632f786d
     388:	7365646f 	cmnvc	r5, #1862270976	; 0x6f000000
     38c:	65636170 	strbvs	r6, [r3, #-368]!	; 0xfffffe90
     390:	6d65742f 	cfstrdvs	mvd7, [r5, #-188]!	; 0xffffff44
     394:	61622f70 	smcvs	8944	; 0x22f0
     398:	656d6572 	strbvs	r6, [sp, #-1394]!	; 0xfffffa8e
     39c:	5f6c6174 	svcpl	0x006c6174
     3a0:	5f726f66 	svcpl	0x00726f66
     3a4:	6f632f63 	svcvs	0x00632f63
     3a8:	6c2f6564 	cfstr32vs	mvfx6, [pc], #-400	; 220 <SYS_MODE+0x201>
     3ac:	2f636269 	svccs	0x00636269
     3b0:	00636e69 	rsbeq	r6, r3, r9, ror #28
     3b4:	62696c00 	rsbvs	r6, r9, #0, 24
     3b8:	72705f63 	rsbsvc	r5, r0, #396	; 0x18c
     3bc:	66746e69 	ldrbtvs	r6, [r4], -r9, ror #28
     3c0:	0100632e 	tsteq	r0, lr, lsr #6
     3c4:	72610000 	rsbvc	r0, r1, #0
     3c8:	635f6863 	cmpvs	pc, #6488064	; 0x630000
     3cc:	69706d6f 	ldmdbvs	r0!, {r0, r1, r2, r3, r5, r6, r8, sl, fp, sp, lr}^
     3d0:	2e72656c 	cdpcs	5, 7, cr6, cr2, cr12, {3}
     3d4:	00020068 	andeq	r0, r2, r8, rrx
     3d8:	75623c00 	strbvc	r3, [r2, #-3072]!	; 0xfffff400
     3dc:	2d746c69 	ldclcs	12, cr6, [r4, #-420]!	; 0xfffffe5c
     3e0:	003e6e69 	eorseq	r6, lr, r9, ror #28
     3e4:	6c000000 	stcvs	0, cr0, [r0], {-0}
     3e8:	5f636269 	svcpl	0x00636269
     3ec:	6e697270 	mcrvs	2, 3, r7, cr9, cr0, {3}
     3f0:	682e6674 	stmdavs	lr!, {r2, r4, r5, r6, r9, sl, sp, lr}
     3f4:	00000300 	andeq	r0, r0, r0, lsl #6
     3f8:	00010500 	andeq	r0, r1, r0, lsl #10
     3fc:	00000205 	andeq	r0, r0, r5, lsl #4
     400:	80030000 	andhi	r0, r3, r0
     404:	03050101 	movweq	r0, #20737	; 0x5101
     408:	06060513 			; <UNDEFINED> instruction: 0x06060513
     40c:	06050501 	streq	r0, [r5], -r1, lsl #10
     410:	061a052f 	ldreq	r0, [sl], -pc, lsr #10
     414:	30010501 	andcc	r0, r1, r1, lsl #10
     418:	01000202 	tsteq	r0, r2, lsl #4
     41c:	00010501 	andeq	r0, r1, r1, lsl #10
     420:	07000205 	streq	r0, [r0, -r5, lsl #4]
     424:	8903c200 	stmdbhi	r3, {r9, lr, pc}
     428:	03050101 	movweq	r0, #20737	; 0x5101
     42c:	01140513 	tsteq	r4, r3, lsl r5
     430:	05012205 	streq	r2, [r1, #-517]	; 0xfffffdfb
     434:	0105012d 	tsteq	r5, sp, lsr #2
     438:	02021306 	andeq	r1, r2, #402653184	; 0x18000000
     43c:	05010100 	streq	r0, [r1, #-256]	; 0xffffff00
     440:	02050001 	andeq	r0, r5, #1
     444:	00000000 	andeq	r0, r0, r0
     448:	01019a03 	tsteq	r1, r3, lsl #20
     44c:	05130305 	ldreq	r0, [r3, #-773]	; 0xfffffcfb
     450:	0305010e 	movweq	r0, #20750	; 0x510e
     454:	06060513 			; <UNDEFINED> instruction: 0x06060513
     458:	01052e01 	tsteq	r5, r1, lsl #28
     45c:	0605052c 	streq	r0, [r5], -ip, lsr #10
     460:	06210532 			; <UNDEFINED> instruction: 0x06210532
     464:	2e060501 	cfsh32cs	mvfx0, mvfx6, #1
     468:	3001052e 	andcc	r0, r1, lr, lsr #10
     46c:	01000202 	tsteq	r0, r2, lsl #4
     470:	00010501 	andeq	r0, r1, r1, lsl #10
     474:	07040205 	streq	r0, [r4, -r5, lsl #4]
     478:	b703c200 	strlt	ip, [r3, -r0, lsl #4]
     47c:	01060101 	tsteq	r6, r1, lsl #2
     480:	2f060305 	svccs	0x00060305
     484:	06100513 			; <UNDEFINED> instruction: 0x06100513
     488:	2f090511 	svccs	0x00090511
     48c:	2f060505 	svccs	0x00060505
     490:	01062a05 	tsteq	r6, r5, lsl #20
     494:	054a2205 	strbeq	r2, [sl, #-517]	; 0xfffffdfb
     498:	07052e11 	smladeq	r5, r1, lr, r2
     49c:	0609054a 	streq	r0, [r9], -sl, asr #10
     4a0:	0615052d 	ldreq	r0, [r5], -sp, lsr #10
     4a4:	2e0a0501 	cfsh32cs	mvfx0, mvfx10, #1
     4a8:	03061405 	movweq	r1, #25605	; 0x6405
     4ac:	03052e76 	movweq	r2, #24182	; 0x5e76
     4b0:	06160514 			; <UNDEFINED> instruction: 0x06160514
     4b4:	052e2e01 	streq	r2, [lr, #-3585]!	; 0xfffff1ff
     4b8:	06021a09 	streq	r1, [r2], -r9, lsl #20
     4bc:	05010100 	streq	r0, [r1, #-256]	; 0xffffff00
     4c0:	02050001 	andeq	r0, r5, #1
     4c4:	c2000744 	andgt	r0, r0, #68, 14	; 0x1100000
     4c8:	0101c203 	tsteq	r1, r3, lsl #4
     4cc:	03050106 	movweq	r0, #20742	; 0x5106
     4d0:	15210806 	strne	r0, [r1, #-2054]!	; 0xfffff7fa
     4d4:	01060605 	tsteq	r6, r5, lsl #12
     4d8:	4b11052e 	blmi	441998 <SYS_MODE+0x441979>
     4dc:	02001a05 	andeq	r1, r0, #20480	; 0x5000
     4e0:	4a060104 	bmi	1808f8 <SYS_MODE+0x1808d9>
     4e4:	02000505 	andeq	r0, r0, #20971520	; 0x1400000
     4e8:	01060104 	tsteq	r6, r4, lsl #2
     4ec:	02000705 	andeq	r0, r0, #1310720	; 0x140000
     4f0:	4b060304 	blmi	181108 <SYS_MODE+0x1810e9>
     4f4:	03040200 	movweq	r0, #16896	; 0x4200
     4f8:	25052e06 	strcs	r2, [r5, #-3590]	; 0xfffff1fa
     4fc:	03040200 	movweq	r0, #16896	; 0x4200
     500:	26058106 	strcs	r8, [r5], -r6, lsl #2
     504:	03040200 	movweq	r0, #16896	; 0x4200
     508:	07050106 	streq	r0, [r5, -r6, lsl #2]
     50c:	03040200 	movweq	r0, #16896	; 0x4200
     510:	0402002f 	streq	r0, [r2], #-47	; 0xffffffd1
     514:	02004a03 	andeq	r4, r0, #12288	; 0x3000
     518:	054a0304 	strbeq	r0, [sl, #-772]	; 0xfffffcfc
     51c:	06180605 	ldreq	r0, [r8], -r5, lsl #12
     520:	09052e2e 	stmdbeq	r5, {r1, r2, r3, r5, r9, sl, fp, sp}
     524:	03059d06 	movweq	r9, #23814	; 0x5d06
     528:	0606054f 	streq	r0, [r6], -pc, asr #10
     52c:	6d010501 	cfstr32vs	mvfx0, [r1, #-4]
     530:	03060b05 	movweq	r0, #27397	; 0x6b05
     534:	1005667a 	andne	r6, r5, sl, ror r6
     538:	0b050106 	bleq	140958 <SYS_MODE+0x140939>
     53c:	0607052e 	streq	r0, [r7], -lr, lsr #10
     540:	022e064b 	eoreq	r0, lr, #78643200	; 0x4b00000
     544:	0101000c 	tsteq	r1, ip
     548:	05000105 	streq	r0, [r0, #-261]	; 0xfffffefb
     54c:	00081002 	andeq	r1, r8, r2
     550:	01de03c2 	bicseq	r0, lr, r2, asr #7
     554:	05010601 	streq	r0, [r1, #-1537]	; 0xfffff9ff
     558:	22080603 	andcs	r0, r8, #3145728	; 0x300000
     55c:	01060605 	tsteq	r6, r5, lsl #12
     560:	4b060505 	blmi	18197c <SYS_MODE+0x18195d>
     564:	01060805 	tsteq	r6, r5, lsl #16
     568:	02000f05 	andeq	r0, r0, #5, 30
     56c:	054a0104 	strbeq	r0, [sl, #-260]	; 0xfffffefc
     570:	0402002a 	streq	r0, [r2], #-42	; 0xffffffd6
     574:	37054a02 	strcc	r4, [r5, -r2, lsl #20]
     578:	03040200 	movweq	r0, #16896	; 0x4200
     57c:	0607054a 	streq	r0, [r7], -sl, asr #10
     580:	060c054b 	streq	r0, [ip], -fp, asr #10
     584:	07052e01 	streq	r2, [r5, -r1, lsl #28]
     588:	12053106 	andne	r3, r5, #-2147483647	; 0x80000001
     58c:	0e050106 	adfeqs	f0, f5, f6
     590:	060b054a 	streq	r0, [fp], -sl, asr #10
     594:	8607052d 	strhi	r0, [r7], -sp, lsr #10
     598:	01061205 	tsteq	r6, r5, lsl #4
     59c:	054a0e05 	strbeq	r0, [sl, #-3589]	; 0xfffff1fb
     5a0:	052d060b 	streq	r0, [sp, #-1547]!	; 0xfffff9f5
     5a4:	04020035 	streq	r0, [r2], #-53	; 0xffffffcb
     5a8:	054a0601 	strbeq	r0, [sl, #-1537]	; 0xfffff9ff
     5ac:	056c0603 	strbeq	r0, [ip, #-1539]!	; 0xfffff9fd
     5b0:	05010606 	streq	r0, [r1, #-1542]	; 0xfffff9fa
     5b4:	054b0605 	strbeq	r0, [fp, #-1541]	; 0xfffff9fb
     5b8:	05010608 	streq	r0, [r1, #-1544]	; 0xfffff9f8
     5bc:	04020024 	streq	r0, [r2], #-36	; 0xffffffdc
     5c0:	2b054a01 	blcs	152dcc <SYS_MODE+0x152dad>
     5c4:	02040200 	andeq	r0, r4, #0, 4
     5c8:	0607054a 	streq	r0, [r7], -sl, asr #10
     5cc:	0b051367 	bleq	145370 <SYS_MODE+0x145351>
     5d0:	052e0106 	streq	r0, [lr, #-262]!	; 0xfffffefa
     5d4:	0a054a0f 	beq	152e18 <SYS_MODE+0x152df9>
     5d8:	06090566 	streq	r0, [r9], -r6, ror #10
     5dc:	060c054b 	streq	r0, [ip], -fp, asr #10
     5e0:	06050501 	streq	r0, [r5], -r1, lsl #10
     5e4:	06080531 			; <UNDEFINED> instruction: 0x06080531
     5e8:	060a0501 	streq	r0, [sl], -r1, lsl #10
     5ec:	060d054d 	streq	r0, [sp], -sp, asr #10
     5f0:	060a0501 	streq	r0, [sl], -r1, lsl #10
     5f4:	060d054d 	streq	r0, [sp], -sp, asr #10
     5f8:	06070501 	streq	r0, [r7], -r1, lsl #10
     5fc:	0612054b 	ldreq	r0, [r2], -fp, asr #10
     600:	4a0e0501 	bmi	381a0c <SYS_MODE+0x3819ed>
     604:	30060505 	andcc	r0, r6, r5, lsl #10
     608:	01060805 	tsteq	r6, r5, lsl #16
     60c:	2f060705 	svccs	0x00060705
     610:	01061205 	tsteq	r6, r5, lsl #4
     614:	054a0e05 	strbeq	r0, [sl, #-3589]	; 0xfffff1fb
     618:	05320603 	ldreq	r0, [r2, #-1539]!	; 0xfffff9fd
     61c:	05010606 	streq	r0, [r1, #-1542]	; 0xfffff9fa
     620:	054b0605 	strbeq	r0, [fp, #-1541]	; 0xfffff9fb
     624:	05010608 	streq	r0, [r1, #-1544]	; 0xfffff9f8
     628:	054b0607 	strbeq	r0, [fp, #-1543]	; 0xfffff9f9
     62c:	05010612 	streq	r0, [r1, #-1554]	; 0xfffff9ee
     630:	03054a0e 	movweq	r4, #23054	; 0x5a0e
     634:	2e0a0306 	cdpcs	3, 0, cr0, cr10, cr6, {0}
     638:	01060a05 	tsteq	r6, r5, lsl #20
     63c:	059f0105 	ldreq	r0, [pc, #261]	; 749 <SYS_MODE+0x72a>
     640:	4a60030a 	bmi	1801270 <SYS_MODE+0x1801251>
     644:	02001705 	andeq	r1, r0, #1310720	; 0x140000
     648:	054f0104 	strbeq	r0, [pc, #-260]	; 54c <SYS_MODE+0x52d>
     64c:	04020035 	streq	r0, [r2], #-53	; 0xffffffcb
     650:	07054a02 	streq	r4, [r5, -r2, lsl #20]
     654:	12054b06 	andne	r4, r5, #6144	; 0x1800
     658:	0e050106 	adfeqs	f0, f5, f6
     65c:	2e12054a 	cfmac32cs	mvfx0, mvfx2, mvfx10
     660:	02001c05 	andeq	r1, r0, #1280	; 0x500
     664:	05300104 	ldreq	r0, [r0, #-260]!	; 0xfffffefc
     668:	04020039 	streq	r0, [r2], #-57	; 0xffffffc7
     66c:	07054a02 	streq	r4, [r5, -r2, lsl #20]
     670:	12054b06 	andne	r4, r5, #6144	; 0x1800
     674:	0e050106 	adfeqs	f0, f5, f6
     678:	2e12054a 	cfmac32cs	mvfx0, mvfx2, mvfx10
     67c:	03060a05 	movweq	r0, #27141	; 0x6a05
     680:	0d052e0e 	stceq	14, cr2, [r5, #-56]	; 0xffffffc8
     684:	07050106 	streq	r0, [r5, -r6, lsl #2]
     688:	12052f06 	andne	r2, r5, #6, 30
     68c:	0e050106 	adfeqs	f0, f5, f6
     690:	0a052e4a 	beq	14bfc0 <SYS_MODE+0x14bfa1>
     694:	0d053006 	stceq	0, cr3, [r5, #-24]	; 0xffffffe8
     698:	07050106 	streq	r0, [r5, -r6, lsl #2]
     69c:	12052f06 	andne	r2, r5, #6, 30
     6a0:	0e050106 	adfeqs	f0, f5, f6
     6a4:	02022e4a 	andeq	r2, r2, #1184	; 0x4a0
     6a8:	05010100 	streq	r0, [r1, #-256]	; 0xffffff00
     6ac:	02050001 	andeq	r0, r5, #1
     6b0:	c20009c4 	andgt	r0, r0, #196, 18	; 0x310000
     6b4:	01029403 	tsteq	r2, r3, lsl #8
     6b8:	03050106 	movweq	r0, #20742	; 0x5106
     6bc:	13210806 			; <UNDEFINED> instruction: 0x13210806
     6c0:	06060515 			; <UNDEFINED> instruction: 0x06060515
     6c4:	06050501 	streq	r0, [r5], -r1, lsl #10
     6c8:	060b052f 	streq	r0, [fp], -pc, lsr #10
     6cc:	06030501 	streq	r0, [r3], -r1, lsl #10
     6d0:	06060532 			; <UNDEFINED> instruction: 0x06060532
     6d4:	00220501 	eoreq	r0, r2, r1, lsl #10
     6d8:	4a010402 	bmi	416e8 <SYS_MODE+0x416c9>
     6dc:	02001205 	andeq	r1, r0, #1342177280	; 0x50000000
     6e0:	05850104 	streq	r0, [r5, #260]	; 0x104
     6e4:	0402000e 	streq	r0, [r2], #-14
     6e8:	12054a08 	andne	r4, r5, #8, 20	; 0x8000
     6ec:	08040200 	stmdaeq	r4, {r9}
     6f0:	0402002e 	streq	r0, [r2], #-46	; 0xffffffd2
     6f4:	07052e08 	streq	r2, [r5, -r8, lsl #28]
     6f8:	08040200 	stmdaeq	r4, {r9}
     6fc:	0d054b06 	vstreq	d4, [r5, #-24]	; 0xffffffe8
     700:	08040200 	stmdaeq	r4, {r9}
     704:	02000106 	andeq	r0, r0, #-2147483647	; 0x80000001
     708:	00660804 	rsbeq	r0, r6, r4, lsl #16
     70c:	06080402 	streq	r0, [r8], -r2, lsl #8
     710:	00140513 	andseq	r0, r4, r3, lsl r5
     714:	06080402 	streq	r0, [r8], -r2, lsl #8
     718:	00050501 	andeq	r0, r5, r1, lsl #10
     71c:	9e080402 	cdpls	4, 0, cr0, cr8, cr2, {0}
     720:	05480e05 	strbeq	r0, [r8, #-3589]	; 0xfffff1fb
     724:	052e2f0d 	streq	r2, [lr, #-3853]!	; 0xfffff0f3
     728:	050f0605 	streq	r0, [pc, #-1541]	; 12b <SYS_MODE+0x10c>
     72c:	27051307 	strcs	r1, [r5, -r7, lsl #6]
     730:	12050106 	andne	r0, r5, #-2147483647	; 0x80000001
     734:	06070566 	streq	r0, [r7], -r6, ror #10
     738:	0612052f 	ldreq	r0, [r2], -pc, lsr #10
     73c:	00550501 	subseq	r0, r5, r1, lsl #10
     740:	4a020402 	bmi	81750 <SYS_MODE+0x81731>
     744:	0402004a 	streq	r0, [r2], #-74	; 0xffffffb6
     748:	12052e07 	andne	r2, r5, #7, 28	; 0x70
     74c:	07040200 	streq	r0, [r4, -r0, lsl #4]
     750:	6655054a 	ldrbvs	r0, [r5], -sl, asr #10
     754:	030a054a 	movweq	r0, #42314	; 0xa54a
     758:	03050175 	movweq	r0, #20853	; 0x5175
     75c:	2e100306 	cdpcs	3, 1, cr0, cr0, cr6, {0}
     760:	01060a05 	tsteq	r6, r5, lsl #20
     764:	e5080105 	str	r0, [r8, #-261]	; 0xfffffefb
     768:	0101004a 	tsteq	r1, sl, asr #32
     76c:	05000105 	streq	r0, [r0, #-261]	; 0xfffffefb
     770:	000adc02 	andeq	sp, sl, r2, lsl #24
     774:	02ad03c2 	adceq	r0, sp, #134217731	; 0x8000003
     778:	05010601 	streq	r0, [r1, #-1537]	; 0xfffff9ff
     77c:	59080603 	stmdbpl	r8, {r0, r1, r9, sl}
     780:	06051513 			; <UNDEFINED> instruction: 0x06051513
     784:	052e0106 	streq	r0, [lr, #-262]!	; 0xfffffefa
     788:	05130605 	ldreq	r0, [r3, #-1541]	; 0xfffff9fb
     78c:	0501060b 	streq	r0, [r1, #-1547]	; 0xfffff9f5
     790:	05320603 	ldreq	r0, [r2, #-1539]!	; 0xfffff9fd
     794:	05010606 	streq	r0, [r1, #-1542]	; 0xfffff9fa
     798:	04020022 	streq	r0, [r2], #-34	; 0xffffffde
     79c:	12054a01 	andne	r4, r5, #4096	; 0x1000
     7a0:	01040200 	mrseq	r0, R12_usr
     7a4:	000e0585 	andeq	r0, lr, r5, lsl #11
     7a8:	4a080402 	bmi	2017b8 <SYS_MODE+0x201799>
     7ac:	02001205 	andeq	r1, r0, #1342177280	; 0x50000000
     7b0:	002e0804 	eoreq	r0, lr, r4, lsl #16
     7b4:	2e080402 	cdpcs	4, 0, cr0, cr8, cr2, {0}
     7b8:	02000705 	andeq	r0, r0, #1310720	; 0x140000
     7bc:	4b060804 	blmi	1827d4 <SYS_MODE+0x1827b5>
     7c0:	02000d05 	andeq	r0, r0, #320	; 0x140
     7c4:	01060804 	tsteq	r6, r4, lsl #16
     7c8:	08040200 	stmdaeq	r4, {r9}
     7cc:	0402009e 	streq	r0, [r2], #-158	; 0xffffff62
     7d0:	05130608 	ldreq	r0, [r3, #-1544]	; 0xfffff9f8
     7d4:	0402000e 	streq	r0, [r2], #-14
     7d8:	05010608 	streq	r0, [r1, #-1544]	; 0xfffff9f8
     7dc:	04020014 	streq	r0, [r2], #-20	; 0xffffffec
     7e0:	05058208 	streq	r8, [r5, #-520]	; 0xfffffdf8
     7e4:	08040200 	stmdaeq	r4, {r9}
     7e8:	480e0566 	stmdami	lr, {r1, r2, r5, r6, r8, sl}
     7ec:	4a2f0d05 	bmi	bc3c08 <SYS_MODE+0xbc3be9>
     7f0:	0f060505 	svceq	0x00060505
     7f4:	05130705 	ldreq	r0, [r3, #-1797]	; 0xfffff8fb
     7f8:	05010627 	streq	r0, [r1, #-1575]	; 0xfffff9d9
     7fc:	07059e12 	smladeq	r5, r2, lr, r9
     800:	12052f06 	andne	r2, r5, #6, 30
     804:	55050106 	strpl	r0, [r5, #-262]	; 0xfffffefa
     808:	02040200 	andeq	r0, r4, #0, 4
     80c:	02004a4a 	andeq	r4, r0, #303104	; 0x4a000
     810:	052e0704 	streq	r0, [lr, #-1796]!	; 0xfffff8fc
     814:	04020012 	streq	r0, [r2], #-18	; 0xffffffee
     818:	55054a07 	strpl	r4, [r5, #-2567]	; 0xfffff5f9
     81c:	0a054a66 	beq	1531bc <SYS_MODE+0x15319d>
     820:	05017503 	streq	r7, [r1, #-1283]	; 0xfffffafd
     824:	10030603 	andne	r0, r3, r3, lsl #12
     828:	060a052e 	streq	r0, [sl], -lr, lsr #10
     82c:	08010501 	stmdaeq	r1, {r0, r8, sl}
     830:	01004ae5 	smlatteq	r0, r5, sl, r4
     834:	00010501 	andeq	r0, r1, r1, lsl #10
     838:	0c180205 	lfmeq	f0, 4, [r8], {5}
     83c:	ce03c200 	cdpgt	2, 0, cr12, cr3, cr0, {0}
     840:	01060103 	tsteq	r6, r3, lsl #2
     844:	060305d6 			; <UNDEFINED> instruction: 0x060305d6
     848:	0606054c 	streq	r0, [r6], -ip, asr #10
     84c:	00180501 	andseq	r0, r8, r1, lsl #10
     850:	66010402 	strvs	r0, [r1], -r2, lsl #8
     854:	02002d05 	andeq	r2, r0, #320	; 0x140
     858:	05820204 	streq	r0, [r2, #516]	; 0x204
     85c:	13870603 	orrne	r0, r7, #3145728	; 0x300000
     860:	01060605 	tsteq	r6, r5, lsl #12
     864:	87060305 	strhi	r0, [r6, -r5, lsl #6]
     868:	01060605 	tsteq	r6, r5, lsl #12
     86c:	130a052e 	movwne	r0, #42286	; 0xa52e
     870:	33060305 	movwcc	r0, #25349	; 0x6305
     874:	0e051317 	mcreq	3, 0, r1, cr5, cr7, {0}
     878:	07052e06 	streq	r2, [r5, -r6, lsl #28]
     87c:	0603052e 	streq	r0, [r3], -lr, lsr #10
     880:	0614054b 	ldreq	r0, [r4], -fp, asr #10
     884:	2e2c0501 	cfsh64cs	mvdx0, mvdx12, #1
     888:	0603052e 	streq	r0, [r3], -lr, lsr #10
     88c:	062d054c 	strteq	r0, [sp], -ip, asr #10
     890:	4a260501 	bmi	981c9c <SYS_MODE+0x981c7d>
     894:	05664b05 	strbeq	r4, [r6, #-2821]!	; 0xfffff4fb
     898:	07056641 	streq	r6, [r5, -r1, asr #12]
     89c:	0603054a 	streq	r0, [r3], -sl, asr #10
     8a0:	0617054c 	ldreq	r0, [r7], -ip, asr #10
     8a4:	2e2b0501 	cfsh64cs	mvdx0, mvdx11, #1
     8a8:	05660805 	strbeq	r0, [r6, #-2053]!	; 0xfffff7fb
     8ac:	052f0603 	streq	r0, [pc, #-1539]!	; 2b1 <SYS_MODE+0x292>
     8b0:	05010637 	streq	r0, [r1, #-1591]	; 0xfffff9c9
     8b4:	03056610 	movweq	r6, #22032	; 0x5610
     8b8:	10054b06 	andne	r4, r5, r6, lsl #22
     8bc:	03050106 	movweq	r0, #20742	; 0x5106
     8c0:	1c052f06 	stcne	15, cr2, [r5], {6}
     8c4:	24050106 	strcs	r0, [r5], #-262	; 0xfffffefa
     8c8:	052e2e66 	streq	r2, [lr, #-3686]!	; 0xfffff19a
     8cc:	05300603 	ldreq	r0, [r0, #-1539]!	; 0xfffff9fd
     8d0:	05010613 	streq	r0, [r1, #-1555]	; 0xfffff9ed
     8d4:	052e2e1c 	streq	r2, [lr, #-3612]!	; 0xfffff1e4
     8d8:	052e2e3c 	streq	r2, [lr, #-3644]!	; 0xfffff1c4
     8dc:	31052e37 	tstcc	r5, r7, lsr lr
     8e0:	2e2b054a 	cfsh64cs	mvdx0, mvdx11, #42
     8e4:	054a2605 	strbeq	r2, [sl, #-1541]	; 0xfffff9fb
     8e8:	17052e20 	strne	r2, [r5, -r0, lsr #28]
     8ec:	2e0f052e 	cfsh32cs	mvfx0, mvfx15, #30
     8f0:	054a0a05 	strbeq	r0, [sl, #-2565]	; 0xfffff5fb
     8f4:	054c0603 	strbeq	r0, [ip, #-1539]	; 0xfffff9fd
     8f8:	05010606 	streq	r0, [r1, #-1542]	; 0xfffff9fa
     8fc:	054b0605 	strbeq	r0, [fp, #-1541]	; 0xfffff9fb
     900:	0501060b 	streq	r0, [r1, #-1547]	; 0xfffff9f5
     904:	052f0605 	streq	r0, [pc, #-1541]!	; 307 <SYS_MODE+0x2e8>
     908:	0501060c 	streq	r0, [r1, #-1548]	; 0xfffff9f4
     90c:	054e0603 	strbeq	r0, [lr, #-1539]	; 0xfffff9fd
     910:	0501062b 	streq	r0, [r1, #-1579]	; 0xfffff9d5
     914:	054a2e44 	strbeq	r2, [sl, #-3652]	; 0xfffff1bc
     918:	04020003 	streq	r0, [r2], #-3
     91c:	05310604 	ldreq	r0, [r1, #-1540]!	; 0xfffff9fc
     920:	04020006 	streq	r0, [r2], #-6
     924:	05010604 	streq	r0, [r1, #-1540]	; 0xfffff9fc
     928:	054c0605 	strbeq	r0, [ip, #-1541]	; 0xfffff9fb
     92c:	05010608 	streq	r0, [r1, #-1544]	; 0xfffff9f8
     930:	04020019 	streq	r0, [r2], #-25	; 0xffffffe7
     934:	07058201 	streq	r8, [r5, -r1, lsl #4]
     938:	0a058306 	beq	161558 <SYS_MODE+0x161539>
     93c:	09050106 	stmdbeq	r5, {r1, r2, r8}
     940:	25054b06 	strcs	r4, [r5, #-2822]	; 0xfffff4fa
     944:	2e050106 	adfcss	f0, f5, f6
     948:	05052e2e 	streq	r2, [r5, #-3630]	; 0xfffff1d2
     94c:	2e510306 	cdpcs	3, 5, cr0, cr1, cr6, {0}
     950:	01060c05 	tsteq	r6, r5, lsl #24
     954:	054a2e82 	strbeq	r2, [sl, #-3714]	; 0xfffff17e
     958:	00e40301 	rsceq	r0, r4, r1, lsl #6
     95c:	0605052e 	streq	r0, [r5], -lr, lsr #10
     960:	4a7fa203 	bmi	1fe9174 <SYS_MODE+0x1fe9155>
     964:	01060b05 	tsteq	r6, r5, lsl #22
     968:	0344052e 	movteq	r0, #17710	; 0x452e
     96c:	0e052e22 	cdpeq	14, 0, cr2, cr5, cr2, {1}
     970:	054a0a03 	strbeq	r0, [sl, #-2563]	; 0xfffff5fd
     974:	05300607 	ldreq	r0, [r0, #-1543]!	; 0xfffff9f9
     978:	0501060d 	streq	r0, [r1, #-1549]	; 0xfffff9f3
     97c:	13300607 	teqne	r0, #7340032	; 0x700000
     980:	11061005 	tstne	r6, r5
     984:	0603052f 	streq	r0, [r3], -pc, lsr #10
     988:	132e0b03 			; <UNDEFINED> instruction: 0x132e0b03
     98c:	01060605 	tsteq	r6, r5, lsl #12
     990:	4c060505 	cfstr32mi	mvfx0, [r6], {5}
     994:	01060c05 	tsteq	r6, r5, lsl #24
     998:	0607052e 	streq	r0, [r7], -lr, lsr #10
     99c:	052e7603 	streq	r7, [lr, #-1539]!	; 0xfffff9fd
     9a0:	0501060a 	streq	r0, [r1, #-1546]	; 0xfffff9f6
     9a4:	04020016 	streq	r0, [r2], #-22	; 0xffffffea
     9a8:	09054a01 	stmdbeq	r5, {r0, r9, fp, lr}
     9ac:	2e062f06 	cdpcs	15, 0, cr2, cr6, cr6, {0}
     9b0:	0c030c05 	stceq	12, cr0, [r3], {5}
     9b4:	0603052e 	streq	r0, [r3], -lr, lsr #10
     9b8:	06060530 			; <UNDEFINED> instruction: 0x06060530
     9bc:	1c052e01 	stcne	14, cr2, [r5], {1}
     9c0:	01040200 	mrseq	r0, R12_usr
     9c4:	300c054a 	andcc	r0, ip, sl, asr #10
     9c8:	32060305 	andcc	r0, r6, #335544320	; 0x14000000
     9cc:	01060605 	tsteq	r6, r5, lsl #12
     9d0:	2f060505 	svccs	0x00060505
     9d4:	01060b05 	tsteq	r6, r5, lsl #22
     9d8:	32060305 	andcc	r0, r6, #335544320	; 0x14000000
     9dc:	06090513 			; <UNDEFINED> instruction: 0x06090513
     9e0:	04020001 	streq	r0, [r2], #-1
     9e4:	02006604 	andeq	r6, r0, #4, 12	; 0x400000
     9e8:	009e0404 	addseq	r0, lr, r4, lsl #8
     9ec:	2e040402 	cdpcs	4, 0, cr0, cr4, cr2, {0}
     9f0:	04040200 	streq	r0, [r4], #-512	; 0xfffffe00
     9f4:	0003054a 	andeq	r0, r3, sl, asr #10
     9f8:	06040402 	streq	r0, [r4], -r2, lsl #8
     9fc:	0006054d 	andeq	r0, r6, sp, asr #10
     a00:	06040402 	streq	r0, [r4], -r2, lsl #8
     a04:	06050501 	streq	r0, [r5], -r1, lsl #10
     a08:	0402004c 	streq	r0, [r2], #-76	; 0xffffffb4
     a0c:	00660604 	rsbeq	r0, r6, r4, lsl #12
     a10:	2e040402 	cdpcs	4, 0, cr0, cr4, cr2, {0}
     a14:	04040200 	streq	r0, [r4], #-512	; 0xfffffe00
     a18:	4705a006 	strmi	sl, [r5, -r6]
     a1c:	04040200 	streq	r0, [r4], #-512	; 0xfffffe00
     a20:	0b050106 	bleq	140e40 <SYS_MODE+0x140e21>
     a24:	04040200 	streq	r0, [r4], #-512	; 0xfffffe00
     a28:	0402004a 	streq	r0, [r2], #-74	; 0xffffffb6
     a2c:	02006604 	andeq	r6, r0, #4, 12	; 0x400000
     a30:	05ba0404 	ldreq	r0, [sl, #1028]!	; 0x404
     a34:	04020005 	streq	r0, [r2], #-5
     a38:	05d80604 	ldrbeq	r0, [r8, #1540]	; 0x604
     a3c:	04020008 	streq	r0, [r2], #-8
     a40:	05010604 	streq	r0, [r1, #-1540]	; 0xfffff9fc
     a44:	04020009 	streq	r0, [r2], #-9
     a48:	9e770301 	cdpls	3, 7, cr0, cr7, cr1, {0}
     a4c:	01040200 	mrseq	r0, R12_usr
     a50:	3305052e 	movwcc	r0, #21806	; 0x552e
     a54:	02002705 	andeq	r2, r0, #1310720	; 0x140000
     a58:	4f060204 	svcmi	0x00060204
     a5c:	02040200 	andeq	r0, r4, #0, 4
     a60:	0d052e06 	stceq	14, cr2, [r5, #-24]	; 0xffffffe8
     a64:	01040200 	mrseq	r0, R12_usr
     a68:	12059e06 	andne	r9, r5, #6, 28	; 0x60
     a6c:	01040200 	mrseq	r0, R12_usr
     a70:	0d050106 	stfeqs	f0, [r5, #-24]	; 0xffffffe8
     a74:	01040200 	mrseq	r0, R12_usr
     a78:	0402002e 	streq	r0, [r2], #-46	; 0xffffffd2
     a7c:	32024a01 	andcc	r4, r2, #4096	; 0x1000
     a80:	05010100 	streq	r0, [r1, #-256]	; 0xffffff00
     a84:	02050001 	andeq	r0, r5, #1
     a88:	c2000f98 	andgt	r0, r0, #152, 30	; 0x260
     a8c:	0102ce03 	tsteq	r2, r3, lsl #28
     a90:	03050106 	movweq	r0, #20742	; 0x5106
     a94:	13139f06 	tstne	r3, #6, 30
     a98:	06051515 			; <UNDEFINED> instruction: 0x06051515
     a9c:	03050106 	movweq	r0, #20742	; 0x5106
     aa0:	06056806 	streq	r6, [r5], -r6, lsl #16
     aa4:	03050106 	movweq	r0, #20742	; 0x5106
     aa8:	06058406 	streq	r8, [r5], -r6, lsl #8
     aac:	03050106 	movweq	r0, #20742	; 0x5106
     ab0:	06058706 	streq	r8, [r5], -r6, lsl #14
     ab4:	22050106 	andcs	r0, r5, #-2147483647	; 0x80000001
     ab8:	01040200 	mrseq	r0, R12_usr
     abc:	06030582 	streq	r0, [r3], -r2, lsl #11
     ac0:	13820903 	orrne	r0, r2, #49152	; 0xc000
     ac4:	01060605 	tsteq	r6, r5, lsl #12
     ac8:	05650805 	strbeq	r0, [r5, #-2053]!	; 0xfffff7fb
     acc:	05350603 	ldreq	r0, [r5, #-1539]!	; 0xfffff9fd
     ad0:	05010606 	streq	r0, [r1, #-1542]	; 0xfffff9fa
     ad4:	05054b0a 	streq	r4, [r5, #-2826]	; 0xfffff4f6
     ad8:	4a670306 	bmi	19c16f8 <SYS_MODE+0x19c16d9>
     adc:	01060c05 	tsteq	r6, r5, lsl #24
     ae0:	060505f2 			; <UNDEFINED> instruction: 0x060505f2
     ae4:	060c0530 			; <UNDEFINED> instruction: 0x060c0530
     ae8:	0505f201 	streq	pc, [r5, #-513]	; 0xfffffdff
     aec:	0c053006 	stceq	0, cr3, [r5], {6}
     af0:	02000106 	andeq	r0, r0, #-2147483647	; 0x80000001
     af4:	4a820404 	bmi	fe081b0c <_stack_end+0x3c07ab0c>
     af8:	08040200 	stmdaeq	r4, {r9}
     afc:	0402002e 	streq	r0, [r2], #-46	; 0xffffffd2
     b00:	052e9e08 	streq	r9, [lr, #-3592]!	; 0xfffff1f8
     b04:	05a40605 	streq	r0, [r4, #1541]!	; 0x605
     b08:	8201060c 	andhi	r0, r1, #12, 12	; 0xc00000
     b0c:	03060505 	movweq	r0, #25861	; 0x6505
     b10:	05132e09 	ldreq	r2, [r3, #-3593]	; 0xfffff1f7
     b14:	0501060b 	streq	r0, [r1, #-1547]	; 0xfffff9f5
     b18:	0505490e 	streq	r4, [r5, #-2318]	; 0xfffff6f2
     b1c:	4a0a0306 	bmi	28173c <SYS_MODE+0x28171d>
     b20:	01061005 	tsteq	r6, r5
     b24:	83060505 	movwhi	r0, #25861	; 0x6505
     b28:	01060905 	tsteq	r6, r5, lsl #18
     b2c:	052d0c05 	streq	r0, [sp, #-3077]!	; 0xfffff3fb
     b30:	052d0609 	streq	r0, [sp, #-1545]!	; 0xfffff9f7
     b34:	0501062a 	streq	r0, [r1, #-1578]	; 0xfffff9d6
     b38:	03059e09 	movweq	r9, #24073	; 0x5e09
     b3c:	07054f06 	streq	r4, [r5, -r6, lsl #30]
     b40:	03050106 	movweq	r0, #20742	; 0x5106
     b44:	17054b06 	strne	r4, [r5, -r6, lsl #22]
     b48:	27050106 	strcs	r0, [r5, -r6, lsl #2]
     b4c:	820a054a 	andhi	r0, sl, #310378496	; 0x12800000
     b50:	2f060305 	svccs	0x00060305
     b54:	01061105 	tsteq	r6, r5, lsl #2
     b58:	4b060305 	blmi	181774 <SYS_MODE+0x181755>
     b5c:	01060e05 	tsteq	r6, r5, lsl #28
     b60:	052e0805 	streq	r0, [lr, #-2053]!	; 0xfffff7fb
     b64:	05300603 	ldreq	r0, [r0, #-1539]!	; 0xfffff9fd
     b68:	05010606 	streq	r0, [r1, #-1542]	; 0xfffff9fa
     b6c:	30830605 	addcc	r0, r3, r5, lsl #12
     b70:	01060e05 	tsteq	r6, r5, lsl #28
     b74:	054a0805 	strbeq	r0, [sl, #-2053]	; 0xfffff7fb
     b78:	134b0607 	movtne	r0, #46599	; 0xb607
     b7c:	2d060c05 	stccs	12, cr0, [r6, #-20]	; 0xffffffec
     b80:	03060305 	movweq	r0, #25349	; 0x6305
     b84:	06052e0b 	streq	r2, [r5], -fp, lsl #28
     b88:	05050106 	streq	r0, [r5, #-262]	; 0xfffffefa
     b8c:	14054b06 	strne	r4, [r5], #-2822	; 0xfffff4fa
     b90:	0a050106 	beq	140fb0 <SYS_MODE+0x140f91>
     b94:	0605054a 	streq	r0, [r5], -sl, asr #10
     b98:	0608052f 	streq	r0, [r8], -pc, lsr #10
     b9c:	00180501 	andseq	r0, r8, r1, lsl #10
     ba0:	82020402 	andhi	r0, r2, #33554432	; 0x2000000
     ba4:	02002905 	andeq	r2, r0, #81920	; 0x14000
     ba8:	052e0304 	streq	r0, [lr, #-772]!	; 0xfffffcfc
     bac:	06310607 	ldrteq	r0, [r1], -r7, lsl #12
     bb0:	030a052e 	movweq	r0, #42286	; 0xa52e
     bb4:	08052e5f 	stmdaeq	r5, {r0, r1, r2, r3, r4, r6, r9, sl, fp, sp}
     bb8:	4a150306 	bmi	5417d8 <SYS_MODE+0x5417b9>
     bbc:	01060b05 	tsteq	r6, r5, lsl #22
     bc0:	0608052e 	streq	r0, [r8], -lr, lsr #10
     bc4:	060b0568 	streq	r0, [fp], -r8, ror #10
     bc8:	00190501 	andseq	r0, r9, r1, lsl #10
     bcc:	4a010402 	bmi	41bdc <SYS_MODE+0x41bbd>
     bd0:	4c060505 	cfstr32mi	mvfx0, [r6], {5}
     bd4:	0b052e06 	bleq	14c3f4 <SYS_MODE+0x14c3d5>
     bd8:	2e0e0306 	cdpcs	3, 0, cr0, cr14, cr6, {0}
     bdc:	2f4b0705 	svccs	0x004b0705
     be0:	01062705 	tsteq	r6, r5, lsl #14
     be4:	05ba0e05 	ldreq	r0, [sl, #3589]!	; 0xe05
     be8:	12052e14 	andne	r2, r5, #20, 28	; 0x140
     bec:	0607052e 	streq	r0, [r7], -lr, lsr #10
     bf0:	06120567 	ldreq	r0, [r2], -r7, ror #10
     bf4:	2e0a0501 	cfsh32cs	mvfx0, mvfx10, #1
     bf8:	054a1205 	strbeq	r1, [sl, #-517]	; 0xfffffdfb
     bfc:	052e2d0e 	streq	r2, [lr, #-3342]!	; 0xfffff2f2
     c00:	05350607 	ldreq	r0, [r5, #-1543]!	; 0xfffff9f9
     c04:	05010612 	streq	r0, [r1, #-1554]	; 0xfffff9ee
     c08:	0e058135 	mcreq	1, 0, r8, cr5, cr5, {1}
     c0c:	060b052f 	streq	r0, [fp], -pc, lsr #10
     c10:	0035052d 	eorseq	r0, r5, sp, lsr #10
     c14:	06010402 	streq	r0, [r1], -r2, lsl #8
     c18:	002c054a 	eoreq	r0, ip, sl, asr #10
     c1c:	2e010402 	cdpcs	4, 0, cr0, cr1, cr2, {0}
     c20:	4d060505 	cfstr32mi	mvfx0, [r6, #-20]	; 0xffffffec
     c24:	01060805 	tsteq	r6, r5, lsl #16
     c28:	4c060705 	stcmi	7, cr0, [r6], {5}
     c2c:	01061205 	tsteq	r6, r5, lsl #4
     c30:	2e820e05 	cdpcs	14, 8, cr0, cr2, cr5, {0}
     c34:	17060905 	strne	r0, [r6, -r5, lsl #18]
     c38:	054b0505 	strbeq	r0, [fp, #-1285]	; 0xfffffafb
     c3c:	05010625 	streq	r0, [r1, #-1573]	; 0xfffff9db
     c40:	1205f20c 	andne	pc, r5, #12, 4	; 0xc0000000
     c44:	2e10052e 	cfmul64cs	mvdx0, mvdx0, mvdx14
     c48:	67060505 	strvs	r0, [r6, -r5, lsl #10]
     c4c:	01060805 	tsteq	r6, r5, lsl #16
     c50:	2d0c052e 	cfstr32cs	mvfx0, [ip, #-184]	; 0xffffff48
     c54:	6f030e05 	svcvs	0x00030e05
     c58:	052e2e4a 	streq	r2, [lr, #-3658]!	; 0xfffff1b6
     c5c:	0111030c 	tsteq	r1, ip, lsl #6
     c60:	35060305 	strcc	r0, [r6, #-773]	; 0xfffffcfb
     c64:	01061d05 	tsteq	r6, r5, lsl #26
     c68:	052e0605 	streq	r0, [lr, #-1541]!	; 0xfffff9fb
     c6c:	09030603 	stmdbeq	r3, {r0, r1, r9, sl}
     c70:	0606054a 	streq	r0, [r6], -sl, asr #10
     c74:	06050501 	streq	r0, [r5], -r1, lsl #10
     c78:	0608054b 	streq	r0, [r8], -fp, asr #10
     c7c:	06070501 	streq	r0, [r7], -r1, lsl #10
     c80:	0612054b 	ldreq	r0, [r2], -fp, asr #10
     c84:	820e0501 	andhi	r0, lr, #4194304	; 0x400000
     c88:	03060305 	movweq	r0, #25349	; 0x6305
     c8c:	0a052e0a 	beq	14c4bc <SYS_MODE+0x14c49d>
     c90:	01050106 	tsteq	r5, r6, lsl #2
     c94:	060505bb 			; <UNDEFINED> instruction: 0x060505bb
     c98:	054a6b03 	strbeq	r6, [sl, #-2819]	; 0xfffff4fd
     c9c:	05010608 	streq	r0, [r1, #-1544]	; 0xfffff9f8
     ca0:	0402000f 	streq	r0, [r2], #-15
     ca4:	1c054a01 			; <UNDEFINED> instruction: 0x1c054a01
     ca8:	02040200 	andeq	r0, r4, #0, 4
     cac:	0607054a 	streq	r0, [r7], -sl, asr #10
     cb0:	060c054b 	streq	r0, [ip], -fp, asr #10
     cb4:	07052e01 	streq	r2, [r5, -r1, lsl #28]
     cb8:	12053106 	andne	r3, r5, #-2147483647	; 0x80000001
     cbc:	0e050106 	adfeqs	f0, f5, f6
     cc0:	060b0582 	streq	r0, [fp], -r2, lsl #11
     cc4:	0566062d 	strbeq	r0, [r6, #-1581]!	; 0xfffff9d3
     cc8:	0903060a 	stmdbeq	r3, {r1, r3, r9, sl}
     ccc:	060d052e 	streq	r0, [sp], -lr, lsr #10
     cd0:	06070501 	streq	r0, [r7], -r1, lsl #10
     cd4:	0612054b 	ldreq	r0, [r2], -fp, asr #10
     cd8:	820e0501 	andhi	r0, lr, #4194304	; 0x400000
     cdc:	060a052e 	streq	r0, [sl], -lr, lsr #10
     ce0:	060d0530 			; <UNDEFINED> instruction: 0x060d0530
     ce4:	06070501 	streq	r0, [r7], -r1, lsl #10
     ce8:	0612054b 	ldreq	r0, [r2], -fp, asr #10
     cec:	820e0501 	andhi	r0, lr, #4194304	; 0x400000
     cf0:	0016022e 	andseq	r0, r6, lr, lsr #4
     cf4:	01050101 	tsteq	r5, r1, lsl #2
     cf8:	b0020500 	andlt	r0, r2, r0, lsl #10
     cfc:	03c20013 	biceq	r0, r2, #19
     d00:	060104bc 			; <UNDEFINED> instruction: 0x060104bc
     d04:	06030501 	streq	r0, [r3], -r1, lsl #10
     d08:	0514139f 	ldreq	r1, [r4, #-927]	; 0xfffffc61
     d0c:	05010606 	streq	r0, [r1, #-1542]	; 0xfffff9fa
     d10:	01d30309 	bicseq	r0, r3, r9, lsl #6
     d14:	03062e4a 	movweq	r2, #28234	; 0x6e4a
     d18:	05017eb2 	streq	r7, [r1, #-3762]	; 0xfffff14e
     d1c:	0501060a 	streq	r0, [r1, #-1546]	; 0xfffff9f6
     d20:	05054a09 	streq	r4, [r5, #-2569]	; 0xfffff5f7
     d24:	08054d06 	stmdaeq	r5, {r1, r2, r8, sl, fp, lr}
     d28:	07050106 	streq	r0, [r5, -r6, lsl #2]
     d2c:	2e064c06 	cdpcs	12, 0, cr4, cr6, cr6, {0}
     d30:	0d058306 	stceq	3, cr8, [r5, #-24]	; 0xffffffe8
     d34:	07050106 	streq	r0, [r5, -r6, lsl #2]
     d38:	10066706 	andne	r6, r6, r6, lsl #14
     d3c:	05320630 	ldreq	r0, [r2, #-1584]!	; 0xfffff9d0
     d40:	0501060d 	streq	r0, [r1, #-1549]	; 0xfffff9f3
     d44:	054e0605 	strbeq	r0, [lr, #-1541]	; 0xfffff9fb
     d48:	0501060b 	streq	r0, [r1, #-1547]	; 0xfffff9f5
     d4c:	052f0605 	streq	r0, [pc, #-1541]!	; 74f <SYS_MODE+0x730>
     d50:	0f051307 	svceq	0x00051307
     d54:	07050106 	streq	r0, [r5, -r6, lsl #2]
     d58:	060d054a 	streq	r0, [sp], -sl, asr #10
     d5c:	051a2a02 	ldreq	r2, [sl, #-2562]	; 0xfffff5fe
     d60:	05131505 	ldreq	r1, [r3, #-1285]	; 0xfffffafb
     d64:	7ccd0314 	stclvc	3, cr0, [sp], {20}
     d68:	14030501 	strne	r0, [r3], #-1281	; 0xfffffaff
     d6c:	01061605 	tsteq	r6, r5, lsl #12
     d70:	0308054a 	movweq	r0, #34122	; 0x854a
     d74:	050103b1 	streq	r0, [r1, #-945]	; 0xfffffc4f
     d78:	054d060a 	strbeq	r0, [sp, #-1546]	; 0xfffff9f6
     d7c:	0501060d 	streq	r0, [r1, #-1549]	; 0xfffff9f3
     d80:	0505460b 	streq	r4, [r5, #-1547]	; 0xfffff9f5
     d84:	4a110306 	bmi	4419a4 <SYS_MODE+0x441985>
     d88:	06090513 			; <UNDEFINED> instruction: 0x06090513
     d8c:	4a080501 	bmi	202198 <SYS_MODE+0x202179>
     d90:	05490f05 	strbeq	r0, [r9, #-3845]	; 0xfffff0fb
     d94:	0f030605 	svceq	0x00030605
     d98:	060d052e 	streq	r0, [sp], -lr, lsr #10
     d9c:	4a050501 	bmi	1421a8 <SYS_MODE+0x142189>
     da0:	03061305 	movweq	r1, #25349	; 0x6305
     da4:	012e0256 			; <UNDEFINED> instruction: 0x012e0256
     da8:	01061905 	tsteq	r6, r5, lsl #18
     dac:	2e062b05 	vmlacs.f64	d2, d6, d5
     db0:	01063105 	tsteq	r6, r5, lsl #2
     db4:	4a063505 	bmi	18e1d0 <SYS_MODE+0x18e1b1>
     db8:	05013d05 	streq	r3, [r1, #-3333]	; 0xfffff2fb
     dbc:	1305190d 	movwne	r1, #22797	; 0x590d
     dc0:	052e7a03 	streq	r7, [lr, #-2563]!	; 0xfffff5fd
     dc4:	05010619 	streq	r0, [r1, #-1561]	; 0xfffff9e7
     dc8:	052e062b 	streq	r0, [lr, #-1579]!	; 0xfffff9d5
     dcc:	05010631 	streq	r0, [r1, #-1585]	; 0xfffff9cf
     dd0:	054a0635 	strbeq	r0, [sl, #-1589]	; 0xfffff9cb
     dd4:	0d05013d 	stfeqs	f0, [r5, #-244]	; 0xffffff0c
     dd8:	29130518 	ldmdbcs	r3, {r3, r4, r8, sl}
     ddc:	01061905 	tsteq	r6, r5, lsl #18
     de0:	2e062b05 	vmlacs.f64	d2, d6, d5
     de4:	01063105 	tsteq	r6, r5, lsl #2
     de8:	4a063505 	bmi	18e204 <SYS_MODE+0x18e1e5>
     dec:	05013d05 	streq	r3, [r1, #-3333]	; 0xfffff2fb
     df0:	1305170d 	movwne	r1, #22285	; 0x570d
     df4:	0619052a 	ldreq	r0, [r9], -sl, lsr #10
     df8:	062b0501 	strteq	r0, [fp], -r1, lsl #10
     dfc:	0631052e 	ldrteq	r0, [r1], -lr, lsr #10
     e00:	06350501 	ldrteq	r0, [r5], -r1, lsl #10
     e04:	013d054a 	teqeq	sp, sl, asr #10
     e08:	05160d05 	ldreq	r0, [r6, #-3333]	; 0xfffff2fb
     e0c:	19052b13 	stmdbne	r5, {r0, r1, r4, r8, r9, fp, sp}
     e10:	2b050106 	blcs	141230 <SYS_MODE+0x141211>
     e14:	31052e06 	tstcc	r5, r6, lsl #28
     e18:	35050106 	strcc	r0, [r5, #-262]	; 0xfffffefa
     e1c:	3d054a06 	vstrcc	s8, [r5, #-24]	; 0xffffffe8
     e20:	150d0501 	strne	r0, [sp, #-1281]	; 0xfffffaff
     e24:	05330705 	ldreq	r0, [r3, #-1797]!	; 0xfffff8fb
     e28:	6601060f 	strvs	r0, [r1], -pc, lsl #12
     e2c:	31060705 	tstcc	r6, r5, lsl #14
     e30:	01061105 	tsteq	r6, r5, lsl #2
     e34:	83060705 	movwhi	r0, #26373	; 0x6705
     e38:	01060a05 	tsteq	r6, r5, lsl #20
     e3c:	4f060905 	svcmi	0x00060905
     e40:	01060f05 	tsteq	r6, r5, lsl #30
     e44:	30060705 	andcc	r0, r6, r5, lsl #14
     e48:	01060d05 	tsteq	r6, r5, lsl #26
     e4c:	03060905 	movweq	r0, #26885	; 0x6905
     e50:	0f05827a 	svceq	0x0005827a
     e54:	09050106 	stmdbeq	r5, {r1, r2, r8}
     e58:	1f052f06 	svcne	0x00052f06
     e5c:	2e4a0106 	dvfcse	f0, f2, f6
     e60:	03060705 	movweq	r0, #26373	; 0x6705
     e64:	0d05010b 	stfeqs	f0, [r5, #-44]	; 0xffffffd4
     e68:	07050106 	streq	r0, [r5, -r6, lsl #2]
     e6c:	0d052f06 	stceq	15, cr2, [r5, #-24]	; 0xffffffe8
     e70:	07050106 	streq	r0, [r5, -r6, lsl #2]
     e74:	0b054b06 	bleq	153a94 <SYS_MODE+0x153a75>
     e78:	14050106 	strne	r0, [r5], #-262	; 0xfffffefa
     e7c:	7cb90306 	ldcvc	3, cr0, [r9], #24
     e80:	1403052e 	strne	r0, [r3], #-1326	; 0xfffffad2
     e84:	01061605 	tsteq	r6, r5, lsl #12
     e88:	030a054a 	movweq	r0, #42314	; 0xa54a
     e8c:	050103c5 	streq	r0, [r1, #-965]	; 0xfffffc3b
     e90:	054d060c 	strbeq	r0, [sp, #-1548]	; 0xfffff9f4
     e94:	0301060f 	movweq	r0, #5647	; 0x160f
     e98:	09054a79 	stmdbeq	r5, {r0, r3, r4, r5, r6, r9, fp, lr}
     e9c:	15054f06 	strne	r4, [r5, #-3846]	; 0xfffff0fa
     ea0:	05660106 	strbeq	r0, [r6, #-262]!	; 0xfffffefa
     ea4:	05310609 	ldreq	r0, [r1, #-1545]!	; 0xfffff9f7
     ea8:	05010613 	streq	r0, [r1, #-1555]	; 0xfffff9ed
     eac:	05830609 	streq	r0, [r3, #1545]	; 0x609
     eb0:	05010633 	streq	r0, [r1, #-1587]	; 0xfffff9cd
     eb4:	052f0609 	streq	r0, [pc, #-1545]!	; 8b3 <SYS_MODE+0x894>
     eb8:	8201060f 	andhi	r0, r1, #15728640	; 0xf00000
     ebc:	19060905 	stmdbne	r6, {r0, r2, r8, fp}
     ec0:	01060f05 	tsteq	r6, r5, lsl #30
     ec4:	2f060905 	svccs	0x00060905
     ec8:	01060f05 	tsteq	r6, r5, lsl #30
     ecc:	4b060905 	blmi	1832e8 <SYS_MODE+0x1832c9>
     ed0:	01060d05 	tsteq	r6, r5, lsl #26
     ed4:	052e0c05 	streq	r0, [lr, #-3077]!	; 0xfffff3fb
     ed8:	0b052c0f 	bleq	14bf1c <SYS_MODE+0x14befd>
     edc:	11054d06 	tstne	r5, r6, lsl #26
     ee0:	0b050106 	bleq	141300 <SYS_MODE+0x1412e1>
     ee4:	11052f06 	tstne	r5, r6, lsl #30
     ee8:	09050106 	stmdbeq	r5, {r1, r2, r8}
     eec:	0f056a06 	svceq	0x00056a06
     ef0:	09050106 	stmdbeq	r5, {r1, r2, r8}
     ef4:	0f052f06 	svceq	0x00052f06
     ef8:	09050106 	stmdbeq	r5, {r1, r2, r8}
     efc:	0d054b06 	vstreq	d4, [r5, #-24]	; 0xffffffe8
     f00:	0c050106 	stfeqs	f0, [r5], {6}
     f04:	2c0f052e 	cfstr32cs	mvfx0, [pc], {46}	; 0x2e
     f08:	4d060b05 	vstrmi	d0, [r6, #-20]	; 0xffffffec
     f0c:	01061105 	tsteq	r6, r5, lsl #2
     f10:	2f060b05 	svccs	0x00060b05
     f14:	01061105 	tsteq	r6, r5, lsl #2
     f18:	6b060905 	blvs	183334 <SYS_MODE+0x183315>
     f1c:	01060f05 	tsteq	r6, r5, lsl #30
     f20:	2f060905 	svccs	0x00060905
     f24:	01060f05 	tsteq	r6, r5, lsl #30
     f28:	4b060905 	blmi	183344 <SYS_MODE+0x183325>
     f2c:	0f030505 	svceq	0x00030505
     f30:	060d0501 	streq	r0, [sp], -r1, lsl #10
     f34:	4a050501 	bmi	142340 <SYS_MODE+0x142321>
     f38:	03060905 	movweq	r0, #26885	; 0x6905
     f3c:	01b00274 	rorseq	r0, r4, r2
     f40:	060f0501 	streq	r0, [pc], -r1, lsl #10
     f44:	06090501 	streq	r0, [r9], -r1, lsl #10
     f48:	060f052f 	streq	r0, [pc], -pc, lsr #10
     f4c:	06090501 	streq	r0, [r9], -r1, lsl #10
     f50:	0f05304b 	svceq	0x0005304b
     f54:	09050106 	stmdbeq	r5, {r1, r2, r8}
     f58:	0f052f06 	svceq	0x00052f06
     f5c:	09050106 	stmdbeq	r5, {r1, r2, r8}
     f60:	0f034b06 	svceq	0x00034b06
     f64:	0c05132e 	stceq	3, cr1, [r5], {46}	; 0x2e
     f68:	0e050106 	adfeqs	f0, f5, f6
     f6c:	11056906 	tstne	r5, r6, lsl #18
     f70:	0e050106 	adfeqs	f0, f5, f6
     f74:	11054d06 	tstne	r5, r6, lsl #26
     f78:	0b050106 	bleq	141398 <SYS_MODE+0x141379>
     f7c:	05134e06 	ldreq	r4, [r3, #-3590]	; 0xfffff1fa
     f80:	05010611 	streq	r0, [r1, #-1553]	; 0xfffff9ef
     f84:	77032d10 	smladvc	r3, r0, sp, r2
     f88:	0609054a 	streq	r0, [r9], -sl, asr #10
     f8c:	052e0d03 	streq	r0, [lr, #-3331]!	; 0xfffff2fd
     f90:	0501060c 	streq	r0, [r1, #-1548]	; 0xfffff9f4
     f94:	054f0609 	strbeq	r0, [pc, #-1545]	; 993 <SYS_MODE+0x974>
     f98:	0501060c 	streq	r0, [r1, #-1548]	; 0xfffff9f4
     f9c:	054b060b 	strbeq	r0, [fp, #-1547]	; 0xfffff9f5
     fa0:	05010611 	streq	r0, [r1, #-1553]	; 0xfffff9ef
     fa4:	05320609 	ldreq	r0, [r2, #-1545]!	; 0xfffff9f7
     fa8:	0501060c 	streq	r0, [r1, #-1548]	; 0xfffff9f4
     fac:	052f060b 	streq	r0, [pc, #-1547]!	; 9a9 <SYS_MODE+0x98a>
     fb0:	05010611 	streq	r0, [r1, #-1553]	; 0xfffff9ef
     fb4:	05320609 	ldreq	r0, [r2, #-1545]!	; 0xfffff9f7
     fb8:	0501060c 	streq	r0, [r1, #-1548]	; 0xfffff9f4
     fbc:	0568060b 	strbeq	r0, [r8, #-1547]!	; 0xfffff9f5
     fc0:	0501060e 	streq	r0, [r1, #-1550]	; 0xfffff9f2
     fc4:	05500610 	ldrbeq	r0, [r0, #-1552]	; 0xfffff9f0
     fc8:	05010613 	streq	r0, [r1, #-1555]	; 0xfffff9ed
     fcc:	054f060d 	strbeq	r0, [pc, #-1549]	; 9c7 <SYS_MODE+0x9a8>
     fd0:	0501064c 	streq	r0, [r1, #-1612]	; 0xfffff9b4
     fd4:	0d054a3c 	vstreq	s8, [r5, #-240]	; 0xffffff10
     fd8:	08040200 	stmdaeq	r4, {r9}
     fdc:	38058306 	stmdacc	r5, {r1, r2, r8, r9, pc}
     fe0:	08040200 	stmdaeq	r4, {r9}
     fe4:	13050106 	movwne	r0, #20742	; 0x5106
     fe8:	08040200 	stmdaeq	r4, {r9}
     fec:	0402004a 	streq	r0, [r2], #-74	; 0xffffffb6
     ff0:	0200ba08 	andeq	fp, r0, #8, 20	; 0x8000
     ff4:	00660804 	rsbeq	r0, r6, r4, lsl #16
     ff8:	82080402 	andhi	r0, r8, #33554432	; 0x2000000
     ffc:	08040200 	stmdaeq	r4, {r9}
    1000:	0609052e 	streq	r0, [r9], -lr, lsr #10
    1004:	05011203 	streq	r1, [r1, #-515]	; 0xfffffdfd
    1008:	0501060f 	streq	r0, [r1, #-1551]	; 0xfffff9f1
    100c:	05670609 	strbeq	r0, [r7, #-1545]!	; 0xfffff9f7
    1010:	46030610 			; <UNDEFINED> instruction: 0x46030610
    1014:	0b054d2e 	bleq	1544d4 <SYS_MODE+0x1544b5>
    1018:	11055206 	tstne	r5, r6, lsl #4
    101c:	052e0106 	streq	r0, [lr, #-262]!	; 0xfffffefa
    1020:	1203060d 	andne	r0, r3, #13631488	; 0xd00000
    1024:	061d052e 	ldreq	r0, [sp], -lr, lsr #10
    1028:	060d0501 	streq	r0, [sp], -r1, lsl #10
    102c:	063d05d7 			; <UNDEFINED> instruction: 0x063d05d7
    1030:	9e130501 	cfmul32ls	mvfx0, mvfx3, mvfx1
    1034:	2e3c08ba 	mrccs	8, 1, r0, cr12, cr10, {5}
    1038:	32060d05 	andcc	r0, r6, #320	; 0x140
    103c:	01061805 	tsteq	r6, r5, lsl #16
    1040:	83060d05 	movwhi	r0, #27909	; 0x6d05
    1044:	01063805 	tsteq	r6, r5, lsl #16
    1048:	084a1305 	stmdaeq	sl, {r0, r2, r8, r9, ip}^
    104c:	052e8220 	streq	r8, [lr, #-544]!	; 0xfffffde0
    1050:	02000181 	andeq	r0, r0, #1073741856	; 0x40000020
    1054:	05310204 	ldreq	r0, [r1, #-516]!	; 0xfffffdfc
    1058:	66054a71 			; <UNDEFINED> instruction: 0x66054a71
    105c:	01810566 	orreq	r0, r1, r6, ror #10
    1060:	0b059e4a 	bleq	168990 <SYS_MODE+0x168971>
    1064:	0e051806 	cdpeq	8, 0, cr1, cr5, cr6, {0}
    1068:	10050106 	andne	r0, r5, r6, lsl #2
    106c:	13054f06 	movwne	r4, #24326	; 0x5f06
    1070:	0d050106 	stfeqs	f0, [r5, #-24]	; 0xffffffe8
    1074:	67054e06 	strvs	r4, [r5, -r6, lsl #28]
    1078:	4e050106 	adfmis	f0, f5, f6
    107c:	000d054a 	andeq	r0, sp, sl, asr #10
    1080:	06080402 	streq	r0, [r8], -r2, lsl #8
    1084:	00130583 	andseq	r0, r3, r3, lsl #11
    1088:	06080402 	streq	r0, [r8], -r2, lsl #8
    108c:	04020001 	streq	r0, [r2], #-1
    1090:	0200ba08 	andeq	fp, r0, #8, 20	; 0x8000
    1094:	00820804 	addeq	r0, r2, r4, lsl #16
    1098:	66080402 	strvs	r0, [r8], -r2, lsl #8
    109c:	08040200 	stmdaeq	r4, {r9}
    10a0:	0402002e 	streq	r0, [r2], #-46	; 0xffffffd2
    10a4:	0d052e08 	stceq	14, cr2, [r5, #-32]	; 0xffffffe0
    10a8:	01780306 	cmneq	r8, r6, lsl #6
    10ac:	01061305 	tsteq	r6, r5, lsl #6
    10b0:	2e82e408 	cdpcs	4, 8, cr14, cr2, cr8, {0}
    10b4:	32060d05 	andcc	r0, r6, #320	; 0x140
    10b8:	01061305 	tsteq	r6, r5, lsl #6
    10bc:	2ef22008 	cdpcs	0, 15, cr2, cr2, cr8, {0}
    10c0:	0001ae05 	andeq	sl, r1, r5, lsl #28
    10c4:	31020402 	tstcc	r2, r2, lsl #8
    10c8:	4a019505 	bmi	664e4 <SYS_MODE+0x664c5>
    10cc:	9e01ae05 	cdpls	14, 0, cr10, cr1, cr5, {0}
    10d0:	0609059e 			; <UNDEFINED> instruction: 0x0609059e
    10d4:	05010a03 	streq	r0, [r1, #-2563]	; 0xfffff5fd
    10d8:	0501060c 	streq	r0, [r1, #-1548]	; 0xfffff9f4
    10dc:	054b0609 	strbeq	r0, [fp, #-1545]	; 0xfffff9f7
    10e0:	0501060f 	streq	r0, [r1, #-1551]	; 0xfffff9f1
    10e4:	e5080609 	str	r0, [r8, #-1545]	; 0xfffff9f7
    10e8:	01060f05 	tsteq	r6, r5, lsl #30
    10ec:	67060905 	strvs	r0, [r6, -r5, lsl #18]
    10f0:	02001d05 	andeq	r1, r0, #320	; 0x140
    10f4:	052b0104 	streq	r0, [fp, #-260]!	; 0xfffffefc
    10f8:	04020023 	streq	r0, [r2], #-35	; 0xffffffdd
    10fc:	00010601 	andeq	r0, r1, r1, lsl #12
    1100:	2e010402 	cdpcs	4, 0, cr0, cr1, cr2, {0}
    1104:	03060905 	movweq	r0, #26885	; 0x6905
    1108:	1d052e09 	stcne	14, cr2, [r5, #-36]	; 0xffffffdc
    110c:	0c050106 	stfeqs	f0, [r5], {6}
    1110:	003105ba 	ldrhteq	r0, [r1], -sl
    1114:	06010402 	streq	r0, [r1], -r2, lsl #8
    1118:	0037052e 	eorseq	r0, r7, lr, lsr #10
    111c:	06010402 	streq	r0, [r1], -r2, lsl #8
    1120:	06090501 	streq	r0, [r9], -r1, lsl #10
    1124:	061d052f 	ldreq	r0, [sp], -pc, lsr #10
    1128:	4a0c0501 	bmi	302534 <SYS_MODE+0x302515>
    112c:	02003105 	andeq	r3, r0, #1073741825	; 0x40000001
    1130:	2e060104 	adfcss	f0, f6, f4
    1134:	02003705 	andeq	r3, r0, #1310720	; 0x140000
    1138:	01060104 	tsteq	r6, r4, lsl #2
    113c:	2f060905 	svccs	0x00060905
    1140:	01060f05 	tsteq	r6, r5, lsl #30
    1144:	08060905 	stmdaeq	r6, {r0, r2, r8, fp}
    1148:	060f05e5 	streq	r0, [pc], -r5, ror #11
    114c:	06090501 	streq	r0, [r9], -r1, lsl #10
    1150:	05143267 	ldreq	r3, [r4, #-615]	; 0xfffffd99
    1154:	2e01060c 	cfmadd32cs	mvax0, mvfx0, mvfx1, mvfx12
    1158:	052c1605 	streq	r1, [ip, #-1541]!	; 0xfffff9fb
    115c:	05360609 	ldreq	r0, [r6, #-1545]!	; 0xfffff9f7
    1160:	05010613 	streq	r0, [r1, #-1555]	; 0xfffff9ed
    1164:	062e6609 	strteq	r6, [lr], -r9, lsl #12
    1168:	060c05a0 	streq	r0, [ip], -r0, lsr #11
    116c:	06090501 	streq	r0, [r9], -r1, lsl #10
    1170:	060f054f 	streq	r0, [pc], -pc, asr #10
    1174:	06090501 	streq	r0, [r9], -r1, lsl #10
    1178:	030d0567 	movweq	r0, #54631	; 0xd567
    117c:	2e064a74 			; <UNDEFINED> instruction: 0x2e064a74
    1180:	05811305 	streq	r1, [r1, #773]	; 0x305
    1184:	11052f0d 	tstne	r5, sp, lsl #30
    1188:	13052d06 	movwne	r2, #23814	; 0x5d06
    118c:	11050106 	tstne	r5, r6, lsl #2
    1190:	16054a2e 	strne	r4, [r5], -lr, lsr #20
    1194:	4a4a4a47 	bmi	1293ab8 <SYS_MODE+0x1293a99>
    1198:	03060d05 	movweq	r0, #27909	; 0x6d05
    119c:	2e062e0c 	cdpcs	14, 0, cr2, cr6, cr12, {0}
    11a0:	05811305 	streq	r1, [r1, #773]	; 0x305
    11a4:	11052f0d 	tstne	r5, sp, lsl #30
    11a8:	13052d06 	movwne	r2, #23814	; 0x5d06
    11ac:	11050106 	tstne	r5, r6, lsl #2
    11b0:	054a4a2e 	strbeq	r4, [sl, #-2606]	; 0xfffff5d2
    11b4:	09030609 	stmdbeq	r3, {r0, r3, r9, sl}
    11b8:	06150501 	ldreq	r0, [r5], -r1, lsl #10
    11bc:	06090501 	streq	r0, [r9], -r1, lsl #10
    11c0:	061a0583 	ldreq	r0, [sl], -r3, lsl #11
    11c4:	06260501 	strteq	r0, [r6], -r1, lsl #10
    11c8:	9e7b9003 	cdpls	0, 7, cr9, cr11, cr3, {0}
    11cc:	05012205 	streq	r2, [r1, #-517]	; 0xfffffdfb
    11d0:	052e061e 	streq	r0, [lr, #-1566]!	; 0xfffff9e2
    11d4:	052e0611 	streq	r0, [lr, #-1553]!	; 0xfffff9ef
    11d8:	052e0603 	streq	r0, [lr, #-1539]!	; 0xfffff9fd
    11dc:	14054a1e 	strne	r4, [r5], #-2590	; 0xfffff5e2
    11e0:	0603052e 	streq	r0, [r3], -lr, lsr #10
    11e4:	061b054b 	ldreq	r0, [fp], -fp, asr #10
    11e8:	09052e01 	stmdbeq	r5, {r0, r9, sl, fp, sp}
    11ec:	04f10306 	ldrbteq	r0, [r1], #774	; 0x306
    11f0:	060c0501 	streq	r0, [ip], -r1, lsl #10
    11f4:	060b0501 	streq	r0, [fp], -r1, lsl #10
    11f8:	060d0567 	streq	r0, [sp], -r7, ror #10
    11fc:	06090501 	streq	r0, [r9], -r1, lsl #10
    1200:	060c054c 	streq	r0, [ip], -ip, asr #10
    1204:	054a6601 	strbeq	r6, [sl, #-1537]	; 0xfffff9ff
    1208:	4a4a291a 	bmi	128b678 <SYS_MODE+0x128b659>
    120c:	51060d05 	tstpl	r6, r5, lsl #26
    1210:	13052e06 	movwne	r2, #24070	; 0x5e06
    1214:	2f0d0581 	svccs	0x000d0581
    1218:	2d061105 	stfcss	f1, [r6, #-20]	; 0xffffffec
    121c:	01061305 	tsteq	r6, r5, lsl #6
    1220:	052e1105 	streq	r1, [lr, #-261]!	; 0xfffffefb
    1224:	45054a13 	strmi	r4, [r5, #-2579]	; 0xfffff5ed
    1228:	060b056b 	streq	r0, [fp], -fp, ror #10
    122c:	0612052f 	ldreq	r0, [r2], -pc, lsr #10
    1230:	2e0b0501 	cfsh32cs	mvfx0, mvfx11, #1
    1234:	060f052e 	streq	r0, [pc], -lr, lsr #10
    1238:	06110581 	ldreq	r0, [r1], -r1, lsl #11
    123c:	2e0f0501 	cfsh32cs	mvfx0, mvfx15, #1
    1240:	02001a05 	andeq	r1, r0, #20480	; 0x5000
    1244:	054a0104 	strbeq	r0, [sl, #-260]	; 0xfffffefc
    1248:	04020045 	streq	r0, [r2], #-69	; 0xffffffbb
    124c:	39054a02 	stmdbcc	r5, {r1, r9, fp, lr}
    1250:	02040200 	andeq	r0, r4, #0, 4
    1254:	4e0c052e 	cfsh32mi	mvfx0, mvfx12, #30
    1258:	2e060905 	vmlacs.f16	s0, s12, s10	; <UNPREDICTABLE>
    125c:	01060c05 	tsteq	r6, r5, lsl #24
    1260:	6b060905 	blvs	18367c <SYS_MODE+0x18365d>
    1264:	01060f05 	tsteq	r6, r5, lsl #30
    1268:	67060905 	strvs	r0, [r6, -r5, lsl #18]
    126c:	052e2e06 	streq	r2, [lr, #-3590]!	; 0xfffff1fa
    1270:	062a060d 	strteq	r0, [sl], -sp, lsl #12
    1274:	8113052e 	tsthi	r3, lr, lsr #10
    1278:	052f0d05 	streq	r0, [pc, #-3333]!	; 57b <SYS_MODE+0x55c>
    127c:	052d0611 	streq	r0, [sp, #-1553]!	; 0xfffff9ef
    1280:	05010613 	streq	r0, [r1, #-1555]	; 0xfffff9ed
    1284:	2e4a2e11 	mcrcs	14, 2, r2, cr10, cr1, {0}
    1288:	0609052e 	streq	r0, [r9], -lr, lsr #10
    128c:	13010903 	movwne	r0, #6403	; 0x1903
    1290:	01060f05 	tsteq	r6, r5, lsl #30
    1294:	30060905 	andcc	r0, r6, r5, lsl #18
    1298:	170b0513 	smladne	fp, r3, r5, r0
    129c:	01065105 	tsteq	r6, r5, lsl #2
    12a0:	05821105 	streq	r1, [r2, #261]	; 0x105
    12a4:	cc080609 	stcgt	6, cr0, [r8], {9}
    12a8:	01060f05 	tsteq	r6, r5, lsl #30
    12ac:	67060905 	strvs	r0, [r6, -r5, lsl #18]
    12b0:	16062e06 	strne	r2, [r6], -r6, lsl #28
    12b4:	9f062e06 	svcls	0x00062e06
    12b8:	01060f05 	tsteq	r6, r5, lsl #30
    12bc:	67060905 	strvs	r0, [r6, -r5, lsl #18]
    12c0:	06301006 	ldrteq	r1, [r0], -r6
    12c4:	062e0631 			; <UNDEFINED> instruction: 0x062e0631
    12c8:	060f0583 	streq	r0, [pc], -r3, lsl #11
    12cc:	06090501 	streq	r0, [r9], -r1, lsl #10
    12d0:	30100667 	andscc	r0, r0, r7, ror #12
    12d4:	2e7df803 	cdpcs	8, 7, cr15, cr13, cr3, {0}
    12d8:	03060305 	movweq	r0, #25349	; 0x6305
    12dc:	0066028d 	rsbeq	r0, r6, sp, lsl #5
    12e0:	06010402 	streq	r0, [r1], -r2, lsl #8
    12e4:	02002e2e 	andeq	r2, r0, #736	; 0x2e0
    12e8:	002e0404 	eoreq	r0, lr, r4, lsl #8
    12ec:	06040402 	streq	r0, [r4], -r2, lsl #8
    12f0:	00010585 	andeq	r0, r1, r5, lsl #11
    12f4:	06040402 	streq	r0, [r4], -r2, lsl #8
    12f8:	04020013 	streq	r0, [r2], #-19	; 0xffffffed
    12fc:	01006604 	tsteq	r0, r4, lsl #12
    1300:	00010501 	andeq	r0, r1, r1, lsl #10
    1304:	1ef80205 	cdpne	2, 15, cr0, cr8, cr5, {0}
    1308:	9003c200 	andls	ip, r3, r0, lsl #4
    130c:	03050101 	movweq	r0, #20737	; 0x5101
    1310:	01110513 	tsteq	r1, r3, lsl r5
    1314:	05011c05 	streq	r1, [r1, #-3077]	; 0xfffff3fb
    1318:	06051303 	streq	r1, [r5], -r3, lsl #6
    131c:	052e0106 	streq	r0, [lr, #-262]!	; 0xfffffefa
    1320:	05052c01 	streq	r2, [r5, #-3073]	; 0xfffff3ff
    1324:	01053106 	tsteq	r5, r6, lsl #2
    1328:	02023006 	andeq	r3, r2, #6
    132c:	05010100 	streq	r0, [r1, #-256]	; 0xffffff00
    1330:	02050001 	andeq	r0, r5, #1
    1334:	c2001f0c 	andgt	r1, r0, #12, 30	; 0x30
    1338:	0106d903 	tsteq	r6, r3, lsl #18
    133c:	03050106 	movweq	r0, #20742	; 0x5106
    1340:	4b136706 	blmi	4daf60 <SYS_MODE+0x4daf41>
    1344:	06130513 			; <UNDEFINED> instruction: 0x06130513
    1348:	06030501 	streq	r0, [r3], -r1, lsl #10
    134c:	010513d7 	ldrdeq	r1, [r5, -r7]
    1350:	08021306 	stmdaeq	r2, {r1, r2, r8, r9, ip}
    1354:	05010100 	streq	r0, [r1, #-256]	; 0xffffff00
    1358:	02050001 	andeq	r0, r5, #1
    135c:	00000000 	andeq	r0, r0, r0
    1360:	0106e403 	tsteq	r6, r3, lsl #8
    1364:	03050106 	movweq	r0, #20742	; 0x5106
    1368:	4b138306 	blmi	4e1f88 <SYS_MODE+0x4e1f69>
    136c:	01061305 	tsteq	r6, r5, lsl #6
    1370:	06030582 	streq	r0, [r3], -r2, lsl #11
    1374:	0105134b 	tsteq	r5, fp, asr #6
    1378:	08021306 	stmdaeq	r2, {r1, r2, r8, r9, ip}
    137c:	05010100 	streq	r0, [r1, #-256]	; 0xffffff00
    1380:	02050001 	andeq	r0, r5, #1
    1384:	00000000 	andeq	r0, r0, r0
    1388:	0106ee03 	tsteq	r6, r3, lsl #28
    138c:	03050106 	movweq	r0, #20742	; 0x5106
    1390:	4b138306 	blmi	4e1fb0 <SYS_MODE+0x4e1f91>
    1394:	01061305 	tsteq	r6, r5, lsl #6
    1398:	03052e66 	movweq	r2, #24166	; 0x5e66
    139c:	05134b06 	ldreq	r4, [r3, #-2822]	; 0xfffff4fa
    13a0:	02130601 	andseq	r0, r3, #1048576	; 0x100000
    13a4:	01010008 	tsteq	r1, r8
    13a8:	05000105 	streq	r0, [r0, #-261]	; 0xfffffefb
    13ac:	00000002 	andeq	r0, r0, r2
    13b0:	06f80300 	ldrbteq	r0, [r8], r0, lsl #6
    13b4:	05010601 	streq	r0, [r1, #-1537]	; 0xfffff9ff
    13b8:	13670603 	cmnne	r7, #3145728	; 0x300000
    13bc:	01060a05 	tsteq	r6, r5, lsl #20
    13c0:	4b010582 	blmi	429d0 <SYS_MODE+0x429b1>
    13c4:	01000402 	tsteq	r0, r2, lsl #8
    13c8:	00010501 	andeq	r0, r1, r1, lsl #10
    13cc:	00000205 	andeq	r0, r0, r5, lsl #4
    13d0:	ff030000 			; <UNDEFINED> instruction: 0xff030000
    13d4:	01060106 	tsteq	r6, r6, lsl #2
    13d8:	4b060305 	blmi	181ff4 <SYS_MODE+0x181fd5>
    13dc:	01060a05 	tsteq	r6, r5, lsl #20
    13e0:	2e2e2e4a 	cdpcs	14, 2, cr2, cr14, cr10, {2}
    13e4:	024b0105 	subeq	r0, fp, #1073741825	; 0x40000001
    13e8:	01010004 	tsteq	r1, r4
    13ec:	05000105 	streq	r0, [r0, #-261]	; 0xfffffefb
    13f0:	00000002 	andeq	r0, r0, r2
    13f4:	07850300 	streq	r0, [r5, r0, lsl #6]
    13f8:	05010601 	streq	r0, [r1, #-1537]	; 0xfffff9ff
    13fc:	13670603 	cmnne	r7, #3145728	; 0x300000
    1400:	061b054b 	ldreq	r0, [fp], -fp, asr #10
    1404:	06030501 	streq	r0, [r3], -r1, lsl #10
    1408:	0613054b 	ldreq	r0, [r3], -fp, asr #10
    140c:	03059e01 	movweq	r9, #24065	; 0x5e01
    1410:	05134b06 	ldreq	r4, [r3, #-2822]	; 0xfffff4fa
    1414:	02130601 	andseq	r0, r3, #1048576	; 0x100000
    1418:	01010008 	tsteq	r1, r8
    141c:	000000a2 	andeq	r0, r0, r2, lsr #1
    1420:	00700003 	rsbseq	r0, r0, r3
    1424:	01020000 	mrseq	r0, (UNDEF: 2)
    1428:	000d0efb 	strdeq	r0, [sp], -fp
    142c:	01010101 	tsteq	r1, r1, lsl #2
    1430:	01000000 	mrseq	r0, (UNDEF: 0)
    1434:	2f010000 	svccs	0x00010000
    1438:	656d6f68 	strbvs	r6, [sp, #-3944]!	; 0xfffff098
    143c:	6c7a632f 	ldclvs	3, cr6, [sl], #-188	; 0xffffff44
    1440:	2f786d69 	svccs	0x00786d69
    1444:	65646f63 	strbvs	r6, [r4, #-3939]!	; 0xfffff09d
    1448:	63617073 	cmnvs	r1, #115	; 0x73
    144c:	65742f65 	ldrbvs	r2, [r4, #-3941]!	; 0xfffff09b
    1450:	622f706d 	eorvs	r7, pc, #109	; 0x6d
    1454:	6d657261 	sfmvs	f7, 2, [r5, #-388]!	; 0xfffffe7c
    1458:	6c617465 	cfstrdvs	mvd7, [r1], #-404	; 0xfffffe6c
    145c:	726f665f 	rsbvc	r6, pc, #99614720	; 0x5f00000
    1460:	632f635f 			; <UNDEFINED> instruction: 0x632f635f
    1464:	2f65646f 	svccs	0x0065646f
    1468:	68637261 	stmdavs	r3!, {r0, r5, r6, r9, ip, sp, lr}^
    146c:	6d72612f 	ldfvse	f6, [r2, #-188]!	; 0xffffff44
    1470:	612d3776 			; <UNDEFINED> instruction: 0x612d3776
    1474:	6372732f 	cmnvs	r2, #-1140850688	; 0xbc000000
    1478:	72610000 	rsbvc	r0, r1, #0
    147c:	625f6863 	subsvs	r6, pc, #6488064	; 0x630000
    1480:	636e6172 	cmnvs	lr, #-2147483620	; 0x8000001c
    1484:	72705f68 	rsbsvc	r5, r0, #104, 30	; 0x1a0
    1488:	63696465 	cmnvs	r9, #1694498816	; 0x65000000
    148c:	2e726f74 	mrccs	15, 3, r6, cr2, cr4, {3}
    1490:	00010073 	andeq	r0, r1, r3, ror r0
    1494:	05000000 	streq	r0, [r0, #-0]
    1498:	0000f402 	andeq	pc, r0, r2, lsl #8
    149c:	010d03c2 	smlabteq	sp, r2, r3, r0
    14a0:	342f2f2f 	strtcc	r2, [pc], #-3887	; 14a8 <SYS_MODE+0x1489>
    14a4:	342f2f2f 	strtcc	r2, [pc], #-3887	; 14ac <SYS_MODE+0x148d>
    14a8:	30362f2f 	eorscc	r2, r6, pc, lsr #30
    14ac:	2f2f2f2f 	svccs	0x002f2f2f
    14b0:	302f2f2f 	eorcc	r2, pc, pc, lsr #30
    14b4:	2f302f2f 	svccs	0x00302f2f
    14b8:	2f302f2f 	svccs	0x00302f2f
    14bc:	0002022f 	andeq	r0, r2, pc, lsr #4
    14c0:	01490101 	cmpeq	r9, r1, lsl #2
    14c4:	00030000 	andeq	r0, r3, r0
    14c8:	00000065 	andeq	r0, r0, r5, rrx
    14cc:	0efb0102 	cdpeq	1, 15, cr0, cr11, cr2, {0}
    14d0:	0101000d 	tsteq	r1, sp
    14d4:	00000101 	andeq	r0, r0, r1, lsl #2
    14d8:	00000100 	andeq	r0, r0, r0, lsl #2
    14dc:	6f682f01 	svcvs	0x00682f01
    14e0:	632f656d 			; <UNDEFINED> instruction: 0x632f656d
    14e4:	6d696c7a 	stclvs	12, cr6, [r9, #-488]!	; 0xfffffe18
    14e8:	6f632f78 	svcvs	0x00632f78
    14ec:	70736564 	rsbsvc	r6, r3, r4, ror #10
    14f0:	2f656361 	svccs	0x00656361
    14f4:	706d6574 	rsbvc	r6, sp, r4, ror r5
    14f8:	7261622f 	rsbvc	r6, r1, #-268435454	; 0xf0000002
    14fc:	74656d65 	strbtvc	r6, [r5], #-3429	; 0xfffff29b
    1500:	665f6c61 	ldrbvs	r6, [pc], -r1, ror #24
    1504:	635f726f 	cmpvs	pc, #-268435450	; 0xf0000006
    1508:	646f632f 	strbtvs	r6, [pc], #-815	; 1510 <SYS_MODE+0x14f1>
    150c:	72612f65 	rsbvc	r2, r1, #404	; 0x194
    1510:	612f6863 			; <UNDEFINED> instruction: 0x612f6863
    1514:	37766d72 			; <UNDEFINED> instruction: 0x37766d72
    1518:	732f612d 			; <UNDEFINED> instruction: 0x732f612d
    151c:	00006372 	andeq	r6, r0, r2, ror r3
    1520:	68637261 	stmdavs	r3!, {r0, r5, r6, r9, ip, sp, lr}^
    1524:	6361635f 	cmnvs	r1, #2080374785	; 0x7c000001
    1528:	732e6568 			; <UNDEFINED> instruction: 0x732e6568
    152c:	00000100 	andeq	r0, r0, r0, lsl #2
    1530:	02050000 	andeq	r0, r5, #0
    1534:	c200016c 	andgt	r0, r0, #108, 2
    1538:	2f011803 	svccs	0x00011803
    153c:	2f342f2f 	svccs	0x00342f2f
    1540:	2f342f2f 	svccs	0x00342f2f
    1544:	2f342f2f 	svccs	0x00342f2f
    1548:	2f342f2f 	svccs	0x00342f2f
    154c:	2f30362f 	svccs	0x0030362f
    1550:	2f2f2f2f 	svccs	0x002f2f2f
    1554:	2f302f2f 	svccs	0x00302f2f
    1558:	2f2f302f 	svccs	0x002f302f
    155c:	2f2f302f 	svccs	0x002f302f
    1560:	2f302f34 	svccs	0x00302f34
    1564:	312f2f2f 			; <UNDEFINED> instruction: 0x312f2f2f
    1568:	2f2f2f2f 	svccs	0x002f2f2f
    156c:	2f2f2f30 	svccs	0x002f2f30
    1570:	2f2f2f2f 	svccs	0x002f2f2f
    1574:	312f312f 			; <UNDEFINED> instruction: 0x312f312f
    1578:	2f2f2f2f 	svccs	0x002f2f2f
    157c:	2f312f2f 	svccs	0x00312f2f
    1580:	2f312f2f 	svccs	0x00312f2f
    1584:	2f302f34 	svccs	0x00302f34
    1588:	312f2f2f 			; <UNDEFINED> instruction: 0x312f2f2f
    158c:	2f2f2f2f 	svccs	0x002f2f2f
    1590:	2f2f2f30 	svccs	0x002f2f30
    1594:	2f2f2f2f 	svccs	0x002f2f2f
    1598:	312f312f 			; <UNDEFINED> instruction: 0x312f312f
    159c:	2f2f2f2f 	svccs	0x002f2f2f
    15a0:	2f312f2f 	svccs	0x00312f2f
    15a4:	2f312f2f 	svccs	0x00312f2f
    15a8:	2f302f34 	svccs	0x00302f34
    15ac:	312f2f2f 			; <UNDEFINED> instruction: 0x312f2f2f
    15b0:	2f2f2f2f 	svccs	0x002f2f2f
    15b4:	2f2f2f30 	svccs	0x002f2f30
    15b8:	2f2f2f2f 	svccs	0x002f2f2f
    15bc:	312f312f 			; <UNDEFINED> instruction: 0x312f312f
    15c0:	2f2f2f2f 	svccs	0x002f2f2f
    15c4:	2f312f2f 	svccs	0x00312f2f
    15c8:	2f312f2f 	svccs	0x00312f2f
    15cc:	2f2f3036 	svccs	0x002f3036
    15d0:	2f2f2f2f 	svccs	0x002f2f2f
    15d4:	2f2f302f 	svccs	0x002f302f
    15d8:	2f2f2f30 	svccs	0x002f2f30
    15dc:	362f2f30 	qasxcc	r2, pc, r0	; <UNPREDICTABLE>
    15e0:	2f2f2f30 	svccs	0x002f2f30
    15e4:	2f2f2f2f 	svccs	0x002f2f2f
    15e8:	302f2f30 	eorcc	r2, pc, r0, lsr pc	; <UNPREDICTABLE>
    15ec:	302f2f2f 	eorcc	r2, pc, pc, lsr #30
    15f0:	30362f2f 	eorscc	r2, r6, pc, lsr #30
    15f4:	2f2f2f2f 	svccs	0x002f2f2f
    15f8:	302f2f2f 	eorcc	r2, pc, pc, lsr #30
    15fc:	2f302f2f 	svccs	0x00302f2f
    1600:	2f302f2f 	svccs	0x00302f2f
    1604:	7ea2032f 	cdpvc	3, 10, cr0, cr2, cr15, {1}
    1608:	0202342e 	andeq	r3, r2, #771751936	; 0x2e000000
    160c:	c6010100 	strgt	r0, [r1], -r0, lsl #2
    1610:	03000001 	movweq	r0, #1
    1614:	0000c600 	andeq	ip, r0, r0, lsl #12
    1618:	fb010200 	blx	41e22 <SYS_MODE+0x41e03>
    161c:	01000d0e 	tsteq	r0, lr, lsl #26
    1620:	00010101 	andeq	r0, r1, r1, lsl #2
    1624:	00010000 	andeq	r0, r1, r0
    1628:	682f0100 	stmdavs	pc!, {r8}	; <UNPREDICTABLE>
    162c:	2f656d6f 	svccs	0x00656d6f
    1630:	696c7a63 	stmdbvs	ip!, {r0, r1, r5, r6, r9, fp, ip, sp, lr}^
    1634:	632f786d 			; <UNDEFINED> instruction: 0x632f786d
    1638:	7365646f 	cmnvc	r5, #1862270976	; 0x6f000000
    163c:	65636170 	strbvs	r6, [r3, #-368]!	; 0xfffffe90
    1640:	6d65742f 	cfstrdvs	mvd7, [r5, #-188]!	; 0xffffff44
    1644:	61622f70 	smcvs	8944	; 0x22f0
    1648:	656d6572 	strbvs	r6, [sp, #-1394]!	; 0xfffffa8e
    164c:	5f6c6174 	svcpl	0x006c6174
    1650:	5f726f66 	svcpl	0x00726f66
    1654:	6f632f63 	svcvs	0x00632f63
    1658:	612f6564 			; <UNDEFINED> instruction: 0x612f6564
    165c:	2f686372 	svccs	0x00686372
    1660:	766d7261 	strbtvc	r7, [sp], -r1, ror #4
    1664:	2f612d37 	svccs	0x00612d37
    1668:	00637273 	rsbeq	r7, r3, r3, ror r2
    166c:	6d6f682f 	stclvs	8, cr6, [pc, #-188]!	; 15b8 <SYS_MODE+0x1599>
    1670:	7a632f65 	bvc	18cd40c <SYS_MODE+0x18cd3ed>
    1674:	786d696c 	stmdavc	sp!, {r2, r3, r5, r6, r8, fp, sp, lr}^
    1678:	646f632f 	strbtvs	r6, [pc], #-815	; 1680 <SYS_MODE+0x1661>
    167c:	61707365 	cmnvs	r0, r5, ror #6
    1680:	742f6563 	strtvc	r6, [pc], #-1379	; 1688 <SYS_MODE+0x1669>
    1684:	2f706d65 	svccs	0x00706d65
    1688:	65726162 	ldrbvs	r6, [r2, #-354]!	; 0xfffffe9e
    168c:	6174656d 	cmnvs	r4, sp, ror #10
    1690:	6f665f6c 	svcvs	0x00665f6c
    1694:	2f635f72 	svccs	0x00635f72
    1698:	65646f63 	strbvs	r6, [r4, #-3939]!	; 0xfffff09d
    169c:	6372612f 	cmnvs	r2, #-1073741813	; 0xc000000b
    16a0:	72612f68 	rsbvc	r2, r1, #104, 30	; 0x1a0
    16a4:	2d37766d 	ldccs	6, cr7, [r7, #-436]!	; 0xfffffe4c
    16a8:	6e692f61 	cdpvs	15, 6, cr2, cr9, cr1, {3}
    16ac:	61000063 	tstvs	r0, r3, rrx
    16b0:	5f686372 	svcpl	0x00686372
    16b4:	2e757063 	cdpcs	0, 7, cr7, cr5, cr3, {3}
    16b8:	00010063 	andeq	r0, r1, r3, rrx
    16bc:	63726100 	cmnvs	r2, #0, 2
    16c0:	6f635f68 	svcvs	0x00635f68
    16c4:	6c69706d 	stclvs	0, cr7, [r9], #-436	; 0xfffffe4c
    16c8:	682e7265 	stmdavs	lr!, {r0, r2, r5, r6, r9, ip, sp, lr}
    16cc:	00000200 	andeq	r0, r0, r0, lsl #4
    16d0:	68637261 	stmdavs	r3!, {r0, r5, r6, r9, ip, sp, lr}^
    16d4:	756d705f 	strbvc	r7, [sp, #-95]!	; 0xffffffa1
    16d8:	0200682e 	andeq	r6, r0, #3014656	; 0x2e0000
    16dc:	05000000 	streq	r0, [r0, #-0]
    16e0:	02050001 	andeq	r0, r5, #1
    16e4:	c2001f4c 	andgt	r1, r0, #76, 30	; 0x130
    16e8:	13050519 	movwne	r0, #21785	; 0x5519
    16ec:	6c060105 	stfvss	f0, [r6], {5}
    16f0:	01000202 	tsteq	r0, r2, lsl #4
    16f4:	00010501 	andeq	r0, r1, r1, lsl #10
    16f8:	00000205 	andeq	r0, r0, r5, lsl #4
    16fc:	15030000 	strne	r0, [r3, #-0]
    1700:	13050501 	movwne	r0, #21761	; 0x5501
    1704:	01052f13 	tsteq	r5, r3, lsl pc
    1708:	02021306 	andeq	r1, r2, #402653184	; 0x18000000
    170c:	05010100 	streq	r0, [r1, #-256]	; 0xffffff00
    1710:	02050001 	andeq	r0, r5, #1
    1714:	00000000 	andeq	r0, r0, r0
    1718:	06012003 	streq	r2, [r1], -r3
    171c:	06050501 	streq	r0, [r5], -r1, lsl #10
    1720:	06170567 	ldreq	r0, [r7], -r7, ror #10
    1724:	4a230501 	bmi	8c2b30 <SYS_MODE+0x8c2b11>
    1728:	052e3205 	streq	r3, [lr, #-517]!	; 0xfffffdfb
    172c:	05300605 	ldreq	r0, [r0, #-1541]!	; 0xfffff9fb
    1730:	05010611 	streq	r0, [r1, #-1553]	; 0xfffff9ef
    1734:	05052e0f 	streq	r2, [r5, #-3599]	; 0xfffff1f1
    1738:	18052f06 	stmdane	r5, {r1, r2, r8, r9, sl, fp, sp}
    173c:	0c050106 	stfeqs	f0, [r5], {6}
    1740:	0605054a 	streq	r0, [r5], -sl, asr #10
    1744:	06100530 			; <UNDEFINED> instruction: 0x06100530
    1748:	4a080501 	bmi	202b54 <SYS_MODE+0x202b35>
    174c:	02000905 	andeq	r0, r0, #81920	; 0x14000
    1750:	4d060204 	sfmmi	f0, 4, [r6, #-16]
    1754:	02000d05 	andeq	r0, r0, #320	; 0x140
    1758:	05140204 	ldreq	r0, [r4, #-516]	; 0xfffffdfc
    175c:	0402001b 	streq	r0, [r2], #-27	; 0xffffffe5
    1760:	05010602 	streq	r0, [r1, #-1538]	; 0xfffff9fe
    1764:	04020019 	streq	r0, [r2], #-25	; 0xffffffe7
    1768:	11052e02 	tstne	r5, r2, lsl #28
    176c:	02040200 	andeq	r0, r4, #0, 4
    1770:	1f052f06 	svcne	0x00052f06
    1774:	02040200 	andeq	r0, r4, #0, 4
    1778:	09050106 	stmdbeq	r5, {r1, r2, r8}
    177c:	02040200 	andeq	r0, r4, #0, 4
    1780:	0039054a 	eorseq	r0, r9, sl, asr #10
    1784:	4a010402 	bmi	42794 <SYS_MODE+0x42775>
    1788:	02002905 	andeq	r2, r0, #81920	; 0x14000
    178c:	054a0104 	strbeq	r0, [sl, #-260]	; 0xfffffefc
    1790:	04020009 	streq	r0, [r2], #-9
    1794:	056b0603 	strbeq	r0, [fp, #-1539]!	; 0xfffff9fd
    1798:	0402000d 	streq	r0, [r2], #-13
    179c:	1b051403 	blne	1467b0 <SYS_MODE+0x146791>
    17a0:	03040200 	movweq	r0, #16896	; 0x4200
    17a4:	19050106 	stmdbne	r5, {r1, r2, r8}
    17a8:	03040200 	movweq	r0, #16896	; 0x4200
    17ac:	0011052e 	andseq	r0, r1, lr, lsr #10
    17b0:	06030402 	streq	r0, [r3], -r2, lsl #8
    17b4:	001f052f 	andseq	r0, pc, pc, lsr #10
    17b8:	06030402 	streq	r0, [r3], -r2, lsl #8
    17bc:	00090501 	andeq	r0, r9, r1, lsl #10
    17c0:	4a030402 	bmi	c27d0 <SYS_MODE+0xc27b1>
    17c4:	02003c05 	andeq	r3, r0, #1280	; 0x500
    17c8:	054a0204 	strbeq	r0, [sl, #-516]	; 0xfffffdfc
    17cc:	0402002c 	streq	r0, [r2], #-44	; 0xffffffd4
    17d0:	01054a02 	tsteq	r5, r2, lsl #20
    17d4:	01004a4c 	tsteq	r0, ip, asr #20
    17d8:	00008301 	andeq	r8, r0, r1, lsl #6
    17dc:	69000300 	stmdbvs	r0, {r8, r9}
    17e0:	02000000 	andeq	r0, r0, #0
    17e4:	0d0efb01 	vstreq	d15, [lr, #-4]
    17e8:	01010100 	mrseq	r0, (UNDEF: 17)
    17ec:	00000001 	andeq	r0, r0, r1
    17f0:	01000001 	tsteq	r0, r1
    17f4:	6d6f682f 	stclvs	8, cr6, [pc, #-188]!	; 1740 <SYS_MODE+0x1721>
    17f8:	7a632f65 	bvc	18cd594 <SYS_MODE+0x18cd575>
    17fc:	786d696c 	stmdavc	sp!, {r2, r3, r5, r6, r8, fp, sp, lr}^
    1800:	646f632f 	strbtvs	r6, [pc], #-815	; 1808 <SYS_MODE+0x17e9>
    1804:	61707365 	cmnvs	r0, r5, ror #6
    1808:	742f6563 	strtvc	r6, [pc], #-1379	; 1810 <SYS_MODE+0x17f1>
    180c:	2f706d65 	svccs	0x00706d65
    1810:	65726162 	ldrbvs	r6, [r2, #-354]!	; 0xfffffe9e
    1814:	6174656d 	cmnvs	r4, sp, ror #10
    1818:	6f665f6c 	svcvs	0x00665f6c
    181c:	2f635f72 	svccs	0x00635f72
    1820:	65646f63 	strbvs	r6, [r4, #-3939]!	; 0xfffff09d
    1824:	6372612f 	cmnvs	r2, #-1073741813	; 0xc000000b
    1828:	72612f68 	rsbvc	r2, r1, #104, 30	; 0x1a0
    182c:	2d37766d 	ldccs	6, cr7, [r7, #-436]!	; 0xfffffe4c
    1830:	72732f61 	rsbsvc	r2, r3, #388	; 0x184
    1834:	61000063 	tstvs	r0, r3, rrx
    1838:	5f686372 	svcpl	0x00686372
    183c:	65637865 	strbvs	r7, [r3, #-2149]!	; 0xfffff79b
    1840:	6f697470 	svcvs	0x00697470
    1844:	00732e6e 	rsbseq	r2, r3, lr, ror #28
    1848:	00000001 	andeq	r0, r0, r1
    184c:	a0020500 	andge	r0, r2, r0, lsl #10
    1850:	03c20004 	biceq	r0, r2, #4
    1854:	3534010c 	ldrcc	r0, [r4, #-268]!	; 0xfffffef4
    1858:	02313131 	eorseq	r3, r1, #1073741836	; 0x4000000c
    185c:	01010002 	tsteq	r1, r2
    1860:	00000088 	andeq	r0, r0, r8, lsl #1
    1864:	00630003 	rsbeq	r0, r3, r3
    1868:	01020000 	mrseq	r0, (UNDEF: 2)
    186c:	000d0efb 	strdeq	r0, [sp], -fp
    1870:	01010101 	tsteq	r1, r1, lsl #2
    1874:	01000000 	mrseq	r0, (UNDEF: 0)
    1878:	2f010000 	svccs	0x00010000
    187c:	656d6f68 	strbvs	r6, [sp, #-3944]!	; 0xfffff098
    1880:	6c7a632f 	ldclvs	3, cr6, [sl], #-188	; 0xffffff44
    1884:	2f786d69 	svccs	0x00786d69
    1888:	65646f63 	strbvs	r6, [r4, #-3939]!	; 0xfffff09d
    188c:	63617073 	cmnvs	r1, #115	; 0x73
    1890:	65742f65 	ldrbvs	r2, [r4, #-3941]!	; 0xfffff09b
    1894:	622f706d 	eorvs	r7, pc, #109	; 0x6d
    1898:	6d657261 	sfmvs	f7, 2, [r5, #-388]!	; 0xfffffe7c
    189c:	6c617465 	cfstrdvs	mvd7, [r1], #-404	; 0xfffffe6c
    18a0:	726f665f 	rsbvc	r6, pc, #99614720	; 0x5f00000
    18a4:	632f635f 			; <UNDEFINED> instruction: 0x632f635f
    18a8:	2f65646f 	svccs	0x0065646f
    18ac:	68637261 	stmdavs	r3!, {r0, r5, r6, r9, ip, sp, lr}^
    18b0:	6d72612f 	ldfvse	f6, [r2, #-188]!	; 0xffffff44
    18b4:	612d3776 			; <UNDEFINED> instruction: 0x612d3776
    18b8:	6372732f 	cmnvs	r2, #-1140850688	; 0xbc000000
    18bc:	72610000 	rsbvc	r0, r1, #0
    18c0:	665f6863 	ldrbvs	r6, [pc], -r3, ror #16
    18c4:	732e7570 			; <UNDEFINED> instruction: 0x732e7570
    18c8:	00000100 	andeq	r0, r0, r0, lsl #2
    18cc:	02050000 	andeq	r0, r5, #0
    18d0:	c20004b8 	andgt	r0, r0, #184, 8	; 0xb8000000
    18d4:	2f010e03 	svccs	0x00010e03
    18d8:	2f2f312f 	svccs	0x002f312f
    18dc:	302f2f31 	eorcc	r2, pc, r1, lsr pc	; <UNPREDICTABLE>
    18e0:	312f2f35 			; <UNDEFINED> instruction: 0x312f2f35
    18e4:	02302f2f 	eorseq	r2, r0, #47, 30	; 0xbc
    18e8:	01010002 	tsteq	r1, r2
    18ec:	00000227 	andeq	r0, r0, r7, lsr #4
    18f0:	01ec0003 	mvneq	r0, r3
    18f4:	01020000 	mrseq	r0, (UNDEF: 2)
    18f8:	000d0efb 	strdeq	r0, [sp], -fp
    18fc:	01010101 	tsteq	r1, r1, lsl #2
    1900:	01000000 	mrseq	r0, (UNDEF: 0)
    1904:	2f010000 	svccs	0x00010000
    1908:	656d6f68 	strbvs	r6, [sp, #-3944]!	; 0xfffff098
    190c:	6c7a632f 	ldclvs	3, cr6, [sl], #-188	; 0xffffff44
    1910:	2f786d69 	svccs	0x00786d69
    1914:	65646f63 	strbvs	r6, [r4, #-3939]!	; 0xfffff09d
    1918:	63617073 	cmnvs	r1, #115	; 0x73
    191c:	65742f65 	ldrbvs	r2, [r4, #-3941]!	; 0xfffff09b
    1920:	622f706d 	eorvs	r7, pc, #109	; 0x6d
    1924:	6d657261 	sfmvs	f7, 2, [r5, #-388]!	; 0xfffffe7c
    1928:	6c617465 	cfstrdvs	mvd7, [r1], #-404	; 0xfffffe6c
    192c:	726f665f 	rsbvc	r6, pc, #99614720	; 0x5f00000
    1930:	632f635f 			; <UNDEFINED> instruction: 0x632f635f
    1934:	2f65646f 	svccs	0x0065646f
    1938:	68637261 	stmdavs	r3!, {r0, r5, r6, r9, ip, sp, lr}^
    193c:	6d72612f 	ldfvse	f6, [r2, #-188]!	; 0xffffff44
    1940:	612d3776 			; <UNDEFINED> instruction: 0x612d3776
    1944:	6372732f 	cmnvs	r2, #-1140850688	; 0xbc000000
    1948:	6f682f00 	svcvs	0x00682f00
    194c:	632f656d 			; <UNDEFINED> instruction: 0x632f656d
    1950:	6d696c7a 	stclvs	12, cr6, [r9, #-488]!	; 0xfffffe18
    1954:	6f632f78 	svcvs	0x00632f78
    1958:	70736564 	rsbsvc	r6, r3, r4, ror #10
    195c:	2f656361 	svccs	0x00656361
    1960:	706d6574 	rsbvc	r6, sp, r4, ror r5
    1964:	7261622f 	rsbvc	r6, r1, #-268435454	; 0xf0000002
    1968:	74656d65 	strbtvc	r6, [r5], #-3429	; 0xfffff29b
    196c:	665f6c61 	ldrbvs	r6, [pc], -r1, ror #24
    1970:	635f726f 	cmpvs	pc, #-268435450	; 0xf0000006
    1974:	646f632f 	strbtvs	r6, [pc], #-815	; 197c <SYS_MODE+0x195d>
    1978:	696c2f65 	stmdbvs	ip!, {r0, r2, r5, r6, r8, r9, sl, fp, sp}^
    197c:	692f6362 	stmdbvs	pc!, {r1, r5, r6, r8, r9, sp, lr}	; <UNPREDICTABLE>
    1980:	2f00636e 	svccs	0x0000636e
    1984:	656d6f68 	strbvs	r6, [sp, #-3944]!	; 0xfffff098
    1988:	6c7a632f 	ldclvs	3, cr6, [sl], #-188	; 0xffffff44
    198c:	2f786d69 	svccs	0x00786d69
    1990:	65646f63 	strbvs	r6, [r4, #-3939]!	; 0xfffff09d
    1994:	63617073 	cmnvs	r1, #115	; 0x73
    1998:	65742f65 	ldrbvs	r2, [r4, #-3941]!	; 0xfffff09b
    199c:	622f706d 	eorvs	r7, pc, #109	; 0x6d
    19a0:	6d657261 	sfmvs	f7, 2, [r5, #-388]!	; 0xfffffe7c
    19a4:	6c617465 	cfstrdvs	mvd7, [r1], #-404	; 0xfffffe6c
    19a8:	726f665f 	rsbvc	r6, pc, #99614720	; 0x5f00000
    19ac:	632f635f 			; <UNDEFINED> instruction: 0x632f635f
    19b0:	2f65646f 	svccs	0x0065646f
    19b4:	72616f62 	rsbvc	r6, r1, #392	; 0x188
    19b8:	6d612f64 	stclvs	15, cr2, [r1, #-400]!	; 0xfffffe70
    19bc:	38353333 	ldmdacc	r5!, {r0, r1, r4, r5, r8, r9, ip, sp}
    19c0:	7972742f 	ldmdbvc	r2!, {r0, r1, r2, r3, r5, sl, ip, sp, lr}^
    19c4:	736f7472 	cmnvc	pc, #1912602624	; 0x72000000
    19c8:	636e692f 	cmnvs	lr, #770048	; 0xbc000
    19cc:	6f682f00 	svcvs	0x00682f00
    19d0:	632f656d 			; <UNDEFINED> instruction: 0x632f656d
    19d4:	6d696c7a 	stclvs	12, cr6, [r9, #-488]!	; 0xfffffe18
    19d8:	6f632f78 	svcvs	0x00632f78
    19dc:	70736564 	rsbsvc	r6, r3, r4, ror #10
    19e0:	2f656361 	svccs	0x00656361
    19e4:	706d6574 	rsbvc	r6, sp, r4, ror r5
    19e8:	7261622f 	rsbvc	r6, r1, #-268435454	; 0xf0000002
    19ec:	74656d65 	strbtvc	r6, [r5], #-3429	; 0xfffff29b
    19f0:	665f6c61 	ldrbvs	r6, [pc], -r1, ror #24
    19f4:	635f726f 	cmpvs	pc, #-268435450	; 0xf0000006
    19f8:	646f632f 	strbtvs	r6, [pc], #-815	; 1a00 <SYS_MODE+0x19e1>
    19fc:	72612f65 	rsbvc	r2, r1, #404	; 0x194
    1a00:	612f6863 			; <UNDEFINED> instruction: 0x612f6863
    1a04:	37766d72 			; <UNDEFINED> instruction: 0x37766d72
    1a08:	692f612d 	stmdbvs	pc!, {r0, r2, r3, r5, r8, sp, lr}	; <UNPREDICTABLE>
    1a0c:	0000636e 	andeq	r6, r0, lr, ror #6
    1a10:	68637261 	stmdavs	r3!, {r0, r5, r6, r9, ip, sp, lr}^
    1a14:	696e695f 	stmdbvs	lr!, {r0, r1, r2, r3, r4, r6, r8, fp, sp, lr}^
    1a18:	00632e74 	rsbeq	r2, r3, r4, ror lr
    1a1c:	6c000001 	stcvs	0, cr0, [r0], {1}
    1a20:	5f636269 	svcpl	0x00636269
    1a24:	6f6d656d 	svcvs	0x006d656d
    1a28:	682e7972 	stmdavs	lr!, {r1, r4, r5, r6, r8, fp, ip, sp, lr}
    1a2c:	00000200 	andeq	r0, r0, r0, lsl #4
    1a30:	72616f62 	rsbvc	r6, r1, #392	; 0x188
    1a34:	6e695f64 	cdpvs	15, 6, cr5, cr9, cr4, {3}
    1a38:	682e7469 	stmdavs	lr!, {r0, r3, r5, r6, sl, ip, sp, lr}
    1a3c:	00000300 	andeq	r0, r0, r0, lsl #6
    1a40:	68637261 	stmdavs	r3!, {r0, r5, r6, r9, ip, sp, lr}^
    1a44:	626c745f 	rsbvs	r7, ip, #1593835520	; 0x5f000000
    1a48:	0400682e 	streq	r6, [r0], #-2094	; 0xfffff7d2
    1a4c:	72610000 	rsbvc	r0, r1, #0
    1a50:	6d5f6863 	ldclvs	8, cr6, [pc, #-396]	; 18cc <SYS_MODE+0x18ad>
    1a54:	682e756d 	stmdavs	lr!, {r0, r2, r3, r5, r6, r8, sl, ip, sp, lr}
    1a58:	00000400 	andeq	r0, r0, r0, lsl #8
    1a5c:	68637261 	stmdavs	r3!, {r0, r5, r6, r9, ip, sp, lr}^
    1a60:	6361635f 	cmnvs	r1, #2080374785	; 0x7c000001
    1a64:	682e6568 	stmdavs	lr!, {r3, r5, r6, r8, sl, sp, lr}
    1a68:	00000400 	andeq	r0, r0, r0, lsl #8
    1a6c:	68637261 	stmdavs	r3!, {r0, r5, r6, r9, ip, sp, lr}^
    1a70:	6172625f 	cmnvs	r2, pc, asr r2
    1a74:	5f68636e 	svcpl	0x0068636e
    1a78:	64657270 	strbtvs	r7, [r5], #-624	; 0xfffffd90
    1a7c:	6f746369 	svcvs	0x00746369
    1a80:	00682e72 	rsbeq	r2, r8, r2, ror lr
    1a84:	61000004 	tstvs	r0, r4
    1a88:	5f686372 	svcpl	0x00686372
    1a8c:	2e757063 	cdpcs	0, 7, cr7, cr5, cr3, {3}
    1a90:	00040068 	andeq	r0, r4, r8, rrx
    1a94:	63726100 	cmnvs	r2, #0, 2
    1a98:	72695f68 	rsbvc	r5, r9, #104, 30	; 0x1a0
    1a9c:	00682e71 	rsbeq	r2, r8, r1, ror lr
    1aa0:	61000004 	tstvs	r0, r4
    1aa4:	5f686372 	svcpl	0x00686372
    1aa8:	2e756d70 	mrccs	13, 3, r6, cr5, cr0, {3}
    1aac:	00040068 	andeq	r0, r4, r8, rrx
    1ab0:	63726100 	cmnvs	r2, #0, 2
    1ab4:	70665f68 	rsbvc	r5, r6, r8, ror #30
    1ab8:	00682e75 	rsbeq	r2, r8, r5, ror lr
    1abc:	61000004 	tstvs	r0, r4
    1ac0:	5f686372 	svcpl	0x00686372
    1ac4:	74696e69 	strbtvc	r6, [r9], #-3689	; 0xfffff197
    1ac8:	0400682e 	streq	r6, [r0], #-2094	; 0xfffff7d2
    1acc:	72610000 	rsbvc	r0, r1, #0
    1ad0:	635f6863 	cmpvs	pc, #6488064	; 0x630000
    1ad4:	69706d6f 	ldmdbvs	r0!, {r0, r1, r2, r3, r5, r6, r8, sl, fp, sp, lr}^
    1ad8:	2e72656c 	cdpcs	5, 7, cr6, cr2, cr12, {3}
    1adc:	00040068 	andeq	r0, r4, r8, rrx
    1ae0:	01050000 	mrseq	r0, (UNDEF: 5)
    1ae4:	5c020500 	cfstr32pl	mvfx0, [r2], {-0}
    1ae8:	03c2001f 	biceq	r0, r2, #31
    1aec:	05050114 	streq	r0, [r5, #-276]	; 0xfffffeec
    1af0:	062d0530 			; <UNDEFINED> instruction: 0x062d0530
    1af4:	9e050501 	cfsh32ls	mvfx0, mvfx5, #1
    1af8:	31316906 	teqcc	r1, r6, lsl #18
    1afc:	2f312f31 	svccs	0x00312f31
    1b00:	31312f31 	teqcc	r1, r1, lsr pc
    1b04:	2f2f3131 	svccs	0x002f3131
    1b08:	05313131 	ldreq	r3, [r1, #-305]!	; 0xfffffecf
    1b0c:	0501060b 	streq	r0, [r1, #-1547]	; 0xfffff9f5
    1b10:	02022f01 	andeq	r2, r2, #1, 30
    1b14:	22010100 	andcs	r0, r1, #0, 2
    1b18:	03000002 	movweq	r0, #2
    1b1c:	00011800 	andeq	r1, r1, r0, lsl #16
    1b20:	fb010200 	blx	4232a <SYS_MODE+0x4230b>
    1b24:	01000d0e 	tsteq	r0, lr, lsl #26
    1b28:	00010101 	andeq	r0, r1, r1, lsl #2
    1b2c:	00010000 	andeq	r0, r1, r0
    1b30:	682f0100 	stmdavs	pc!, {r8}	; <UNPREDICTABLE>
    1b34:	2f656d6f 	svccs	0x00656d6f
    1b38:	696c7a63 	stmdbvs	ip!, {r0, r1, r5, r6, r9, fp, ip, sp, lr}^
    1b3c:	632f786d 			; <UNDEFINED> instruction: 0x632f786d
    1b40:	7365646f 	cmnvc	r5, #1862270976	; 0x6f000000
    1b44:	65636170 	strbvs	r6, [r3, #-368]!	; 0xfffffe90
    1b48:	6d65742f 	cfstrdvs	mvd7, [r5, #-188]!	; 0xffffff44
    1b4c:	61622f70 	smcvs	8944	; 0x22f0
    1b50:	656d6572 	strbvs	r6, [sp, #-1394]!	; 0xfffffa8e
    1b54:	5f6c6174 	svcpl	0x006c6174
    1b58:	5f726f66 	svcpl	0x00726f66
    1b5c:	6f632f63 	svcvs	0x00632f63
    1b60:	612f6564 			; <UNDEFINED> instruction: 0x612f6564
    1b64:	2f686372 	svccs	0x00686372
    1b68:	766d7261 	strbtvc	r7, [sp], -r1, ror #4
    1b6c:	2f612d37 	svccs	0x00612d37
    1b70:	00637273 	rsbeq	r7, r3, r3, ror r2
    1b74:	6d6f682f 	stclvs	8, cr6, [pc, #-188]!	; 1ac0 <SYS_MODE+0x1aa1>
    1b78:	7a632f65 	bvc	18cd914 <SYS_MODE+0x18cd8f5>
    1b7c:	786d696c 	stmdavc	sp!, {r2, r3, r5, r6, r8, fp, sp, lr}^
    1b80:	646f632f 	strbtvs	r6, [pc], #-815	; 1b88 <SYS_MODE+0x1b69>
    1b84:	61707365 	cmnvs	r0, r5, ror #6
    1b88:	742f6563 	strtvc	r6, [pc], #-1379	; 1b90 <SYS_MODE+0x1b71>
    1b8c:	2f706d65 	svccs	0x00706d65
    1b90:	65726162 	ldrbvs	r6, [r2, #-354]!	; 0xfffffe9e
    1b94:	6174656d 	cmnvs	r4, sp, ror #10
    1b98:	6f665f6c 	svcvs	0x00665f6c
    1b9c:	2f635f72 	svccs	0x00635f72
    1ba0:	65646f63 	strbvs	r6, [r4, #-3939]!	; 0xfffff09d
    1ba4:	6372612f 	cmnvs	r2, #-1073741813	; 0xc000000b
    1ba8:	72612f68 	rsbvc	r2, r1, #104, 30	; 0x1a0
    1bac:	2d37766d 	ldccs	6, cr7, [r7, #-436]!	; 0xfffffe4c
    1bb0:	6e692f61 	cdpvs	15, 6, cr2, cr9, cr1, {3}
    1bb4:	682f0063 	stmdavs	pc!, {r0, r1, r5, r6}	; <UNPREDICTABLE>
    1bb8:	2f656d6f 	svccs	0x00656d6f
    1bbc:	696c7a63 	stmdbvs	ip!, {r0, r1, r5, r6, r9, fp, ip, sp, lr}^
    1bc0:	632f786d 			; <UNDEFINED> instruction: 0x632f786d
    1bc4:	7365646f 	cmnvc	r5, #1862270976	; 0x6f000000
    1bc8:	65636170 	strbvs	r6, [r3, #-368]!	; 0xfffffe90
    1bcc:	6d65742f 	cfstrdvs	mvd7, [r5, #-188]!	; 0xffffff44
    1bd0:	61622f70 	smcvs	8944	; 0x22f0
    1bd4:	656d6572 	strbvs	r6, [sp, #-1394]!	; 0xfffffa8e
    1bd8:	5f6c6174 	svcpl	0x006c6174
    1bdc:	5f726f66 	svcpl	0x00726f66
    1be0:	6f632f63 	svcvs	0x00632f63
    1be4:	642f6564 	strtvs	r6, [pc], #-1380	; 1bec <SYS_MODE+0x1bcd>
    1be8:	65766972 	ldrbvs	r6, [r6, #-2418]!	; 0xfffff68e
    1bec:	6d612f72 	stclvs	15, cr2, [r1, #-456]!	; 0xfffffe38
    1bf0:	78353333 	ldmdavc	r5!, {r0, r1, r4, r5, r8, r9, ip, sp}
    1bf4:	636e692f 	cmnvs	lr, #770048	; 0xbc000
    1bf8:	72610000 	rsbvc	r0, r1, #0
    1bfc:	695f6863 	ldmdbvs	pc, {r0, r1, r5, r6, fp, sp, lr}^	; <UNPREDICTABLE>
    1c00:	632e7172 			; <UNDEFINED> instruction: 0x632e7172
    1c04:	00000100 	andeq	r0, r0, r0, lsl #2
    1c08:	68637261 	stmdavs	r3!, {r0, r5, r6, r9, ip, sp, lr}^
    1c0c:	6d6f635f 	stclvs	3, cr6, [pc, #-380]!	; 1a98 <SYS_MODE+0x1a79>
    1c10:	656c6970 	strbvs	r6, [ip, #-2416]!	; 0xfffff690
    1c14:	00682e72 	rsbeq	r2, r8, r2, ror lr
    1c18:	61000002 	tstvs	r0, r2
    1c1c:	5f686372 	svcpl	0x00686372
    1c20:	2e717269 	cdpcs	2, 7, cr7, cr1, cr9, {3}
    1c24:	00020068 	andeq	r0, r2, r8, rrx
    1c28:	72647300 	rsbvc	r7, r4, #0, 6
    1c2c:	6e695f76 	mcrvs	15, 3, r5, cr9, cr6, {3}
    1c30:	682e6374 	stmdavs	lr!, {r2, r4, r5, r6, r8, r9, sp, lr}
    1c34:	00000300 	andeq	r0, r0, r0, lsl #6
    1c38:	00010500 	andeq	r0, r1, r0, lsl #10
    1c3c:	1fcc0205 	svcne	0x00cc0205
    1c40:	1603c200 	strne	ip, [r3], -r0, lsl #4
    1c44:	13050501 	movwne	r0, #21761	; 0x5501
    1c48:	13060105 	movwne	r0, #24837	; 0x6105
    1c4c:	01000202 	tsteq	r0, r2, lsl #4
    1c50:	00010501 	andeq	r0, r1, r1, lsl #10
    1c54:	1fd00205 	svcne	0x00d00205
    1c58:	1e03c200 	cdpne	2, 0, cr12, cr3, cr0, {0}
    1c5c:	05010601 	streq	r0, [r1, #-1537]	; 0xfffff9ff
    1c60:	314c0605 	cmpcc	ip, r5, lsl #12
    1c64:	01062005 	tsteq	r6, r5
    1c68:	05660505 	strbeq	r0, [r6, #-1285]!	; 0xfffffafb
    1c6c:	02026701 	andeq	r6, r2, #262144	; 0x40000
    1c70:	05010100 	streq	r0, [r1, #-256]	; 0xffffff00
    1c74:	02050001 	andeq	r0, r5, #1
    1c78:	c2001ff8 	andgt	r1, r0, #248, 30	; 0x3e0
    1c7c:	05012a03 	streq	r2, [r1, #-2563]	; 0xfffff5fd
    1c80:	0a053005 	beq	14dc9c <SYS_MODE+0x14dc7d>
    1c84:	06130501 	ldreq	r0, [r3], -r1, lsl #10
    1c88:	2e050501 	cfsh32cs	mvfx0, mvfx5, #1
    1c8c:	02000905 	andeq	r0, r0, #81920	; 0x14000
    1c90:	30060304 	andcc	r0, r6, r4, lsl #6
    1c94:	02002805 	andeq	r2, r0, #327680	; 0x50000
    1c98:	01060304 	tsteq	r6, r4, lsl #6
    1c9c:	02000905 	andeq	r0, r0, #81920	; 0x14000
    1ca0:	9f060304 	svcls	0x00060304
    1ca4:	02002b05 	andeq	r2, r0, #5120	; 0x1400
    1ca8:	01060304 	tsteq	r6, r4, lsl #6
    1cac:	02002f05 	andeq	r2, r0, #5, 30
    1cb0:	63060304 	movwvs	r0, #25348	; 0x6304
    1cb4:	02003005 	andeq	r3, r0, #5
    1cb8:	01060304 	tsteq	r6, r4, lsl #6
    1cbc:	02001a05 	andeq	r1, r0, #20480	; 0x5000
    1cc0:	2e060104 	adfcss	f0, f6, f4
    1cc4:	02000505 	andeq	r0, r0, #20971520	; 0x1400000
    1cc8:	01060104 	tsteq	r6, r4, lsl #2
    1ccc:	01055106 	tsteq	r5, r6, lsl #2
    1cd0:	02022f06 	andeq	r2, r2, #6, 30
    1cd4:	05010100 	streq	r0, [r1, #-256]	; 0xffffff00
    1cd8:	02050001 	andeq	r0, r5, #1
    1cdc:	00000000 	andeq	r0, r0, r0
    1ce0:	05013a03 	streq	r3, [r1, #-2563]	; 0xfffff5fd
    1ce4:	08051305 	stmdaeq	r5, {r0, r2, r8, r9, ip}
    1ce8:	052e0106 	streq	r0, [lr, #-262]!	; 0xfffffefa
    1cec:	05052d01 	streq	r2, [r5, #-3329]	; 0xfffff2ff
    1cf0:	08054e06 	stmdaeq	r5, {r1, r2, r9, sl, fp, lr}
    1cf4:	05050106 	streq	r0, [r5, #-262]	; 0xfffffefa
    1cf8:	26054e06 	strcs	r4, [r5], -r6, lsl #28
    1cfc:	052e0106 	streq	r0, [lr, #-262]!	; 0xfffffefa
    1d00:	05670605 	strbeq	r0, [r7, #-1541]!	; 0xfffff9fb
    1d04:	05010629 	streq	r0, [r1, #-1577]	; 0xfffff9d7
    1d08:	4d310605 	ldcmi	6, cr0, [r1, #-20]!	; 0xffffffec
    1d0c:	4b060105 	blmi	182128 <SYS_MODE+0x182109>
    1d10:	01000202 	tsteq	r0, r2, lsl #4
    1d14:	00010501 	andeq	r0, r1, r1, lsl #10
    1d18:	00000205 	andeq	r0, r0, r5, lsl #4
    1d1c:	d0030000 	andle	r0, r3, r0
    1d20:	01060100 	mrseq	r0, (UNDEF: 22)
    1d24:	4c060505 	cfstr32mi	mvfx0, [r6], {5}
    1d28:	06260531 			; <UNDEFINED> instruction: 0x06260531
    1d2c:	06050501 	streq	r0, [r5], -r1, lsl #10
    1d30:	0629059f 			; <UNDEFINED> instruction: 0x0629059f
    1d34:	67010501 	strvs	r0, [r1, -r1, lsl #10]
    1d38:	01000202 	tsteq	r0, r2, lsl #4
    1d3c:	00008801 	andeq	r8, r0, r1, lsl #16
    1d40:	63000300 	movwvs	r0, #768	; 0x300
    1d44:	02000000 	andeq	r0, r0, #0
    1d48:	0d0efb01 	vstreq	d15, [lr, #-4]
    1d4c:	01010100 	mrseq	r0, (UNDEF: 17)
    1d50:	00000001 	andeq	r0, r0, r1
    1d54:	01000001 	tsteq	r0, r1
    1d58:	6d6f682f 	stclvs	8, cr6, [pc, #-188]!	; 1ca4 <SYS_MODE+0x1c85>
    1d5c:	7a632f65 	bvc	18cdaf8 <SYS_MODE+0x18cdad9>
    1d60:	786d696c 	stmdavc	sp!, {r2, r3, r5, r6, r8, fp, sp, lr}^
    1d64:	646f632f 	strbtvs	r6, [pc], #-815	; 1d6c <SYS_MODE+0x1d4d>
    1d68:	61707365 	cmnvs	r0, r5, ror #6
    1d6c:	742f6563 	strtvc	r6, [pc], #-1379	; 1d74 <SYS_MODE+0x1d55>
    1d70:	2f706d65 	svccs	0x00706d65
    1d74:	65726162 	ldrbvs	r6, [r2, #-354]!	; 0xfffffe9e
    1d78:	6174656d 	cmnvs	r4, sp, ror #10
    1d7c:	6f665f6c 	svcvs	0x00665f6c
    1d80:	2f635f72 	svccs	0x00635f72
    1d84:	65646f63 	strbvs	r6, [r4, #-3939]!	; 0xfffff09d
    1d88:	6372612f 	cmnvs	r2, #-1073741813	; 0xc000000b
    1d8c:	72612f68 	rsbvc	r2, r1, #104, 30	; 0x1a0
    1d90:	2d37766d 	ldccs	6, cr7, [r7, #-436]!	; 0xfffffe4c
    1d94:	72732f61 	rsbsvc	r2, r3, #388	; 0x184
    1d98:	61000063 	tstvs	r0, r3, rrx
    1d9c:	5f686372 	svcpl	0x00686372
    1da0:	2e756d6d 	cdpcs	13, 7, cr6, cr5, cr13, {3}
    1da4:	00010073 	andeq	r0, r1, r3, ror r0
    1da8:	05000000 	streq	r0, [r0, #-0]
    1dac:	00050002 	andeq	r0, r5, r2
    1db0:	011003c2 	tsteq	r0, r2, asr #7
    1db4:	2f322f2f 	svccs	0x00322f2f
    1db8:	2f2f312f 	svccs	0x002f312f
    1dbc:	2f2f2f30 	svccs	0x002f2f30
    1dc0:	2f2f2f34 	svccs	0x002f2f34
    1dc4:	01000202 	tsteq	r0, r2, lsl #4
    1dc8:	00008b01 	andeq	r8, r0, r1, lsl #22
    1dcc:	63000300 	movwvs	r0, #768	; 0x300
    1dd0:	02000000 	andeq	r0, r0, #0
    1dd4:	0d0efb01 	vstreq	d15, [lr, #-4]
    1dd8:	01010100 	mrseq	r0, (UNDEF: 17)
    1ddc:	00000001 	andeq	r0, r0, r1
    1de0:	01000001 	tsteq	r0, r1
    1de4:	6d6f682f 	stclvs	8, cr6, [pc, #-188]!	; 1d30 <SYS_MODE+0x1d11>
    1de8:	7a632f65 	bvc	18cdb84 <SYS_MODE+0x18cdb65>
    1dec:	786d696c 	stmdavc	sp!, {r2, r3, r5, r6, r8, fp, sp, lr}^
    1df0:	646f632f 	strbtvs	r6, [pc], #-815	; 1df8 <SYS_MODE+0x1dd9>
    1df4:	61707365 	cmnvs	r0, r5, ror #6
    1df8:	742f6563 	strtvc	r6, [pc], #-1379	; 1e00 <SYS_MODE+0x1de1>
    1dfc:	2f706d65 	svccs	0x00706d65
    1e00:	65726162 	ldrbvs	r6, [r2, #-354]!	; 0xfffffe9e
    1e04:	6174656d 	cmnvs	r4, sp, ror #10
    1e08:	6f665f6c 	svcvs	0x00665f6c
    1e0c:	2f635f72 	svccs	0x00635f72
    1e10:	65646f63 	strbvs	r6, [r4, #-3939]!	; 0xfffff09d
    1e14:	6372612f 	cmnvs	r2, #-1073741813	; 0xc000000b
    1e18:	72612f68 	rsbvc	r2, r1, #104, 30	; 0x1a0
    1e1c:	2d37766d 	ldccs	6, cr7, [r7, #-436]!	; 0xfffffe4c
    1e20:	72732f61 	rsbsvc	r2, r3, #388	; 0x184
    1e24:	61000063 	tstvs	r0, r3, rrx
    1e28:	5f686372 	svcpl	0x00686372
    1e2c:	2e626c74 	mcrcs	12, 3, r6, cr2, cr4, {3}
    1e30:	00010073 	andeq	r0, r1, r3, ror r0
    1e34:	05000000 	streq	r0, [r0, #-0]
    1e38:	00054402 	andeq	r4, r5, r2, lsl #8
    1e3c:	011203c2 	tsteq	r2, r2, asr #7
    1e40:	342f342f 	strtcc	r3, [pc], #-1071	; 1e48 <SYS_MODE+0x1e29>
    1e44:	342f342f 	strtcc	r3, [pc], #-1071	; 1e4c <SYS_MODE+0x1e2d>
    1e48:	352f352f 	strcc	r3, [pc, #-1327]!	; 1921 <SYS_MODE+0x1902>
    1e4c:	352f342f 	strcc	r3, [pc, #-1071]!	; 1a25 <SYS_MODE+0x1a06>
    1e50:	022f352f 	eoreq	r3, pc, #197132288	; 0xbc00000
    1e54:	01010002 	tsteq	r1, r2
    1e58:	000000ce 	andeq	r0, r0, lr, asr #1
    1e5c:	00630003 	rsbeq	r0, r3, r3
    1e60:	01020000 	mrseq	r0, (UNDEF: 2)
    1e64:	000d0efb 	strdeq	r0, [sp], -fp
    1e68:	01010101 	tsteq	r1, r1, lsl #2
    1e6c:	01000000 	mrseq	r0, (UNDEF: 0)
    1e70:	2f010000 	svccs	0x00010000
    1e74:	656d6f68 	strbvs	r6, [sp, #-3944]!	; 0xfffff098
    1e78:	6c7a632f 	ldclvs	3, cr6, [sl], #-188	; 0xffffff44
    1e7c:	2f786d69 	svccs	0x00786d69
    1e80:	65646f63 	strbvs	r6, [r4, #-3939]!	; 0xfffff09d
    1e84:	63617073 	cmnvs	r1, #115	; 0x73
    1e88:	65742f65 	ldrbvs	r2, [r4, #-3941]!	; 0xfffff09b
    1e8c:	622f706d 	eorvs	r7, pc, #109	; 0x6d
    1e90:	6d657261 	sfmvs	f7, 2, [r5, #-388]!	; 0xfffffe7c
    1e94:	6c617465 	cfstrdvs	mvd7, [r1], #-404	; 0xfffffe6c
    1e98:	726f665f 	rsbvc	r6, pc, #99614720	; 0x5f00000
    1e9c:	632f635f 			; <UNDEFINED> instruction: 0x632f635f
    1ea0:	2f65646f 	svccs	0x0065646f
    1ea4:	68637261 	stmdavs	r3!, {r0, r5, r6, r9, ip, sp, lr}^
    1ea8:	6d72612f 	ldfvse	f6, [r2, #-188]!	; 0xffffff44
    1eac:	612d3776 			; <UNDEFINED> instruction: 0x612d3776
    1eb0:	6372732f 	cmnvs	r2, #-1140850688	; 0xbc000000
    1eb4:	72610000 	rsbvc	r0, r1, #0
    1eb8:	705f6863 	subsvc	r6, pc, r3, ror #16
    1ebc:	732e756d 			; <UNDEFINED> instruction: 0x732e756d
    1ec0:	00000100 	andeq	r0, r0, r0, lsl #2
    1ec4:	02050000 	andeq	r0, r5, #0
    1ec8:	c2000594 	andgt	r0, r0, #148, 10	; 0x25000000
    1ecc:	2f011e03 	svccs	0x00011e03
    1ed0:	2f352f2f 	svccs	0x00352f2f
    1ed4:	2f352f2f 	svccs	0x00352f2f
    1ed8:	2f352f2f 	svccs	0x00352f2f
    1edc:	2f352f2f 	svccs	0x00352f2f
    1ee0:	2f2f312f 	svccs	0x002f312f
    1ee4:	302f2f31 	eorcc	r2, pc, r1, lsr pc	; <UNPREDICTABLE>
    1ee8:	2f2f2f35 	svccs	0x002f2f35
    1eec:	302f2f35 	eorcc	r2, pc, r5, lsr pc	; <UNPREDICTABLE>
    1ef0:	2f352f36 	svccs	0x00352f36
    1ef4:	2f2f2f35 	svccs	0x002f2f35
    1ef8:	2f2f352f 	svccs	0x002f352f
    1efc:	2f352f2f 	svccs	0x00352f2f
    1f00:	2f352f2f 	svccs	0x00352f2f
    1f04:	09032f2f 	stmdbeq	r3, {r0, r1, r2, r3, r5, r8, r9, sl, fp, sp}
    1f08:	032f312e 			; <UNDEFINED> instruction: 0x032f312e
    1f0c:	30302e09 	eorscc	r2, r0, r9, lsl #28
    1f10:	2f362f2f 	svccs	0x00362f2f
    1f14:	2f2f2f2f 	svccs	0x002f2f2f
    1f18:	2f2f2f36 	svccs	0x002f2f36
    1f1c:	2f342f2f 	svccs	0x00342f2f
    1f20:	2f2f2f2f 	svccs	0x002f2f2f
    1f24:	00020234 	andeq	r0, r2, r4, lsr r2
    1f28:	00a50101 	adceq	r0, r5, r1, lsl #2
    1f2c:	00030000 	andeq	r0, r3, r0
    1f30:	00000067 	andeq	r0, r0, r7, rrx
    1f34:	0efb0102 	cdpeq	1, 15, cr0, cr11, cr2, {0}
    1f38:	0101000d 	tsteq	r1, sp
    1f3c:	00000101 	andeq	r0, r0, r1, lsl #2
    1f40:	00000100 	andeq	r0, r0, r0, lsl #2
    1f44:	6f682f01 	svcvs	0x00682f01
    1f48:	632f656d 			; <UNDEFINED> instruction: 0x632f656d
    1f4c:	6d696c7a 	stclvs	12, cr6, [r9, #-488]!	; 0xfffffe18
    1f50:	6f632f78 	svcvs	0x00632f78
    1f54:	70736564 	rsbsvc	r6, r3, r4, ror #10
    1f58:	2f656361 	svccs	0x00656361
    1f5c:	706d6574 	rsbvc	r6, sp, r4, ror r5
    1f60:	7261622f 	rsbvc	r6, r1, #-268435454	; 0xf0000002
    1f64:	74656d65 	strbtvc	r6, [r5], #-3429	; 0xfffff29b
    1f68:	665f6c61 	ldrbvs	r6, [pc], -r1, ror #24
    1f6c:	635f726f 	cmpvs	pc, #-268435450	; 0xf0000006
    1f70:	646f632f 	strbtvs	r6, [pc], #-815	; 1f78 <SYS_MODE+0x1f59>
    1f74:	72612f65 	rsbvc	r2, r1, #404	; 0x194
    1f78:	612f6863 			; <UNDEFINED> instruction: 0x612f6863
    1f7c:	37766d72 			; <UNDEFINED> instruction: 0x37766d72
    1f80:	732f612d 			; <UNDEFINED> instruction: 0x732f612d
    1f84:	00006372 	andeq	r6, r0, r2, ror r3
    1f88:	68637261 	stmdavs	r3!, {r0, r5, r6, r9, ip, sp, lr}^
    1f8c:	6174735f 	cmnvs	r4, pc, asr r3
    1f90:	70757472 	rsbsvc	r7, r5, r2, ror r4
    1f94:	0100732e 	tsteq	r0, lr, lsr #6
    1f98:	00000000 	andeq	r0, r0, r0
    1f9c:	005c0205 	subseq	r0, ip, r5, lsl #4
    1fa0:	1603c200 	strne	ip, [r3], -r0, lsl #4
    1fa4:	2f2f3101 	svccs	0x002f3101
    1fa8:	2f312f2f 	svccs	0x00312f2f
    1fac:	2f2f312f 	svccs	0x002f312f
    1fb0:	312f2f31 			; <UNDEFINED> instruction: 0x312f2f31
    1fb4:	2f312f2f 	svccs	0x00312f2f
    1fb8:	2f2f312f 	svccs	0x002f312f
    1fbc:	2f2f2f2f 	svccs	0x002f2f2f
    1fc0:	2f2f2f2f 	svccs	0x002f2f2f
    1fc4:	31312f2f 	teqcc	r1, pc, lsr #30
    1fc8:	032e5103 			; <UNDEFINED> instruction: 0x032e5103
    1fcc:	02022e1e 	andeq	r2, r2, #480	; 0x1e0
    1fd0:	8d010100 	stfhis	f0, [r1, #-0]
    1fd4:	03000000 	movweq	r0, #0
    1fd8:	00006700 	andeq	r6, r0, r0, lsl #14
    1fdc:	fb010200 	blx	427e6 <SYS_MODE+0x427c7>
    1fe0:	01000d0e 	tsteq	r0, lr, lsl #26
    1fe4:	00010101 	andeq	r0, r1, r1, lsl #2
    1fe8:	00010000 	andeq	r0, r1, r0
    1fec:	682f0100 	stmdavs	pc!, {r8}	; <UNPREDICTABLE>
    1ff0:	2f656d6f 	svccs	0x00656d6f
    1ff4:	696c7a63 	stmdbvs	ip!, {r0, r1, r5, r6, r9, fp, ip, sp, lr}^
    1ff8:	632f786d 			; <UNDEFINED> instruction: 0x632f786d
    1ffc:	7365646f 	cmnvc	r5, #1862270976	; 0x6f000000
    2000:	65636170 	strbvs	r6, [r3, #-368]!	; 0xfffffe90
    2004:	6d65742f 	cfstrdvs	mvd7, [r5, #-188]!	; 0xffffff44
    2008:	61622f70 	smcvs	8944	; 0x22f0
    200c:	656d6572 	strbvs	r6, [sp, #-1394]!	; 0xfffffa8e
    2010:	5f6c6174 	svcpl	0x006c6174
    2014:	5f726f66 	svcpl	0x00726f66
    2018:	6f632f63 	svcvs	0x00632f63
    201c:	612f6564 			; <UNDEFINED> instruction: 0x612f6564
    2020:	2f686372 	svccs	0x00686372
    2024:	766d7261 	strbtvc	r7, [sp], -r1, ror #4
    2028:	2f612d37 	svccs	0x00612d37
    202c:	00637273 	rsbeq	r7, r3, r3, ror r2
    2030:	63726100 	cmnvs	r2, #0, 2
    2034:	65765f68 	ldrbvs	r5, [r6, #-3944]!	; 0xfffff098
    2038:	726f7463 	rsbvc	r7, pc, #1660944384	; 0x63000000
    203c:	00732e73 	rsbseq	r2, r3, r3, ror lr
    2040:	00000001 	andeq	r0, r0, r1
    2044:	00020500 	andeq	r0, r2, r0, lsl #10
    2048:	03c20000 	biceq	r0, r2, #0
    204c:	2f2f010f 	svccs	0x002f010f
    2050:	2f2f2f2f 	svccs	0x002f2f2f
    2054:	080f032f 	stmdaeq	pc, {r0, r1, r2, r3, r5, r8, r9}	; <UNPREDICTABLE>
    2058:	31313120 	teqcc	r1, r0, lsr #2
    205c:	02313131 	eorseq	r3, r1, #1073741836	; 0x4000000c
    2060:	01010002 	tsteq	r1, r2
    2064:	000001d7 	ldrdeq	r0, [r0], -r7
    2068:	00bc0003 	adcseq	r0, ip, r3
    206c:	01020000 	mrseq	r0, (UNDEF: 2)
    2070:	000d0efb 	strdeq	r0, [sp], -fp
    2074:	01010101 	tsteq	r1, r1, lsl #2
    2078:	01000000 	mrseq	r0, (UNDEF: 0)
    207c:	2f010000 	svccs	0x00010000
    2080:	656d6f68 	strbvs	r6, [sp, #-3944]!	; 0xfffff098
    2084:	6c7a632f 	ldclvs	3, cr6, [sl], #-188	; 0xffffff44
    2088:	2f786d69 	svccs	0x00786d69
    208c:	65646f63 	strbvs	r6, [r4, #-3939]!	; 0xfffff09d
    2090:	63617073 	cmnvs	r1, #115	; 0x73
    2094:	65742f65 	ldrbvs	r2, [r4, #-3941]!	; 0xfffff09b
    2098:	622f706d 	eorvs	r7, pc, #109	; 0x6d
    209c:	6d657261 	sfmvs	f7, 2, [r5, #-388]!	; 0xfffffe7c
    20a0:	6c617465 	cfstrdvs	mvd7, [r1], #-404	; 0xfffffe6c
    20a4:	726f665f 	rsbvc	r6, pc, #99614720	; 0x5f00000
    20a8:	632f635f 			; <UNDEFINED> instruction: 0x632f635f
    20ac:	2f65646f 	svccs	0x0065646f
    20b0:	76697264 	strbtvc	r7, [r9], -r4, ror #4
    20b4:	612f7265 			; <UNDEFINED> instruction: 0x612f7265
    20b8:	3533336d 	ldrcc	r3, [r3, #-877]!	; 0xfffffc93
    20bc:	72732f78 	rsbsvc	r2, r3, #120, 30	; 0x1e0
    20c0:	682f0063 	stmdavs	pc!, {r0, r1, r5, r6}	; <UNPREDICTABLE>
    20c4:	2f656d6f 	svccs	0x00656d6f
    20c8:	696c7a63 	stmdbvs	ip!, {r0, r1, r5, r6, r9, fp, ip, sp, lr}^
    20cc:	632f786d 			; <UNDEFINED> instruction: 0x632f786d
    20d0:	7365646f 	cmnvc	r5, #1862270976	; 0x6f000000
    20d4:	65636170 	strbvs	r6, [r3, #-368]!	; 0xfffffe90
    20d8:	6d65742f 	cfstrdvs	mvd7, [r5, #-188]!	; 0xffffff44
    20dc:	61622f70 	smcvs	8944	; 0x22f0
    20e0:	656d6572 	strbvs	r6, [sp, #-1394]!	; 0xfffffa8e
    20e4:	5f6c6174 	svcpl	0x006c6174
    20e8:	5f726f66 	svcpl	0x00726f66
    20ec:	6f632f63 	svcvs	0x00632f63
    20f0:	612f6564 			; <UNDEFINED> instruction: 0x612f6564
    20f4:	2f686372 	svccs	0x00686372
    20f8:	766d7261 	strbtvc	r7, [sp], -r1, ror #4
    20fc:	2f612d37 	svccs	0x00612d37
    2100:	00636e69 	rsbeq	r6, r3, r9, ror #28
    2104:	72647300 	rsbvc	r7, r4, #0, 6
    2108:	6e695f76 	mcrvs	15, 3, r5, cr9, cr6, {3}
    210c:	635f6374 	cmpvs	pc, #116, 6	; 0xd0000001
    2110:	0100632e 	tsteq	r0, lr, lsr #6
    2114:	72610000 	rsbvc	r0, r1, #0
    2118:	635f6863 	cmpvs	pc, #6488064	; 0x630000
    211c:	69706d6f 	ldmdbvs	r0!, {r0, r1, r2, r3, r5, r6, r8, sl, fp, sp, lr}^
    2120:	2e72656c 	cdpcs	5, 7, cr6, cr2, cr12, {3}
    2124:	00020068 	andeq	r0, r2, r8, rrx
    2128:	01050000 	mrseq	r0, (UNDEF: 5)
    212c:	38020500 	stmdacc	r2, {r8, sl}
    2130:	18c20020 	stmiane	r2, {r5}^
    2134:	13130505 	tstne	r3, #20971520	; 0x1400000
    2138:	060f0515 			; <UNDEFINED> instruction: 0x060f0515
    213c:	06050501 	streq	r0, [r5], -r1, lsl #10
    2140:	060f0567 	streq	r0, [pc], -r7, ror #10
    2144:	06050501 	streq	r0, [r5], -r1, lsl #10
    2148:	0e05312f 	adfeqsp	f3, f5, #10.0
    214c:	01780306 	cmneq	r8, r6, lsl #6
    2150:	05360b05 	ldreq	r0, [r6, #-2821]!	; 0xfffff4fb
    2154:	052f0609 	streq	r0, [pc, #-1545]!	; 1b53 <SYS_MODE+0x1b34>
    2158:	2e010612 	mcrcs	6, 0, r0, cr1, cr2, {0}
    215c:	054a1005 	strbeq	r1, [sl, #-5]
    2160:	022d060b 	eoreq	r0, sp, #11534336	; 0xb00000
    2164:	01010006 	tsteq	r1, r6
    2168:	05000105 	streq	r0, [r0, #-261]	; 0xfffffefb
    216c:	00000002 	andeq	r0, r0, r2
    2170:	01190300 	tsteq	r9, r0, lsl #6
    2174:	05130505 	ldreq	r0, [r3, #-1285]	; 0xfffffafb
    2178:	05010608 	streq	r0, [r1, #-1544]	; 0xfffff9f8
    217c:	064d0605 	strbeq	r0, [sp], -r5, lsl #12
    2180:	4b01059e 	blmi	43800 <SYS_MODE+0x437e1>
    2184:	01000202 	tsteq	r0, r2, lsl #4
    2188:	00010501 	andeq	r0, r1, r1, lsl #10
    218c:	00000205 	andeq	r0, r0, r5, lsl #4
    2190:	24030000 	strcs	r0, [r3], #-0
    2194:	13050501 	movwne	r0, #21761	; 0x5501
    2198:	08051413 	stmdaeq	r5, {r0, r1, r4, sl, ip}
    219c:	05050106 	streq	r0, [r5, #-262]	; 0xfffffefa
    21a0:	05134d06 	ldreq	r4, [r3, #-3334]	; 0xfffff2fa
    21a4:	05010609 	streq	r0, [r1, #-1545]	; 0xfffff9f7
    21a8:	06300605 	ldrteq	r0, [r0], -r5, lsl #12
    21ac:	01052e66 	tsteq	r5, r6, ror #28
    21b0:	0002024b 	andeq	r0, r2, fp, asr #4
    21b4:	01050101 	tsteq	r5, r1, lsl #2
    21b8:	00020500 	andeq	r0, r2, r0, lsl #10
    21bc:	03000000 	movweq	r0, #0
    21c0:	05050135 	streq	r0, [r5, #-309]	; 0xfffffecb
    21c4:	05141313 	ldreq	r1, [r4, #-787]	; 0xfffffced
    21c8:	05010608 	streq	r0, [r1, #-1544]	; 0xfffff9f8
    21cc:	134d0605 	movtne	r0, #54789	; 0xd605
    21d0:	01060905 	tsteq	r6, r5, lsl #18
    21d4:	30060505 	andcc	r0, r6, r5, lsl #10
    21d8:	052e6606 	streq	r6, [lr, #-1542]!	; 0xfffff9fa
    21dc:	02024b01 	andeq	r4, r2, #1024	; 0x400
    21e0:	05010100 	streq	r0, [r1, #-256]	; 0xffffff00
    21e4:	02050001 	andeq	r0, r5, #1
    21e8:	c2002070 	andgt	r2, r0, #112	; 0x70
    21ec:	0100c603 	tsteq	r0, r3, lsl #12
    21f0:	13130505 	tstne	r3, #20971520	; 0x1400000
    21f4:	06080514 			; <UNDEFINED> instruction: 0x06080514
    21f8:	06050501 	streq	r0, [r5], -r1, lsl #10
    21fc:	0905134d 	stmdbeq	r5, {r0, r2, r3, r6, r8, r9, ip}
    2200:	05050106 	streq	r0, [r5, #-262]	; 0xfffffefa
    2204:	66063006 	strvs	r3, [r6], -r6
    2208:	4b01052e 	blmi	436c8 <SYS_MODE+0x436a9>
    220c:	01000202 	tsteq	r0, r2, lsl #4
    2210:	00010501 	andeq	r0, r1, r1, lsl #10
    2214:	00000205 	andeq	r0, r0, r5, lsl #4
    2218:	d7030000 	strle	r0, [r3, -r0]
    221c:	05050100 	streq	r0, [r5, #-256]	; 0xffffff00
    2220:	05141313 	ldreq	r1, [r4, #-787]	; 0xfffffced
    2224:	05010608 	streq	r0, [r1, #-1544]	; 0xfffff9f8
    2228:	134d0605 	movtne	r0, #54789	; 0xd605
    222c:	01060905 	tsteq	r6, r5, lsl #18
    2230:	30060505 	andcc	r0, r6, r5, lsl #10
    2234:	052e6606 	streq	r6, [lr, #-1542]!	; 0xfffff9fa
    2238:	02024b01 	andeq	r4, r2, #1024	; 0x400
    223c:	99010100 	stmdbls	r1, {r8}
    2240:	03000000 	movweq	r0, #0
    2244:	00006700 	andeq	r6, r0, r0, lsl #14
    2248:	fb010200 	blx	42a52 <SYS_MODE+0x42a33>
    224c:	01000d0e 	tsteq	r0, lr, lsl #26
    2250:	00010101 	andeq	r0, r1, r1, lsl #2
    2254:	00010000 	andeq	r0, r1, r0
    2258:	682f0100 	stmdavs	pc!, {r8}	; <UNPREDICTABLE>
    225c:	2f656d6f 	svccs	0x00656d6f
    2260:	696c7a63 	stmdbvs	ip!, {r0, r1, r5, r6, r9, fp, ip, sp, lr}^
    2264:	632f786d 			; <UNDEFINED> instruction: 0x632f786d
    2268:	7365646f 	cmnvc	r5, #1862270976	; 0x6f000000
    226c:	65636170 	strbvs	r6, [r3, #-368]!	; 0xfffffe90
    2270:	6d65742f 	cfstrdvs	mvd7, [r5, #-188]!	; 0xffffff44
    2274:	61622f70 	smcvs	8944	; 0x22f0
    2278:	656d6572 	strbvs	r6, [sp, #-1394]!	; 0xfffffa8e
    227c:	5f6c6174 	svcpl	0x006c6174
    2280:	5f726f66 	svcpl	0x00726f66
    2284:	6f632f63 	svcvs	0x00632f63
    2288:	642f6564 	strtvs	r6, [pc], #-1380	; 2290 <SYS_MODE+0x2271>
    228c:	65766972 	ldrbvs	r6, [r6, #-2418]!	; 0xfffff68e
    2290:	6d612f72 	stclvs	15, cr2, [r1, #-456]!	; 0xfffffe38
    2294:	78353333 	ldmdavc	r5!, {r0, r1, r4, r5, r8, r9, ip, sp}
    2298:	6372732f 	cmnvs	r2, #-1140850688	; 0xbc000000
    229c:	64730000 	ldrbtvs	r0, [r3], #-0
    22a0:	695f7672 	ldmdbvs	pc, {r1, r4, r5, r6, r9, sl, ip, sp, lr}^	; <UNPREDICTABLE>
    22a4:	5f63746e 	svcpl	0x0063746e
    22a8:	00732e73 	rsbseq	r2, r3, r3, ror lr
    22ac:	00000001 	andeq	r0, r0, r1
    22b0:	98020500 	stmdals	r2, {r8, sl}
    22b4:	03c20020 	biceq	r0, r2, #32
    22b8:	2f310109 	svccs	0x00310109
    22bc:	2f2f2f31 	svccs	0x002f2f31
    22c0:	312f2f31 			; <UNDEFINED> instruction: 0x312f2f31
    22c4:	312f2f2f 			; <UNDEFINED> instruction: 0x312f2f2f
    22c8:	31353131 	teqcc	r5, r1, lsr r1
    22cc:	312f3131 			; <UNDEFINED> instruction: 0x312f3131
    22d0:	2e4e0331 	mcrcs	3, 2, r0, cr14, cr1, {1}
    22d4:	02333432 	eorseq	r3, r3, #838860800	; 0x32000000
    22d8:	01010002 	tsteq	r1, r2
    22dc:	0000041e 	andeq	r0, r0, lr, lsl r4
    22e0:	010c0003 	tsteq	ip, r3
    22e4:	01020000 	mrseq	r0, (UNDEF: 2)
    22e8:	000d0efb 	strdeq	r0, [sp], -fp
    22ec:	01010101 	tsteq	r1, r1, lsl #2
    22f0:	01000000 	mrseq	r0, (UNDEF: 0)
    22f4:	2f010000 	svccs	0x00010000
    22f8:	656d6f68 	strbvs	r6, [sp, #-3944]!	; 0xfffff098
    22fc:	6c7a632f 	ldclvs	3, cr6, [sl], #-188	; 0xffffff44
    2300:	2f786d69 	svccs	0x00786d69
    2304:	65646f63 	strbvs	r6, [r4, #-3939]!	; 0xfffff09d
    2308:	63617073 	cmnvs	r1, #115	; 0x73
    230c:	65742f65 	ldrbvs	r2, [r4, #-3941]!	; 0xfffff09b
    2310:	622f706d 	eorvs	r7, pc, #109	; 0x6d
    2314:	6d657261 	sfmvs	f7, 2, [r5, #-388]!	; 0xfffffe7c
    2318:	6c617465 	cfstrdvs	mvd7, [r1], #-404	; 0xfffffe6c
    231c:	726f665f 	rsbvc	r6, pc, #99614720	; 0x5f00000
    2320:	632f635f 			; <UNDEFINED> instruction: 0x632f635f
    2324:	2f65646f 	svccs	0x0065646f
    2328:	76697264 	strbtvc	r7, [r9], -r4, ror #4
    232c:	612f7265 			; <UNDEFINED> instruction: 0x612f7265
    2330:	3533336d 	ldrcc	r3, [r3, #-877]!	; 0xfffffc93
    2334:	72732f78 	rsbsvc	r2, r3, #120, 30	; 0x1e0
    2338:	682f0063 	stmdavs	pc!, {r0, r1, r5, r6}	; <UNPREDICTABLE>
    233c:	2f656d6f 	svccs	0x00656d6f
    2340:	696c7a63 	stmdbvs	ip!, {r0, r1, r5, r6, r9, fp, ip, sp, lr}^
    2344:	632f786d 			; <UNDEFINED> instruction: 0x632f786d
    2348:	7365646f 	cmnvc	r5, #1862270976	; 0x6f000000
    234c:	65636170 	strbvs	r6, [r3, #-368]!	; 0xfffffe90
    2350:	6d65742f 	cfstrdvs	mvd7, [r5, #-188]!	; 0xffffff44
    2354:	61622f70 	smcvs	8944	; 0x22f0
    2358:	656d6572 	strbvs	r6, [sp, #-1394]!	; 0xfffffa8e
    235c:	5f6c6174 	svcpl	0x006c6174
    2360:	5f726f66 	svcpl	0x00726f66
    2364:	6f632f63 	svcvs	0x00632f63
    2368:	612f6564 			; <UNDEFINED> instruction: 0x612f6564
    236c:	2f686372 	svccs	0x00686372
    2370:	766d7261 	strbtvc	r7, [sp], -r1, ror #4
    2374:	2f612d37 	svccs	0x00612d37
    2378:	00636e69 	rsbeq	r6, r3, r9, ror #28
    237c:	6d6f682f 	stclvs	8, cr6, [pc, #-188]!	; 22c8 <SYS_MODE+0x22a9>
    2380:	7a632f65 	bvc	18ce11c <SYS_MODE+0x18ce0fd>
    2384:	786d696c 	stmdavc	sp!, {r2, r3, r5, r6, r8, fp, sp, lr}^
    2388:	646f632f 	strbtvs	r6, [pc], #-815	; 2390 <SYS_MODE+0x2371>
    238c:	61707365 	cmnvs	r0, r5, ror #6
    2390:	742f6563 	strtvc	r6, [pc], #-1379	; 2398 <SYS_MODE+0x2379>
    2394:	2f706d65 	svccs	0x00706d65
    2398:	65726162 	ldrbvs	r6, [r2, #-354]!	; 0xfffffe9e
    239c:	6174656d 	cmnvs	r4, sp, ror #10
    23a0:	6f665f6c 	svcvs	0x00665f6c
    23a4:	2f635f72 	svccs	0x00635f72
    23a8:	65646f63 	strbvs	r6, [r4, #-3939]!	; 0xfffff09d
    23ac:	6972642f 	ldmdbvs	r2!, {r0, r1, r2, r3, r5, sl, sp, lr}^
    23b0:	2f726576 	svccs	0x00726576
    23b4:	33336d61 	teqcc	r3, #6208	; 0x1840
    23b8:	692f7835 	stmdbvs	pc!, {r0, r2, r4, r5, fp, ip, sp, lr}	; <UNPREDICTABLE>
    23bc:	0000636e 	andeq	r6, r0, lr, ror #6
    23c0:	76726473 			; <UNDEFINED> instruction: 0x76726473
    23c4:	7261755f 	rsbvc	r7, r1, #398458880	; 0x17c00000
    23c8:	00632e74 	rsbeq	r2, r3, r4, ror lr
    23cc:	61000001 	tstvs	r0, r1
    23d0:	5f686372 	svcpl	0x00686372
    23d4:	706d6f63 	rsbvc	r6, sp, r3, ror #30
    23d8:	72656c69 	rsbvc	r6, r5, #26880	; 0x6900
    23dc:	0200682e 	andeq	r6, r0, #3014656	; 0x2e0000
    23e0:	64730000 	ldrbtvs	r0, [r3], #-0
    23e4:	755f7672 	ldrbvc	r7, [pc, #-1650]	; 1d7a <SYS_MODE+0x1d5b>
    23e8:	2e747261 	cdpcs	2, 7, cr7, cr4, cr1, {3}
    23ec:	00030068 	andeq	r0, r3, r8, rrx
    23f0:	01050000 	mrseq	r0, (UNDEF: 5)
    23f4:	08020500 	stmdaeq	r2, {r8, sl}
    23f8:	03c20021 	biceq	r0, r2, #33	; 0x21
    23fc:	01060122 	tsteq	r6, r2, lsr #2
    2400:	4b060505 	blmi	18381c <SYS_MODE+0x1837fd>
    2404:	01060805 	tsteq	r6, r5, lsl #16
    2408:	87130566 	ldrhi	r0, [r3, -r6, ror #10]
    240c:	02001a05 	andeq	r1, r0, #20480	; 0x5000
    2410:	2e060104 	adfcss	f0, f6, f4
    2414:	02000505 	andeq	r0, r0, #20971520	; 0x1400000
    2418:	01060104 	tsteq	r6, r4, lsl #2
    241c:	4c060905 			; <UNDEFINED> instruction: 0x4c060905
    2420:	01062f05 	tsteq	r6, r5, lsl #30
    2424:	059e0c05 	ldreq	r0, [lr, #3077]	; 0xc05
    2428:	04020026 	streq	r0, [r2], #-38	; 0xffffffda
    242c:	052c0602 	streq	r0, [ip, #-1538]!	; 0xfffff9fe
    2430:	04020027 	streq	r0, [r2], #-39	; 0xffffffd9
    2434:	00010602 	andeq	r0, r1, r2, lsl #12
    2438:	2e020402 	cdpcs	4, 0, cr0, cr2, cr2, {0}
    243c:	32060d05 	andcc	r0, r6, #320	; 0x140
    2440:	01062a05 	tsteq	r6, r5, lsl #20
    2444:	12052e2e 	andne	r2, r5, #736	; 0x2e0
    2448:	060d052e 	streq	r0, [sp], -lr, lsr #10
    244c:	062a052f 	strteq	r0, [sl], -pc, lsr #10
    2450:	2e120501 	cfmul32cs	mvfx0, mvfx2, mvfx1
    2454:	2f060d05 	svccs	0x00060d05
    2458:	01061405 	tsteq	r6, r5, lsl #8
    245c:	0310054a 	tsteq	r0, #310378496	; 0x12800000
    2460:	01050176 	tsteq	r5, r6, ror r1
    2464:	022e0f03 	eoreq	r0, lr, #3, 30
    2468:	01010002 	tsteq	r1, r2
    246c:	05000105 	streq	r0, [r0, #-261]	; 0xfffffefb
    2470:	00218002 	eoreq	r8, r1, r2
    2474:	013a03c2 	teqeq	sl, r2, asr #7
    2478:	15130505 	ldrne	r0, [r3, #-1285]	; 0xfffffafb
    247c:	01060b05 	tsteq	r6, r5, lsl #22
    2480:	2f060505 	svccs	0x00060505
    2484:	01060b05 	tsteq	r6, r5, lsl #22
    2488:	2f060505 	svccs	0x00060505
    248c:	061c0531 			; <UNDEFINED> instruction: 0x061c0531
    2490:	05017803 	streq	r7, [r1, #-2051]	; 0xfffff7fd
    2494:	0905360b 	stmdbeq	r5, {r0, r1, r3, r9, sl, ip, sp}
    2498:	10053006 	andne	r3, r5, r6
    249c:	0b050106 	bleq	1428bc <SYS_MODE+0x14289d>
    24a0:	06022c06 	streq	r2, [r2], -r6, lsl #24
    24a4:	05010100 	streq	r0, [r1, #-256]	; 0xffffff00
    24a8:	02050001 	andeq	r0, r5, #1
    24ac:	c20021a4 	andgt	r2, r0, #164, 2	; 0x29
    24b0:	0100d203 	tsteq	r0, r3, lsl #4
    24b4:	05050106 	streq	r0, [r5, #-262]	; 0xfffffefa
    24b8:	05182f06 	ldreq	r2, [r8, #-3846]	; 0xfffff0fa
    24bc:	0501060d 	streq	r0, [r1, #-1549]	; 0xfffff9f3
    24c0:	502f0605 	eorpl	r0, pc, r5, lsl #12
    24c4:	01060b05 	tsteq	r6, r5, lsl #22
    24c8:	2f060505 	svccs	0x00060505
    24cc:	01060d05 	tsteq	r6, r5, lsl #26
    24d0:	2f060505 	svccs	0x00060505
    24d4:	01060b05 	tsteq	r6, r5, lsl #22
    24d8:	2f060505 	svccs	0x00060505
    24dc:	062e0633 			; <UNDEFINED> instruction: 0x062e0633
    24e0:	060b0534 			; <UNDEFINED> instruction: 0x060b0534
    24e4:	06050501 	streq	r0, [r5], -r1, lsl #10
    24e8:	060d052f 	streq	r0, [sp], -pc, lsr #10
    24ec:	06050501 	streq	r0, [r5], -r1, lsl #10
    24f0:	060b052f 	streq	r0, [fp], -pc, lsr #10
    24f4:	06050501 	streq	r0, [r5], -r1, lsl #10
    24f8:	0513312f 	ldreq	r3, [r3, #-303]	; 0xfffffed1
    24fc:	05010617 	streq	r0, [r1, #-1559]	; 0xfffff9e9
    2500:	0b052e08 	bleq	14dd28 <SYS_MODE+0x14dd09>
    2504:	06050549 	streq	r0, [r5], -r9, asr #10
    2508:	06170532 			; <UNDEFINED> instruction: 0x06170532
    250c:	2e080501 	cfsh32cs	mvfx0, mvfx8, #1
    2510:	2f060905 	svccs	0x00060905
    2514:	01060f05 	tsteq	r6, r5, lsl #30
    2518:	30060505 	andcc	r0, r6, r5, lsl #10
    251c:	01061605 	tsteq	r6, r5, lsl #12
    2520:	052e4405 	streq	r4, [lr, #-1029]!	; 0xfffffbfb
    2524:	05054a0b 	streq	r4, [r5, #-2571]	; 0xfffff5f5
    2528:	16052f06 	strne	r2, [r5], -r6, lsl #30
    252c:	44050106 	strmi	r0, [r5], #-262	; 0xfffffefa
    2530:	4a0b052e 	bmi	2c39f0 <SYS_MODE+0x2c39d1>
    2534:	2f060505 	svccs	0x00060505
    2538:	062e0633 			; <UNDEFINED> instruction: 0x062e0633
    253c:	05314b31 	ldreq	r4, [r1, #-2865]!	; 0xfffff4cf
    2540:	0501060b 	streq	r0, [r1, #-1547]	; 0xfffff9f5
    2544:	052f0605 	streq	r0, [pc, #-1541]!	; 1f47 <SYS_MODE+0x1f28>
    2548:	05010608 	streq	r0, [r1, #-1544]	; 0xfffff9f8
    254c:	054b0609 	strbeq	r0, [fp, #-1545]	; 0xfffff9f7
    2550:	0501060f 	streq	r0, [r1, #-1551]	; 0xfffff9f1
    2554:	33310605 	teqcc	r1, #5242880	; 0x500000
    2558:	31062e06 	tstcc	r6, r6, lsl #28
    255c:	01060b05 	tsteq	r6, r5, lsl #22
    2560:	2f060505 	svccs	0x00060505
    2564:	01060805 	tsteq	r6, r5, lsl #16
    2568:	4b060905 	blmi	184984 <SYS_MODE+0x184965>
    256c:	01060f05 	tsteq	r6, r5, lsl #30
    2570:	31060505 	tstcc	r6, r5, lsl #10
    2574:	06010531 			; <UNDEFINED> instruction: 0x06010531
    2578:	030f052f 	movweq	r0, #62767	; 0xf52f
    257c:	09052e57 	stmdbeq	r5, {r0, r1, r2, r4, r6, r9, sl, fp, sp}
    2580:	4a170306 	bmi	5c31a0 <SYS_MODE+0x5c3181>
    2584:	01060f05 	tsteq	r6, r5, lsl #30
    2588:	0609052e 	streq	r0, [r9], -lr, lsr #10
    258c:	052e0d03 	streq	r0, [lr, #-3331]!	; 0xfffff2fd
    2590:	2e01060f 	cfmadd32cs	mvax0, mvfx0, mvfx1, mvfx15
    2594:	01000202 	tsteq	r0, r2, lsl #4
    2598:	00010501 	andeq	r0, r1, r1, lsl #10
    259c:	22800205 	addcs	r0, r0, #1342177280	; 0x50000000
    25a0:	a203c200 	andge	ip, r3, #0, 4
    25a4:	01060101 	tsteq	r6, r1, lsl #2
    25a8:	83060505 	movwhi	r0, #25861	; 0x6505
    25ac:	01062c05 	tsteq	r6, r5, lsl #24
    25b0:	054a3805 	strbeq	r3, [sl, #-2053]	; 0xfffff7fb
    25b4:	05300605 	ldreq	r0, [r0, #-1541]!	; 0xfffff9fb
    25b8:	66010611 			; <UNDEFINED> instruction: 0x66010611
    25bc:	052e0805 	streq	r0, [lr, #-2053]!	; 0xfffff7fb
    25c0:	4f500605 	svcmi	0x00500605
    25c4:	060b0550 			; <UNDEFINED> instruction: 0x060b0550
    25c8:	06050501 	streq	r0, [r5], -r1, lsl #10
    25cc:	0b05132f 	bleq	147290 <SYS_MODE+0x147271>
    25d0:	05050106 	streq	r0, [r5, #-262]	; 0xfffffefa
    25d4:	06332f06 	ldrteq	r2, [r3], -r6, lsl #30
    25d8:	3334062e 	teqcc	r4, #48234496	; 0x2e00000
    25dc:	314f4b34 	cmpcc	pc, r4, lsr fp	; <UNPREDICTABLE>
    25e0:	0b053133 	bleq	14eab4 <SYS_MODE+0x14ea95>
    25e4:	05050106 	streq	r0, [r5, #-262]	; 0xfffffefa
    25e8:	08052f06 	stmdaeq	r5, {r1, r2, r8, r9, sl, fp, sp}
    25ec:	09050106 	stmdbeq	r5, {r1, r2, r8}
    25f0:	0f054b06 	svceq	0x00054b06
    25f4:	05050106 	streq	r0, [r5, #-262]	; 0xfffffefa
    25f8:	05333106 	ldreq	r3, [r3, #-262]!	; 0xfffffefa
    25fc:	2e010613 	mcrcs	6, 0, r0, cr1, cr3, {0}
    2600:	2f060505 	svccs	0x00060505
    2604:	01062e05 	tsteq	r6, r5, lsl #28
    2608:	052e0805 	streq	r0, [lr, #-2053]!	; 0xfffff7fb
    260c:	054d060a 	strbeq	r0, [sp, #-1546]	; 0xfffff9f6
    2610:	0501060d 	streq	r0, [r1, #-1549]	; 0xfffff9f3
    2614:	054e0609 	strbeq	r0, [lr, #-1545]	; 0xfffff9f7
    2618:	0501060f 	streq	r0, [r1, #-1551]	; 0xfffff9f1
    261c:	05300605 	ldreq	r0, [r0, #-1541]!	; 0xfffff9fb
    2620:	05010621 	streq	r0, [r1, #-1569]	; 0xfffff9df
    2624:	09052e08 	stmdbeq	r5, {r3, r9, sl, fp, sp}
    2628:	0f054b06 	svceq	0x00054b06
    262c:	05050106 	streq	r0, [r5, #-262]	; 0xfffffefa
    2630:	2e0e0306 	cdpcs	3, 0, cr0, cr14, cr6, {0}
    2634:	060b0513 			; <UNDEFINED> instruction: 0x060b0513
    2638:	06050501 	streq	r0, [r5], -r1, lsl #10
    263c:	2e06332f 	cdpcs	3, 0, cr3, cr6, cr15, {1}
    2640:	052f0105 	streq	r0, [pc, #-261]!	; 2543 <SYS_MODE+0x2524>
    2644:	59030609 	stmdbpl	r3, {r0, r3, r9, sl}
    2648:	060f054a 	streq	r0, [pc], -sl, asr #10
    264c:	3a052e01 	bcc	14de58 <SYS_MODE+0x14de39>
    2650:	01040200 	mrseq	r0, R12_usr
    2654:	06090535 			; <UNDEFINED> instruction: 0x06090535
    2658:	060f054c 	streq	r0, [pc], -ip, asr #10
    265c:	3b052e01 	blcc	14de68 <SYS_MODE+0x14de49>
    2660:	01040200 	mrseq	r0, R12_usr
    2664:	0609052f 	streq	r0, [r9], -pc, lsr #10
    2668:	060f054c 	streq	r0, [pc], -ip, asr #10
    266c:	0a052e01 	beq	14de78 <SYS_MODE+0x14de59>
    2670:	0d053406 	cfstrseq	mvf3, [r5, #-24]	; 0xffffffe8
    2674:	09050106 	stmdbeq	r5, {r1, r2, r8}
    2678:	13133606 	tstne	r3, #6291456	; 0x600000
    267c:	01060f05 	tsteq	r6, r5, lsl #30
    2680:	0609052e 	streq	r0, [r9], -lr, lsr #10
    2684:	132e7803 			; <UNDEFINED> instruction: 0x132e7803
    2688:	060f0513 			; <UNDEFINED> instruction: 0x060f0513
    268c:	02022e01 	andeq	r2, r2, #1, 28
    2690:	05010100 	streq	r0, [r1, #-256]	; 0xffffff00
    2694:	02050001 	andeq	r0, r5, #1
    2698:	c2002394 	andgt	r2, r0, #148, 6	; 0x50000002
    269c:	01028e03 	tsteq	r2, r3, lsl #28
    26a0:	05050106 	streq	r0, [r5, #-262]	; 0xfffffefa
    26a4:	08052f06 	stmdaeq	r5, {r1, r2, r8, r9, sl, fp, sp}
    26a8:	05050106 	streq	r0, [r5, #-262]	; 0xfffffefa
    26ac:	672f6906 	strvs	r6, [pc, -r6, lsl #18]!
    26b0:	67060105 	strvs	r0, [r6, -r5, lsl #2]
    26b4:	01000202 	tsteq	r0, r2, lsl #4
    26b8:	00010501 	andeq	r0, r1, r1, lsl #10
    26bc:	23c40205 	biccs	r0, r4, #1342177280	; 0x50000000
    26c0:	9803c200 	stmdals	r3, {r9, lr, pc}
    26c4:	05050102 	streq	r0, [r5, #-258]	; 0xfffffefe
    26c8:	01040200 	mrseq	r0, R12_usr
    26cc:	00090514 	andeq	r0, r9, r4, lsl r5
    26d0:	14010402 	strne	r0, [r1], #-1026	; 0xfffffbfe
    26d4:	02000f05 	andeq	r0, r0, #5, 30
    26d8:	01060104 	tsteq	r6, r4, lsl #2
    26dc:	02000905 	andeq	r0, r0, #81920	; 0x14000
    26e0:	2f060104 	svccs	0x00060104
    26e4:	02000d05 	andeq	r0, r0, #320	; 0x140
    26e8:	05130104 	ldreq	r0, [r3, #-260]	; 0xfffffefc
    26ec:	04020005 	streq	r0, [r2], #-5
    26f0:	06010601 	streq	r0, [r1], -r1, lsl #12
    26f4:	0601054c 	streq	r0, [r1], -ip, asr #10
    26f8:	0002022f 	andeq	r0, r2, pc, lsr #4
    26fc:	038a0101 	orreq	r0, sl, #1073741824	; 0x40000000
    2700:	00030000 	andeq	r0, r3, r0
    2704:	0000018b 	andeq	r0, r0, fp, lsl #3
    2708:	0efb0102 	cdpeq	1, 15, cr0, cr11, cr2, {0}
    270c:	0101000d 	tsteq	r1, sp
    2710:	00000101 	andeq	r0, r0, r1, lsl #2
    2714:	00000100 	andeq	r0, r0, r0, lsl #2
    2718:	6f682f01 	svcvs	0x00682f01
    271c:	632f656d 			; <UNDEFINED> instruction: 0x632f656d
    2720:	6d696c7a 	stclvs	12, cr6, [r9, #-488]!	; 0xfffffe18
    2724:	6f632f78 	svcvs	0x00632f78
    2728:	70736564 	rsbsvc	r6, r3, r4, ror #10
    272c:	2f656361 	svccs	0x00656361
    2730:	706d6574 	rsbvc	r6, sp, r4, ror r5
    2734:	7261622f 	rsbvc	r6, r1, #-268435454	; 0xf0000002
    2738:	74656d65 	strbtvc	r6, [r5], #-3429	; 0xfffff29b
    273c:	665f6c61 	ldrbvs	r6, [pc], -r1, ror #24
    2740:	635f726f 	cmpvs	pc, #-268435450	; 0xf0000006
    2744:	646f632f 	strbtvs	r6, [pc], #-815	; 274c <SYS_MODE+0x272d>
    2748:	6f622f65 	svcvs	0x00622f65
    274c:	2f647261 	svccs	0x00647261
    2750:	33336d61 	teqcc	r3, #6208	; 0x1840
    2754:	742f3835 	strtvc	r3, [pc], #-2101	; 275c <SYS_MODE+0x273d>
    2758:	74727972 	ldrbtvc	r7, [r2], #-2418	; 0xfffff68e
    275c:	732f736f 			; <UNDEFINED> instruction: 0x732f736f
    2760:	2f006372 	svccs	0x00006372
    2764:	656d6f68 	strbvs	r6, [sp, #-3944]!	; 0xfffff098
    2768:	6c7a632f 	ldclvs	3, cr6, [sl], #-188	; 0xffffff44
    276c:	2f786d69 	svccs	0x00786d69
    2770:	65646f63 	strbvs	r6, [r4, #-3939]!	; 0xfffff09d
    2774:	63617073 	cmnvs	r1, #115	; 0x73
    2778:	65742f65 	ldrbvs	r2, [r4, #-3941]!	; 0xfffff09b
    277c:	622f706d 	eorvs	r7, pc, #109	; 0x6d
    2780:	6d657261 	sfmvs	f7, 2, [r5, #-388]!	; 0xfffffe7c
    2784:	6c617465 	cfstrdvs	mvd7, [r1], #-404	; 0xfffffe6c
    2788:	726f665f 	rsbvc	r6, pc, #99614720	; 0x5f00000
    278c:	632f635f 			; <UNDEFINED> instruction: 0x632f635f
    2790:	2f65646f 	svccs	0x0065646f
    2794:	68637261 	stmdavs	r3!, {r0, r5, r6, r9, ip, sp, lr}^
    2798:	6d72612f 	ldfvse	f6, [r2, #-188]!	; 0xffffff44
    279c:	612d3776 			; <UNDEFINED> instruction: 0x612d3776
    27a0:	636e692f 	cmnvs	lr, #770048	; 0xbc000
    27a4:	6f682f00 	svcvs	0x00682f00
    27a8:	632f656d 			; <UNDEFINED> instruction: 0x632f656d
    27ac:	6d696c7a 	stclvs	12, cr6, [r9, #-488]!	; 0xfffffe18
    27b0:	6f632f78 	svcvs	0x00632f78
    27b4:	70736564 	rsbsvc	r6, r3, r4, ror #10
    27b8:	2f656361 	svccs	0x00656361
    27bc:	706d6574 	rsbvc	r6, sp, r4, ror r5
    27c0:	7261622f 	rsbvc	r6, r1, #-268435454	; 0xf0000002
    27c4:	74656d65 	strbtvc	r6, [r5], #-3429	; 0xfffff29b
    27c8:	665f6c61 	ldrbvs	r6, [pc], -r1, ror #24
    27cc:	635f726f 	cmpvs	pc, #-268435450	; 0xf0000006
    27d0:	646f632f 	strbtvs	r6, [pc], #-815	; 27d8 <SYS_MODE+0x27b9>
    27d4:	72642f65 	rsbvc	r2, r4, #404	; 0x194
    27d8:	72657669 	rsbvc	r7, r5, #110100480	; 0x6900000
    27dc:	336d612f 	cmncc	sp, #-1073741813	; 0xc000000b
    27e0:	2f783533 	svccs	0x00783533
    27e4:	00636e69 	rsbeq	r6, r3, r9, ror #28
    27e8:	6d6f682f 	stclvs	8, cr6, [pc, #-188]!	; 2734 <SYS_MODE+0x2715>
    27ec:	7a632f65 	bvc	18ce588 <SYS_MODE+0x18ce569>
    27f0:	786d696c 	stmdavc	sp!, {r2, r3, r5, r6, r8, fp, sp, lr}^
    27f4:	646f632f 	strbtvs	r6, [pc], #-815	; 27fc <SYS_MODE+0x27dd>
    27f8:	61707365 	cmnvs	r0, r5, ror #6
    27fc:	742f6563 	strtvc	r6, [pc], #-1379	; 2804 <SYS_MODE+0x27e5>
    2800:	2f706d65 	svccs	0x00706d65
    2804:	65726162 	ldrbvs	r6, [r2, #-354]!	; 0xfffffe9e
    2808:	6174656d 	cmnvs	r4, sp, ror #10
    280c:	6f665f6c 	svcvs	0x00665f6c
    2810:	2f635f72 	svccs	0x00635f72
    2814:	65646f63 	strbvs	r6, [r4, #-3939]!	; 0xfffff09d
    2818:	62696c2f 	rsbvs	r6, r9, #12032	; 0x2f00
    281c:	6e692f63 	cdpvs	15, 6, cr2, cr9, cr3, {3}
    2820:	62000063 	andvs	r0, r0, #99	; 0x63
    2824:	6472616f 	ldrbtvs	r6, [r2], #-367	; 0xfffffe91
    2828:	696e695f 	stmdbvs	lr!, {r0, r1, r2, r3, r4, r6, r8, fp, sp, lr}^
    282c:	00632e74 	rsbeq	r2, r3, r4, ror lr
    2830:	61000001 	tstvs	r0, r1
    2834:	5f686372 	svcpl	0x00686372
    2838:	706d6f63 	rsbvc	r6, sp, r3, ror #30
    283c:	72656c69 	rsbvc	r6, r5, #26880	; 0x6900
    2840:	0200682e 	andeq	r6, r0, #3014656	; 0x2e0000
    2844:	64730000 	ldrbtvs	r0, [r3], #-0
    2848:	755f7672 	ldrbvc	r7, [pc, #-1650]	; 21de <SYS_MODE+0x21bf>
    284c:	2e747261 	cdpcs	2, 7, cr7, cr4, cr1, {3}
    2850:	00030068 	andeq	r0, r3, r8, rrx
    2854:	72647300 	rsbvc	r7, r4, #0, 6
    2858:	69745f76 	ldmdbvs	r4!, {r1, r2, r4, r5, r6, r8, r9, sl, fp, ip, lr}^
    285c:	2e72656d 	cdpcs	5, 7, cr6, cr2, cr13, {3}
    2860:	00030068 	andeq	r0, r3, r8, rrx
    2864:	62696c00 	rsbvs	r6, r9, #0, 24
    2868:	72705f63 	rsbsvc	r5, r0, #396	; 0x18c
    286c:	66746e69 	ldrbtvs	r6, [r4], -r9, ror #28
    2870:	0400682e 	streq	r6, [r0], #-2094	; 0xfffff7d2
    2874:	72610000 	rsbvc	r0, r1, #0
    2878:	695f6863 	ldmdbvs	pc, {r0, r1, r5, r6, fp, sp, lr}^	; <UNPREDICTABLE>
    287c:	682e7172 	stmdavs	lr!, {r1, r4, r5, r6, r8, ip, sp, lr}
    2880:	00000200 	andeq	r0, r0, r0, lsl #4
    2884:	68637261 	stmdavs	r3!, {r0, r5, r6, r9, ip, sp, lr}^
    2888:	626c745f 	rsbvs	r7, ip, #1593835520	; 0x5f000000
    288c:	0200682e 	andeq	r6, r0, #3014656	; 0x2e0000
    2890:	05000000 	streq	r0, [r0, #-0]
    2894:	02050001 	andeq	r0, r5, #1
    2898:	c20023d8 	andgt	r2, r0, #216, 6	; 0x60000003
    289c:	05012103 	streq	r2, [r1, #-259]	; 0xfffffefd
    28a0:	674b3005 	strbvs	r3, [fp, -r5]
    28a4:	1313134d 	tstne	r3, #872415233	; 0x34000001
    28a8:	05010a05 	streq	r0, [r1, #-2565]	; 0xfffff5fb
    28ac:	05010613 	streq	r0, [r1, #-1555]	; 0xfffff9ed
    28b0:	05052c0f 	streq	r2, [r5, #-3087]	; 0xfffff3f1
    28b4:	06090530 			; <UNDEFINED> instruction: 0x06090530
    28b8:	060c0530 			; <UNDEFINED> instruction: 0x060c0530
    28bc:	060d0501 	streq	r0, [sp], -r1, lsl #10
    28c0:	0610054c 	ldreq	r0, [r0], -ip, asr #10
    28c4:	4b1b0501 	blmi	6c3cd0 <SYS_MODE+0x6c3cb1>
    28c8:	4f060d05 	svcmi	0x00060d05
    28cc:	01062b05 	tsteq	r6, r5, lsl #22
    28d0:	054a1705 	strbeq	r1, [sl, #-1797]	; 0xfffff8fb
    28d4:	1b054a39 	blne	1551c0 <SYS_MODE+0x1551a1>
    28d8:	0009052e 	andeq	r0, r9, lr, lsr #10
    28dc:	06020402 	streq	r0, [r2], -r2, lsl #8
    28e0:	00150536 	andseq	r0, r5, r6, lsr r5
    28e4:	06020402 	streq	r0, [r2], -r2, lsl #8
    28e8:	00240501 	eoreq	r0, r4, r1, lsl #10
    28ec:	06020402 	streq	r0, [r2], -r2, lsl #8
    28f0:	052e6e03 	streq	r6, [lr, #-3587]!	; 0xfffff1fd
    28f4:	04020025 	streq	r0, [r2], #-37	; 0xffffffdb
    28f8:	05010602 	streq	r0, [r1, #-1538]	; 0xfffff9fe
    28fc:	0402001a 	streq	r0, [r2], #-26	; 0xffffffe6
    2900:	052e0601 	streq	r0, [lr, #-1537]!	; 0xfffff9ff
    2904:	04020005 	streq	r0, [r2], #-5
    2908:	05010601 	streq	r0, [r1, #-1537]	; 0xfffff9ff
    290c:	4a190313 	bmi	643560 <SYS_MODE+0x643541>
    2910:	110e052e 	tstne	lr, lr, lsr #10
    2914:	2e491205 	cdpcs	2, 4, cr1, cr9, cr5, {0}
    2918:	2e6f0306 	cdpcs	3, 6, cr0, cr15, cr6, {0}
    291c:	01061505 	tsteq	r6, r5, lsl #10
    2920:	682f1b05 	stmdavs	pc!, {r0, r2, r8, r9, fp, ip}	; <UNPREDICTABLE>
    2924:	6b060d05 	blvs	185d40 <SYS_MODE+0x185d21>
    2928:	06170513 			; <UNDEFINED> instruction: 0x06170513
    292c:	4a1b0501 	bmi	6c3d38 <SYS_MODE+0x6c3d19>
    2930:	06090566 	streq	r0, [r9], -r6, ror #10
    2934:	05010d03 	streq	r0, [r1, #-3331]	; 0xfffff2fd
    2938:	05010628 	streq	r0, [r1, #-1576]	; 0xfffff9d8
    293c:	0d052e0c 	stceq	14, cr2, [r5, #-48]	; 0xffffffd0
    2940:	05135206 	ldreq	r5, [r3, #-518]	; 0xfffffdfa
    2944:	05010617 	streq	r0, [r1, #-1559]	; 0xfffff9e9
    2948:	0905661b 	stmdbeq	r5, {r0, r1, r3, r4, r9, sl, sp, lr}
    294c:	02040200 	andeq	r0, r4, #0, 4
    2950:	15054c06 	strne	r4, [r5, #-3078]	; 0xfffff3fa
    2954:	02040200 	andeq	r0, r4, #0, 4
    2958:	24050106 	strcs	r0, [r5], #-262	; 0xfffffefa
    295c:	02040200 	andeq	r0, r4, #0, 4
    2960:	2e720306 	cdpcs	3, 7, cr0, cr2, cr6, {0}
    2964:	02002505 	andeq	r2, r0, #20971520	; 0x1400000
    2968:	01060204 	tsteq	r6, r4, lsl #4
    296c:	02001a05 	andeq	r1, r0, #20480	; 0x5000
    2970:	2e060104 	adfcss	f0, f6, f4
    2974:	02000505 	andeq	r0, r0, #20971520	; 0x1400000
    2978:	01060104 	tsteq	r6, r4, lsl #2
    297c:	14031305 	strne	r1, [r3], #-773	; 0xfffffcfb
    2980:	2d0f054a 	cfstr32cs	mvfx0, [pc, #-296]	; 2860 <SYS_MODE+0x2841>
    2984:	060d052e 	streq	r0, [sp], -lr, lsr #10
    2988:	132e7203 			; <UNDEFINED> instruction: 0x132e7203
    298c:	01062c05 	tsteq	r6, r5, lsl #24
    2990:	054a1705 	strbeq	r1, [sl, #-1797]	; 0xfffff8fb
    2994:	1b05663a 	blne	15c284 <SYS_MODE+0x15c265>
    2998:	060d052e 	streq	r0, [sp], -lr, lsr #10
    299c:	061a052f 	ldreq	r0, [sl], -pc, lsr #10
    29a0:	052e2e01 	streq	r2, [lr, #-3585]!	; 0xfffff1ff
    29a4:	10030609 	andne	r0, r3, r9, lsl #12
    29a8:	060c0501 	streq	r0, [ip], -r1, lsl #10
    29ac:	060e0501 	streq	r0, [lr], -r1, lsl #10
    29b0:	0611054e 	ldreq	r0, [r1], -lr, asr #10
    29b4:	51170501 	tstpl	r7, r1, lsl #10
    29b8:	02000905 	andeq	r0, r0, #81920	; 0x14000
    29bc:	31060204 	tstcc	r6, r4, lsl #4
    29c0:	02002305 	andeq	r2, r0, #335544320	; 0x14000000
    29c4:	01060204 	tsteq	r6, r4, lsl #4
    29c8:	02001205 	andeq	r1, r0, #1342177280	; 0x50000000
    29cc:	054a0204 	strbeq	r0, [sl, #-516]	; 0xfffffdfc
    29d0:	04020031 	streq	r0, [r2], #-49	; 0xffffffcf
    29d4:	16056602 	strne	r6, [r5], -r2, lsl #12
    29d8:	02040200 	andeq	r0, r4, #0, 4
    29dc:	0009052e 	andeq	r0, r9, lr, lsr #10
    29e0:	06020402 	streq	r0, [r2], -r2, lsl #8
    29e4:	0012052f 	andseq	r0, r2, pc, lsr #10
    29e8:	06020402 	streq	r0, [r2], -r2, lsl #8
    29ec:	00270501 	eoreq	r0, r7, r1, lsl #10
    29f0:	06020402 	streq	r0, [r2], -r2, lsl #8
    29f4:	052e6e03 	streq	r6, [lr, #-3587]!	; 0xfffff1fd
    29f8:	04020028 	streq	r0, [r2], #-40	; 0xffffffd8
    29fc:	05010602 	streq	r0, [r1, #-1538]	; 0xfffff9fe
    2a00:	0402001a 	streq	r0, [r2], #-26	; 0xffffffe6
    2a04:	052e0601 	streq	r0, [lr, #-1537]!	; 0xfffff9ff
    2a08:	04020005 	streq	r0, [r2], #-5
    2a0c:	05010601 	streq	r0, [r1, #-1537]	; 0xfffff9ff
    2a10:	66090317 			; <UNDEFINED> instruction: 0x66090317
    2a14:	00040246 	andeq	r0, r4, r6, asr #4
    2a18:	01050101 	tsteq	r5, r1, lsl #2
    2a1c:	3c020500 	cfstr32cc	mvfx0, [r2], {-0}
    2a20:	03c20025 	biceq	r0, r2, #37	; 0x25
    2a24:	0106010e 	tsteq	r6, lr, lsl #2
    2a28:	4b060505 	blmi	183e44 <SYS_MODE+0x183e25>
    2a2c:	01052e06 	tsteq	r5, r6, lsl #28
    2a30:	0002024b 	andeq	r0, r2, fp, asr #4
    2a34:	01050101 	tsteq	r5, r1, lsl #2
    2a38:	54020500 	strpl	r0, [r2], #-1280	; 0xfffffb00
    2a3c:	03c20025 	biceq	r0, r2, #37	; 0x25
    2a40:	050100f2 	streq	r0, [r1, #-242]	; 0xffffff0e
    2a44:	01053005 	tsteq	r5, r5
    2a48:	02022f06 	andeq	r2, r2, #6, 30
    2a4c:	05010100 	streq	r0, [r1, #-256]	; 0xffffff00
    2a50:	02050001 	andeq	r0, r5, #1
    2a54:	00000000 	andeq	r0, r0, r0
    2a58:	0100fb03 	tsteq	r0, r3, lsl #22	; <UNPREDICTABLE>
    2a5c:	05050106 	streq	r0, [r5, #-262]	; 0xfffffefa
    2a60:	31854c06 	orrcc	r4, r5, r6, lsl #24
    2a64:	69696969 	stmdbvs	r9!, {r0, r3, r5, r6, r8, fp, sp, lr}^
    2a68:	060105bd 			; <UNDEFINED> instruction: 0x060105bd
    2a6c:	0002024b 	andeq	r0, r2, fp, asr #4
    2a70:	01050101 	tsteq	r5, r1, lsl #2
    2a74:	60020500 	andvs	r0, r2, r0, lsl #10
    2a78:	03c20025 	biceq	r0, r2, #37	; 0x25
    2a7c:	05010199 	streq	r0, [r1, #-409]	; 0xfffffe67
    2a80:	05a13005 	streq	r3, [r1, #5]!
    2a84:	02670601 	rsbeq	r0, r7, #1048576	; 0x100000
    2a88:	01010002 	tsteq	r1, r2
    2a8c:	000001ef 	andeq	r0, r0, pc, ror #3
    2a90:	01770003 	cmneq	r7, r3
    2a94:	01020000 	mrseq	r0, (UNDEF: 2)
    2a98:	000d0efb 	strdeq	r0, [sp], -fp
    2a9c:	01010101 	tsteq	r1, r1, lsl #2
    2aa0:	01000000 	mrseq	r0, (UNDEF: 0)
    2aa4:	2f010000 	svccs	0x00010000
    2aa8:	656d6f68 	strbvs	r6, [sp, #-3944]!	; 0xfffff098
    2aac:	6c7a632f 	ldclvs	3, cr6, [sl], #-188	; 0xffffff44
    2ab0:	2f786d69 	svccs	0x00786d69
    2ab4:	65646f63 	strbvs	r6, [r4, #-3939]!	; 0xfffff09d
    2ab8:	63617073 	cmnvs	r1, #115	; 0x73
    2abc:	65742f65 	ldrbvs	r2, [r4, #-3941]!	; 0xfffff09b
    2ac0:	622f706d 	eorvs	r7, pc, #109	; 0x6d
    2ac4:	6d657261 	sfmvs	f7, 2, [r5, #-388]!	; 0xfffffe7c
    2ac8:	6c617465 	cfstrdvs	mvd7, [r1], #-404	; 0xfffffe6c
    2acc:	726f665f 	rsbvc	r6, pc, #99614720	; 0x5f00000
    2ad0:	632f635f 			; <UNDEFINED> instruction: 0x632f635f
    2ad4:	2f65646f 	svccs	0x0065646f
    2ad8:	72616f62 	rsbvc	r6, r1, #392	; 0x188
    2adc:	6d612f64 	stclvs	15, cr2, [r1, #-400]!	; 0xfffffe70
    2ae0:	38353333 	ldmdacc	r5!, {r0, r1, r4, r5, r8, r9, ip, sp}
    2ae4:	7972742f 	ldmdbvc	r2!, {r0, r1, r2, r3, r5, sl, ip, sp, lr}^
    2ae8:	736f7472 	cmnvc	pc, #1912602624	; 0x72000000
    2aec:	6372732f 	cmnvs	r2, #-1140850688	; 0xbc000000
    2af0:	6f682f00 	svcvs	0x00682f00
    2af4:	632f656d 			; <UNDEFINED> instruction: 0x632f656d
    2af8:	6d696c7a 	stclvs	12, cr6, [r9, #-488]!	; 0xfffffe18
    2afc:	6f632f78 	svcvs	0x00632f78
    2b00:	70736564 	rsbsvc	r6, r3, r4, ror #10
    2b04:	2f656361 	svccs	0x00656361
    2b08:	706d6574 	rsbvc	r6, sp, r4, ror r5
    2b0c:	7261622f 	rsbvc	r6, r1, #-268435454	; 0xf0000002
    2b10:	74656d65 	strbtvc	r6, [r5], #-3429	; 0xfffff29b
    2b14:	665f6c61 	ldrbvs	r6, [pc], -r1, ror #24
    2b18:	635f726f 	cmpvs	pc, #-268435450	; 0xf0000006
    2b1c:	646f632f 	strbtvs	r6, [pc], #-815	; 2b24 <SYS_MODE+0x2b05>
    2b20:	6f622f65 	svcvs	0x00622f65
    2b24:	2f647261 	svccs	0x00647261
    2b28:	33336d61 	teqcc	r3, #6208	; 0x1840
    2b2c:	742f3835 	strtvc	r3, [pc], #-2101	; 2b34 <SYS_MODE+0x2b15>
    2b30:	74727972 	ldrbtvc	r7, [r2], #-2418	; 0xfffff68e
    2b34:	692f736f 	stmdbvs	pc!, {r0, r1, r2, r3, r5, r6, r8, r9, ip, sp, lr}	; <UNPREDICTABLE>
    2b38:	2f00636e 	svccs	0x0000636e
    2b3c:	656d6f68 	strbvs	r6, [sp, #-3944]!	; 0xfffff098
    2b40:	6c7a632f 	ldclvs	3, cr6, [sl], #-188	; 0xffffff44
    2b44:	2f786d69 	svccs	0x00786d69
    2b48:	65646f63 	strbvs	r6, [r4, #-3939]!	; 0xfffff09d
    2b4c:	63617073 	cmnvs	r1, #115	; 0x73
    2b50:	65742f65 	ldrbvs	r2, [r4, #-3941]!	; 0xfffff09b
    2b54:	622f706d 	eorvs	r7, pc, #109	; 0x6d
    2b58:	6d657261 	sfmvs	f7, 2, [r5, #-388]!	; 0xfffffe7c
    2b5c:	6c617465 	cfstrdvs	mvd7, [r1], #-404	; 0xfffffe6c
    2b60:	726f665f 	rsbvc	r6, pc, #99614720	; 0x5f00000
    2b64:	632f635f 			; <UNDEFINED> instruction: 0x632f635f
    2b68:	2f65646f 	svccs	0x0065646f
    2b6c:	76697264 	strbtvc	r7, [r9], -r4, ror #4
    2b70:	612f7265 			; <UNDEFINED> instruction: 0x612f7265
    2b74:	3533336d 	ldrcc	r3, [r3, #-877]!	; 0xfffffc93
    2b78:	6e692f78 	mcrvs	15, 3, r2, cr9, cr8, {3}
    2b7c:	682f0063 	stmdavs	pc!, {r0, r1, r5, r6}	; <UNPREDICTABLE>
    2b80:	2f656d6f 	svccs	0x00656d6f
    2b84:	696c7a63 	stmdbvs	ip!, {r0, r1, r5, r6, r9, fp, ip, sp, lr}^
    2b88:	632f786d 			; <UNDEFINED> instruction: 0x632f786d
    2b8c:	7365646f 	cmnvc	r5, #1862270976	; 0x6f000000
    2b90:	65636170 	strbvs	r6, [r3, #-368]!	; 0xfffffe90
    2b94:	6d65742f 	cfstrdvs	mvd7, [r5, #-188]!	; 0xffffff44
    2b98:	61622f70 	smcvs	8944	; 0x22f0
    2b9c:	656d6572 	strbvs	r6, [sp, #-1394]!	; 0xfffffa8e
    2ba0:	5f6c6174 	svcpl	0x006c6174
    2ba4:	5f726f66 	svcpl	0x00726f66
    2ba8:	6f632f63 	svcvs	0x00632f63
    2bac:	612f6564 			; <UNDEFINED> instruction: 0x612f6564
    2bb0:	2f686372 	svccs	0x00686372
    2bb4:	766d7261 	strbtvc	r7, [sp], -r1, ror #4
    2bb8:	2f612d37 	svccs	0x00612d37
    2bbc:	00636e69 	rsbeq	r6, r3, r9, ror #28
    2bc0:	69616d00 	stmdbvs	r1!, {r8, sl, fp, sp, lr}^
    2bc4:	00632e6e 	rsbeq	r2, r3, lr, ror #28
    2bc8:	62000001 	andvs	r0, r0, #1
    2bcc:	6472616f 	ldrbtvs	r6, [r2], #-367	; 0xfffffe91
    2bd0:	696e695f 	stmdbvs	lr!, {r0, r1, r2, r3, r4, r6, r8, fp, sp, lr}^
    2bd4:	00682e74 	rsbeq	r2, r8, r4, ror lr
    2bd8:	73000002 	movwvc	r0, #2
    2bdc:	5f767264 	svcpl	0x00767264
    2be0:	656d6974 	strbvs	r6, [sp, #-2420]!	; 0xfffff68c
    2be4:	00682e72 	rsbeq	r2, r8, r2, ror lr
    2be8:	61000003 	tstvs	r0, r3
    2bec:	5f686372 	svcpl	0x00686372
    2bf0:	2e757063 	cdpcs	0, 7, cr7, cr5, cr3, {3}
    2bf4:	00040068 	andeq	r0, r4, r8, rrx
    2bf8:	63726100 	cmnvs	r2, #0, 2
    2bfc:	6f635f68 	svcvs	0x00635f68
    2c00:	6c69706d 	stclvs	0, cr7, [r9], #-436	; 0xfffffe4c
    2c04:	682e7265 	stmdavs	lr!, {r0, r2, r5, r6, r9, ip, sp, lr}
    2c08:	00000400 	andeq	r0, r0, r0, lsl #8
    2c0c:	00010500 	andeq	r0, r1, r0, lsl #10
    2c10:	00000205 	andeq	r0, r0, r5, lsl #4
    2c14:	0a030000 	beq	c2c1c <SYS_MODE+0xc2bfd>
    2c18:	05010601 	streq	r0, [r1, #-1537]	; 0xfffff9ff
    2c1c:	062f0605 	strteq	r0, [pc], -r5, lsl #12
    2c20:	2f01054a 	svccs	0x0001054a
    2c24:	01000202 	tsteq	r0, r2, lsl #4
    2c28:	00010501 	andeq	r0, r1, r1, lsl #10
    2c2c:	00000205 	andeq	r0, r0, r5, lsl #4
    2c30:	12030000 	andne	r0, r3, #0
    2c34:	05010601 	streq	r0, [r1, #-1537]	; 0xfffff9ff
    2c38:	06300605 	ldrteq	r0, [r0], -r5, lsl #12
    2c3c:	054b064a 	strbeq	r0, [fp, #-1610]	; 0xfffff9b6
    2c40:	02130601 	andseq	r0, r3, #1048576	; 0x100000
    2c44:	01010002 	tsteq	r1, r2
    2c48:	05000105 	streq	r0, [r0, #-261]	; 0xfffffefb
    2c4c:	00000002 	andeq	r0, r0, r2
    2c50:	01190300 	tsteq	r9, r0, lsl #6
    2c54:	05050106 	streq	r0, [r5, #-262]	; 0xfffffefa
    2c58:	2e063006 	cdpcs	0, 0, cr3, cr6, cr6, {0}
    2c5c:	01054b06 	tsteq	r5, r6, lsl #22
    2c60:	02021306 	andeq	r1, r2, #402653184	; 0x18000000
    2c64:	05010100 	streq	r0, [r1, #-256]	; 0xffffff00
    2c68:	02050001 	andeq	r0, r5, #1
    2c6c:	c2002588 	andgt	r2, r0, #136, 10	; 0x22000000
    2c70:	05012303 	streq	r2, [r1, #-771]	; 0xfffffcfd
    2c74:	01051905 	tsteq	r5, r5, lsl #18
    2c78:	04021306 	streq	r1, [r2], #-774	; 0xfffffcfa
    2c7c:	Address 0x0000000000002c7c is out of bounds.


Disassembly of section .debug_str:

00000000 <.debug_str>:
       0:	6d6d656d 	cfstr64vs	mvdx6, [sp, #-436]!	; 0xfffffe4c
       4:	0065766f 	rsbeq	r7, r5, pc, ror #12
       8:	657a6973 	ldrbvs	r6, [sl, #-2419]!	; 0xfffff68d
       c:	6d00745f 	cfstrsvs	mvf7, [r0, #-380]	; 0xfffffe84
      10:	6d636d65 	stclvs	13, cr6, [r3, #-404]!	; 0xfffffe6c
      14:	6f630070 	svcvs	0x00630070
      18:	00746e75 	rsbseq	r6, r4, r5, ror lr
      1c:	6c727473 	cfldrdvs	mvd7, [r2], #-460	; 0xfffffe34
      20:	64006e65 	strvs	r6, [r0], #-3685	; 0xfffff19b
      24:	00747365 	rsbseq	r7, r4, r5, ror #6
      28:	69736e75 	ldmdbvs	r3!, {r0, r2, r4, r5, r6, r9, sl, fp, sp, lr}^
      2c:	64656e67 	strbtvs	r6, [r5], #-3687	; 0xfffff199
      30:	61686320 	cmnvs	r8, r0, lsr #6
      34:	74730072 	ldrbtvc	r0, [r3], #-114	; 0xffffff8e
      38:	79706372 	ldmdbvc	r0!, {r1, r4, r5, r6, r8, r9, sp, lr}^
      3c:	6f687300 	svcvs	0x00687300
      40:	75207472 	strvc	r7, [r0, #-1138]!	; 0xfffffb8e
      44:	6769736e 	strbvs	r7, [r9, -lr, ror #6]!
      48:	2064656e 	rsbcs	r6, r4, lr, ror #10
      4c:	00746e69 	rsbseq	r6, r4, r9, ror #28
      50:	6e727473 	mrcvs	4, 3, r7, cr2, cr3, {3}
      54:	00797063 	rsbseq	r7, r9, r3, rrx
      58:	736d656d 	cmnvc	sp, #457179136	; 0x1b400000
      5c:	47007465 	strmi	r7, [r0, -r5, ror #8]
      60:	4320554e 			; <UNDEFINED> instruction: 0x4320554e
      64:	31203731 			; <UNDEFINED> instruction: 0x31203731
      68:	2e332e30 	mrccs	14, 1, r2, cr3, cr0, {1}
      6c:	30322031 	eorscc	r2, r2, r1, lsr r0
      70:	36303132 			; <UNDEFINED> instruction: 0x36303132
      74:	28203132 	stmdacs	r0!, {r1, r4, r5, r8, ip, sp}
      78:	656c6572 	strbvs	r6, [ip, #-1394]!	; 0xfffffa8e
      7c:	29657361 	stmdbcs	r5!, {r0, r5, r6, r8, r9, ip, sp, lr}^
      80:	616d2d20 	cmnvs	sp, r0, lsr #26
      84:	2d206d72 	stccs	13, cr6, [r0, #-456]!	; 0xfffffe38
      88:	6e75746d 	cdpvs	4, 7, cr7, cr5, cr13, {3}
      8c:	6f633d65 	svcvs	0x00633d65
      90:	78657472 	stmdavc	r5!, {r1, r4, r5, r6, sl, ip, sp, lr}^
      94:	2038612d 	eorscs	r6, r8, sp, lsr #2
      98:	70666d2d 	rsbvc	r6, r6, sp, lsr #26
      9c:	66763d75 			; <UNDEFINED> instruction: 0x66763d75
      a0:	2d337670 	ldccs	6, cr7, [r3, #-448]!	; 0xfffffe40
      a4:	20363164 	eorscs	r3, r6, r4, ror #2
      a8:	6c666d2d 	stclvs	13, cr6, [r6], #-180	; 0xffffff4c
      ac:	2d74616f 	ldfcse	f6, [r4, #-444]!	; 0xfffffe44
      b0:	3d696261 	sfmcc	f6, 2, [r9, #-388]!	; 0xfffffe7c
      b4:	64726168 	ldrbtvs	r6, [r2], #-360	; 0xfffffe98
      b8:	6e6d2d20 	cdpvs	13, 6, cr2, cr13, cr0, {1}
      bc:	6e752d6f 	cdpvs	13, 7, cr2, cr5, cr15, {3}
      c0:	67696c61 	strbvs	r6, [r9, -r1, ror #24]!
      c4:	2d64656e 	cfstr64cs	mvdx6, [r4, #-440]!	; 0xfffffe48
      c8:	65636361 	strbvs	r6, [r3, #-865]!	; 0xfffffc9f
      cc:	2d207373 	stccs	3, cr7, [r0, #-460]!	; 0xfffffe34
      d0:	6372616d 	cmnvs	r2, #1073741851	; 0x4000001b
      d4:	72613d68 	rsbvc	r3, r1, #104, 26	; 0x1a00
      d8:	2d37766d 	ldccs	6, cr7, [r7, #-436]!	; 0xfffffe4c
      dc:	70662b61 	rsbvc	r2, r6, r1, ror #22
      e0:	20672d20 	rsbcs	r2, r7, r0, lsr #26
      e4:	7764672d 	strbvc	r6, [r4, -sp, lsr #14]!
      e8:	2d667261 	sfmcs	f7, 2, [r6, #-388]!	; 0xfffffe7c
      ec:	4f2d2032 	svcmi	0x002d2032
      f0:	662d2067 	strtvs	r2, [sp], -r7, rrx
      f4:	622d6f6e 	eorvs	r6, sp, #440	; 0x1b8
      f8:	746c6975 	strbtvc	r6, [ip], #-2421	; 0xfffff68b
      fc:	2d206e69 	stccs	14, cr6, [r0, #-420]!	; 0xfffffe5c
     100:	74616466 	strbtvc	r6, [r1], #-1126	; 0xfffffb9a
     104:	65732d61 	ldrbvs	r2, [r3, #-3425]!	; 0xfffff29f
     108:	6f697463 	svcvs	0x00697463
     10c:	2d20736e 	stccs	3, cr7, [r0, #-440]!	; 0xfffffe48
     110:	6e756666 	cdpvs	6, 7, cr6, cr5, cr6, {3}
     114:	6f697463 	svcvs	0x00697463
     118:	65732d6e 	ldrbvs	r2, [r3, #-3438]!	; 0xfffff292
     11c:	6f697463 	svcvs	0x00697463
     120:	2d20736e 	stccs	3, cr7, [r0, #-440]!	; 0xfffffe48
     124:	2d6f6e66 	stclcs	14, cr6, [pc, #-408]!	; ffffff94 <_stack_end+0x3dff8f94>
     128:	65637865 	strbvs	r7, [r3, #-2149]!	; 0xfffff79b
     12c:	6f697470 	svcvs	0x00697470
     130:	2f00736e 	svccs	0x0000736e
     134:	656d6f68 	strbvs	r6, [sp, #-3944]!	; 0xfffff098
     138:	6c7a632f 	ldclvs	3, cr6, [sl], #-188	; 0xffffff44
     13c:	2f786d69 	svccs	0x00786d69
     140:	65646f63 	strbvs	r6, [r4, #-3939]!	; 0xfffff09d
     144:	63617073 	cmnvs	r1, #115	; 0x73
     148:	65742f65 	ldrbvs	r2, [r4, #-3941]!	; 0xfffff09b
     14c:	622f706d 	eorvs	r7, pc, #109	; 0x6d
     150:	6d657261 	sfmvs	f7, 2, [r5, #-388]!	; 0xfffffe7c
     154:	6c617465 	cfstrdvs	mvd7, [r1], #-404	; 0xfffffe6c
     158:	726f665f 	rsbvc	r6, pc, #99614720	; 0x5f00000
     15c:	632f635f 			; <UNDEFINED> instruction: 0x632f635f
     160:	2f65646f 	svccs	0x0065646f
     164:	6362696c 	cmnvs	r2, #108, 18	; 0x1b0000
     168:	6372732f 	cmnvs	r2, #-1140850688	; 0xbc000000
     16c:	62696c2f 	rsbvs	r6, r9, #12032	; 0x2f00
     170:	656d5f63 	strbvs	r5, [sp, #-3939]!	; 0xfffff09d
     174:	79726f6d 	ldmdbvc	r2!, {r0, r2, r3, r5, r6, r8, r9, sl, fp, sp, lr}^
     178:	6c00632e 	stcvs	3, cr6, [r0], {46}	; 0x2e
     17c:	20676e6f 	rsbcs	r6, r7, pc, ror #28
     180:	676e6f6c 	strbvs	r6, [lr, -ip, ror #30]!
     184:	736e7520 	cmnvc	lr, #32, 10	; 0x8000000
     188:	656e6769 	strbvs	r6, [lr, #-1897]!	; 0xfffff897
     18c:	6e692064 	cdpvs	0, 6, cr2, cr9, cr4, {3}
     190:	74730074 	ldrbtvc	r0, [r3], #-116	; 0xffffff8c
     194:	706d6372 	rsbvc	r6, sp, r2, ror r3
     198:	6e6f6c00 	cdpvs	12, 6, cr6, cr15, cr0, {0}
     19c:	6f6c2067 	svcvs	0x006c2067
     1a0:	6920676e 	stmdbvs	r0!, {r1, r2, r3, r5, r6, r8, r9, sl, sp, lr}
     1a4:	6d00746e 	cfstrsvs	mvf7, [r0, #-440]	; 0xfffffe48
     1a8:	70636d65 	rsbvc	r6, r3, r5, ror #26
     1ac:	68730079 	ldmdavs	r3!, {r0, r3, r4, r5, r6}^
     1b0:	2074726f 	rsbscs	r7, r4, pc, ror #4
     1b4:	00746e69 	rsbseq	r6, r4, r9, ror #28
     1b8:	65725f5f 	ldrbvs	r5, [r2, #-3935]!	; 0xfffff0a1
     1bc:	682f0073 	stmdavs	pc!, {r0, r1, r4, r5, r6}	; <UNPREDICTABLE>
     1c0:	2f656d6f 	svccs	0x00656d6f
     1c4:	696c7a63 	stmdbvs	ip!, {r0, r1, r5, r6, r9, fp, ip, sp, lr}^
     1c8:	632f786d 			; <UNDEFINED> instruction: 0x632f786d
     1cc:	7365646f 	cmnvc	r5, #1862270976	; 0x6f000000
     1d0:	65636170 	strbvs	r6, [r3, #-368]!	; 0xfffffe90
     1d4:	6d65742f 	cfstrdvs	mvd7, [r5, #-188]!	; 0xffffff44
     1d8:	61622f70 	smcvs	8944	; 0x22f0
     1dc:	656d6572 	strbvs	r6, [sp, #-1394]!	; 0xfffffa8e
     1e0:	5f6c6174 	svcpl	0x006c6174
     1e4:	5f726f66 	svcpl	0x00726f66
     1e8:	75622f63 	strbvc	r2, [r2, #-3939]!	; 0xfffff09d
     1ec:	2f646c69 	svccs	0x00646c69
     1f0:	33336d61 	teqcc	r3, #6208	; 0x1840
     1f4:	70003835 	andvc	r3, r0, r5, lsr r8
     1f8:	3031776f 	eorscc	r7, r1, pc, ror #14
     1fc:	70786500 	rsbsvc	r6, r8, r0, lsl #10
     200:	756f0032 	strbvc	r0, [pc, #-50]!	; 1d6 <SYS_MODE+0x1b7>
     204:	63665f74 	cmnvs	r6, #116, 30	; 0x1d0
     208:	72775f74 	rsbsvc	r5, r7, #116, 30	; 0x1d0
     20c:	64007061 	strvs	r7, [r0], #-97	; 0xffffff9f
     210:	00666669 	rsbeq	r6, r6, r9, ror #12
     214:	74756f5f 	ldrbtvc	r6, [r5], #-3935	; 0xfffff0a1
     218:	6675625f 			; <UNDEFINED> instruction: 0x6675625f
     21c:	00726566 	rsbseq	r6, r2, r6, ror #10
     220:	746e6975 	strbtvc	r6, [lr], #-2421	; 0xfffff68b
     224:	745f3436 	ldrbvc	r3, [pc], #-1078	; 22c <SYS_MODE+0x20d>
     228:	6e696d00 	cdpvs	13, 6, cr6, cr9, cr0, {0}
     22c:	74646977 	strbtvc	r6, [r4], #-2423	; 0xfffff689
     230:	655f0068 	ldrbvs	r0, [pc, #-104]	; 1d0 <SYS_MODE+0x1b1>
     234:	00616f74 	rsbeq	r6, r1, r4, ror pc
     238:	74756f5f 	ldrbtvc	r6, [r5], #-3935	; 0xfffff0a1
     23c:	6168635f 	cmnvs	r8, pc, asr r3
     240:	616d0072 	smcvs	53250	; 0xd002
     244:	7a697378 	bvc	1a5d02c <SYS_MODE+0x1a5d00d>
     248:	72660065 	rsbvc	r0, r6, #101	; 0x65
     24c:	76006361 	strvc	r6, [r0], -r1, ror #6
     250:	65756c61 	ldrbvs	r6, [r5, #-3169]!	; 0xfffff39f
     254:	756f5f00 	strbvc	r5, [pc, #-3840]!	; fffff35c <_stack_end+0x3dff835c>
     258:	63665f74 	cmnvs	r6, #116, 30	; 0x1d0
     25c:	69750074 	ldmdbvs	r5!, {r2, r4, r5, r6}^
     260:	7470746e 	ldrbtvc	r7, [r0], #-1134	; 0xfffffb92
     264:	00745f72 	rsbseq	r5, r4, r2, ror pc
     268:	72617473 	rsbvc	r7, r1, #1929379840	; 0x73000000
     26c:	64695f74 	strbtvs	r5, [r9], #-3956	; 0xfffff08c
     270:	63660078 	cmnvs	r6, #120	; 0x78
     274:	69727074 	ldmdbvs	r2!, {r2, r4, r5, r6, ip, sp, lr}^
     278:	0066746e 	rsbeq	r7, r6, lr, ror #8
     27c:	6167656e 	cmnvs	r7, lr, ror #10
     280:	65766974 	ldrbvs	r6, [r6, #-2420]!	; 0xfffff68c
     284:	6f682f00 	svcvs	0x00682f00
     288:	632f656d 			; <UNDEFINED> instruction: 0x632f656d
     28c:	6d696c7a 	stclvs	12, cr6, [r9, #-488]!	; 0xfffffe18
     290:	6f632f78 	svcvs	0x00632f78
     294:	70736564 	rsbsvc	r6, r3, r4, ror #10
     298:	2f656361 	svccs	0x00656361
     29c:	706d6574 	rsbvc	r6, sp, r4, ror r5
     2a0:	7261622f 	rsbvc	r6, r1, #-268435454	; 0xf0000002
     2a4:	74656d65 	strbtvc	r6, [r5], #-3429	; 0xfffff29b
     2a8:	665f6c61 	ldrbvs	r6, [pc], -r1, ror #24
     2ac:	635f726f 	cmpvs	pc, #-268435450	; 0xf0000006
     2b0:	646f632f 	strbtvs	r6, [pc], #-815	; 2b8 <SYS_MODE+0x299>
     2b4:	696c2f65 	stmdbvs	ip!, {r0, r2, r5, r6, r8, r9, sl, fp, sp}^
     2b8:	732f6362 			; <UNDEFINED> instruction: 0x732f6362
     2bc:	6c2f6372 	stcvs	3, cr6, [pc], #-456	; fc <SYS_MODE+0xdd>
     2c0:	5f636269 	svcpl	0x00636269
     2c4:	6e697270 	mcrvs	2, 3, r7, cr9, cr0, {3}
     2c8:	632e6674 			; <UNDEFINED> instruction: 0x632e6674
     2cc:	765f5f00 	ldrbvc	r5, [pc], -r0, lsl #30
     2d0:	696c5f61 	stmdbvs	ip!, {r0, r5, r6, r8, r9, sl, fp, ip, lr}^
     2d4:	5f007473 	svcpl	0x00007473
     2d8:	616f746e 	cmnvs	pc, lr, ror #8
     2dc:	726f665f 	rsbvc	r6, pc, #99614720	; 0x5f00000
     2e0:	0074616d 	rsbseq	r6, r4, sp, ror #2
     2e4:	6f74665f 	svcvs	0x0074665f
     2e8:	765f0061 	ldrbvc	r0, [pc], -r1, rrx
     2ec:	72706e73 	rsbsvc	r6, r0, #1840	; 0x730
     2f0:	66746e69 	ldrbtvs	r6, [r4], -r9, ror #28
     2f4:	756f5f00 	strbvc	r5, [pc, #-3840]!	; fffff3fc <_stack_end+0x3dff83fc>
     2f8:	756e5f74 	strbvc	r5, [lr, #-3956]!	; 0xfffff08c
     2fc:	65006c6c 	strvs	r6, [r0, #-3180]	; 0xfffff394
     300:	61767078 	cmnvs	r6, r8, ror r0
     304:	756f006c 	strbvc	r0, [pc, #-108]!	; 2a0 <SYS_MODE+0x281>
     308:	63665f74 	cmnvs	r6, #116, 30	; 0x1d0
     30c:	79745f74 	ldmdbvc	r4!, {r2, r4, r5, r6, r8, r9, sl, fp, ip, lr}^
     310:	5f006570 	svcpl	0x00006570
     314:	616f746e 	cmnvs	pc, lr, ror #8
     318:	6e6f6c5f 	mcrvs	12, 3, r6, cr15, cr15, {2}
     31c:	6c660067 	stclvs	0, cr0, [r6], #-412	; 0xfffffe64
     320:	00736761 	rsbseq	r6, r3, r1, ror #14
     324:	706e7376 	rsbvc	r7, lr, r6, ror r3
     328:	746e6972 	strbtvc	r6, [lr], #-2418	; 0xfffff68e
     32c:	6d005f66 	stcvs	15, cr5, [r0, #-408]	; 0xfffffe68
     330:	656c7861 	strbvs	r7, [ip, #-2145]!	; 0xfffff79f
     334:	615f006e 	cmpvs	pc, lr, rrx
     338:	00696f74 	rsbeq	r6, r9, r4, ror pc
     33c:	7274735f 	rsbsvc	r7, r4, #2080374785	; 0x7c000001
     340:	6e656c6e 	cdpvs	12, 6, cr6, cr5, cr14, {3}
     344:	7700735f 	smlsdvc	r0, pc, r3, r7	; <UNPREDICTABLE>
     348:	656c6f68 	strbvs	r6, [ip, #-3944]!	; 0xfffff098
     34c:	615f5f00 	cmpvs	pc, r0, lsl #30
     350:	425f0070 	subsmi	r0, pc, #112	; 0x70
     354:	006c6f6f 	rsbeq	r6, ip, pc, ror #30
     358:	69727073 	ldmdbvs	r2!, {r0, r1, r4, r5, r6, ip, sp, lr}^
     35c:	5f66746e 	svcpl	0x0066746e
     360:	73695f00 	cmnvc	r9, #0, 30
     364:	6769645f 			; <UNDEFINED> instruction: 0x6769645f
     368:	63007469 	movwvs	r7, #1129	; 0x469
     36c:	00766e6f 	rsbseq	r6, r6, pc, ror #28
     370:	62756f64 	rsbsvs	r6, r5, #100, 30	; 0x190
     374:	6300656c 	movwvs	r6, #1388	; 0x56c
     378:	61726168 	cmnvs	r2, r8, ror #2
     37c:	72657463 	rsbvc	r7, r5, #1660944384	; 0x63000000
     380:	756f5f00 	strbvc	r5, [pc, #-3840]!	; fffff488 <_stack_end+0x3dff8488>
     384:	65725f74 	ldrbvs	r5, [r2, #-3956]!	; 0xfffff08c
     388:	5f5f0076 	svcpl	0x005f0076
     38c:	62616561 	rsbvs	r6, r1, #406847488	; 0x18400000
     390:	6c755f69 	ldclvs	15, cr5, [r5], #-420	; 0xfffffe5c
     394:	6d766964 			; <UNDEFINED> instruction: 0x6d766964
     398:	5f00646f 	svcpl	0x0000646f
     39c:	63747570 	cmnvs	r4, #112, 10	; 0x1c000000
     3a0:	00726168 	rsbseq	r6, r2, r8, ror #2
     3a4:	5f74756f 	svcpl	0x0074756f
     3a8:	5f746366 	svcpl	0x00746366
     3ac:	70617277 	rsbvc	r7, r1, r7, ror r2
     3b0:	7079745f 	rsbsvc	r7, r9, pc, asr r4
     3b4:	72700065 	rsbsvc	r0, r0, #101	; 0x65
     3b8:	66006365 	strvs	r6, [r0], -r5, ror #6
     3bc:	74646977 	strbtvc	r6, [r4], #-2423	; 0xfffff689
     3c0:	6e5f0068 	cdpvs	0, 5, cr0, cr15, cr8, {3}
     3c4:	5f616f74 	svcpl	0x00616f74
     3c8:	676e6f6c 	strbvs	r6, [lr, -ip, ror #30]!
     3cc:	6e6f6c5f 	mcrvs	12, 3, r6, cr15, cr15, {2}
     3d0:	73690067 	cmnvc	r9, #103	; 0x67
     3d4:	006c6c5f 	rsbeq	r6, ip, pc, asr ip
     3d8:	65615f5f 	strbvs	r5, [r1, #-3935]!	; 0xfffff0a1
     3dc:	5f696261 	svcpl	0x00696261
     3e0:	69646975 	stmdbvs	r4!, {r0, r2, r4, r5, r6, r8, fp, sp, lr}^
     3e4:	646f6d76 	strbtvs	r6, [pc], #-3446	; 3ec <SYS_MODE+0x3cd>
     3e8:	65727000 	ldrbvs	r7, [r2, #-0]!
     3ec:	69736963 	ldmdbvs	r3!, {r0, r1, r5, r6, r8, fp, sp, lr}^
     3f0:	5f006e6f 	svcpl	0x00006e6f
     3f4:	6165615f 	cmnvs	r5, pc, asr r1
     3f8:	755f6962 	ldrbvc	r6, [pc, #-2402]	; fffffa9e <_stack_end+0x3dff8a9e>
     3fc:	76696469 	strbtvc	r6, [r9], -r9, ror #8
     400:	72707600 	rsbsvc	r7, r0, #0, 12
     404:	66746e69 	ldrbtvs	r6, [r4], -r9, ror #28
     408:	682f005f 	stmdavs	pc!, {r0, r1, r2, r3, r4, r6}	; <UNPREDICTABLE>
     40c:	2f656d6f 	svccs	0x00656d6f
     410:	696c7a63 	stmdbvs	ip!, {r0, r1, r5, r6, r9, fp, ip, sp, lr}^
     414:	632f786d 			; <UNDEFINED> instruction: 0x632f786d
     418:	7365646f 	cmnvc	r5, #1862270976	; 0x6f000000
     41c:	65636170 	strbvs	r6, [r3, #-368]!	; 0xfffffe90
     420:	6d65742f 	cfstrdvs	mvd7, [r5, #-188]!	; 0xffffff44
     424:	61622f70 	smcvs	8944	; 0x22f0
     428:	656d6572 	strbvs	r6, [sp, #-1394]!	; 0xfffffa8e
     42c:	5f6c6174 	svcpl	0x006c6174
     430:	5f726f66 	svcpl	0x00726f66
     434:	6f632f63 	svcvs	0x00632f63
     438:	612f6564 			; <UNDEFINED> instruction: 0x612f6564
     43c:	2f686372 	svccs	0x00686372
     440:	766d7261 	strbtvc	r7, [sp], -r1, ror #4
     444:	2f612d37 	svccs	0x00612d37
     448:	2f637273 	svccs	0x00637273
     44c:	68637261 	stmdavs	r3!, {r0, r5, r6, r9, ip, sp, lr}^
     450:	6172625f 	cmnvs	r2, pc, asr r2
     454:	5f68636e 	svcpl	0x0068636e
     458:	64657270 	strbtvs	r7, [r5], #-624	; 0xfffffd90
     45c:	6f746369 	svcvs	0x00746369
     460:	00732e72 	rsbseq	r2, r3, r2, ror lr
     464:	20554e47 	subscs	r4, r5, r7, asr #28
     468:	32205341 	eorcc	r5, r0, #67108865	; 0x4000001
     46c:	2e36332e 	cdpcs	3, 3, cr3, cr6, cr14, {1}
     470:	682f0031 	stmdavs	pc!, {r0, r4, r5}	; <UNPREDICTABLE>
     474:	2f656d6f 	svccs	0x00656d6f
     478:	696c7a63 	stmdbvs	ip!, {r0, r1, r5, r6, r9, fp, ip, sp, lr}^
     47c:	632f786d 			; <UNDEFINED> instruction: 0x632f786d
     480:	7365646f 	cmnvc	r5, #1862270976	; 0x6f000000
     484:	65636170 	strbvs	r6, [r3, #-368]!	; 0xfffffe90
     488:	6d65742f 	cfstrdvs	mvd7, [r5, #-188]!	; 0xffffff44
     48c:	61622f70 	smcvs	8944	; 0x22f0
     490:	656d6572 	strbvs	r6, [sp, #-1394]!	; 0xfffffa8e
     494:	5f6c6174 	svcpl	0x006c6174
     498:	5f726f66 	svcpl	0x00726f66
     49c:	6f632f63 	svcvs	0x00632f63
     4a0:	612f6564 			; <UNDEFINED> instruction: 0x612f6564
     4a4:	2f686372 	svccs	0x00686372
     4a8:	766d7261 	strbtvc	r7, [sp], -r1, ror #4
     4ac:	2f612d37 	svccs	0x00612d37
     4b0:	2f637273 	svccs	0x00637273
     4b4:	68637261 	stmdavs	r3!, {r0, r5, r6, r9, ip, sp, lr}^
     4b8:	6361635f 	cmnvs	r1, #2080374785	; 0x7c000001
     4bc:	732e6568 			; <UNDEFINED> instruction: 0x732e6568
     4c0:	63697400 	cmnvs	r9, #0, 8
     4c4:	006f546b 	rsbeq	r5, pc, fp, ror #8
     4c8:	68637261 	stmdavs	r3!, {r0, r5, r6, r9, ip, sp, lr}^
     4cc:	696c615f 	stmdbvs	ip!, {r0, r1, r2, r3, r4, r6, r8, sp, lr}^
     4d0:	656d6e67 	strbvs	r6, [sp, #-3687]!	; 0xfffff199
     4d4:	635f746e 	cmpvs	pc, #1845493760	; 0x6e000000
     4d8:	6b636568 	blvs	18d9a80 <SYS_MODE+0x18d9a61>
     4dc:	616e655f 	cmnvs	lr, pc, asr r5
     4e0:	00656c62 	rsbeq	r6, r5, r2, ror #24
     4e4:	72617473 	rsbvc	r7, r1, #1929379840	; 0x73000000
     4e8:	63695474 	cmnvs	r9, #116, 8	; 0x74000000
     4ec:	7261006b 	rsbvc	r0, r1, #107	; 0x6b
     4f0:	635f6863 	cmpvs	pc, #6488064	; 0x630000
     4f4:	675f7570 			; <UNDEFINED> instruction: 0x675f7570
     4f8:	6d5f7465 	cfldrdvs	mvd7, [pc, #-404]	; 36c <SYS_MODE+0x34d>
     4fc:	72646970 	rsbvc	r6, r4, #112, 18	; 0x1c0000
     500:	6f682f00 	svcvs	0x00682f00
     504:	632f656d 			; <UNDEFINED> instruction: 0x632f656d
     508:	6d696c7a 	stclvs	12, cr6, [r9, #-488]!	; 0xfffffe18
     50c:	6f632f78 	svcvs	0x00632f78
     510:	70736564 	rsbsvc	r6, r3, r4, ror #10
     514:	2f656361 	svccs	0x00656361
     518:	706d6574 	rsbvc	r6, sp, r4, ror r5
     51c:	7261622f 	rsbvc	r6, r1, #-268435454	; 0xf0000002
     520:	74656d65 	strbtvc	r6, [r5], #-3429	; 0xfffff29b
     524:	665f6c61 	ldrbvs	r6, [pc], -r1, ror #24
     528:	635f726f 	cmpvs	pc, #-268435450	; 0xf0000006
     52c:	646f632f 	strbtvs	r6, [pc], #-815	; 534 <SYS_MODE+0x515>
     530:	72612f65 	rsbvc	r2, r1, #404	; 0x194
     534:	612f6863 			; <UNDEFINED> instruction: 0x612f6863
     538:	37766d72 			; <UNDEFINED> instruction: 0x37766d72
     53c:	732f612d 			; <UNDEFINED> instruction: 0x732f612d
     540:	612f6372 			; <UNDEFINED> instruction: 0x612f6372
     544:	5f686372 	svcpl	0x00686372
     548:	2e757063 	cdpcs	0, 7, cr7, cr5, cr3, {3}
     54c:	69740063 	ldmdbvs	r4!, {r0, r1, r5, r6}^
     550:	61006b63 	tstvs	r0, r3, ror #22
     554:	5f686372 	svcpl	0x00686372
     558:	6b636974 	blvs	18dab30 <SYS_MODE+0x18dab11>
     55c:	6c65645f 	cfstrdvs	mvd6, [r5], #-380	; 0xfffffe84
     560:	75007961 	strvc	r7, [r0, #-2401]	; 0xfffff69f
     564:	33746e69 	cmncc	r4, #1680	; 0x690
     568:	00745f32 	rsbseq	r5, r4, r2, lsr pc
     56c:	72727563 	rsbsvc	r7, r2, #415236096	; 0x18c00000
     570:	54746e65 	ldrbtpl	r6, [r4], #-3685	; 0xfffff19b
     574:	006b6369 	rsbeq	r6, fp, r9, ror #6
     578:	68637261 	stmdavs	r3!, {r0, r5, r6, r9, ip, sp, lr}^
     57c:	756d705f 	strbvc	r7, [sp, #-95]!	; 0xffffffa1
     580:	6379635f 	cmnvs	r9, #2080374785	; 0x7c000001
     584:	635f656c 	cmpvs	pc, #108, 10	; 0x1b000000
     588:	746e756f 	strbtvc	r7, [lr], #-1391	; 0xfffffa91
     58c:	675f7265 	ldrbvs	r7, [pc, -r5, ror #4]
     590:	635f7465 	cmpvs	pc, #1694498816	; 0x65000000
     594:	746e756f 	strbtvc	r7, [lr], #-1391	; 0xfffffa91
     598:	2f007265 	svccs	0x00007265
     59c:	656d6f68 	strbvs	r6, [sp, #-3944]!	; 0xfffff098
     5a0:	6c7a632f 	ldclvs	3, cr6, [sl], #-188	; 0xffffff44
     5a4:	2f786d69 	svccs	0x00786d69
     5a8:	65646f63 	strbvs	r6, [r4, #-3939]!	; 0xfffff09d
     5ac:	63617073 	cmnvs	r1, #115	; 0x73
     5b0:	65742f65 	ldrbvs	r2, [r4, #-3941]!	; 0xfffff09b
     5b4:	622f706d 	eorvs	r7, pc, #109	; 0x6d
     5b8:	6d657261 	sfmvs	f7, 2, [r5, #-388]!	; 0xfffffe7c
     5bc:	6c617465 	cfstrdvs	mvd7, [r1], #-404	; 0xfffffe6c
     5c0:	726f665f 	rsbvc	r6, pc, #99614720	; 0x5f00000
     5c4:	632f635f 			; <UNDEFINED> instruction: 0x632f635f
     5c8:	2f65646f 	svccs	0x0065646f
     5cc:	68637261 	stmdavs	r3!, {r0, r5, r6, r9, ip, sp, lr}^
     5d0:	6d72612f 	ldfvse	f6, [r2, #-188]!	; 0xffffff44
     5d4:	612d3776 			; <UNDEFINED> instruction: 0x612d3776
     5d8:	6372732f 	cmnvs	r2, #-1140850688	; 0xbc000000
     5dc:	6372612f 	cmnvs	r2, #-1073741813	; 0xc000000b
     5e0:	78655f68 	stmdavc	r5!, {r3, r5, r6, r8, r9, sl, fp, ip, lr}^
     5e4:	74706563 	ldrbtvc	r6, [r0], #-1379	; 0xfffffa9d
     5e8:	2e6e6f69 	cdpcs	15, 6, cr6, cr14, cr9, {3}
     5ec:	682f0073 	stmdavs	pc!, {r0, r1, r4, r5, r6}	; <UNPREDICTABLE>
     5f0:	2f656d6f 	svccs	0x00656d6f
     5f4:	696c7a63 	stmdbvs	ip!, {r0, r1, r5, r6, r9, fp, ip, sp, lr}^
     5f8:	632f786d 			; <UNDEFINED> instruction: 0x632f786d
     5fc:	7365646f 	cmnvc	r5, #1862270976	; 0x6f000000
     600:	65636170 	strbvs	r6, [r3, #-368]!	; 0xfffffe90
     604:	6d65742f 	cfstrdvs	mvd7, [r5, #-188]!	; 0xffffff44
     608:	61622f70 	smcvs	8944	; 0x22f0
     60c:	656d6572 	strbvs	r6, [sp, #-1394]!	; 0xfffffa8e
     610:	5f6c6174 	svcpl	0x006c6174
     614:	5f726f66 	svcpl	0x00726f66
     618:	6f632f63 	svcvs	0x00632f63
     61c:	612f6564 			; <UNDEFINED> instruction: 0x612f6564
     620:	2f686372 	svccs	0x00686372
     624:	766d7261 	strbtvc	r7, [sp], -r1, ror #4
     628:	2f612d37 	svccs	0x00612d37
     62c:	2f637273 	svccs	0x00637273
     630:	68637261 	stmdavs	r3!, {r0, r5, r6, r9, ip, sp, lr}^
     634:	7570665f 	ldrbvc	r6, [r0, #-1631]!	; 0xfffff9a1
     638:	6100732e 	tstvs	r0, lr, lsr #6
     63c:	5f686372 	svcpl	0x00686372
     640:	5f756d6d 	svcpl	0x00756d6d
     644:	62616e65 	rsbvs	r6, r1, #1616	; 0x650
     648:	5f00656c 	svcpl	0x0000656c
     64c:	5f737362 	svcpl	0x00737362
     650:	72617473 	rsbvc	r7, r1, #1929379840	; 0x73000000
     654:	5f005f74 	svcpl	0x00005f74
     658:	6c726165 	ldfvse	f6, [r2], #-404	; 0xfffffe6c
     65c:	72615f79 	rsbvc	r5, r1, #484	; 0x1e4
     660:	695f6863 	ldmdbvs	pc, {r0, r1, r5, r6, fp, sp, lr}^	; <UNPREDICTABLE>
     664:	0074696e 	rsbseq	r6, r4, lr, ror #18
     668:	68637261 	stmdavs	r3!, {r0, r5, r6, r9, ip, sp, lr}^
     66c:	756d705f 	strbvc	r7, [sp, #-95]!	; 0xffffffa1
     670:	6379635f 	cmnvs	r9, #2080374785	; 0x7c000001
     674:	635f656c 	cmpvs	pc, #108, 10	; 0x1b000000
     678:	746e756f 	strbtvc	r7, [lr], #-1391	; 0xfffffa91
     67c:	655f7265 	ldrbvs	r7, [pc, #-613]	; 41f <SYS_MODE+0x400>
     680:	6c62616e 	stfvse	f6, [r2], #-440	; 0xfffffe48
     684:	72610065 	rsbvc	r0, r1, #101	; 0x65
     688:	645f6863 	ldrbvs	r6, [pc], #-2147	; 690 <SYS_MODE+0x671>
     68c:	68636163 	stmdavs	r3!, {r0, r1, r5, r6, r8, sp, lr}^
     690:	6e695f65 	cdpvs	15, 6, cr5, cr9, cr5, {3}
     694:	696c6176 	stmdbvs	ip!, {r1, r2, r4, r5, r6, r8, sp, lr}^
     698:	65746164 	ldrbvs	r6, [r4, #-356]!	; 0xfffffe9c
     69c:	6c6c615f 	stfvse	f6, [ip], #-380	; 0xfffffe84
     6a0:	63726100 	cmnvs	r2, #0, 2
     6a4:	72695f68 	rsbvc	r5, r9, #104, 30	; 0x1a0
     6a8:	6e695f71 	mcrvs	15, 3, r5, cr9, cr1, {3}
     6ac:	61007469 	tstvs	r0, r9, ror #8
     6b0:	5f686372 	svcpl	0x00686372
     6b4:	63616369 	cmnvs	r1, #-1543503871	; 0xa4000001
     6b8:	695f6568 	ldmdbvs	pc, {r3, r5, r6, r8, sl, sp, lr}^	; <UNPREDICTABLE>
     6bc:	6c61766e 	stclvs	6, cr7, [r1], #-440	; 0xfffffe48
     6c0:	74616469 	strbtvc	r6, [r1], #-1129	; 0xfffffb97
     6c4:	6c615f65 	stclvs	15, cr5, [r1], #-404	; 0xfffffe6c
     6c8:	7261006c 	rsbvc	r0, r1, #108	; 0x6c
     6cc:	705f6863 	subsvc	r6, pc, r3, ror #16
     6d0:	635f756d 	cmpvs	pc, #457179136	; 0x1b400000
     6d4:	656c6379 	strbvs	r6, [ip, #-889]!	; 0xfffffc87
     6d8:	756f635f 	strbvc	r6, [pc, #-863]!	; 381 <SYS_MODE+0x362>
     6dc:	7265746e 	rsbvc	r7, r5, #1845493760	; 0x6e000000
     6e0:	696e695f 	stmdbvs	lr!, {r0, r1, r2, r3, r4, r6, r8, fp, sp, lr}^
     6e4:	616d0074 	smcvs	53252	; 0xd004
     6e8:	61006e69 	tstvs	r0, r9, ror #28
     6ec:	5f686372 	svcpl	0x00686372
     6f0:	5f626c74 	svcpl	0x00626c74
     6f4:	61766e69 	cmnvs	r6, r9, ror #28
     6f8:	6164696c 	cmnvs	r4, ip, ror #18
     6fc:	615f6574 	cmpvs	pc, r4, ror r5	; <UNPREDICTABLE>
     700:	2f006c6c 	svccs	0x00006c6c
     704:	656d6f68 	strbvs	r6, [sp, #-3944]!	; 0xfffff098
     708:	6c7a632f 	ldclvs	3, cr6, [sl], #-188	; 0xffffff44
     70c:	2f786d69 	svccs	0x00786d69
     710:	65646f63 	strbvs	r6, [r4, #-3939]!	; 0xfffff09d
     714:	63617073 	cmnvs	r1, #115	; 0x73
     718:	65742f65 	ldrbvs	r2, [r4, #-3941]!	; 0xfffff09b
     71c:	622f706d 	eorvs	r7, pc, #109	; 0x6d
     720:	6d657261 	sfmvs	f7, 2, [r5, #-388]!	; 0xfffffe7c
     724:	6c617465 	cfstrdvs	mvd7, [r1], #-404	; 0xfffffe6c
     728:	726f665f 	rsbvc	r6, pc, #99614720	; 0x5f00000
     72c:	632f635f 			; <UNDEFINED> instruction: 0x632f635f
     730:	2f65646f 	svccs	0x0065646f
     734:	68637261 	stmdavs	r3!, {r0, r5, r6, r9, ip, sp, lr}^
     738:	6d72612f 	ldfvse	f6, [r2, #-188]!	; 0xffffff44
     73c:	612d3776 			; <UNDEFINED> instruction: 0x612d3776
     740:	6372732f 	cmnvs	r2, #-1140850688	; 0xbc000000
     744:	6372612f 	cmnvs	r2, #-1073741813	; 0xc000000b
     748:	6e695f68 	cdpvs	15, 6, cr5, cr9, cr8, {3}
     74c:	632e7469 			; <UNDEFINED> instruction: 0x632e7469
     750:	63726100 	cmnvs	r2, #0, 2
     754:	63645f68 	cmnvs	r4, #104, 30	; 0x1a0
     758:	65686361 	strbvs	r6, [r8, #-865]!	; 0xfffffc9f
     75c:	616e655f 	cmnvs	lr, pc, asr r5
     760:	00656c62 	rsbeq	r6, r5, r2, ror #24
     764:	72616f62 	rsbvc	r6, r1, #392	; 0x188
     768:	6e695f64 	cdpvs	15, 6, cr5, cr9, cr4, {3}
     76c:	61007469 	tstvs	r0, r9, ror #8
     770:	5f686372 	svcpl	0x00686372
     774:	6e617262 	cdpvs	2, 6, cr7, cr1, cr2, {3}
     778:	705f6863 	subsvc	r6, pc, r3, ror #16
     77c:	69646572 	stmdbvs	r4!, {r1, r4, r5, r6, r8, sl, sp, lr}^
     780:	726f7463 	rsbvc	r7, pc, #1660944384	; 0x63000000
     784:	616e655f 	cmnvs	lr, pc, asr r5
     788:	00656c62 	rsbeq	r6, r5, r2, ror #24
     78c:	68637261 	stmdavs	r3!, {r0, r5, r6, r9, ip, sp, lr}^
     790:	6163695f 	cmnvs	r3, pc, asr r9
     794:	5f656863 	svcpl	0x00656863
     798:	62616e65 	rsbvs	r6, r1, #1616	; 0x650
     79c:	6100656c 	tstvs	r0, ip, ror #10
     7a0:	5f686372 	svcpl	0x00686372
     7a4:	5f757066 	svcpl	0x00757066
     7a8:	62616e65 	rsbvs	r6, r1, #1616	; 0x650
     7ac:	6200656c 	andvs	r6, r0, #108, 10	; 0x1b000000
     7b0:	6472616f 	ldrbtvs	r6, [r2], #-367	; 0xfffffe91
     7b4:	7261655f 	rsbvc	r6, r1, #398458880	; 0x17c00000
     7b8:	695f796c 	ldmdbvs	pc, {r2, r3, r5, r6, r8, fp, ip, sp, lr}^	; <UNPREDICTABLE>
     7bc:	0074696e 	rsbseq	r6, r4, lr, ror #18
     7c0:	68637261 	stmdavs	r3!, {r0, r5, r6, r9, ip, sp, lr}^
     7c4:	756d705f 	strbvc	r7, [sp, #-95]!	; 0xffffffa1
     7c8:	6573755f 	ldrbvs	r7, [r3, #-1375]!	; 0xfffffaa1
     7cc:	63615f72 	cmnvs	r1, #456	; 0x1c8
     7d0:	73736563 	cmnvc	r3, #415236096	; 0x18c00000
     7d4:	616e655f 	cmnvs	lr, pc, asr r5
     7d8:	00656c62 	rsbeq	r6, r5, r2, ror #24
     7dc:	68637261 	stmdavs	r3!, {r0, r5, r6, r9, ip, sp, lr}^
     7e0:	6172625f 	cmnvs	r2, pc, asr r2
     7e4:	5f68636e 	svcpl	0x0068636e
     7e8:	64657270 	strbtvs	r7, [r5], #-624	; 0xfffffd90
     7ec:	6f746369 	svcvs	0x00746369
     7f0:	6e695f72 	mcrvs	15, 3, r5, cr9, cr2, {3}
     7f4:	696c6176 	stmdbvs	ip!, {r1, r2, r4, r5, r6, r8, sp, lr}^
     7f8:	65746164 	ldrbvs	r6, [r4, #-356]!	; 0xfffffe9c
     7fc:	6c6c615f 	stfvse	f6, [ip], #-380	; 0xfffffe84
     800:	73625f00 	cmnvc	r2, #0, 30
     804:	6e655f73 	mcrvs	15, 3, r5, cr5, cr3, {3}
     808:	73005f64 	movwvc	r5, #3940	; 0xf64
     80c:	5f767264 	svcpl	0x00767264
     810:	5f717269 	svcpl	0x00717269
     814:	74696e69 	strbtvc	r6, [r9], #-3689	; 0xfffff197
     818:	72647300 	rsbvc	r7, r4, #0, 6
     81c:	72695f76 	rsbvc	r5, r9, #472	; 0x1d8
     820:	69645f71 	stmdbvs	r4!, {r0, r4, r5, r6, r8, r9, sl, fp, ip, lr}^
     824:	6c626173 	stfvse	f6, [r2], #-460	; 0xfffffe34
     828:	64730065 	ldrbtvs	r0, [r3], #-101	; 0xffffff9b
     82c:	695f7672 	ldmdbvs	pc, {r1, r4, r5, r6, r9, sl, ip, sp, lr}^	; <UNPREDICTABLE>
     830:	635f7172 	cmpvs	pc, #-2147483620	; 0x8000001c
     834:	7261656c 	rsbvc	r6, r1, #108, 10	; 0x1b000000
     838:	6174735f 	cmnvs	r4, pc, asr r3
     83c:	00737574 	rsbseq	r7, r3, r4, ror r5
     840:	68637261 	stmdavs	r3!, {r0, r5, r6, r9, ip, sp, lr}^
     844:	6665645f 			; <UNDEFINED> instruction: 0x6665645f
     848:	746c7561 	strbtvc	r7, [ip], #-1377	; 0xfffffa9f
     84c:	7172695f 	cmnvc	r2, pc, asr r9
     850:	6e61685f 	mcrvs	8, 3, r6, cr1, cr15, {2}
     854:	72656c64 	rsbvc	r6, r5, #100, 24	; 0x6400
     858:	72647300 	rsbvc	r7, r4, #0, 6
     85c:	72695f76 	rsbvc	r5, r9, #472	; 0x1d8
     860:	6e655f71 	mcrvs	15, 3, r5, cr5, cr1, {3}
     864:	656c6261 	strbvs	r6, [ip, #-609]!	; 0xfffffd9f
     868:	72647300 	rsbvc	r7, r4, #0, 6
     86c:	72695f76 	rsbvc	r5, r9, #472	; 0x1d8
     870:	65735f71 	ldrbvs	r5, [r3, #-3953]!	; 0xfffff08f
     874:	72705f74 	rsbsvc	r5, r0, #116, 30	; 0x1d0
     878:	69726f69 	ldmdbvs	r2!, {r0, r3, r5, r6, r8, r9, sl, fp, sp, lr}^
     87c:	61007974 	tstvs	r0, r4, ror r9
     880:	5f686372 	svcpl	0x00686372
     884:	5f717269 	svcpl	0x00717269
     888:	646e6168 	strbtvs	r6, [lr], #-360	; 0xfffffe98
     88c:	0072656c 	rsbseq	r6, r2, ip, ror #10
     890:	6d6f682f 	stclvs	8, cr6, [pc, #-188]!	; 7dc <SYS_MODE+0x7bd>
     894:	7a632f65 	bvc	18cc630 <SYS_MODE+0x18cc611>
     898:	786d696c 	stmdavc	sp!, {r2, r3, r5, r6, r8, fp, sp, lr}^
     89c:	646f632f 	strbtvs	r6, [pc], #-815	; 8a4 <SYS_MODE+0x885>
     8a0:	61707365 	cmnvs	r0, r5, ror #6
     8a4:	742f6563 	strtvc	r6, [pc], #-1379	; 8ac <SYS_MODE+0x88d>
     8a8:	2f706d65 	svccs	0x00706d65
     8ac:	65726162 	ldrbvs	r6, [r2, #-354]!	; 0xfffffe9e
     8b0:	6174656d 	cmnvs	r4, sp, ror #10
     8b4:	6f665f6c 	svcvs	0x00665f6c
     8b8:	2f635f72 	svccs	0x00635f72
     8bc:	65646f63 	strbvs	r6, [r4, #-3939]!	; 0xfffff09d
     8c0:	6372612f 	cmnvs	r2, #-1073741813	; 0xc000000b
     8c4:	72612f68 	rsbvc	r2, r1, #104, 30	; 0x1a0
     8c8:	2d37766d 	ldccs	6, cr7, [r7, #-436]!	; 0xfffffe4c
     8cc:	72732f61 	rsbsvc	r2, r3, #388	; 0x184
     8d0:	72612f63 	rsbvc	r2, r1, #396	; 0x18c
     8d4:	695f6863 	ldmdbvs	pc, {r0, r1, r5, r6, fp, sp, lr}^	; <UNPREDICTABLE>
     8d8:	632e7172 			; <UNDEFINED> instruction: 0x632e7172
     8dc:	63726100 	cmnvs	r2, #0, 2
     8e0:	72695f68 	rsbvc	r5, r9, #104, 30	; 0x1a0
     8e4:	61685f71 	smcvs	34289	; 0x85f1
     8e8:	656c646e 	strbvs	r6, [ip, #-1134]!	; 0xfffffb92
     8ec:	79745f72 	ldmdbvc	r4!, {r1, r4, r5, r6, r8, r9, sl, fp, ip, lr}^
     8f0:	61006570 	tstvs	r0, r0, ror r5
     8f4:	5f686372 	svcpl	0x00686372
     8f8:	5f717269 	svcpl	0x00717269
     8fc:	65726e75 	ldrbvs	r6, [r2, #-3701]!	; 0xfffff18b
     900:	74736967 	ldrbtvc	r6, [r3], #-2407	; 0xfffff699
     904:	70007265 	andvc	r7, r0, r5, ror #4
     908:	00617261 	rsbeq	r7, r1, r1, ror #4
     90c:	68637261 	stmdavs	r3!, {r0, r5, r6, r9, ip, sp, lr}^
     910:	7172695f 	cmnvc	r2, pc, asr r9
     914:	6e61685f 	mcrvs	8, 3, r6, cr1, cr15, {2}
     918:	72656c64 	rsbvc	r6, r5, #100, 24	; 0x6400
     91c:	7272615f 	rsbsvc	r6, r2, #-1073741801	; 0xc0000017
     920:	61007961 	tstvs	r0, r1, ror #18
     924:	5f686372 	svcpl	0x00686372
     928:	5f717269 	svcpl	0x00717269
     92c:	69676572 	stmdbvs	r7!, {r1, r4, r5, r6, r8, sl, sp, lr}^
     930:	72657473 	rsbvc	r7, r5, #1929379840	; 0x73000000
     934:	6f682f00 	svcvs	0x00682f00
     938:	632f656d 			; <UNDEFINED> instruction: 0x632f656d
     93c:	6d696c7a 	stclvs	12, cr6, [r9, #-488]!	; 0xfffffe18
     940:	6f632f78 	svcvs	0x00632f78
     944:	70736564 	rsbsvc	r6, r3, r4, ror #10
     948:	2f656361 	svccs	0x00656361
     94c:	706d6574 	rsbvc	r6, sp, r4, ror r5
     950:	7261622f 	rsbvc	r6, r1, #-268435454	; 0xf0000002
     954:	74656d65 	strbtvc	r6, [r5], #-3429	; 0xfffff29b
     958:	665f6c61 	ldrbvs	r6, [pc], -r1, ror #24
     95c:	635f726f 	cmpvs	pc, #-268435450	; 0xf0000006
     960:	646f632f 	strbtvs	r6, [pc], #-815	; 968 <SYS_MODE+0x949>
     964:	72612f65 	rsbvc	r2, r1, #404	; 0x194
     968:	612f6863 			; <UNDEFINED> instruction: 0x612f6863
     96c:	37766d72 			; <UNDEFINED> instruction: 0x37766d72
     970:	732f612d 			; <UNDEFINED> instruction: 0x732f612d
     974:	612f6372 			; <UNDEFINED> instruction: 0x612f6372
     978:	5f686372 	svcpl	0x00686372
     97c:	2e756d6d 	cdpcs	13, 7, cr6, cr5, cr13, {3}
     980:	682f0073 	stmdavs	pc!, {r0, r1, r4, r5, r6}	; <UNPREDICTABLE>
     984:	2f656d6f 	svccs	0x00656d6f
     988:	696c7a63 	stmdbvs	ip!, {r0, r1, r5, r6, r9, fp, ip, sp, lr}^
     98c:	632f786d 			; <UNDEFINED> instruction: 0x632f786d
     990:	7365646f 	cmnvc	r5, #1862270976	; 0x6f000000
     994:	65636170 	strbvs	r6, [r3, #-368]!	; 0xfffffe90
     998:	6d65742f 	cfstrdvs	mvd7, [r5, #-188]!	; 0xffffff44
     99c:	61622f70 	smcvs	8944	; 0x22f0
     9a0:	656d6572 	strbvs	r6, [sp, #-1394]!	; 0xfffffa8e
     9a4:	5f6c6174 	svcpl	0x006c6174
     9a8:	5f726f66 	svcpl	0x00726f66
     9ac:	6f632f63 	svcvs	0x00632f63
     9b0:	612f6564 			; <UNDEFINED> instruction: 0x612f6564
     9b4:	2f686372 	svccs	0x00686372
     9b8:	766d7261 	strbtvc	r7, [sp], -r1, ror #4
     9bc:	2f612d37 	svccs	0x00612d37
     9c0:	2f637273 	svccs	0x00637273
     9c4:	68637261 	stmdavs	r3!, {r0, r5, r6, r9, ip, sp, lr}^
     9c8:	626c745f 	rsbvs	r7, ip, #1593835520	; 0x5f000000
     9cc:	2f00732e 	svccs	0x0000732e
     9d0:	656d6f68 	strbvs	r6, [sp, #-3944]!	; 0xfffff098
     9d4:	6c7a632f 	ldclvs	3, cr6, [sl], #-188	; 0xffffff44
     9d8:	2f786d69 	svccs	0x00786d69
     9dc:	65646f63 	strbvs	r6, [r4, #-3939]!	; 0xfffff09d
     9e0:	63617073 	cmnvs	r1, #115	; 0x73
     9e4:	65742f65 	ldrbvs	r2, [r4, #-3941]!	; 0xfffff09b
     9e8:	622f706d 	eorvs	r7, pc, #109	; 0x6d
     9ec:	6d657261 	sfmvs	f7, 2, [r5, #-388]!	; 0xfffffe7c
     9f0:	6c617465 	cfstrdvs	mvd7, [r1], #-404	; 0xfffffe6c
     9f4:	726f665f 	rsbvc	r6, pc, #99614720	; 0x5f00000
     9f8:	632f635f 			; <UNDEFINED> instruction: 0x632f635f
     9fc:	2f65646f 	svccs	0x0065646f
     a00:	68637261 	stmdavs	r3!, {r0, r5, r6, r9, ip, sp, lr}^
     a04:	6d72612f 	ldfvse	f6, [r2, #-188]!	; 0xffffff44
     a08:	612d3776 			; <UNDEFINED> instruction: 0x612d3776
     a0c:	6372732f 	cmnvs	r2, #-1140850688	; 0xbc000000
     a10:	6372612f 	cmnvs	r2, #-1073741813	; 0xc000000b
     a14:	6d705f68 	ldclvs	15, cr5, [r0, #-416]!	; 0xfffffe60
     a18:	00732e75 	rsbseq	r2, r3, r5, ror lr
     a1c:	6d6f682f 	stclvs	8, cr6, [pc, #-188]!	; 968 <SYS_MODE+0x949>
     a20:	7a632f65 	bvc	18cc7bc <SYS_MODE+0x18cc79d>
     a24:	786d696c 	stmdavc	sp!, {r2, r3, r5, r6, r8, fp, sp, lr}^
     a28:	646f632f 	strbtvs	r6, [pc], #-815	; a30 <SYS_MODE+0xa11>
     a2c:	61707365 	cmnvs	r0, r5, ror #6
     a30:	742f6563 	strtvc	r6, [pc], #-1379	; a38 <SYS_MODE+0xa19>
     a34:	2f706d65 	svccs	0x00706d65
     a38:	65726162 	ldrbvs	r6, [r2, #-354]!	; 0xfffffe9e
     a3c:	6174656d 	cmnvs	r4, sp, ror #10
     a40:	6f665f6c 	svcvs	0x00665f6c
     a44:	2f635f72 	svccs	0x00635f72
     a48:	65646f63 	strbvs	r6, [r4, #-3939]!	; 0xfffff09d
     a4c:	6372612f 	cmnvs	r2, #-1073741813	; 0xc000000b
     a50:	72612f68 	rsbvc	r2, r1, #104, 30	; 0x1a0
     a54:	2d37766d 	ldccs	6, cr7, [r7, #-436]!	; 0xfffffe4c
     a58:	72732f61 	rsbsvc	r2, r3, #388	; 0x184
     a5c:	72612f63 	rsbvc	r2, r1, #396	; 0x18c
     a60:	735f6863 	cmpvc	pc, #6488064	; 0x630000
     a64:	74726174 	ldrbtvc	r6, [r2], #-372	; 0xfffffe8c
     a68:	732e7075 			; <UNDEFINED> instruction: 0x732e7075
     a6c:	6f682f00 	svcvs	0x00682f00
     a70:	632f656d 			; <UNDEFINED> instruction: 0x632f656d
     a74:	6d696c7a 	stclvs	12, cr6, [r9, #-488]!	; 0xfffffe18
     a78:	6f632f78 	svcvs	0x00632f78
     a7c:	70736564 	rsbsvc	r6, r3, r4, ror #10
     a80:	2f656361 	svccs	0x00656361
     a84:	706d6574 	rsbvc	r6, sp, r4, ror r5
     a88:	7261622f 	rsbvc	r6, r1, #-268435454	; 0xf0000002
     a8c:	74656d65 	strbtvc	r6, [r5], #-3429	; 0xfffff29b
     a90:	665f6c61 	ldrbvs	r6, [pc], -r1, ror #24
     a94:	635f726f 	cmpvs	pc, #-268435450	; 0xf0000006
     a98:	646f632f 	strbtvs	r6, [pc], #-815	; aa0 <SYS_MODE+0xa81>
     a9c:	72612f65 	rsbvc	r2, r1, #404	; 0x194
     aa0:	612f6863 			; <UNDEFINED> instruction: 0x612f6863
     aa4:	37766d72 			; <UNDEFINED> instruction: 0x37766d72
     aa8:	732f612d 			; <UNDEFINED> instruction: 0x732f612d
     aac:	612f6372 			; <UNDEFINED> instruction: 0x612f6372
     ab0:	5f686372 	svcpl	0x00686372
     ab4:	74636576 	strbtvc	r6, [r3], #-1398	; 0xfffffa8a
     ab8:	2e73726f 	cdpcs	2, 7, cr7, cr3, cr15, {3}
     abc:	72670073 	rsbvc	r0, r7, #115	; 0x73
     ac0:	0070756f 	rsbseq	r7, r0, pc, ror #10
     ac4:	63737973 	cmnvs	r3, #1884160	; 0x1cc000
     ac8:	69666e6f 	stmdbvs	r6!, {r0, r1, r2, r3, r5, r6, r9, sl, fp, sp, lr}^
     acc:	682f0067 	stmdavs	pc!, {r0, r1, r2, r5, r6}	; <UNPREDICTABLE>
     ad0:	2f656d6f 	svccs	0x00656d6f
     ad4:	696c7a63 	stmdbvs	ip!, {r0, r1, r5, r6, r9, fp, ip, sp, lr}^
     ad8:	632f786d 			; <UNDEFINED> instruction: 0x632f786d
     adc:	7365646f 	cmnvc	r5, #1862270976	; 0x6f000000
     ae0:	65636170 	strbvs	r6, [r3, #-368]!	; 0xfffffe90
     ae4:	6d65742f 	cfstrdvs	mvd7, [r5, #-188]!	; 0xffffff44
     ae8:	61622f70 	smcvs	8944	; 0x22f0
     aec:	656d6572 	strbvs	r6, [sp, #-1394]!	; 0xfffffa8e
     af0:	5f6c6174 	svcpl	0x006c6174
     af4:	5f726f66 	svcpl	0x00726f66
     af8:	6f632f63 	svcvs	0x00632f63
     afc:	642f6564 	strtvs	r6, [pc], #-1380	; b04 <SYS_MODE+0xae5>
     b00:	65766972 	ldrbvs	r6, [r6, #-2418]!	; 0xfffff68e
     b04:	6d612f72 	stclvs	15, cr2, [r1, #-456]!	; 0xfffffe38
     b08:	78353333 	ldmdavc	r5!, {r0, r1, r4, r5, r8, r9, ip, sp}
     b0c:	6372732f 	cmnvs	r2, #-1140850688	; 0xbc000000
     b10:	7264732f 	rsbvc	r7, r4, #-1140850688	; 0xbc000000
     b14:	6e695f76 	mcrvs	15, 3, r5, cr9, cr6, {3}
     b18:	635f6374 	cmpvs	pc, #116, 6	; 0xd0000001
     b1c:	7300632e 	movwvc	r6, #814	; 0x32e
     b20:	5f767264 	svcpl	0x00767264
     b24:	5f717269 	svcpl	0x00717269
     b28:	67697274 			; <UNDEFINED> instruction: 0x67697274
     b2c:	00726567 	rsbseq	r6, r2, r7, ror #10
     b30:	6d6f682f 	stclvs	8, cr6, [pc, #-188]!	; a7c <SYS_MODE+0xa5d>
     b34:	7a632f65 	bvc	18cc8d0 <SYS_MODE+0x18cc8b1>
     b38:	786d696c 	stmdavc	sp!, {r2, r3, r5, r6, r8, fp, sp, lr}^
     b3c:	646f632f 	strbtvs	r6, [pc], #-815	; b44 <SYS_MODE+0xb25>
     b40:	61707365 	cmnvs	r0, r5, ror #6
     b44:	742f6563 	strtvc	r6, [pc], #-1379	; b4c <SYS_MODE+0xb2d>
     b48:	2f706d65 	svccs	0x00706d65
     b4c:	65726162 	ldrbvs	r6, [r2, #-354]!	; 0xfffffe9e
     b50:	6174656d 	cmnvs	r4, sp, ror #10
     b54:	6f665f6c 	svcvs	0x00665f6c
     b58:	2f635f72 	svccs	0x00635f72
     b5c:	65646f63 	strbvs	r6, [r4, #-3939]!	; 0xfffff09d
     b60:	6972642f 	ldmdbvs	r2!, {r0, r1, r2, r3, r5, sl, sp, lr}^
     b64:	2f726576 	svccs	0x00726576
     b68:	33336d61 	teqcc	r3, #6208	; 0x1840
     b6c:	732f7835 			; <UNDEFINED> instruction: 0x732f7835
     b70:	732f6372 			; <UNDEFINED> instruction: 0x732f6372
     b74:	5f767264 	svcpl	0x00767264
     b78:	63746e69 	cmnvs	r4, #1680	; 0x690
     b7c:	732e735f 			; <UNDEFINED> instruction: 0x732e735f
     b80:	726f7700 	rsbvc	r7, pc, #0, 14
     b84:	6e656c64 	cdpvs	12, 6, cr6, cr5, cr4, {3}
     b88:	00687467 	rsbeq	r7, r8, r7, ror #8
     b8c:	76726473 			; <UNDEFINED> instruction: 0x76726473
     b90:	7261755f 	rsbvc	r7, r1, #398458880	; 0x17c00000
     b94:	6e695f74 	mcrvs	15, 3, r5, cr9, cr4, {3}
     b98:	74007469 	strvc	r7, [r0], #-1129	; 0xfffffb97
     b9c:	69665f78 	stmdbvs	r6!, {r3, r4, r5, r6, r8, r9, sl, fp, ip, lr}^
     ba0:	6c5f6f66 	mrrcvs	15, 6, r6, pc, cr6	; <UNPREDICTABLE>
     ba4:	6c657665 	stclvs	6, cr7, [r5], #-404	; 0xfffffe6c
     ba8:	52415500 	subpl	r5, r1, #0, 10
     bac:	49465f54 	stmdbmi	r6, {r2, r4, r6, r8, r9, sl, fp, ip, lr}^
     bb0:	4c5f4f46 	mrrcmi	15, 4, r4, pc, cr6	; <UNPREDICTABLE>
     bb4:	4c455645 	mcrrmi	6, 4, r5, r5, cr5
     bb8:	7300385f 	movwvc	r3, #2143	; 0x85f
     bbc:	5f767264 	svcpl	0x00767264
     bc0:	74726175 	ldrbtvc	r6, [r2], #-373	; 0xfffffe8b
     bc4:	726f775f 	rsbvc	r7, pc, #24903680	; 0x17c0000
     bc8:	6e656c64 	cdpvs	12, 6, cr6, cr5, cr4, {3}
     bcc:	5f687467 	svcpl	0x00687467
     bd0:	65707974 	ldrbvs	r7, [r0, #-2420]!	; 0xfffff68c
     bd4:	72647300 	rsbvc	r7, r4, #0, 6
     bd8:	61755f76 	cmnvs	r5, r6, ror pc
     bdc:	635f7472 	cmpvs	pc, #1912602624	; 0x72000000
     be0:	69666e6f 	stmdbvs	r6!, {r0, r1, r2, r3, r5, r6, r9, sl, fp, sp, lr}^
     be4:	65727567 	ldrbvs	r7, [r2, #-1383]!	; 0xfffffa99
     be8:	6f72705f 	svcvs	0x0072705f
     bec:	6f636f74 	svcvs	0x00636f74
     bf0:	4155006c 	cmpmi	r5, ip, rrx
     bf4:	535f5452 	cmppl	pc, #1375731712	; 0x52000000
     bf8:	42504f54 	subsmi	r4, r0, #84, 30	; 0x150
     bfc:	5f535449 	svcpl	0x00535449
     c00:	5f4f5754 	svcpl	0x004f5754
     c04:	53544942 	cmppl	r4, #1081344	; 0x108000
     c08:	646c6f00 	strbtvs	r6, [ip], #-3840	; 0xfffff100
     c0c:	72636c5f 	rsbvc	r6, r3, #24320	; 0x5f00
     c10:	616d6400 	cmnvs	sp, r0, lsl #8
     c14:	616e655f 	cmnvs	lr, pc, asr r5
     c18:	00656c62 	rsbeq	r6, r5, r2, ror #24
     c1c:	54524155 	ldrbpl	r4, [r2], #-341	; 0xfffffeab
     c20:	524f575f 	subpl	r5, pc, #24903680	; 0x17c0000
     c24:	4e454c44 	cdpmi	12, 4, cr4, cr5, cr4, {2}
     c28:	5f485447 	svcpl	0x00485447
     c2c:	49425f38 	stmdbmi	r2, {r3, r4, r5, r8, r9, sl, fp, ip, lr}^
     c30:	73005354 	movwvc	r5, #852	; 0x354
     c34:	5f767264 	svcpl	0x00767264
     c38:	74726175 	ldrbtvc	r6, [r2], #-373	; 0xfffffe8b
     c3c:	6669665f 			; <UNDEFINED> instruction: 0x6669665f
     c40:	656c5f6f 	strbvs	r5, [ip, #-3951]!	; 0xfffff091
     c44:	5f6c6576 	svcpl	0x006c6576
     c48:	65707974 	ldrbvs	r7, [r0, #-2420]!	; 0xfffff68c
     c4c:	52415500 	subpl	r5, r1, #0, 10
     c50:	54535f54 	ldrbpl	r5, [r3], #-3924	; 0xfffff0ac
     c54:	4942504f 	stmdbmi	r2, {r0, r1, r2, r3, r6, ip, lr}^
     c58:	4f5f5354 	svcmi	0x005f5354
     c5c:	425f454e 	subsmi	r4, pc, #327155712	; 0x13800000
     c60:	00535449 	subseq	r5, r3, r9, asr #8
     c64:	61746164 	cmnvs	r4, r4, ror #2
     c68:	52415500 	subpl	r5, r1, #0, 10
     c6c:	4f575f54 	svcmi	0x00575f54
     c70:	454c4452 	strbmi	r4, [ip, #-1106]	; 0xfffffbae
     c74:	4854474e 	ldmdami	r4, {r1, r2, r3, r6, r8, r9, sl, lr}^
     c78:	425f355f 	subsmi	r3, pc, #398458880	; 0x17c00000
     c7c:	00535449 	subseq	r5, r3, r9, asr #8
     c80:	76746572 			; <UNDEFINED> instruction: 0x76746572
     c84:	6f006c61 	svcvs	0x00006c61
     c88:	655f646c 	ldrbvs	r6, [pc, #-1132]	; 824 <SYS_MODE+0x805>
     c8c:	55007266 	strpl	r7, [r0, #-614]	; 0xfffffd9a
     c90:	5f545241 	svcpl	0x00545241
     c94:	504f5453 	subpl	r5, pc, r3, asr r4	; <UNPREDICTABLE>
     c98:	53544942 	cmppl	r4, #1081344	; 0x108000
     c9c:	454e4f5f 	strbmi	r4, [lr, #-3935]	; 0xfffff0a1
     ca0:	464c4148 	strbmi	r4, [ip], -r8, asr #2
     ca4:	5449425f 	strbpl	r4, [r9], #-607	; 0xfffffda1
     ca8:	41550053 	cmpmi	r5, r3, asr r0
     cac:	465f5452 			; <UNDEFINED> instruction: 0x465f5452
     cb0:	5f4f4649 	svcpl	0x004f4649
     cb4:	4556454c 	ldrbmi	r4, [r6, #-1356]	; 0xfffffab4
     cb8:	34325f4c 	ldrtcc	r5, [r2], #-3916	; 0xfffff0b4
     cbc:	72647300 	rsbvc	r7, r4, #0, 6
     cc0:	61755f76 	cmnvs	r5, r6, ror pc
     cc4:	635f7472 	cmpvs	pc, #1912602624	; 0x72000000
     cc8:	69666e6f 	stmdbvs	r6!, {r0, r1, r2, r3, r5, r6, r9, sl, fp, sp, lr}^
     ccc:	79745f67 	ldmdbvc	r4!, {r0, r1, r2, r5, r6, r8, r9, sl, fp, ip, lr}^
     cd0:	75006570 	strvc	r6, [r0, #-1392]	; 0xfffffa90
     cd4:	5f747261 	svcpl	0x00747261
     cd8:	64756162 	ldrbtvs	r6, [r5], #-354	; 0xfffffe9e
     cdc:	65746172 	ldrbvs	r6, [r4, #-370]!	; 0xfffffe8e
     ce0:	7272615f 	rsbsvc	r6, r2, #-1073741801	; 0xc0000017
     ce4:	73007961 	movwvc	r7, #2401	; 0x961
     ce8:	5f767264 	svcpl	0x00767264
     cec:	74726175 	ldrbtvc	r6, [r2], #-373	; 0xfffffe8b
     cf0:	6f74735f 	svcvs	0x0074735f
     cf4:	74696270 	strbtvc	r6, [r9], #-624	; 0xfffffd90
     cf8:	79745f73 	ldmdbvc	r4!, {r0, r1, r4, r5, r6, r8, r9, sl, fp, ip, lr}^
     cfc:	55006570 	strpl	r6, [r0, #-1392]	; 0xfffffa90
     d00:	5f545241 	svcpl	0x00545241
     d04:	4f464946 	svcmi	0x00464946
     d08:	56454c5f 			; <UNDEFINED> instruction: 0x56454c5f
     d0c:	315f4c45 	cmpcc	pc, r5, asr #24
     d10:	6c6f0036 	stclvs	0, cr0, [pc], #-216	; c40 <SYS_MODE+0xc21>
     d14:	636d5f64 	cmnvs	sp, #100, 30	; 0x190
     d18:	64730072 	ldrbtvs	r0, [r3], #-114	; 0xffffff8e
     d1c:	755f7672 	ldrbvc	r7, [pc, #-1650]	; 6b2 <SYS_MODE+0x693>
     d20:	5f747261 	svcpl	0x00747261
     d24:	646e6573 	strbtvs	r6, [lr], #-1395	; 0xfffffa8d
     d28:	73616200 	cmnvc	r1, #0, 4
     d2c:	64615f65 	strbtvs	r5, [r1], #-3941	; 0xfffff09b
     d30:	73657264 	cmnvc	r5, #100, 4	; 0x40000006
     d34:	78720073 	ldmdavc	r2!, {r0, r1, r4, r5, r6}^
     d38:	6669665f 			; <UNDEFINED> instruction: 0x6669665f
     d3c:	656c5f6f 	strbvs	r5, [ip, #-3951]!	; 0xfffff091
     d40:	006c6576 	rsbeq	r6, ip, r6, ror r5
     d44:	54524155 	ldrbpl	r4, [r2], #-341	; 0xfffffeab
     d48:	5241505f 	subpl	r5, r1, #95	; 0x5f
     d4c:	5f595449 	svcpl	0x00595449
     d50:	0044444f 	subeq	r4, r4, pc, asr #8
     d54:	6d6f682f 	stclvs	8, cr6, [pc, #-188]!	; ca0 <SYS_MODE+0xc81>
     d58:	7a632f65 	bvc	18ccaf4 <SYS_MODE+0x18ccad5>
     d5c:	786d696c 	stmdavc	sp!, {r2, r3, r5, r6, r8, fp, sp, lr}^
     d60:	646f632f 	strbtvs	r6, [pc], #-815	; d68 <SYS_MODE+0xd49>
     d64:	61707365 	cmnvs	r0, r5, ror #6
     d68:	742f6563 	strtvc	r6, [pc], #-1379	; d70 <SYS_MODE+0xd51>
     d6c:	2f706d65 	svccs	0x00706d65
     d70:	65726162 	ldrbvs	r6, [r2, #-354]!	; 0xfffffe9e
     d74:	6174656d 	cmnvs	r4, sp, ror #10
     d78:	6f665f6c 	svcvs	0x00665f6c
     d7c:	2f635f72 	svccs	0x00635f72
     d80:	65646f63 	strbvs	r6, [r4, #-3939]!	; 0xfffff09d
     d84:	6972642f 	ldmdbvs	r2!, {r0, r1, r2, r3, r5, sl, sp, lr}^
     d88:	2f726576 	svccs	0x00726576
     d8c:	33336d61 	teqcc	r3, #6208	; 0x1840
     d90:	732f7835 			; <UNDEFINED> instruction: 0x732f7835
     d94:	732f6372 			; <UNDEFINED> instruction: 0x732f6372
     d98:	5f767264 	svcpl	0x00767264
     d9c:	74726175 	ldrbtvc	r6, [r2], #-373	; 0xfffffe8b
     da0:	7300632e 	movwvc	r6, #814	; 0x32e
     da4:	5f767264 	svcpl	0x00767264
     da8:	74726175 	ldrbtvc	r6, [r2], #-373	; 0xfffffe8b
     dac:	7561625f 	strbvc	r6, [r1, #-607]!	; 0xfffffda1
     db0:	74617264 	strbtvc	r7, [r1], #-612	; 0xfffffd9c
     db4:	79745f65 	ldmdbvc	r4!, {r0, r2, r5, r6, r8, r9, sl, fp, ip, lr}^
     db8:	55006570 	strpl	r6, [r0, #-1392]	; 0xfffffa90
     dbc:	5f545241 	svcpl	0x00545241
     dc0:	44524f57 	ldrbmi	r4, [r2], #-3927	; 0xfffff0a9
     dc4:	474e454c 	strbmi	r4, [lr, -ip, asr #10]
     dc8:	365f4854 			; <UNDEFINED> instruction: 0x365f4854
     dcc:	5449425f 	strbpl	r4, [r9], #-607	; 0xfffffda1
     dd0:	64730053 	ldrbtvs	r0, [r3], #-83	; 0xffffffad
     dd4:	755f7672 	ldrbvc	r7, [pc, #-1650]	; 76a <SYS_MODE+0x74b>
     dd8:	5f747261 	svcpl	0x00747261
     ddc:	666e6f63 	strbtvs	r6, [lr], -r3, ror #30
     de0:	72756769 	rsbsvc	r6, r5, #27525120	; 0x1a40000
     de4:	69665f65 	stmdbvs	r6!, {r0, r2, r5, r6, r8, r9, sl, fp, ip, lr}^
     de8:	615f6f66 	cmpvs	pc, r6, ror #30
     dec:	645f646e 	ldrbvs	r6, [pc], #-1134	; df4 <SYS_MODE+0xdd5>
     df0:	6600616d 	strvs	r6, [r0], -sp, ror #2
     df4:	5f6f6669 	svcpl	0x006f6669
     df8:	62616e65 	rsbvs	r6, r1, #1616	; 0x650
     dfc:	6200656c 	andvs	r6, r0, #108, 10	; 0x1b000000
     e00:	72647561 	rsbvc	r7, r4, #406847488	; 0x18400000
     e04:	00657461 	rsbeq	r7, r5, r1, ror #8
     e08:	706f7473 	rsbvc	r7, pc, r3, ror r4	; <UNPREDICTABLE>
     e0c:	73746962 	cmnvc	r4, #1605632	; 0x188000
     e10:	52415500 	subpl	r5, r1, #0, 10
     e14:	41505f54 	cmpmi	r0, r4, asr pc
     e18:	59544952 	ldmdbpl	r4, {r1, r4, r6, r8, fp, lr}^
     e1c:	4556455f 	ldrbmi	r4, [r6, #-1375]	; 0xfffffaa1
     e20:	756e004e 	strbvc	r0, [lr, #-78]!	; 0xffffffb2
     e24:	7265626d 	rsbvc	r6, r5, #-805306362	; 0xd0000006
     e28:	72647300 	rsbvc	r7, r4, #0, 6
     e2c:	61755f76 	cmnvs	r5, r6, ror pc
     e30:	665f7472 			; <UNDEFINED> instruction: 0x665f7472
     e34:	5f646e69 	svcpl	0x00646e69
     e38:	65746172 	ldrbvs	r6, [r4, #-370]!	; 0xfffffe8e
     e3c:	52415500 	subpl	r5, r1, #0, 10
     e40:	4f575f54 	svcmi	0x00575f54
     e44:	454c4452 	strbmi	r4, [ip, #-1106]	; 0xfffffbae
     e48:	4854474e 	ldmdami	r4, {r1, r2, r3, r6, r8, r9, sl, lr}^
     e4c:	425f375f 	subsmi	r3, pc, #24903680	; 0x17c0000
     e50:	00535449 	subseq	r5, r3, r9, asr #8
     e54:	76726473 			; <UNDEFINED> instruction: 0x76726473
     e58:	7261755f 	rsbvc	r7, r1, #398458880	; 0x17c00000
     e5c:	65725f74 	ldrbvs	r5, [r2, #-3956]!	; 0xfffff08c
     e60:	00746573 	rsbseq	r6, r4, r3, ror r5
     e64:	54524155 	ldrbpl	r4, [r2], #-341	; 0xfffffeab
     e68:	5241505f 	subpl	r5, r1, #95	; 0x5f
     e6c:	5f595449 	svcpl	0x00595449
     e70:	55004f4e 	strpl	r4, [r0, #-3918]	; 0xfffff0b2
     e74:	5f545241 	svcpl	0x00545241
     e78:	4f464946 	svcmi	0x00464946
     e7c:	56454c5f 			; <UNDEFINED> instruction: 0x56454c5f
     e80:	335f4c45 	cmpcc	pc, #17664	; 0x4500
     e84:	61700036 	cmnvs	r0, r6, lsr r0
     e88:	79746972 	ldmdbvc	r4!, {r1, r4, r5, r6, r8, fp, sp, lr}^
     e8c:	72647300 	rsbvc	r7, r4, #0, 6
     e90:	61755f76 	cmnvs	r5, r6, ror pc
     e94:	705f7472 	subsvc	r7, pc, r2, ror r4	; <UNPREDICTABLE>
     e98:	74697261 	strbtvc	r7, [r9], #-609	; 0xfffffd9f
     e9c:	79745f79 	ldmdbvc	r4!, {r0, r3, r4, r5, r6, r8, r9, sl, fp, ip, lr}^
     ea0:	73006570 	movwvc	r6, #1392	; 0x570
     ea4:	5f767264 	svcpl	0x00767264
     ea8:	6d697464 	cfstrdvs	mvd7, [r9, #-400]!	; 0xfffffe70
     eac:	735f7265 	cmpvc	pc, #1342177286	; 0x50000006
     eb0:	5f74666f 	svcpl	0x0074666f
     eb4:	65736572 	ldrbvs	r6, [r3, #-1394]!	; 0xfffffa8e
     eb8:	64730074 	ldrbtvs	r0, [r3], #-116	; 0xffffff8c
     ebc:	645f7672 	ldrbvs	r7, [pc], #-1650	; ec4 <SYS_MODE+0xea5>
     ec0:	656d6974 	strbvs	r6, [sp, #-2420]!	; 0xfffff68c
     ec4:	6e695f72 	mcrvs	15, 3, r5, cr9, cr2, {3}
     ec8:	6e655f74 	mcrvs	15, 3, r5, cr5, cr4, {3}
     ecc:	656c6261 	strbvs	r6, [ip, #-609]!	; 0xfffffd9f
     ed0:	72647300 	rsbvc	r7, r4, #0, 6
     ed4:	74645f76 	strbtvc	r5, [r4], #-3958	; 0xfffff08a
     ed8:	72656d69 	rsbvc	r6, r5, #6720	; 0x1a40
     edc:	746e695f 	strbtvc	r6, [lr], #-2399	; 0xfffff6a1
     ee0:	75727265 	ldrbvc	r7, [r2, #-613]!	; 0xfffffd9b
     ee4:	54007470 	strpl	r7, [r0], #-1136	; 0xfffffb90
     ee8:	52454d49 	subpl	r4, r5, #4672	; 0x1240
     eec:	4952545f 	ldmdbmi	r2, {r0, r1, r2, r3, r4, r6, sl, ip, lr}^
     ef0:	52454747 	subpl	r4, r5, #18612224	; 0x11c0000
     ef4:	4c4c415f 	stfmie	f4, [ip], {95}	; 0x5f
     ef8:	72647300 	rsbvc	r7, r4, #0, 6
     efc:	69745f76 	ldmdbvs	r4!, {r1, r2, r4, r5, r6, r8, r9, sl, fp, ip, lr}^
     f00:	5f72656d 	svcpl	0x0072656d
     f04:	74696e69 	strbtvc	r6, [r9], #-3689	; 0xfffff197
     f08:	72647300 	rsbvc	r7, r4, #0, 6
     f0c:	74645f76 	strbtvc	r5, [r4], #-3958	; 0xfffff08a
     f10:	72656d69 	rsbvc	r6, r5, #6720	; 0x1a40
     f14:	756f635f 	strbvc	r6, [pc, #-863]!	; bbd <SYS_MODE+0xb9e>
     f18:	7265746e 	rsbvc	r7, r5, #1845493760	; 0x6e000000
     f1c:	7465735f 	strbtvc	r7, [r5], #-863	; 0xfffffca1
     f20:	72647300 	rsbvc	r7, r4, #0, 6
     f24:	74645f76 	strbtvc	r5, [r4], #-3958	; 0xfffff08a
     f28:	72656d69 	rsbvc	r6, r5, #6720	; 0x1a40
     f2c:	646f6d5f 	strbtvs	r6, [pc], #-3423	; f34 <SYS_MODE+0xf15>
     f30:	6f635f65 	svcvs	0x00635f65
     f34:	6769666e 	strbvs	r6, [r9, -lr, ror #12]!
     f38:	00657275 	rsbeq	r7, r5, r5, ror r2
     f3c:	6f636573 	svcvs	0x00636573
     f40:	665f646e 	ldrbvs	r6, [pc], -lr, ror #8
     f44:	656d6172 	strbvs	r6, [sp, #-370]!	; 0xfffffe8e
     f48:	4d495400 	cfstrdmi	mvd5, [r9, #-0]
     f4c:	495f5245 	ldmdbmi	pc, {r0, r2, r6, r9, ip, lr}^	; <UNPREDICTABLE>
     f50:	5245544e 	subpl	r5, r5, #1308622848	; 0x4e000000
     f54:	54505552 	ldrbpl	r5, [r0], #-1362	; 0xfffffaae
     f58:	46564f5f 	usaxmi	r4, r6, pc	; <UNPREDICTABLE>
     f5c:	63726100 	cmnvs	r2, #0, 2
     f60:	6c745f68 	ldclvs	15, cr5, [r4], #-416	; 0xfffffe60
     f64:	6f635f62 	svcvs	0x00635f62
     f68:	6769666e 	strbvs	r6, [r9, -lr, ror #12]!
     f6c:	6274745f 	rsbsvs	r7, r4, #1593835520	; 0x5f000000
     f70:	65007263 	strvs	r7, [r0, #-611]	; 0xfffffd9d
     f74:	796c7261 	stmdbvc	ip!, {r0, r5, r6, r9, ip, sp, lr}^
     f78:	756d6d5f 	strbvc	r6, [sp, #-3423]!	; 0xfffff2a1
     f7c:	6e6f635f 	mcrvs	3, 3, r6, cr15, cr15, {2}
     f80:	00676966 	rsbeq	r6, r7, r6, ror #18
     f84:	454d4954 	strbmi	r4, [sp, #-2388]	; 0xfffff6ac
     f88:	52545f52 	subspl	r5, r4, #328	; 0x148
     f8c:	45474749 	strbmi	r4, [r7, #-1865]	; 0xfffff8b7
     f90:	4f435f52 	svcmi	0x00435f52
     f94:	5241504d 	subpl	r5, r1, #77	; 0x4d
     f98:	61700045 	cmnvs	r0, r5, asr #32
     f9c:	625f6567 	subsvs	r6, pc, #432013312	; 0x19c00000
     fa0:	00657361 	rsbeq	r7, r5, r1, ror #6
     fa4:	68637261 	stmdavs	r3!, {r0, r5, r6, r9, ip, sp, lr}^
     fa8:	626c745f 	rsbvs	r7, ip, #1593835520	; 0x5f000000
     fac:	6e6f635f 	mcrvs	3, 3, r6, cr15, cr15, {2}
     fb0:	5f676966 	svcpl	0x00676966
     fb4:	72627474 	rsbvc	r7, r2, #116, 8	; 0x74000000
     fb8:	72610031 	rsbvc	r0, r1, #49	; 0x31
     fbc:	745f6863 	ldrbvc	r6, [pc], #-2147	; fc4 <SYS_MODE+0xfa5>
     fc0:	635f626c 	cmpvs	pc, #108, 4	; 0xc0000006
     fc4:	69666e6f 	stmdbvs	r6!, {r0, r1, r2, r3, r5, r6, r9, sl, fp, sp, lr}^
     fc8:	74745f67 	ldrbtvc	r5, [r4], #-3943	; 0xfffff099
     fcc:	00307262 	eorseq	r7, r0, r2, ror #4
     fd0:	61666564 	cmnvs	r6, r4, ror #10
     fd4:	5f746c75 	svcpl	0x00746c75
     fd8:	74726175 	ldrbtvc	r6, [r2], #-373	; 0xfffffe8b
     fdc:	4d495400 	cfstrdmi	mvd5, [r9, #-0]
     fe0:	495f5245 	ldmdbmi	pc, {r0, r2, r6, r9, ip, lr}^	; <UNPREDICTABLE>
     fe4:	5245544e 	subpl	r5, r5, #1308622848	; 0x4e000000
     fe8:	54505552 	ldrbpl	r5, [r0], #-1362	; 0xfffffaae
     fec:	4143545f 	cmpmi	r3, pc, asr r4
     ff0:	74610052 	strbtvc	r0, [r1], #-82	; 0xffffffae
     ff4:	62697274 	rsbvs	r7, r9, #116, 4	; 0x40000007
     ff8:	00657475 	rsbeq	r7, r5, r5, ror r4
     ffc:	454d4954 	strbmi	r4, [sp, #-2388]	; 0xfffff6ac
    1000:	4e495f52 	mcrmi	15, 2, r5, cr9, cr2, {2}
    1004:	52524554 	subspl	r4, r2, #84, 10	; 0x15000000
    1008:	5f545055 	svcpl	0x00545055
    100c:	0054414d 	subseq	r4, r4, sp, asr #2
    1010:	76726473 			; <UNDEFINED> instruction: 0x76726473
    1014:	6974645f 	ldmdbvs	r4!, {r0, r1, r2, r3, r4, r6, sl, sp, lr}^
    1018:	5f72656d 	svcpl	0x0072656d
    101c:	67697274 			; <UNDEFINED> instruction: 0x67697274
    1020:	5f726567 	svcpl	0x00726567
    1024:	65646f6d 	strbvs	r6, [r4, #-3949]!	; 0xfffff093
    1028:	5f617000 	svcpl	0x00617000
    102c:	6d617266 	sfmvs	f7, 2, [r1, #-408]!	; 0xfffffe68
    1030:	64730065 	ldrbtvs	r0, [r3], #-101	; 0xffffff9b
    1034:	645f7672 	ldrbvs	r7, [pc], #-1650	; 103c <SYS_MODE+0x101d>
    1038:	656d6974 	strbvs	r6, [sp, #-2420]!	; 0xfffff68c
    103c:	6e655f72 	mcrvs	15, 3, r5, cr5, cr2, {3}
    1040:	656c6261 	strbvs	r6, [ip, #-609]!	; 0xfffffd9f
    1044:	62617400 	rsbvs	r7, r1, #0, 8
    1048:	665f656c 	ldrbvs	r6, [pc], -ip, ror #10
    104c:	656d6172 	strbvs	r6, [sp, #-370]!	; 0xfffffe8e
    1050:	4d495400 	cfstrdmi	mvd5, [r9, #-0]
    1054:	545f5245 	ldrbpl	r5, [pc], #-581	; 105c <SYS_MODE+0x103d>
    1058:	47474952 	smlsldmi	r4, r7, r2, r9
    105c:	525f5245 	subspl	r5, pc, #1342177284	; 0x50000004
    1060:	414f4c45 	cmpmi	pc, r5, asr #24
    1064:	61740044 	cmnvs	r4, r4, asr #32
    1068:	5f656c62 	svcpl	0x00656c62
    106c:	65736162 	ldrbvs	r6, [r3, #-354]!	; 0xfffffe9e
    1070:	6f682f00 	svcvs	0x00682f00
    1074:	632f656d 			; <UNDEFINED> instruction: 0x632f656d
    1078:	6d696c7a 	stclvs	12, cr6, [r9, #-488]!	; 0xfffffe18
    107c:	6f632f78 	svcvs	0x00632f78
    1080:	70736564 	rsbsvc	r6, r3, r4, ror #10
    1084:	2f656361 	svccs	0x00656361
    1088:	706d6574 	rsbvc	r6, sp, r4, ror r5
    108c:	7261622f 	rsbvc	r6, r1, #-268435454	; 0xf0000002
    1090:	74656d65 	strbtvc	r6, [r5], #-3429	; 0xfffff29b
    1094:	665f6c61 	ldrbvs	r6, [pc], -r1, ror #24
    1098:	635f726f 	cmpvs	pc, #-268435450	; 0xf0000006
    109c:	646f632f 	strbtvs	r6, [pc], #-815	; 10a4 <SYS_MODE+0x1085>
    10a0:	6f622f65 	svcvs	0x00622f65
    10a4:	2f647261 	svccs	0x00647261
    10a8:	33336d61 	teqcc	r3, #6208	; 0x1840
    10ac:	742f3835 	strtvc	r3, [pc], #-2101	; 10b4 <SYS_MODE+0x1095>
    10b0:	74727972 	ldrbtvc	r7, [r2], #-2418	; 0xfffff68e
    10b4:	732f736f 			; <UNDEFINED> instruction: 0x732f736f
    10b8:	622f6372 	eorvs	r6, pc, #-939524095	; 0xc8000001
    10bc:	6472616f 	ldrbtvs	r6, [r2], #-367	; 0xfffffe91
    10c0:	696e695f 	stmdbvs	lr!, {r0, r1, r2, r3, r4, r6, r8, fp, sp, lr}^
    10c4:	00632e74 	rsbeq	r2, r3, r4, ror lr
    10c8:	76726473 			; <UNDEFINED> instruction: 0x76726473
    10cc:	6974645f 	ldmdbvs	r4!, {r0, r1, r2, r3, r4, r6, sl, sp, lr}^
    10d0:	5f72656d 	svcpl	0x0072656d
    10d4:	6f6c6572 	svcvs	0x006c6572
    10d8:	735f6461 	cmpvc	pc, #1627389952	; 0x61000000
    10dc:	74007465 	strvc	r7, [r0], #-1125	; 0xfffffb9b
    10e0:	74727972 	ldrbtvc	r7, [r2], #-2418	; 0xfffff68e
    10e4:	695f736f 	ldmdbvs	pc, {r0, r1, r2, r3, r5, r6, r8, r9, ip, sp, lr}^	; <UNPREDICTABLE>
    10e8:	5f656c64 	svcpl	0x00656c64
    10ec:	72746e65 	rsbsvc	r6, r4, #1616	; 0x650
    10f0:	61635f79 	smcvs	13817	; 0x35f9
    10f4:	625f6c6c 	subsvs	r6, pc, #108, 24	; 0x6c00
    10f8:	006b6361 	rsbeq	r6, fp, r1, ror #6
    10fc:	76726473 			; <UNDEFINED> instruction: 0x76726473
    1100:	6974645f 	ldmdbvs	r4!, {r0, r1, r2, r3, r4, r6, sl, sp, lr}^
    1104:	5f72656d 	svcpl	0x0072656d
    1108:	5f746e69 	svcpl	0x00746e69
    110c:	74617473 	strbtvc	r7, [r1], #-1139	; 0xfffffb8d
    1110:	635f7375 	cmpvs	pc, #-738197503	; 0xd4000001
    1114:	7261656c 	rsbvc	r6, r1, #108, 10	; 0x1b000000
    1118:	6f682f00 	svcvs	0x00682f00
    111c:	632f656d 			; <UNDEFINED> instruction: 0x632f656d
    1120:	6d696c7a 	stclvs	12, cr6, [r9, #-488]!	; 0xfffffe18
    1124:	6f632f78 	svcvs	0x00632f78
    1128:	70736564 	rsbsvc	r6, r3, r4, ror #10
    112c:	2f656361 	svccs	0x00656361
    1130:	706d6574 	rsbvc	r6, sp, r4, ror r5
    1134:	7261622f 	rsbvc	r6, r1, #-268435454	; 0xf0000002
    1138:	74656d65 	strbtvc	r6, [r5], #-3429	; 0xfffff29b
    113c:	665f6c61 	ldrbvs	r6, [pc], -r1, ror #24
    1140:	635f726f 	cmpvs	pc, #-268435450	; 0xf0000006
    1144:	646f632f 	strbtvs	r6, [pc], #-815	; 114c <SYS_MODE+0x112d>
    1148:	6f622f65 	svcvs	0x00622f65
    114c:	2f647261 	svccs	0x00647261
    1150:	33336d61 	teqcc	r3, #6208	; 0x1840
    1154:	742f3835 	strtvc	r3, [pc], #-2101	; 115c <SYS_MODE+0x113d>
    1158:	74727972 	ldrbtvc	r7, [r2], #-2418	; 0xfffff68e
    115c:	732f736f 			; <UNDEFINED> instruction: 0x732f736f
    1160:	6d2f6372 	stcvs	3, cr6, [pc, #-456]!	; fa0 <SYS_MODE+0xf81>
    1164:	2e6e6961 	vnmulcs.f16	s13, s28, s3	; <UNPREDICTABLE>
    1168:	64750063 	ldrbtvs	r0, [r5], #-99	; 0xffffff9d
    116c:	79616c65 	stmdbvc	r1!, {r0, r2, r5, r6, sl, fp, sp, lr}^
    1170:	72647300 	rsbvc	r7, r4, #0, 6
    1174:	69745f76 	ldmdbvs	r4!, {r1, r2, r4, r5, r6, r8, r9, sl, fp, ip, lr}^
    1178:	5f72656d 	svcpl	0x0072656d
    117c:	63746e69 	cmnvs	r4, #1680	; 0x690
    1180:	6e61685f 	mcrvs	8, 3, r6, cr1, cr15, {2}
    1184:	72656c64 	rsbvc	r6, r5, #100, 24	; 0x6400
	...

Disassembly of section .comment:

00000000 <.comment>:
   0:	3a434347 	bcc	10d0d24 <SYS_MODE+0x10d0d05>
   4:	4e472820 	cdpmi	8, 4, cr2, cr7, cr0, {1}
   8:	72412055 	subvc	r2, r1, #85	; 0x55
   c:	6d45206d 	stclvs	0, cr2, [r5, #-436]	; 0xfffffe4c
  10:	64646562 	strbtvs	r6, [r4], #-1378	; 0xfffffa9e
  14:	54206465 	strtpl	r6, [r0], #-1125	; 0xfffffb9b
  18:	636c6f6f 	cmnvs	ip, #444	; 0x1bc
  1c:	6e696168 	powvsez	f6, f1, #0.0
  20:	2e303120 	rsfcssp	f3, f0, f0
  24:	30322d33 	eorscc	r2, r2, r3, lsr sp
  28:	302e3132 	eorcc	r3, lr, r2, lsr r1
  2c:	31202937 			; <UNDEFINED> instruction: 0x31202937
  30:	2e332e30 	mrccs	14, 1, r2, cr3, cr0, {1}
  34:	30322031 	eorscc	r2, r2, r1, lsr r0
  38:	36303132 			; <UNDEFINED> instruction: 0x36303132
  3c:	28203132 	stmdacs	r0!, {r1, r4, r5, r8, ip, sp}
  40:	656c6572 	strbvs	r6, [ip, #-1394]!	; 0xfffffa8e
  44:	29657361 	stmdbcs	r5!, {r0, r5, r6, r8, r9, ip, sp, lr}^
	...

Disassembly of section .ARM.attributes:

00000000 <.ARM.attributes>:
   0:	00003041 	andeq	r3, r0, r1, asr #32
   4:	61656100 	cmnvs	r5, r0, lsl #2
   8:	01006962 	tsteq	r0, r2, ror #18
   c:	00000026 	andeq	r0, r0, r6, lsr #32
  10:	412d3705 			; <UNDEFINED> instruction: 0x412d3705
  14:	070a0600 	streq	r0, [sl, -r0, lsl #12]
  18:	09010841 	stmdbeq	r1, {r0, r6, fp}
  1c:	12040a02 	andne	r0, r4, #8192	; 0x2000
  20:	15011404 	strne	r1, [r1, #-1028]	; 0xfffffbfc
  24:	18031701 	stmdane	r3, {r0, r8, r9, sl, ip}
  28:	1c011a01 			; <UNDEFINED> instruction: 0x1c011a01
  2c:	22011e01 	andcs	r1, r1, #1, 28
  30:	Address 0x0000000000000030 is out of bounds.


Disassembly of section .debug_frame:

00000000 <.debug_frame>:
   0:	0000000c 	andeq	r0, r0, ip
   4:	ffffffff 			; <UNDEFINED> instruction: 0xffffffff
   8:	7c020001 	stcvc	0, cr0, [r2], {1}
   c:	000d0c0e 	andeq	r0, sp, lr, lsl #24
  10:	0000000c 	andeq	r0, r0, ip
	...
  1c:	00000020 	andeq	r0, r0, r0, lsr #32
  20:	0000000c 	andeq	r0, r0, ip
	...
  2c:	00000024 	andeq	r0, r0, r4, lsr #32
  30:	0000000c 	andeq	r0, r0, ip
	...
  3c:	00000030 	andeq	r0, r0, r0, lsr r0
  40:	0000000c 	andeq	r0, r0, ip
	...
  4c:	00000020 	andeq	r0, r0, r0, lsr #32
  50:	0000000c 	andeq	r0, r0, ip
  54:	00000000 	andeq	r0, r0, r0
  58:	c20006e0 	andgt	r0, r0, #224, 12	; 0xe000000
  5c:	00000020 	andeq	r0, r0, r0, lsr #32
  60:	0000000c 	andeq	r0, r0, ip
	...
  6c:	00000024 	andeq	r0, r0, r4, lsr #32
  70:	0000000c 	andeq	r0, r0, ip
	...
  7c:	00000054 	andeq	r0, r0, r4, asr r0
  80:	0000000c 	andeq	r0, r0, ip
	...
  8c:	00000034 	andeq	r0, r0, r4, lsr r0
  90:	0000000c 	andeq	r0, r0, ip
  94:	ffffffff 			; <UNDEFINED> instruction: 0xffffffff
  98:	7c020001 	stcvc	0, cr0, [r2], {1}
  9c:	000d0c0e 	andeq	r0, sp, lr, lsl #24
  a0:	0000000c 	andeq	r0, r0, ip
  a4:	00000090 	muleq	r0, r0, r0
  a8:	00000000 	andeq	r0, r0, r0
  ac:	0000000c 	andeq	r0, r0, ip
  b0:	0000000c 	andeq	r0, r0, ip
  b4:	00000090 	muleq	r0, r0, r0
  b8:	c2000700 	andgt	r0, r0, #0, 14
  bc:	00000004 	andeq	r0, r0, r4
  c0:	00000014 	andeq	r0, r0, r4, lsl r0
  c4:	00000090 	muleq	r0, r0, r0
  c8:	00000000 	andeq	r0, r0, r0
  cc:	0000001c 	andeq	r0, r0, ip, lsl r0
  d0:	84080e46 	strhi	r0, [r8], #-3654	; 0xfffff1ba
  d4:	00018e02 	andeq	r8, r1, r2, lsl #28
  d8:	0000000c 	andeq	r0, r0, ip
  dc:	00000090 	muleq	r0, r0, r0
  e0:	c2000704 	andgt	r0, r0, #4, 14	; 0x100000
  e4:	00000040 	andeq	r0, r0, r0, asr #32
  e8:	0000002c 	andeq	r0, r0, ip, lsr #32
  ec:	00000090 	muleq	r0, r0, r0
  f0:	c2000744 	andgt	r0, r0, #68, 14	; 0x1100000
  f4:	000000cc 	andeq	r0, r0, ip, asr #1
  f8:	84240e42 	strthi	r0, [r4], #-3650	; 0xfffff1be
  fc:	86088509 	strhi	r8, [r8], -r9, lsl #10
 100:	88068707 	stmdahi	r6, {r0, r1, r2, r8, r9, sl, pc}
 104:	8a048905 	bhi	122520 <SYS_MODE+0x122501>
 108:	8e028b03 	vmlahi.f64	d8, d2, d3
 10c:	300e4201 	andcc	r4, lr, r1, lsl #4
 110:	0e0a4c02 	cdpeq	12, 0, cr4, cr10, cr2, {0}
 114:	000b4224 	andeq	r4, fp, r4, lsr #4
 118:	00000028 	andeq	r0, r0, r8, lsr #32
 11c:	00000090 	muleq	r0, r0, r0
 120:	c2000810 	andgt	r0, r0, #16, 16	; 0x100000
 124:	000001b4 			; <UNDEFINED> instruction: 0x000001b4
 128:	841c0e42 	ldrhi	r0, [ip], #-3650	; 0xfffff1be
 12c:	86068507 	strhi	r8, [r6], -r7, lsl #10
 130:	88048705 	stmdahi	r4, {r0, r2, r8, r9, sl, pc}
 134:	8e028903 	vmlahi.f16	s16, s4, s6	; <UNPREDICTABLE>
 138:	300e4201 	andcc	r4, lr, r1, lsl #4
 13c:	0e0a9c02 	cdpeq	12, 0, cr9, cr10, cr2, {0}
 140:	000b421c 	andeq	r4, fp, ip, lsl r2
 144:	00000028 	andeq	r0, r0, r8, lsr #32
 148:	00000090 	muleq	r0, r0, r0
 14c:	c20009c4 	andgt	r0, r0, #196, 18	; 0x310000
 150:	00000118 	andeq	r0, r0, r8, lsl r1
 154:	84240e42 	strthi	r0, [r4], #-3650	; 0xfffff1be
 158:	86088509 	strhi	r8, [r8], -r9, lsl #10
 15c:	88068707 	stmdahi	r6, {r0, r1, r2, r8, r9, sl, pc}
 160:	8a048905 	bhi	12257c <SYS_MODE+0x12255d>
 164:	8e028b03 	vmlahi.f64	d8, d2, d3
 168:	700e4201 	andvc	r4, lr, r1, lsl #4
 16c:	240e8602 	strcs	r8, [lr], #-1538	; 0xfffff9fe
 170:	00000028 	andeq	r0, r0, r8, lsr #32
 174:	00000090 	muleq	r0, r0, r0
 178:	c2000adc 	andgt	r0, r0, #220, 20	; 0xdc000
 17c:	0000013c 	andeq	r0, r0, ip, lsr r1
 180:	84240e42 	strthi	r0, [r4], #-3650	; 0xfffff1be
 184:	86088509 	strhi	r8, [r8], -r9, lsl #10
 188:	88068707 	stmdahi	r6, {r0, r1, r2, r8, r9, sl, pc}
 18c:	8a048905 	bhi	1225a8 <SYS_MODE+0x122589>
 190:	8e028b03 	vmlahi.f64	d8, d2, d3
 194:	780e4201 	stmdavc	lr, {r0, r9, lr}
 198:	240e9802 	strcs	r9, [lr], #-2050	; 0xfffff7fe
 19c:	0000002c 	andeq	r0, r0, ip, lsr #32
 1a0:	00000090 	muleq	r0, r0, r0
 1a4:	c2000c18 	andgt	r0, r0, #24, 24	; 0x1800
 1a8:	00000380 	andeq	r0, r0, r0, lsl #7
 1ac:	84240e42 	strthi	r0, [r4], #-3650	; 0xfffff1be
 1b0:	86088509 	strhi	r8, [r8], -r9, lsl #10
 1b4:	88068707 	stmdahi	r6, {r0, r1, r2, r8, r9, sl, pc}
 1b8:	8a048905 	bhi	1225d4 <SYS_MODE+0x1225b5>
 1bc:	8e028b03 	vmlahi.f64	d8, d2, d3
 1c0:	480e4201 	stmdami	lr, {r0, r9, lr}
 1c4:	0e0ade02 	cdpeq	14, 0, cr13, cr10, cr2, {0}
 1c8:	000b4224 	andeq	r4, fp, r4, lsr #4
 1cc:	0000002c 	andeq	r0, r0, ip, lsr #32
 1d0:	00000090 	muleq	r0, r0, r0
 1d4:	c2000f98 	andgt	r0, r0, #152, 30	; 0x260
 1d8:	00000418 	andeq	r0, r0, r8, lsl r4
 1dc:	84240e42 	strthi	r0, [r4], #-3650	; 0xfffff1be
 1e0:	86088509 	strhi	r8, [r8], -r9, lsl #10
 1e4:	88068707 	stmdahi	r6, {r0, r1, r2, r8, r9, sl, pc}
 1e8:	8a048905 	bhi	122604 <SYS_MODE+0x1225e5>
 1ec:	8e028b03 	vmlahi.f64	d8, d2, d3
 1f0:	580e4201 	stmdapl	lr, {r0, r9, lr}
 1f4:	0a01b003 	beq	6c208 <SYS_MODE+0x6c1e9>
 1f8:	0b42240e 	bleq	1089238 <SYS_MODE+0x1089219>
 1fc:	0000002c 	andeq	r0, r0, ip, lsr #32
 200:	00000090 	muleq	r0, r0, r0
 204:	c20013b0 	andgt	r1, r0, #176, 6	; 0xc0000002
 208:	00000b48 	andeq	r0, r0, r8, asr #22
 20c:	84240e42 	strthi	r0, [r4], #-3650	; 0xfffff1be
 210:	86088509 	strhi	r8, [r8], -r9, lsl #10
 214:	88068707 	stmdahi	r6, {r0, r1, r2, r8, r9, sl, pc}
 218:	8a048905 	bhi	122634 <SYS_MODE+0x122615>
 21c:	8e028b03 	vmlahi.f64	d8, d2, d3
 220:	600e4201 	andvs	r4, lr, r1, lsl #4
 224:	0e059e03 	cdpeq	14, 0, cr9, cr5, cr3, {0}
 228:	00000024 	andeq	r0, r0, r4, lsr #32
 22c:	00000014 	andeq	r0, r0, r4, lsl r0
 230:	00000090 	muleq	r0, r0, r0
 234:	c2001ef8 	andgt	r1, r0, #248, 28	; 0xf80
 238:	00000014 	andeq	r0, r0, r4, lsl r0
 23c:	84080e46 	strhi	r0, [r8], #-3654	; 0xfffff1ba
 240:	00018e02 	andeq	r8, r1, r2, lsl #28
 244:	00000030 	andeq	r0, r0, r0, lsr r0
 248:	00000090 	muleq	r0, r0, r0
 24c:	c2001f0c 	andgt	r1, r0, #12, 30	; 0x30
 250:	00000040 	andeq	r0, r0, r0, asr #32
 254:	80100e42 	andshi	r0, r0, r2, asr #28
 258:	82038104 	andhi	r8, r3, #4, 2
 25c:	42018302 	andmi	r8, r1, #134217728	; 0x8000000
 260:	058e140e 	streq	r1, [lr, #1038]	; 0x40e
 264:	54280e42 	strtpl	r0, [r8], #-3650	; 0xfffff1be
 268:	ce42140e 	cdpgt	4, 4, cr1, cr2, cr14, {0}
 26c:	c342100e 	movtgt	r1, #8206	; 0x200e
 270:	0ec0c1c2 	acseqdm	f4, f2
 274:	00000000 	andeq	r0, r0, r0
 278:	0000002c 	andeq	r0, r0, ip, lsr #32
 27c:	00000090 	muleq	r0, r0, r0
 280:	00000000 	andeq	r0, r0, r0
 284:	00000040 	andeq	r0, r0, r0, asr #32
 288:	810c0e42 	tsthi	ip, r2, asr #28
 28c:	83028203 	movwhi	r8, #8707	; 0x2203
 290:	100e4201 	andne	r4, lr, r1, lsl #4
 294:	0e42048e 	cdpeq	4, 4, cr0, cr2, cr14, {4}
 298:	100e5420 	andne	r5, lr, r0, lsr #8
 29c:	0c0ece42 	stceq	14, cr12, [lr], {66}	; 0x42
 2a0:	c1c2c342 	bicgt	ip, r2, r2, asr #6
 2a4:	0000000e 	andeq	r0, r0, lr
 2a8:	00000028 	andeq	r0, r0, r8, lsr #32
 2ac:	00000090 	muleq	r0, r0, r0
 2b0:	00000000 	andeq	r0, r0, r0
 2b4:	00000040 	andeq	r0, r0, r0, asr #32
 2b8:	82080e42 	andhi	r0, r8, #1056	; 0x420
 2bc:	42018302 	andmi	r8, r1, #134217728	; 0x8000000
 2c0:	038e0c0e 	orreq	r0, lr, #3584	; 0xe00
 2c4:	54200e42 	strtpl	r0, [r0], #-3650	; 0xfffff1be
 2c8:	ce420c0e 	cdpgt	12, 4, cr0, cr2, cr14, {0}
 2cc:	c342080e 	movtgt	r0, #10254	; 0x280e
 2d0:	00000ec2 	andeq	r0, r0, r2, asr #29
 2d4:	00000018 	andeq	r0, r0, r8, lsl r0
 2d8:	00000090 	muleq	r0, r0, r0
 2dc:	00000000 	andeq	r0, r0, r0
 2e0:	0000002c 	andeq	r0, r0, ip, lsr #32
 2e4:	8e040e42 	cdphi	14, 0, cr0, cr4, cr2, {2}
 2e8:	180e4201 	stmdane	lr, {r0, r9, lr}
 2ec:	00040e50 	andeq	r0, r4, r0, asr lr
 2f0:	00000018 	andeq	r0, r0, r8, lsl r0
 2f4:	00000090 	muleq	r0, r0, r0
 2f8:	00000000 	andeq	r0, r0, r0
 2fc:	0000002c 	andeq	r0, r0, ip, lsr #32
 300:	8e040e42 	cdphi	14, 0, cr0, cr4, cr2, {2}
 304:	100e4201 	andne	r4, lr, r1, lsl #4
 308:	00040e50 	andeq	r0, r4, r0, asr lr
 30c:	00000028 	andeq	r0, r0, r8, lsr #32
 310:	00000090 	muleq	r0, r0, r0
 314:	00000000 	andeq	r0, r0, r0
 318:	00000048 	andeq	r0, r0, r8, asr #32
 31c:	82080e42 	andhi	r0, r8, #1056	; 0x420
 320:	42018302 	andmi	r8, r1, #134217728	; 0x8000000
 324:	038e0c0e 	orreq	r0, lr, #3584	; 0xe00
 328:	58280e42 	stmdapl	r8!, {r1, r6, r9, sl, fp}
 32c:	ce420c0e 	cdpgt	12, 4, cr0, cr2, cr14, {0}
 330:	c342080e 	movtgt	r0, #10254	; 0x280e
 334:	00000ec2 	andeq	r0, r0, r2, asr #29
 338:	0000000c 	andeq	r0, r0, ip
 33c:	ffffffff 			; <UNDEFINED> instruction: 0xffffffff
 340:	7c020001 	stcvc	0, cr0, [r2], {1}
 344:	000d0c0e 	andeq	r0, sp, lr, lsl #24
 348:	0000000c 	andeq	r0, r0, ip
 34c:	00000338 	andeq	r0, r0, r8, lsr r3
 350:	c2001f4c 	andgt	r1, r0, #76, 30	; 0x130
 354:	00000010 	andeq	r0, r0, r0, lsl r0
 358:	0000000c 	andeq	r0, r0, ip
 35c:	00000338 	andeq	r0, r0, r8, lsr r3
 360:	00000000 	andeq	r0, r0, r0
 364:	00000008 	andeq	r0, r0, r8
 368:	0000001c 	andeq	r0, r0, ip, lsl r0
 36c:	00000338 	andeq	r0, r0, r8, lsr r3
 370:	00000000 	andeq	r0, r0, r0
 374:	0000009c 	muleq	r0, ip, r0
 378:	84080e42 	strhi	r0, [r8], #-3650	; 0xfffff1be
 37c:	42018e02 	andmi	r8, r1, #2, 28
 380:	4802180e 	stmdami	r2, {r1, r2, r3, fp, ip}
 384:	0000080e 	andeq	r0, r0, lr, lsl #16
 388:	0000000c 	andeq	r0, r0, ip
 38c:	ffffffff 			; <UNDEFINED> instruction: 0xffffffff
 390:	7c020001 	stcvc	0, cr0, [r2], {1}
 394:	000d0c0e 	andeq	r0, sp, lr, lsl #24
 398:	00000014 	andeq	r0, r0, r4, lsl r0
 39c:	00000388 	andeq	r0, r0, r8, lsl #7
 3a0:	c2001f5c 	andgt	r1, r0, #92, 30	; 0x170
 3a4:	00000070 	andeq	r0, r0, r0, ror r0
 3a8:	84080e42 	strhi	r0, [r8], #-3650	; 0xfffff1be
 3ac:	00018e02 	andeq	r8, r1, r2, lsl #28
 3b0:	0000000c 	andeq	r0, r0, ip
 3b4:	ffffffff 			; <UNDEFINED> instruction: 0xffffffff
 3b8:	7c020001 	stcvc	0, cr0, [r2], {1}
 3bc:	000d0c0e 	andeq	r0, sp, lr, lsl #24
 3c0:	0000000c 	andeq	r0, r0, ip
 3c4:	000003b0 			; <UNDEFINED> instruction: 0x000003b0
 3c8:	c2001fcc 	andgt	r1, r0, #204, 30	; 0x330
 3cc:	00000004 	andeq	r0, r0, r4
 3d0:	00000014 	andeq	r0, r0, r4, lsl r0
 3d4:	000003b0 			; <UNDEFINED> instruction: 0x000003b0
 3d8:	c2001fd0 	andgt	r1, r0, #208, 30	; 0x340
 3dc:	00000028 	andeq	r0, r0, r8, lsr #32
 3e0:	84080e42 	strhi	r0, [r8], #-3650	; 0xfffff1be
 3e4:	00018e02 	andeq	r8, r1, r2, lsl #28
 3e8:	00000014 	andeq	r0, r0, r4, lsl r0
 3ec:	000003b0 			; <UNDEFINED> instruction: 0x000003b0
 3f0:	c2001ff8 	andgt	r1, r0, #248, 30	; 0x3e0
 3f4:	00000040 	andeq	r0, r0, r0, asr #32
 3f8:	84080e42 	strhi	r0, [r8], #-3650	; 0xfffff1be
 3fc:	00018e02 	andeq	r8, r1, r2, lsl #28
 400:	00000014 	andeq	r0, r0, r4, lsl r0
 404:	000003b0 			; <UNDEFINED> instruction: 0x000003b0
 408:	00000000 	andeq	r0, r0, r0
 40c:	00000040 	andeq	r0, r0, r0, asr #32
 410:	84080e46 	strhi	r0, [r8], #-3654	; 0xfffff1ba
 414:	00018e02 	andeq	r8, r1, r2, lsl #28
 418:	00000014 	andeq	r0, r0, r4, lsl r0
 41c:	000003b0 			; <UNDEFINED> instruction: 0x000003b0
 420:	00000000 	andeq	r0, r0, r0
 424:	00000030 	andeq	r0, r0, r0, lsr r0
 428:	84080e42 	strhi	r0, [r8], #-3650	; 0xfffff1be
 42c:	00018e02 	andeq	r8, r1, r2, lsl #28
 430:	0000000c 	andeq	r0, r0, ip
 434:	ffffffff 			; <UNDEFINED> instruction: 0xffffffff
 438:	7c020001 	stcvc	0, cr0, [r2], {1}
 43c:	000d0c0e 	andeq	r0, sp, lr, lsl #24
 440:	0000000c 	andeq	r0, r0, ip
 444:	00000430 	andeq	r0, r0, r0, lsr r4
 448:	c2002038 	andgt	r2, r0, #56	; 0x38
 44c:	00000038 	andeq	r0, r0, r8, lsr r0
 450:	0000000c 	andeq	r0, r0, ip
 454:	00000430 	andeq	r0, r0, r0, lsr r4
 458:	00000000 	andeq	r0, r0, r0
 45c:	00000028 	andeq	r0, r0, r8, lsr #32
 460:	0000000c 	andeq	r0, r0, ip
 464:	00000430 	andeq	r0, r0, r0, lsr r4
 468:	00000000 	andeq	r0, r0, r0
 46c:	00000028 	andeq	r0, r0, r8, lsr #32
 470:	0000000c 	andeq	r0, r0, ip
 474:	00000430 	andeq	r0, r0, r0, lsr r4
 478:	00000000 	andeq	r0, r0, r0
 47c:	00000028 	andeq	r0, r0, r8, lsr #32
 480:	0000000c 	andeq	r0, r0, ip
 484:	00000430 	andeq	r0, r0, r0, lsr r4
 488:	c2002070 	andgt	r2, r0, #112	; 0x70
 48c:	00000028 	andeq	r0, r0, r8, lsr #32
 490:	0000000c 	andeq	r0, r0, ip
 494:	00000430 	andeq	r0, r0, r0, lsr r4
 498:	00000000 	andeq	r0, r0, r0
 49c:	00000028 	andeq	r0, r0, r8, lsr #32
 4a0:	0000000c 	andeq	r0, r0, ip
 4a4:	ffffffff 			; <UNDEFINED> instruction: 0xffffffff
 4a8:	7c020001 	stcvc	0, cr0, [r2], {1}
 4ac:	000d0c0e 	andeq	r0, sp, lr, lsl #24
 4b0:	00000018 	andeq	r0, r0, r8, lsl r0
 4b4:	000004a0 	andeq	r0, r0, r0, lsr #9
 4b8:	c2002108 	andgt	r2, r0, #8, 2
 4bc:	00000078 	andeq	r0, r0, r8, ror r0
 4c0:	84100e42 	ldrhi	r0, [r0], #-3650	; 0xfffff1be
 4c4:	86038504 	strhi	r8, [r3], -r4, lsl #10
 4c8:	00018e02 	andeq	r8, r1, r2, lsl #28
 4cc:	0000000c 	andeq	r0, r0, ip
 4d0:	000004a0 	andeq	r0, r0, r0, lsr #9
 4d4:	c2002180 	andgt	r2, r0, #128, 2
 4d8:	00000024 	andeq	r0, r0, r4, lsr #32
 4dc:	00000014 	andeq	r0, r0, r4, lsl r0
 4e0:	000004a0 	andeq	r0, r0, r0, lsr #9
 4e4:	c20021a4 	andgt	r2, r0, #164, 2	; 0x29
 4e8:	000000dc 	ldrdeq	r0, [r0], -ip
 4ec:	84080e42 	strhi	r0, [r8], #-3650	; 0xfffff1be
 4f0:	00018e02 	andeq	r8, r1, r2, lsl #28
 4f4:	00000020 	andeq	r0, r0, r0, lsr #32
 4f8:	000004a0 	andeq	r0, r0, r0, lsr #9
 4fc:	c2002280 	andgt	r2, r0, #128, 4
 500:	00000114 	andeq	r0, r0, r4, lsl r1
 504:	840c0e42 	strhi	r0, [ip], #-3650	; 0xfffff1be
 508:	8e028503 	cfsh32hi	mvfx8, mvfx2, #3
 50c:	180e4201 	stmdane	lr, {r0, r9, lr}
 510:	0e0a6602 	cfmadd32eq	mvax0, mvfx6, mvfx10, mvfx2
 514:	000b420c 	andeq	r4, fp, ip, lsl #4
 518:	00000018 	andeq	r0, r0, r8, lsl r0
 51c:	000004a0 	andeq	r0, r0, r0, lsr #9
 520:	c2002394 	andgt	r2, r0, #148, 6	; 0x50000002
 524:	00000030 	andeq	r0, r0, r0, lsr r0
 528:	84100e42 	ldrhi	r0, [r0], #-3650	; 0xfffff1be
 52c:	86038504 	strhi	r8, [r3], -r4, lsl #10
 530:	00018e02 	andeq	r8, r1, r2, lsl #28
 534:	0000000c 	andeq	r0, r0, ip
 538:	000004a0 	andeq	r0, r0, r0, lsr #9
 53c:	c20023c4 	andgt	r2, r0, #196, 6	; 0x10000003
 540:	00000014 	andeq	r0, r0, r4, lsl r0
 544:	0000000c 	andeq	r0, r0, ip
 548:	ffffffff 			; <UNDEFINED> instruction: 0xffffffff
 54c:	7c020001 	stcvc	0, cr0, [r2], {1}
 550:	000d0c0e 	andeq	r0, sp, lr, lsl #24
 554:	00000014 	andeq	r0, r0, r4, lsl r0
 558:	00000544 	andeq	r0, r0, r4, asr #10
 55c:	c20023d8 	andgt	r2, r0, #216, 6	; 0x60000003
 560:	00000164 	andeq	r0, r0, r4, ror #2
 564:	84080e42 	strhi	r0, [r8], #-3650	; 0xfffff1be
 568:	00018e02 	andeq	r8, r1, r2, lsl #28
 56c:	00000014 	andeq	r0, r0, r4, lsl r0
 570:	00000544 	andeq	r0, r0, r4, asr #10
 574:	c200253c 	andgt	r2, r0, #60, 10	; 0xf000000
 578:	00000018 	andeq	r0, r0, r8, lsl r0
 57c:	84080e42 	strhi	r0, [r8], #-3650	; 0xfffff1be
 580:	00018e02 	andeq	r8, r1, r2, lsl #28
 584:	00000014 	andeq	r0, r0, r4, lsl r0
 588:	00000544 	andeq	r0, r0, r4, asr #10
 58c:	c2002554 	andgt	r2, r0, #84, 10	; 0x15000000
 590:	0000000c 	andeq	r0, r0, ip
 594:	84080e42 	strhi	r0, [r8], #-3650	; 0xfffff1be
 598:	00018e02 	andeq	r8, r1, r2, lsl #28
 59c:	00000014 	andeq	r0, r0, r4, lsl r0
 5a0:	00000544 	andeq	r0, r0, r4, asr #10
 5a4:	00000000 	andeq	r0, r0, r0
 5a8:	00000070 	andeq	r0, r0, r0, ror r0
 5ac:	84080e42 	strhi	r0, [r8], #-3650	; 0xfffff1be
 5b0:	00018e02 	andeq	r8, r1, r2, lsl #28
 5b4:	00000014 	andeq	r0, r0, r4, lsl r0
 5b8:	00000544 	andeq	r0, r0, r4, asr #10
 5bc:	c2002560 	andgt	r2, r0, #96, 10	; 0x18000000
 5c0:	00000028 	andeq	r0, r0, r8, lsr #32
 5c4:	84080e42 	strhi	r0, [r8], #-3650	; 0xfffff1be
 5c8:	00018e02 	andeq	r8, r1, r2, lsl #28
 5cc:	0000000c 	andeq	r0, r0, ip
 5d0:	ffffffff 			; <UNDEFINED> instruction: 0xffffffff
 5d4:	7c020001 	stcvc	0, cr0, [r2], {1}
 5d8:	000d0c0e 	andeq	r0, sp, lr, lsl #24
 5dc:	00000014 	andeq	r0, r0, r4, lsl r0
 5e0:	000005cc 	andeq	r0, r0, ip, asr #11
 5e4:	00000000 	andeq	r0, r0, r0
 5e8:	00000014 	andeq	r0, r0, r4, lsl r0
 5ec:	84080e42 	strhi	r0, [r8], #-3650	; 0xfffff1be
 5f0:	00018e02 	andeq	r8, r1, r2, lsl #28
 5f4:	00000014 	andeq	r0, r0, r4, lsl r0
 5f8:	000005cc 	andeq	r0, r0, ip, asr #11
 5fc:	00000000 	andeq	r0, r0, r0
 600:	00000018 	andeq	r0, r0, r8, lsl r0
 604:	84080e42 	strhi	r0, [r8], #-3650	; 0xfffff1be
 608:	00018e02 	andeq	r8, r1, r2, lsl #28
 60c:	00000014 	andeq	r0, r0, r4, lsl r0
 610:	000005cc 	andeq	r0, r0, ip, asr #11
 614:	00000000 	andeq	r0, r0, r0
 618:	00000014 	andeq	r0, r0, r4, lsl r0
 61c:	84080e42 	strhi	r0, [r8], #-3650	; 0xfffff1be
 620:	00018e02 	andeq	r8, r1, r2, lsl #28
 624:	0000000c 	andeq	r0, r0, ip
 628:	000005cc 	andeq	r0, r0, ip, asr #11
 62c:	c2002588 	andgt	r2, r0, #136, 10	; 0x22000000
 630:	00000008 	andeq	r0, r0, r8
 634:	0000000c 	andeq	r0, r0, ip
 638:	ffffffff 			; <UNDEFINED> instruction: 0xffffffff
 63c:	7c010001 	stcvc	0, cr0, [r1], {1}
 640:	000d0c0e 	andeq	r0, sp, lr, lsl #24
 644:	0000000c 	andeq	r0, r0, ip
 648:	00000634 	andeq	r0, r0, r4, lsr r6
 64c:	c2002591 	andgt	r2, r0, #608174080	; 0x24400000
 650:	0000025c 	andeq	r0, r0, ip, asr r2
 654:	0000000c 	andeq	r0, r0, ip
 658:	ffffffff 			; <UNDEFINED> instruction: 0xffffffff
 65c:	7c020001 	stcvc	0, cr0, [r2], {1}
 660:	000d0c0e 	andeq	r0, sp, lr, lsl #24
 664:	00000018 	andeq	r0, r0, r8, lsl r0
 668:	00000654 	andeq	r0, r0, r4, asr r6
 66c:	c200280c 	andgt	r2, r0, #12, 16	; 0xc0000
 670:	00000030 	andeq	r0, r0, r0, lsr r0
 674:	8e100e50 	mrchi	14, 0, r0, cr0, cr0, {2}
 678:	0ece4703 	cdpeq	7, 12, cr4, cr14, cr3, {0}
 67c:	00000010 	andeq	r0, r0, r0, lsl r0
 680:	0000000c 	andeq	r0, r0, ip
 684:	ffffffff 			; <UNDEFINED> instruction: 0xffffffff
 688:	7c020001 	stcvc	0, cr0, [r2], {1}
 68c:	000d0c0e 	andeq	r0, sp, lr, lsl #24
 690:	00000020 	andeq	r0, r0, r0, lsr #32
 694:	00000680 	andeq	r0, r0, r0, lsl #13
 698:	c200283c 	andgt	r2, r0, #60, 16	; 0x3c0000
 69c:	00000112 	andeq	r0, r0, r2, lsl r1
 6a0:	84200e43 	strthi	r0, [r0], #-3651	; 0xfffff1bd
 6a4:	86078508 	strhi	r8, [r7], -r8, lsl #10
 6a8:	88058706 	stmdahi	r5, {r1, r2, r8, r9, sl, pc}
 6ac:	8a038904 	bhi	e2ac4 <SYS_MODE+0xe2aa5>
 6b0:	00018e02 	andeq	r8, r1, r2, lsl #28
