
/home/czlimx/codespace/baremetal_for_c/bin/am3358/tryrtos/trycode:     file format elf32-littlearm


Disassembly of section .text:

c2000000 <_vector_table>:
c2000000:	e59ff018 	ldr	pc, [pc, #24]	; c2000020 <_reset_handle>
c2000004:	e59ff018 	ldr	pc, [pc, #24]	; c2000024 <_undefined_instruction_handle>
c2000008:	e59ff018 	ldr	pc, [pc, #24]	; c2000028 <_software_interrupt_handle>
c200000c:	e59ff018 	ldr	pc, [pc, #24]	; c200002c <_prefetch_abort_handle>
c2000010:	e59ff018 	ldr	pc, [pc, #24]	; c2000030 <_data_abort_handle>
c2000014:	e59ff018 	ldr	pc, [pc, #24]	; c2000034 <_not_used_handle>
c2000018:	e59ff018 	ldr	pc, [pc, #24]	; c2000038 <_irq_handle>
c200001c:	e59ff018 	ldr	pc, [pc, #24]	; c200003c <_fiq_handle>

c2000020 <_reset_handle>:
c2000020:	c200005c 	andgt	r0, r0, #92	; 0x5c

c2000024 <_undefined_instruction_handle>:
c2000024:	c2000040 	andgt	r0, r0, #64	; 0x40

c2000028 <_software_interrupt_handle>:
c2000028:	c2000044 	andgt	r0, r0, #68	; 0x44

c200002c <_prefetch_abort_handle>:
c200002c:	c20004a0 	andgt	r0, r0, #160, 8	; 0xa0000000

c2000030 <_data_abort_handle>:
c2000030:	c20004a4 	andgt	r0, r0, #164, 8	; 0xa4000000

c2000034 <_not_used_handle>:
c2000034:	c2000050 	andgt	r0, r0, #80	; 0x50

c2000038 <_irq_handle>:
c2000038:	c20004a8 	andgt	r0, r0, #168, 8	; 0xa8000000

c200003c <_fiq_handle>:
c200003c:	c2000054 	andgt	r0, r0, #84	; 0x54

c2000040 <do_undefined_instruction>:
c2000040:	eafffffe 	b	c2000040 <do_undefined_instruction>

c2000044 <do_software_interrupt>:
c2000044:	eafffffe 	b	c2000044 <do_software_interrupt>
c2000048:	ea000114 	b	c20004a0 <do_prefetch_abort>
c200004c:	ea000114 	b	c20004a4 <do_data_abort>

c2000050 <do_not_used>:
c2000050:	eafffffe 	b	c2000050 <do_not_used>

c2000054 <do_fiq>:
c2000054:	eafffffe 	b	c2000054 <do_fiq>
c2000058:	ea000112 	b	c20004a8 <do_irq>

c200005c <_start>:
c200005c:	f10e01d3 	cpsid	aif,#19
c2000060:	ee110f10 	mrc	15, 0, r0, cr1, cr0, {0}
c2000064:	e3c00a02 	bic	r0, r0, #8192	; 0x2000
c2000068:	ee010f10 	mcr	15, 0, r0, cr1, cr0, {0}
c200006c:	e59f0078 	ldr	r0, [pc, #120]	; c20000ec <loop+0x4>
c2000070:	ee0c0f10 	mcr	15, 0, r0, cr12, cr0, {0}
c2000074:	ee110f10 	mrc	15, 0, r0, cr1, cr0, {0}
c2000078:	e3c00001 	bic	r0, r0, #1
c200007c:	ee010f10 	mcr	15, 0, r0, cr1, cr0, {0}
c2000080:	ee110f10 	mrc	15, 0, r0, cr1, cr0, {0}
c2000084:	e3c00b02 	bic	r0, r0, #2048	; 0x800
c2000088:	ee010f10 	mcr	15, 0, r0, cr1, cr0, {0}
c200008c:	ee110f10 	mrc	15, 0, r0, cr1, cr0, {0}
c2000090:	e3c00a01 	bic	r0, r0, #4096	; 0x1000
c2000094:	ee010f10 	mcr	15, 0, r0, cr1, cr0, {0}
c2000098:	ee110f10 	mrc	15, 0, r0, cr1, cr0, {0}
c200009c:	e3c00004 	bic	r0, r0, #4
c20000a0:	ee010f10 	mcr	15, 0, r0, cr1, cr0, {0}
c20000a4:	ee110f10 	mrc	15, 0, r0, cr1, cr0, {0}
c20000a8:	e3c00002 	bic	r0, r0, #2
c20000ac:	ee010f10 	mcr	15, 0, r0, cr1, cr0, {0}
c20000b0:	f1020017 	cps	#23
c20000b4:	e59f0034 	ldr	r0, [pc, #52]	; c20000f0 <loop+0x8>
c20000b8:	e1a0d000 	mov	sp, r0
c20000bc:	f1020012 	cps	#18
c20000c0:	e2400a01 	sub	r0, r0, #4096	; 0x1000
c20000c4:	e1a0d000 	mov	sp, r0
c20000c8:	f1020013 	cps	#19
c20000cc:	e2400a01 	sub	r0, r0, #4096	; 0x1000
c20000d0:	e1a0d000 	mov	sp, r0
c20000d4:	f102001f 	cps	#31
c20000d8:	e2400a01 	sub	r0, r0, #4096	; 0x1000
c20000dc:	e1a0d000 	mov	sp, r0
c20000e0:	f1020013 	cps	#19
c20000e4:	eb00018a 	bl	c2000714 <_early_arch_init>

c20000e8 <loop>:
c20000e8:	eafffffe 	b	c20000e8 <loop>
c20000ec:	c2000000 	andgt	r0, r0, #0
c20000f0:	c200d000 	andgt	sp, r0, #0

c20000f4 <arch_branch_predictor_enable>:
c20000f4:	ee110f10 	mrc	15, 0, r0, cr1, cr0, {0}
c20000f8:	e3800b02 	orr	r0, r0, #2048	; 0x800
c20000fc:	ee010f10 	mcr	15, 0, r0, cr1, cr0, {0}
c2000100:	e12fff1e 	bx	lr

c2000104 <arch_branch_predictor_disable>:
c2000104:	ee110f10 	mrc	15, 0, r0, cr1, cr0, {0}
c2000108:	e3c00b02 	bic	r0, r0, #2048	; 0x800
c200010c:	ee010f10 	mcr	15, 0, r0, cr1, cr0, {0}
c2000110:	e12fff1e 	bx	lr

c2000114 <arch_branch_predictor_invalidate_all>:
c2000114:	e3a00000 	mov	r0, #0
c2000118:	ee070fd5 	mcr	15, 0, r0, cr7, cr5, {6}
c200011c:	e12fff1e 	bx	lr

c2000120 <arch_branch_predictor_invalidate_range>:
c2000120:	e92d1ff0 	push	{r4, r5, r6, r7, r8, r9, sl, fp, ip}
c2000124:	e3a02000 	mov	r2, #0
c2000128:	ee402f10 	mcr	15, 2, r2, cr0, cr0, {0}
c200012c:	f57ff06f 	isb	sy
c2000130:	ee302f10 	mrc	15, 1, r2, cr0, cr0, {0}
c2000134:	e2022007 	and	r2, r2, #7
c2000138:	e2822002 	add	r2, r2, #2
c200013c:	e3a03001 	mov	r3, #1
c2000140:	e1a03213 	lsl	r3, r3, r2
c2000144:	e0802001 	add	r2, r0, r1
c2000148:	e2434001 	sub	r4, r3, #1
c200014c:	e1c00004 	bic	r0, r0, r4
c2000150:	ee070ff5 	mcr	15, 0, r0, cr7, cr5, {7}
c2000154:	e0800003 	add	r0, r0, r3
c2000158:	e1500002 	cmp	r0, r2
c200015c:	3afffffb 	bcc	c2000150 <arch_branch_predictor_invalidate_range+0x30>
c2000160:	f57ff04f 	dsb	sy
c2000164:	e8bd1ff0 	pop	{r4, r5, r6, r7, r8, r9, sl, fp, ip}
c2000168:	e12fff1e 	bx	lr

c200016c <arch_icache_enable>:
c200016c:	ee110f10 	mrc	15, 0, r0, cr1, cr0, {0}
c2000170:	e3800a01 	orr	r0, r0, #4096	; 0x1000
c2000174:	ee010f10 	mcr	15, 0, r0, cr1, cr0, {0}
c2000178:	e12fff1e 	bx	lr

c200017c <arch_icache_disable>:
c200017c:	ee110f10 	mrc	15, 0, r0, cr1, cr0, {0}
c2000180:	e3c00a01 	bic	r0, r0, #4096	; 0x1000
c2000184:	ee010f10 	mcr	15, 0, r0, cr1, cr0, {0}
c2000188:	e12fff1e 	bx	lr

c200018c <arch_dcache_enable>:
c200018c:	ee110f10 	mrc	15, 0, r0, cr1, cr0, {0}
c2000190:	e3800004 	orr	r0, r0, #4
c2000194:	ee010f10 	mcr	15, 0, r0, cr1, cr0, {0}
c2000198:	e12fff1e 	bx	lr

c200019c <arch_dcache_disable>:
c200019c:	ee110f10 	mrc	15, 0, r0, cr1, cr0, {0}
c20001a0:	e3c00004 	bic	r0, r0, #4
c20001a4:	ee010f10 	mcr	15, 0, r0, cr1, cr0, {0}
c20001a8:	e12fff1e 	bx	lr

c20001ac <arch_icache_invalidate_all>:
c20001ac:	e3a00000 	mov	r0, #0
c20001b0:	ee070f15 	mcr	15, 0, r0, cr7, cr5, {0}
c20001b4:	e12fff1e 	bx	lr

c20001b8 <arch_icache_invalidate_range>:
c20001b8:	e92d1ff0 	push	{r4, r5, r6, r7, r8, r9, sl, fp, ip}
c20001bc:	e3a02001 	mov	r2, #1
c20001c0:	ee402f10 	mcr	15, 2, r2, cr0, cr0, {0}
c20001c4:	f57ff06f 	isb	sy
c20001c8:	ee302f10 	mrc	15, 1, r2, cr0, cr0, {0}
c20001cc:	e2022007 	and	r2, r2, #7
c20001d0:	e2822002 	add	r2, r2, #2
c20001d4:	e3a03001 	mov	r3, #1
c20001d8:	e1a03213 	lsl	r3, r3, r2
c20001dc:	e0802001 	add	r2, r0, r1
c20001e0:	e2434001 	sub	r4, r3, #1
c20001e4:	e1c00004 	bic	r0, r0, r4
c20001e8:	ee070f35 	mcr	15, 0, r0, cr7, cr5, {1}
c20001ec:	e0800003 	add	r0, r0, r3
c20001f0:	e1500002 	cmp	r0, r2
c20001f4:	3afffffb 	bcc	c20001e8 <arch_icache_invalidate_range+0x30>
c20001f8:	f57ff04f 	dsb	sy
c20001fc:	e8bd1ff0 	pop	{r4, r5, r6, r7, r8, r9, sl, fp, ip}
c2000200:	e12fff1e 	bx	lr

c2000204 <arch_dcache_invalidate_all>:
c2000204:	e92d1fff 	push	{r0, r1, r2, r3, r4, r5, r6, r7, r8, r9, sl, fp, ip}
c2000208:	f57ff05f 	dmb	sy
c200020c:	ee300f30 	mrc	15, 1, r0, cr0, cr0, {1}
c2000210:	e2103407 	ands	r3, r0, #117440512	; 0x7000000
c2000214:	e1a03ba3 	lsr	r3, r3, #23
c2000218:	0a00001b 	beq	c200028c <arch_dcache_invalidate_all+0x88>
c200021c:	e3a0a000 	mov	sl, #0
c2000220:	e08a20aa 	add	r2, sl, sl, lsr #1
c2000224:	e1a01230 	lsr	r1, r0, r2
c2000228:	e2011007 	and	r1, r1, #7
c200022c:	e3510002 	cmp	r1, #2
c2000230:	ba000011 	blt	c200027c <arch_dcache_invalidate_all+0x78>
c2000234:	ee40af10 	mcr	15, 2, sl, cr0, cr0, {0}
c2000238:	f57ff06f 	isb	sy
c200023c:	ee301f10 	mrc	15, 1, r1, cr0, cr0, {0}
c2000240:	e2012007 	and	r2, r1, #7
c2000244:	e2822004 	add	r2, r2, #4
c2000248:	e59f4248 	ldr	r4, [pc, #584]	; c2000498 <arch_dcache_flush_range+0x4c>
c200024c:	e01441a1 	ands	r4, r4, r1, lsr #3
c2000250:	e16f5f14 	clz	r5, r4
c2000254:	e1a09004 	mov	r9, r4
c2000258:	e59f723c 	ldr	r7, [pc, #572]	; c200049c <arch_dcache_flush_range+0x50>
c200025c:	e01776a1 	ands	r7, r7, r1, lsr #13
c2000260:	e18ab519 	orr	fp, sl, r9, lsl r5
c2000264:	e18bb217 	orr	fp, fp, r7, lsl r2
c2000268:	ee07bf56 	mcr	15, 0, fp, cr7, cr6, {2}
c200026c:	e2577001 	subs	r7, r7, #1
c2000270:	aafffffa 	bge	c2000260 <arch_dcache_invalidate_all+0x5c>
c2000274:	e2599001 	subs	r9, r9, #1
c2000278:	aafffff6 	bge	c2000258 <arch_dcache_invalidate_all+0x54>
c200027c:	e28aa002 	add	sl, sl, #2
c2000280:	e153000a 	cmp	r3, sl
c2000284:	caffffe5 	bgt	c2000220 <arch_dcache_invalidate_all+0x1c>
c2000288:	f57ff04f 	dsb	sy
c200028c:	e8bd1fff 	pop	{r0, r1, r2, r3, r4, r5, r6, r7, r8, r9, sl, fp, ip}
c2000290:	e12fff1e 	bx	lr

c2000294 <arch_dcache_clean_all>:
c2000294:	e92d1fff 	push	{r0, r1, r2, r3, r4, r5, r6, r7, r8, r9, sl, fp, ip}
c2000298:	f57ff05f 	dmb	sy
c200029c:	ee300f30 	mrc	15, 1, r0, cr0, cr0, {1}
c20002a0:	e2103407 	ands	r3, r0, #117440512	; 0x7000000
c20002a4:	e1a03ba3 	lsr	r3, r3, #23
c20002a8:	0a00001b 	beq	c200031c <arch_dcache_clean_all+0x88>
c20002ac:	e3a0a000 	mov	sl, #0
c20002b0:	e08a20aa 	add	r2, sl, sl, lsr #1
c20002b4:	e1a01230 	lsr	r1, r0, r2
c20002b8:	e2011007 	and	r1, r1, #7
c20002bc:	e3510002 	cmp	r1, #2
c20002c0:	ba000011 	blt	c200030c <arch_dcache_clean_all+0x78>
c20002c4:	ee40af10 	mcr	15, 2, sl, cr0, cr0, {0}
c20002c8:	f57ff06f 	isb	sy
c20002cc:	ee301f10 	mrc	15, 1, r1, cr0, cr0, {0}
c20002d0:	e2012007 	and	r2, r1, #7
c20002d4:	e2822004 	add	r2, r2, #4
c20002d8:	e59f41b8 	ldr	r4, [pc, #440]	; c2000498 <arch_dcache_flush_range+0x4c>
c20002dc:	e01441a1 	ands	r4, r4, r1, lsr #3
c20002e0:	e16f5f14 	clz	r5, r4
c20002e4:	e1a09004 	mov	r9, r4
c20002e8:	e59f71ac 	ldr	r7, [pc, #428]	; c200049c <arch_dcache_flush_range+0x50>
c20002ec:	e01776a1 	ands	r7, r7, r1, lsr #13
c20002f0:	e18ab519 	orr	fp, sl, r9, lsl r5
c20002f4:	e18bb217 	orr	fp, fp, r7, lsl r2
c20002f8:	ee07bf5a 	mcr	15, 0, fp, cr7, cr10, {2}
c20002fc:	e2577001 	subs	r7, r7, #1
c2000300:	aafffffa 	bge	c20002f0 <arch_dcache_clean_all+0x5c>
c2000304:	e2599001 	subs	r9, r9, #1
c2000308:	aafffff6 	bge	c20002e8 <arch_dcache_clean_all+0x54>
c200030c:	e28aa002 	add	sl, sl, #2
c2000310:	e153000a 	cmp	r3, sl
c2000314:	caffffe5 	bgt	c20002b0 <arch_dcache_clean_all+0x1c>
c2000318:	f57ff04f 	dsb	sy
c200031c:	e8bd1fff 	pop	{r0, r1, r2, r3, r4, r5, r6, r7, r8, r9, sl, fp, ip}
c2000320:	e12fff1e 	bx	lr

c2000324 <arch_dcache_flush_all>:
c2000324:	e92d1fff 	push	{r0, r1, r2, r3, r4, r5, r6, r7, r8, r9, sl, fp, ip}
c2000328:	f57ff05f 	dmb	sy
c200032c:	ee300f30 	mrc	15, 1, r0, cr0, cr0, {1}
c2000330:	e2103407 	ands	r3, r0, #117440512	; 0x7000000
c2000334:	e1a03ba3 	lsr	r3, r3, #23
c2000338:	0a00001b 	beq	c20003ac <arch_dcache_flush_all+0x88>
c200033c:	e3a0a000 	mov	sl, #0
c2000340:	e08a20aa 	add	r2, sl, sl, lsr #1
c2000344:	e1a01230 	lsr	r1, r0, r2
c2000348:	e2011007 	and	r1, r1, #7
c200034c:	e3510002 	cmp	r1, #2
c2000350:	ba000011 	blt	c200039c <arch_dcache_flush_all+0x78>
c2000354:	ee40af10 	mcr	15, 2, sl, cr0, cr0, {0}
c2000358:	f57ff06f 	isb	sy
c200035c:	ee301f10 	mrc	15, 1, r1, cr0, cr0, {0}
c2000360:	e2012007 	and	r2, r1, #7
c2000364:	e2822004 	add	r2, r2, #4
c2000368:	e59f4128 	ldr	r4, [pc, #296]	; c2000498 <arch_dcache_flush_range+0x4c>
c200036c:	e01441a1 	ands	r4, r4, r1, lsr #3
c2000370:	e16f5f14 	clz	r5, r4
c2000374:	e1a09004 	mov	r9, r4
c2000378:	e59f711c 	ldr	r7, [pc, #284]	; c200049c <arch_dcache_flush_range+0x50>
c200037c:	e01776a1 	ands	r7, r7, r1, lsr #13
c2000380:	e18ab519 	orr	fp, sl, r9, lsl r5
c2000384:	e18bb217 	orr	fp, fp, r7, lsl r2
c2000388:	ee07bf5e 	mcr	15, 0, fp, cr7, cr14, {2}
c200038c:	e2577001 	subs	r7, r7, #1
c2000390:	aafffffa 	bge	c2000380 <arch_dcache_flush_all+0x5c>
c2000394:	e2599001 	subs	r9, r9, #1
c2000398:	aafffff6 	bge	c2000378 <arch_dcache_flush_all+0x54>
c200039c:	e28aa002 	add	sl, sl, #2
c20003a0:	e153000a 	cmp	r3, sl
c20003a4:	caffffe5 	bgt	c2000340 <arch_dcache_flush_all+0x1c>
c20003a8:	f57ff04f 	dsb	sy
c20003ac:	e8bd1fff 	pop	{r0, r1, r2, r3, r4, r5, r6, r7, r8, r9, sl, fp, ip}
c20003b0:	e12fff1e 	bx	lr

c20003b4 <arch_dcache_invalidate_range>:
c20003b4:	e92d1ff0 	push	{r4, r5, r6, r7, r8, r9, sl, fp, ip}
c20003b8:	e3a02000 	mov	r2, #0
c20003bc:	ee402f10 	mcr	15, 2, r2, cr0, cr0, {0}
c20003c0:	f57ff06f 	isb	sy
c20003c4:	ee302f10 	mrc	15, 1, r2, cr0, cr0, {0}
c20003c8:	e2022007 	and	r2, r2, #7
c20003cc:	e2822002 	add	r2, r2, #2
c20003d0:	e3a03001 	mov	r3, #1
c20003d4:	e1a03213 	lsl	r3, r3, r2
c20003d8:	e0802001 	add	r2, r0, r1
c20003dc:	e2434001 	sub	r4, r3, #1
c20003e0:	e1c00004 	bic	r0, r0, r4
c20003e4:	ee070f36 	mcr	15, 0, r0, cr7, cr6, {1}
c20003e8:	e0800003 	add	r0, r0, r3
c20003ec:	e1500002 	cmp	r0, r2
c20003f0:	3afffffb 	bcc	c20003e4 <arch_dcache_invalidate_range+0x30>
c20003f4:	f57ff04f 	dsb	sy
c20003f8:	e8bd1ff0 	pop	{r4, r5, r6, r7, r8, r9, sl, fp, ip}
c20003fc:	e12fff1e 	bx	lr

c2000400 <arch_dcache_clean_range>:
c2000400:	e92d1ff0 	push	{r4, r5, r6, r7, r8, r9, sl, fp, ip}
c2000404:	e3a02000 	mov	r2, #0
c2000408:	ee402f10 	mcr	15, 2, r2, cr0, cr0, {0}
c200040c:	f57ff06f 	isb	sy
c2000410:	ee302f10 	mrc	15, 1, r2, cr0, cr0, {0}
c2000414:	e2022007 	and	r2, r2, #7
c2000418:	e2822002 	add	r2, r2, #2
c200041c:	e3a03001 	mov	r3, #1
c2000420:	e1a03213 	lsl	r3, r3, r2
c2000424:	e0802001 	add	r2, r0, r1
c2000428:	e2434001 	sub	r4, r3, #1
c200042c:	e1c00004 	bic	r0, r0, r4
c2000430:	ee070f3a 	mcr	15, 0, r0, cr7, cr10, {1}
c2000434:	e0800003 	add	r0, r0, r3
c2000438:	e1500002 	cmp	r0, r2
c200043c:	3afffffb 	bcc	c2000430 <arch_dcache_clean_range+0x30>
c2000440:	f57ff04f 	dsb	sy
c2000444:	e8bd1ff0 	pop	{r4, r5, r6, r7, r8, r9, sl, fp, ip}
c2000448:	e12fff1e 	bx	lr

c200044c <arch_dcache_flush_range>:
c200044c:	e92d1ff0 	push	{r4, r5, r6, r7, r8, r9, sl, fp, ip}
c2000450:	e3a02000 	mov	r2, #0
c2000454:	ee402f10 	mcr	15, 2, r2, cr0, cr0, {0}
c2000458:	f57ff06f 	isb	sy
c200045c:	ee302f10 	mrc	15, 1, r2, cr0, cr0, {0}
c2000460:	e2022007 	and	r2, r2, #7
c2000464:	e2822002 	add	r2, r2, #2
c2000468:	e3a03001 	mov	r3, #1
c200046c:	e1a03213 	lsl	r3, r3, r2
c2000470:	e0802001 	add	r2, r0, r1
c2000474:	e2434001 	sub	r4, r3, #1
c2000478:	e1c00004 	bic	r0, r0, r4
c200047c:	ee070f3e 	mcr	15, 0, r0, cr7, cr14, {1}
c2000480:	e0800003 	add	r0, r0, r3
c2000484:	e1500002 	cmp	r0, r2
c2000488:	3afffffb 	bcc	c200047c <arch_dcache_flush_range+0x30>
c200048c:	f57ff04f 	dsb	sy
c2000490:	e8bd1ff0 	pop	{r4, r5, r6, r7, r8, r9, sl, fp, ip}
c2000494:	e12fff1e 	bx	lr
c2000498:	000003ff 	strdeq	r0, [r0], -pc	; <UNPREDICTABLE>
c200049c:	00007fff 	strdeq	r7, [r0], -pc	; <UNPREDICTABLE>

c20004a0 <do_prefetch_abort>:
c20004a0:	eafffffe 	b	c20004a0 <do_prefetch_abort>

c20004a4 <do_data_abort>:
c20004a4:	eafffffe 	b	c20004a4 <do_data_abort>

c20004a8 <do_irq>:
c20004a8:	e24ee004 	sub	lr, lr, #4
c20004ac:	e92d5fff 	push	{r0, r1, r2, r3, r4, r5, r6, r7, r8, r9, sl, fp, ip, lr}
c20004b0:	eb00010a 	bl	c20008e0 <sdrv_irq_handler>
c20004b4:	e8fd9fff 	ldm	sp!, {r0, r1, r2, r3, r4, r5, r6, r7, r8, r9, sl, fp, ip, pc}^

c20004b8 <arch_fpu_enable>:
c20004b8:	ee110f50 	mrc	15, 0, r0, cr1, cr0, {2}
c20004bc:	e380060f 	orr	r0, r0, #15728640	; 0xf00000
c20004c0:	ee010f50 	mcr	15, 0, r0, cr1, cr0, {2}
c20004c4:	eef80a10 	vmrs	r0, fpexc
c20004c8:	e3800101 	orr	r0, r0, #1073741824	; 0x40000000
c20004cc:	eee80a10 	vmsr	fpexc, r0
c20004d0:	eef80a10 	vmrs	r0, fpexc
c20004d4:	e3800102 	orr	r0, r0, #-2147483648	; 0x80000000
c20004d8:	eee80a10 	vmsr	fpexc, r0
c20004dc:	e12fff1e 	bx	lr

c20004e0 <arch_fpu_disable>:
c20004e0:	eef80a10 	vmrs	r0, fpexc
c20004e4:	e3c00102 	bic	r0, r0, #-2147483648	; 0x80000000
c20004e8:	eee80a10 	vmsr	fpexc, r0
c20004ec:	eef80a10 	vmrs	r0, fpexc
c20004f0:	e3c00101 	bic	r0, r0, #1073741824	; 0x40000000
c20004f4:	eee80a10 	vmsr	fpexc, r0
c20004f8:	e12fff1e 	bx	lr

c20004fc <MMU_AP_CLIENTD>:
c20004fc:	55555555 	ldrbpl	r5, [r5, #-1365]	; 0xfffffaab

c2000500 <arch_mmu_enable>:
c2000500:	ee110f10 	mrc	15, 0, r0, cr1, cr0, {0}
c2000504:	e3c00201 	bic	r0, r0, #268435456	; 0x10000000
c2000508:	ee010f10 	mcr	15, 0, r0, cr1, cr0, {0}
c200050c:	ee110f10 	mrc	15, 0, r0, cr1, cr0, {0}
c2000510:	e3c00202 	bic	r0, r0, #536870912	; 0x20000000
c2000514:	ee010f10 	mcr	15, 0, r0, cr1, cr0, {0}
c2000518:	e51f0024 	ldr	r0, [pc, #-36]	; c20004fc <MMU_AP_CLIENTD>
c200051c:	ee030f10 	mcr	15, 0, r0, cr3, cr0, {0}
c2000520:	f57ff04f 	dsb	sy
c2000524:	ee110f10 	mrc	15, 0, r0, cr1, cr0, {0}
c2000528:	e3800001 	orr	r0, r0, #1
c200052c:	ee010f10 	mcr	15, 0, r0, cr1, cr0, {0}
c2000530:	e12fff1e 	bx	lr

c2000534 <arch_mmu_disable>:
c2000534:	ee110f10 	mrc	15, 0, r0, cr1, cr0, {0}
c2000538:	e3c00001 	bic	r0, r0, #1
c200053c:	ee010f10 	mcr	15, 0, r0, cr1, cr0, {0}
c2000540:	e12fff1e 	bx	lr

c2000544 <arch_tlb_config_ttbr0>:
c2000544:	ee020f10 	mcr	15, 0, r0, cr2, cr0, {0}
c2000548:	e12fff1e 	bx	lr

c200054c <arch_tlb_config_ttbr1>:
c200054c:	ee020f30 	mcr	15, 0, r0, cr2, cr0, {1}
c2000550:	e12fff1e 	bx	lr

c2000554 <arch_tlb_config_ttbcr>:
c2000554:	ee020f50 	mcr	15, 0, r0, cr2, cr0, {2}
c2000558:	e12fff1e 	bx	lr

c200055c <arch_tlb_invalidate_all>:
c200055c:	ee080f17 	mcr	15, 0, r0, cr8, cr7, {0}
c2000560:	e12fff1e 	bx	lr

c2000564 <arch_tlb_invalidate_data_all>:
c2000564:	ee080f16 	mcr	15, 0, r0, cr8, cr6, {0}
c2000568:	e12fff1e 	bx	lr

c200056c <arch_tlb_invalidate_data_asid>:
c200056c:	ee080f56 	mcr	15, 0, r0, cr8, cr6, {2}
c2000570:	e12fff1e 	bx	lr

c2000574 <arch_tlb_invalidate_data_page>:
c2000574:	ee080f36 	mcr	15, 0, r0, cr8, cr6, {1}
c2000578:	e12fff1e 	bx	lr

c200057c <arch_tlb_invalidate_instruction_all>:
c200057c:	ee080f15 	mcr	15, 0, r0, cr8, cr5, {0}
c2000580:	e12fff1e 	bx	lr

c2000584 <arch_tlb_invalidate_instruction_asid>:
c2000584:	ee080f55 	mcr	15, 0, r0, cr8, cr5, {2}
c2000588:	e12fff1e 	bx	lr

c200058c <arch_tlb_invalidate_instruction_page>:
c200058c:	ee080f35 	mcr	15, 0, r0, cr8, cr5, {1}
c2000590:	e12fff1e 	bx	lr

c2000594 <arch_pmu_user_access_enable>:
c2000594:	ee190f1e 	mrc	15, 0, r0, cr9, cr14, {0}
c2000598:	e3800001 	orr	r0, r0, #1
c200059c:	ee090f1e 	mcr	15, 0, r0, cr9, cr14, {0}
c20005a0:	e12fff1e 	bx	lr

c20005a4 <arch_pmu_user_access_disable>:
c20005a4:	ee190f1e 	mrc	15, 0, r0, cr9, cr14, {0}
c20005a8:	e3c00001 	bic	r0, r0, #1
c20005ac:	ee090f1e 	mcr	15, 0, r0, cr9, cr14, {0}
c20005b0:	e12fff1e 	bx	lr

c20005b4 <arch_pmu_cycle_counter_enable>:
c20005b4:	ee190f3c 	mrc	15, 0, r0, cr9, cr12, {1}
c20005b8:	e3800102 	orr	r0, r0, #-2147483648	; 0x80000000
c20005bc:	ee090f3c 	mcr	15, 0, r0, cr9, cr12, {1}
c20005c0:	e12fff1e 	bx	lr

c20005c4 <arch_pmu_cycle_counter_disable>:
c20005c4:	ee190f5c 	mrc	15, 0, r0, cr9, cr12, {2}
c20005c8:	e3800102 	orr	r0, r0, #-2147483648	; 0x80000000
c20005cc:	ee090f5c 	mcr	15, 0, r0, cr9, cr12, {2}
c20005d0:	e12fff1e 	bx	lr

c20005d4 <arch_pmu_cycle_counter_init>:
c20005d4:	ee190f1c 	mrc	15, 0, r0, cr9, cr12, {0}
c20005d8:	e3800004 	orr	r0, r0, #4
c20005dc:	ee090f1c 	mcr	15, 0, r0, cr9, cr12, {0}
c20005e0:	ee190f1c 	mrc	15, 0, r0, cr9, cr12, {0}
c20005e4:	e3c00008 	bic	r0, r0, #8
c20005e8:	ee090f1c 	mcr	15, 0, r0, cr9, cr12, {0}
c20005ec:	ee190f1c 	mrc	15, 0, r0, cr9, cr12, {0}
c20005f0:	e3800001 	orr	r0, r0, #1
c20005f4:	ee090f1c 	mcr	15, 0, r0, cr9, cr12, {0}
c20005f8:	e12fff1e 	bx	lr

c20005fc <arch_pmu_cycle_counter_enable_irq>:
c20005fc:	ee190f3e 	mrc	15, 0, r0, cr9, cr14, {1}
c2000600:	e3800102 	orr	r0, r0, #-2147483648	; 0x80000000
c2000604:	ee090f3e 	mcr	15, 0, r0, cr9, cr14, {1}
c2000608:	e12fff1e 	bx	lr

c200060c <arch_pmu_cycle_counter_disable_irq>:
c200060c:	ee190f5e 	mrc	15, 0, r0, cr9, cr14, {2}
c2000610:	e3800102 	orr	r0, r0, #-2147483648	; 0x80000000
c2000614:	ee090f5e 	mcr	15, 0, r0, cr9, cr14, {2}
c2000618:	e12fff1e 	bx	lr

c200061c <arch_pmu_cycle_counter_set_counter>:
c200061c:	ee090f1d 	mcr	15, 0, r0, cr9, cr13, {0}
c2000620:	e12fff1e 	bx	lr

c2000624 <arch_pmu_cycle_counter_get_counter>:
c2000624:	ee190f1d 	mrc	15, 0, r0, cr9, cr13, {0}
c2000628:	e12fff1e 	bx	lr

c200062c <arch_pmu_event_counter_enable>:
c200062c:	e3a02001 	mov	r2, #1
c2000630:	ee191f3c 	mrc	15, 0, r1, cr9, cr12, {1}
c2000634:	e1811012 	orr	r1, r1, r2, lsl r0
c2000638:	ee091f3c 	mcr	15, 0, r1, cr9, cr12, {1}
c200063c:	e12fff1e 	bx	lr

c2000640 <arch_pmu_event_counter_disable>:
c2000640:	e3a02001 	mov	r2, #1
c2000644:	ee191f5c 	mrc	15, 0, r1, cr9, cr12, {2}
c2000648:	e1811012 	orr	r1, r1, r2, lsl r0
c200064c:	ee091f5c 	mcr	15, 0, r1, cr9, cr12, {2}
c2000650:	e12fff1e 	bx	lr

c2000654 <arch_pmu_event_counter_init>:
c2000654:	ee190f1c 	mrc	15, 0, r0, cr9, cr12, {0}
c2000658:	e3800002 	orr	r0, r0, #2
c200065c:	ee090f1c 	mcr	15, 0, r0, cr9, cr12, {0}
c2000660:	e12fff1e 	bx	lr

c2000664 <arch_pmu_event_counter_increment>:
c2000664:	e3a01001 	mov	r1, #1
c2000668:	e1a01011 	lsl	r1, r1, r0
c200066c:	ee091f9c 	mcr	15, 0, r1, cr9, cr12, {4}
c2000670:	e12fff1e 	bx	lr

c2000674 <arch_pmu_event_counter_select>:
c2000674:	ee090fbc 	mcr	15, 0, r0, cr9, cr12, {5}
c2000678:	ee091f3d 	mcr	15, 0, r1, cr9, cr13, {1}
c200067c:	e12fff1e 	bx	lr

c2000680 <arch_pmu_event_counter_read>:
c2000680:	ee090fbc 	mcr	15, 0, r0, cr9, cr12, {5}
c2000684:	ee190f5d 	mrc	15, 0, r0, cr9, cr13, {2}
c2000688:	e3a01000 	mov	r1, #0
c200068c:	ee091f5d 	mcr	15, 0, r1, cr9, cr13, {2}
c2000690:	e12fff1e 	bx	lr

c2000694 <arch_pmu_event_counter_enable_irq>:
c2000694:	e3a01001 	mov	r1, #1
c2000698:	e1a01011 	lsl	r1, r1, r0
c200069c:	ee190f3e 	mrc	15, 0, r0, cr9, cr14, {1}
c20006a0:	e1800001 	orr	r0, r0, r1
c20006a4:	ee090f3e 	mcr	15, 0, r0, cr9, cr14, {1}
c20006a8:	e12fff1e 	bx	lr

c20006ac <arch_pmu_event_counter_disable_irq>:
c20006ac:	e3a01001 	mov	r1, #1
c20006b0:	e1a01011 	lsl	r1, r1, r0
c20006b4:	ee190f5e 	mrc	15, 0, r0, cr9, cr14, {2}
c20006b8:	e1800001 	orr	r0, r0, r1
c20006bc:	ee090f5e 	mcr	15, 0, r0, cr9, cr14, {2}
c20006c0:	e12fff1e 	bx	lr

c20006c4 <arch_pmu_irq_handler>:
c20006c4:	e92d4000 	stmfd	sp!, {lr}
c20006c8:	ee190f7c 	mrc	15, 0, r0, cr9, cr12, {3}
c20006cc:	ee090f7c 	mcr	15, 0, r0, cr9, cr12, {3}
c20006d0:	eb000001 	bl	c20006dc <arch_pmu_irq_call_back>
c20006d4:	e8bd4000 	ldmfd	sp!, {lr}
c20006d8:	e12fff1e 	bx	lr

c20006dc <arch_pmu_irq_call_back>:
c20006dc:	e12fff1e 	bx	lr

c20006e0 <arch_alignment_check_enable>:
c20006e0:	ee110f10 	mrc	15, 0, r0, cr1, cr0, {0}
c20006e4:	e3800002 	orr	r0, r0, #2
c20006e8:	ee010f10 	mcr	15, 0, r0, cr1, cr0, {0}
c20006ec:	e12fff1e 	bx	lr

c20006f0 <arch_update_tick>:
c20006f0:	e3083b00 	movw	r3, #35584	; 0x8b00
c20006f4:	e34c3200 	movt	r3, #49664	; 0xc200
c20006f8:	e5932000 	ldr	r2, [r3]
c20006fc:	e5931004 	ldr	r1, [r3, #4]
c2000700:	e2922001 	adds	r2, r2, #1
c2000704:	e2a11000 	adc	r1, r1, #0
c2000708:	e5832000 	str	r2, [r3]
c200070c:	e5831004 	str	r1, [r3, #4]
c2000710:	e12fff1e 	bx	lr

c2000714 <_early_arch_init>:
c2000714:	e92d4010 	push	{r4, lr}
c2000718:	e3092000 	movw	r2, #36864	; 0x9000
c200071c:	e34c2200 	movt	r2, #49664	; 0xc200
c2000720:	e3080b00 	movw	r0, #35584	; 0x8b00
c2000724:	e34c0200 	movt	r0, #49664	; 0xc200
c2000728:	e0422000 	sub	r2, r2, r0
c200072c:	e1a02142 	asr	r2, r2, #2
c2000730:	e3a01000 	mov	r1, #0
c2000734:	fa000228 	blx	c2000fdc <memset>
c2000738:	eb000217 	bl	c2000f9c <board_early_init>
c200073c:	ebffff86 	bl	c200055c <arch_tlb_invalidate_all>
c2000740:	ebffff6e 	bl	c2000500 <arch_mmu_enable>
c2000744:	ebfffeae 	bl	c2000204 <arch_dcache_invalidate_all>
c2000748:	ebfffe8f 	bl	c200018c <arch_dcache_enable>
c200074c:	ebfffe96 	bl	c20001ac <arch_icache_invalidate_all>
c2000750:	ebfffe85 	bl	c200016c <arch_icache_enable>
c2000754:	ebfffe6e 	bl	c2000114 <arch_branch_predictor_invalidate_all>
c2000758:	ebfffe65 	bl	c20000f4 <arch_branch_predictor_enable>
c200075c:	ebffffdf 	bl	c20006e0 <arch_alignment_check_enable>
c2000760:	f1080100 	cpsie	a
c2000764:	eb000010 	bl	c20007ac <arch_irq_init>
c2000768:	ebffff89 	bl	c2000594 <arch_pmu_user_access_enable>
c200076c:	ebffff98 	bl	c20005d4 <arch_pmu_cycle_counter_init>
c2000770:	ebffff8f 	bl	c20005b4 <arch_pmu_cycle_counter_enable>
c2000774:	ebffff4f 	bl	c20004b8 <arch_fpu_enable>
c2000778:	eb00020a 	bl	c2000fa8 <board_init>
c200077c:	e8bd8010 	pop	{r4, pc}

c2000780 <arch_default_irq_handler>:
c2000780:	e12fff1e 	bx	lr

c2000784 <arch_irq_handler>:
c2000784:	e92d4010 	push	{r4, lr}
c2000788:	e1a04000 	mov	r4, r0
c200078c:	eb000049 	bl	c20008b8 <sdrv_irq_clear_status>
c2000790:	e3083b08 	movw	r3, #35592	; 0x8b08
c2000794:	e34c3200 	movt	r3, #49664	; 0xc200
c2000798:	e7932184 	ldr	r2, [r3, r4, lsl #3]
c200079c:	e0833184 	add	r3, r3, r4, lsl #3
c20007a0:	e5930004 	ldr	r0, [r3, #4]
c20007a4:	e12fff32 	blx	r2
c20007a8:	e8bd8010 	pop	{r4, pc}

c20007ac <arch_irq_init>:
c20007ac:	e92d4010 	push	{r4, lr}
c20007b0:	e3a03000 	mov	r3, #0
c20007b4:	ea000008 	b	c20007dc <arch_irq_init+0x30>
c20007b8:	e3082b08 	movw	r2, #35592	; 0x8b08
c20007bc:	e34c2200 	movt	r2, #49664	; 0xc200
c20007c0:	e0821183 	add	r1, r2, r3, lsl #3
c20007c4:	e3a00000 	mov	r0, #0
c20007c8:	e5810004 	str	r0, [r1, #4]
c20007cc:	e3001780 	movw	r1, #1920	; 0x780
c20007d0:	e34c1200 	movt	r1, #49664	; 0xc200
c20007d4:	e7821183 	str	r1, [r2, r3, lsl #3]
c20007d8:	e2833001 	add	r3, r3, #1
c20007dc:	e353007f 	cmp	r3, #127	; 0x7f
c20007e0:	9afffff4 	bls	c20007b8 <arch_irq_init+0xc>
c20007e4:	eb000011 	bl	c2000830 <sdrv_irq_init>
c20007e8:	f1080080 	cpsie	i
c20007ec:	e8bd8010 	pop	{r4, pc}

c20007f0 <arch_irq_register>:
c20007f0:	e92d4070 	push	{r4, r5, r6, lr}
c20007f4:	e2535000 	subs	r5, r3, #0
c20007f8:	08bd8070 	popeq	{r4, r5, r6, pc}
c20007fc:	e1a04000 	mov	r4, r0
c2000800:	e1a06002 	mov	r6, r2
c2000804:	e351000f 	cmp	r1, #15
c2000808:	88bd8070 	pophi	{r4, r5, r6, pc}
c200080c:	eb000015 	bl	c2000868 <sdrv_irq_set_priority>
c2000810:	e1a00004 	mov	r0, r4
c2000814:	eb00001d 	bl	c2000890 <sdrv_irq_enable>
c2000818:	e3083b08 	movw	r3, #35592	; 0x8b08
c200081c:	e34c3200 	movt	r3, #49664	; 0xc200
c2000820:	e0832184 	add	r2, r3, r4, lsl #3
c2000824:	e5826004 	str	r6, [r2, #4]
c2000828:	e7835184 	str	r5, [r3, r4, lsl #3]
c200082c:	e8bd8070 	pop	{r4, r5, r6, pc}

c2000830 <sdrv_irq_init>:
c2000830:	e3a03000 	mov	r3, #0
c2000834:	e3443820 	movt	r3, #18464	; 0x4820
c2000838:	e5932010 	ldr	r2, [r3, #16]
c200083c:	e3822002 	orr	r2, r2, #2
c2000840:	e5832010 	str	r2, [r3, #16]
c2000844:	e3a03000 	mov	r3, #0
c2000848:	ea000003 	b	c200085c <sdrv_irq_init+0x2c>
c200084c:	e3a03000 	mov	r3, #0
c2000850:	e3443820 	movt	r3, #18464	; 0x4820
c2000854:	e5933014 	ldr	r3, [r3, #20]
c2000858:	e2033001 	and	r3, r3, #1
c200085c:	e3530000 	cmp	r3, #0
c2000860:	0afffff9 	beq	c200084c <sdrv_irq_init+0x1c>
c2000864:	e12fff1e 	bx	lr

c2000868 <sdrv_irq_set_priority>:
c2000868:	e350007f 	cmp	r0, #127	; 0x7f
c200086c:	812fff1e 	bxhi	lr
c2000870:	e3a03040 	mov	r3, #64	; 0x40
c2000874:	e3413208 	movt	r3, #4616	; 0x1208
c2000878:	e0803003 	add	r3, r0, r3
c200087c:	e1a03103 	lsl	r3, r3, #2
c2000880:	e1a01101 	lsl	r1, r1, #2
c2000884:	e6ef1071 	uxtb	r1, r1
c2000888:	e5831000 	str	r1, [r3]
c200088c:	e12fff1e 	bx	lr

c2000890 <sdrv_irq_enable>:
c2000890:	e350007f 	cmp	r0, #127	; 0x7f
c2000894:	812fff1e 	bxhi	lr
c2000898:	e200201f 	and	r2, r0, #31
c200089c:	e3a03001 	mov	r3, #1
c20008a0:	e1a03213 	lsl	r3, r3, r2
c20008a4:	e3c0001f 	bic	r0, r0, #31
c20008a8:	e3a02088 	mov	r2, #136	; 0x88
c20008ac:	e3442820 	movt	r2, #18464	; 0x4820
c20008b0:	e7803002 	str	r3, [r0, r2]
c20008b4:	e12fff1e 	bx	lr

c20008b8 <sdrv_irq_clear_status>:
c20008b8:	e350007f 	cmp	r0, #127	; 0x7f
c20008bc:	812fff1e 	bxhi	lr
c20008c0:	e200201f 	and	r2, r0, #31
c20008c4:	e3a03001 	mov	r3, #1
c20008c8:	e1a03213 	lsl	r3, r3, r2
c20008cc:	e3c0001f 	bic	r0, r0, #31
c20008d0:	e3a02094 	mov	r2, #148	; 0x94
c20008d4:	e3442820 	movt	r2, #18464	; 0x4820
c20008d8:	e7803002 	str	r3, [r0, r2]
c20008dc:	e12fff1e 	bx	lr

c20008e0 <sdrv_irq_handler>:
c20008e0:	e14fb000 	mrs	fp, SPSR
c20008e4:	e59f0054 	ldr	r0, [pc, #84]	; c2000940 <sdrv_irq_handler+0x60>
c20008e8:	e590c000 	ldr	ip, [r0]
c20008ec:	e59f1050 	ldr	r1, [pc, #80]	; c2000944 <sdrv_irq_handler+0x64>
c20008f0:	e5912000 	ldr	r2, [r1]
c20008f4:	e202203f 	and	r2, r2, #63	; 0x3f
c20008f8:	e5802000 	str	r2, [r0]
c20008fc:	e59f1044 	ldr	r1, [pc, #68]	; c2000948 <sdrv_irq_handler+0x68>
c2000900:	e5910000 	ldr	r0, [r1]
c2000904:	e200007f 	and	r0, r0, #127	; 0x7f
c2000908:	e59f103c 	ldr	r1, [pc, #60]	; c200094c <sdrv_irq_handler+0x6c>
c200090c:	e5912000 	ldr	r2, [r1]
c2000910:	e3822001 	orr	r2, r2, #1
c2000914:	e5812000 	str	r2, [r1]
c2000918:	e92d5800 	push	{fp, ip, lr}
c200091c:	f57ff04f 	dsb	sy
c2000920:	f1080080 	cpsie	i
c2000924:	ebffff96 	bl	c2000784 <arch_irq_handler>
c2000928:	f10c0080 	cpsid	i
c200092c:	e8bd5800 	pop	{fp, ip, lr}
c2000930:	e59f0008 	ldr	r0, [pc, #8]	; c2000940 <sdrv_irq_handler+0x60>
c2000934:	e580c000 	str	ip, [r0]
c2000938:	e16ff00b 	msr	SPSR_fsxc, fp
c200093c:	e12fff1e 	bx	lr
c2000940:	48200068 	stmdami	r0!, {r3, r5, r6}
c2000944:	48200060 	stmdami	r0!, {r5, r6}
c2000948:	48200040 	stmdami	r0!, {r6}
c200094c:	48200048 	stmdami	r0!, {r3, r6}

c2000950 <sdrv_uart_find_rate>:
c2000950:	e92d4070 	push	{r4, r5, r6, lr}
c2000954:	e1a04000 	mov	r4, r0
c2000958:	e3520000 	cmp	r2, #0
c200095c:	13510000 	cmpne	r1, #0
c2000960:	03a00001 	moveq	r0, #1
c2000964:	13a00000 	movne	r0, #0
c2000968:	0a000014 	beq	c20009c0 <sdrv_uart_find_rate+0x70>
c200096c:	e1a06001 	mov	r6, r1
c2000970:	e1a05002 	mov	r5, r2
c2000974:	e3a03000 	mov	r3, #0
c2000978:	e353000b 	cmp	r3, #11
c200097c:	88bd8070 	pophi	{r4, r5, r6, pc}
c2000980:	e307ec00 	movw	lr, #31744	; 0x7c00
c2000984:	e34ce200 	movt	lr, #49664	; 0xc200
c2000988:	e3a0c00c 	mov	ip, #12
c200098c:	e00c039c 	mul	ip, ip, r3
c2000990:	e79ec00c 	ldr	ip, [lr, ip]
c2000994:	e15c0004 	cmp	ip, r4
c2000998:	12833001 	addne	r3, r3, #1
c200099c:	1afffff5 	bne	c2000978 <sdrv_uart_find_rate+0x28>
c20009a0:	e3a0100c 	mov	r1, #12
c20009a4:	e023e391 	mla	r3, r1, r3, lr
c20009a8:	e5932004 	ldr	r2, [r3, #4]
c20009ac:	e5862000 	str	r2, [r6]
c20009b0:	e5933008 	ldr	r3, [r3, #8]
c20009b4:	e5853000 	str	r3, [r5]
c20009b8:	e3a00001 	mov	r0, #1
c20009bc:	e8bd8070 	pop	{r4, r5, r6, pc}
c20009c0:	e3a00000 	mov	r0, #0
c20009c4:	e8bd8070 	pop	{r4, r5, r6, pc}

c20009c8 <sdrv_uart_reset>:
c20009c8:	e5903054 	ldr	r3, [r0, #84]	; 0x54
c20009cc:	e3c33002 	bic	r3, r3, #2
c20009d0:	e5803054 	str	r3, [r0, #84]	; 0x54
c20009d4:	e3a03000 	mov	r3, #0
c20009d8:	ea000000 	b	c20009e0 <sdrv_uart_reset+0x18>
c20009dc:	e5903058 	ldr	r3, [r0, #88]	; 0x58
c20009e0:	e3130001 	tst	r3, #1
c20009e4:	0afffffc 	beq	c20009dc <sdrv_uart_reset+0x14>
c20009e8:	e12fff1e 	bx	lr

c20009ec <sdrv_uart_configure_fifo_and_dma>:
c20009ec:	e92d4010 	push	{r4, lr}
c20009f0:	e590c00c 	ldr	ip, [r0, #12]
c20009f4:	e3a030bf 	mov	r3, #191	; 0xbf
c20009f8:	e580300c 	str	r3, [r0, #12]
c20009fc:	e5903008 	ldr	r3, [r0, #8]
c2000a00:	e7e04253 	ubfx	r4, r3, #4, #1
c2000a04:	e3833010 	orr	r3, r3, #16
c2000a08:	e5803008 	str	r3, [r0, #8]
c2000a0c:	e3a03080 	mov	r3, #128	; 0x80
c2000a10:	e580300c 	str	r3, [r0, #12]
c2000a14:	e5903010 	ldr	r3, [r0, #16]
c2000a18:	e7e0e353 	ubfx	lr, r3, #6, #1
c2000a1c:	e3833040 	orr	r3, r3, #64	; 0x40
c2000a20:	e5803010 	str	r3, [r0, #16]
c2000a24:	e5d13001 	ldrb	r3, [r1, #1]
c2000a28:	e3530000 	cmp	r3, #0
c2000a2c:	1a00001f 	bne	c2000ab0 <sdrv_uart_configure_fifo_and_dma+0xc4>
c2000a30:	e3a02006 	mov	r2, #6
c2000a34:	e5d13000 	ldrb	r3, [r1]
c2000a38:	e3530000 	cmp	r3, #0
c2000a3c:	13822008 	orrne	r2, r2, #8
c2000a40:	e5d13008 	ldrb	r3, [r1, #8]
c2000a44:	e1a03303 	lsl	r3, r3, #6
c2000a48:	e6ef3073 	uxtb	r3, r3
c2000a4c:	e1832002 	orr	r2, r3, r2
c2000a50:	e5d13009 	ldrb	r3, [r1, #9]
c2000a54:	e1a03203 	lsl	r3, r3, #4
c2000a58:	e2033030 	and	r3, r3, #48	; 0x30
c2000a5c:	e1833002 	orr	r3, r3, r2
c2000a60:	e5803008 	str	r3, [r0, #8]
c2000a64:	e3a030bf 	mov	r3, #191	; 0xbf
c2000a68:	e580300c 	str	r3, [r0, #12]
c2000a6c:	e3a03000 	mov	r3, #0
c2000a70:	e580301c 	str	r3, [r0, #28]
c2000a74:	e5803040 	str	r3, [r0, #64]	; 0x40
c2000a78:	e5903008 	ldr	r3, [r0, #8]
c2000a7c:	e3540000 	cmp	r4, #0
c2000a80:	0a00000c 	beq	c2000ab8 <sdrv_uart_configure_fifo_and_dma+0xcc>
c2000a84:	e3833010 	orr	r3, r3, #16
c2000a88:	e5803008 	str	r3, [r0, #8]
c2000a8c:	e3a03080 	mov	r3, #128	; 0x80
c2000a90:	e580300c 	str	r3, [r0, #12]
c2000a94:	e5903010 	ldr	r3, [r0, #16]
c2000a98:	e35e0000 	cmp	lr, #0
c2000a9c:	0a000007 	beq	c2000ac0 <sdrv_uart_configure_fifo_and_dma+0xd4>
c2000aa0:	e3833040 	orr	r3, r3, #64	; 0x40
c2000aa4:	e5803010 	str	r3, [r0, #16]
c2000aa8:	e580c00c 	str	ip, [r0, #12]
c2000aac:	e8bd8010 	pop	{r4, pc}
c2000ab0:	e3a02007 	mov	r2, #7
c2000ab4:	eaffffde 	b	c2000a34 <sdrv_uart_configure_fifo_and_dma+0x48>
c2000ab8:	e3c33010 	bic	r3, r3, #16
c2000abc:	eafffff1 	b	c2000a88 <sdrv_uart_configure_fifo_and_dma+0x9c>
c2000ac0:	e3c33040 	bic	r3, r3, #64	; 0x40
c2000ac4:	eafffff6 	b	c2000aa4 <sdrv_uart_configure_fifo_and_dma+0xb8>

c2000ac8 <sdrv_uart_configure_protocol>:
c2000ac8:	e92d4030 	push	{r4, r5, lr}
c2000acc:	e24dd00c 	sub	sp, sp, #12
c2000ad0:	e1a04000 	mov	r4, r0
c2000ad4:	e1a05001 	mov	r5, r1
c2000ad8:	e3a03000 	mov	r3, #0
c2000adc:	e58d3004 	str	r3, [sp, #4]
c2000ae0:	e58d3000 	str	r3, [sp]
c2000ae4:	e1a0200d 	mov	r2, sp
c2000ae8:	e28d1004 	add	r1, sp, #4
c2000aec:	e5950004 	ldr	r0, [r5, #4]
c2000af0:	ebffff96 	bl	c2000950 <sdrv_uart_find_rate>
c2000af4:	e3500000 	cmp	r0, #0
c2000af8:	0a000026 	beq	c2000b98 <sdrv_uart_configure_protocol+0xd0>
c2000afc:	e3a03007 	mov	r3, #7
c2000b00:	e5843020 	str	r3, [r4, #32]
c2000b04:	e3a020bf 	mov	r2, #191	; 0xbf
c2000b08:	e584200c 	str	r2, [r4, #12]
c2000b0c:	e5941008 	ldr	r1, [r4, #8]
c2000b10:	e3813010 	orr	r3, r1, #16
c2000b14:	e5843008 	str	r3, [r4, #8]
c2000b18:	e3a03000 	mov	r3, #0
c2000b1c:	e584300c 	str	r3, [r4, #12]
c2000b20:	e5843004 	str	r3, [r4, #4]
c2000b24:	e584200c 	str	r2, [r4, #12]
c2000b28:	e59d0004 	ldr	r0, [sp, #4]
c2000b2c:	e5840004 	str	r0, [r4, #4]
c2000b30:	e59d0000 	ldr	r0, [sp]
c2000b34:	e5840000 	str	r0, [r4]
c2000b38:	e584300c 	str	r3, [r4, #12]
c2000b3c:	e5843004 	str	r3, [r4, #4]
c2000b40:	e584200c 	str	r2, [r4, #12]
c2000b44:	e5943008 	ldr	r3, [r4, #8]
c2000b48:	e3110010 	tst	r1, #16
c2000b4c:	0a000013 	beq	c2000ba0 <sdrv_uart_configure_protocol+0xd8>
c2000b50:	e3833010 	orr	r3, r3, #16
c2000b54:	e5843008 	str	r3, [r4, #8]
c2000b58:	e5d5100c 	ldrb	r1, [r5, #12]
c2000b5c:	e2013003 	and	r3, r1, #3
c2000b60:	e5d5200b 	ldrb	r2, [r5, #11]
c2000b64:	e3520001 	cmp	r2, #1
c2000b68:	0a00000e 	beq	c2000ba8 <sdrv_uart_configure_protocol+0xe0>
c2000b6c:	e3520002 	cmp	r2, #2
c2000b70:	0a000010 	beq	c2000bb8 <sdrv_uart_configure_protocol+0xf0>
c2000b74:	e3c33004 	bic	r3, r3, #4
c2000b78:	e5d5200a 	ldrb	r2, [r5, #10]
c2000b7c:	e3520000 	cmp	r2, #0
c2000b80:	1a000010 	bne	c2000bc8 <sdrv_uart_configure_protocol+0x100>
c2000b84:	e3c33008 	bic	r3, r3, #8
c2000b88:	e3c330c0 	bic	r3, r3, #192	; 0xc0
c2000b8c:	e584300c 	str	r3, [r4, #12]
c2000b90:	e3a03000 	mov	r3, #0
c2000b94:	e5843020 	str	r3, [r4, #32]
c2000b98:	e28dd00c 	add	sp, sp, #12
c2000b9c:	e8bd8030 	pop	{r4, r5, pc}
c2000ba0:	e3c33010 	bic	r3, r3, #16
c2000ba4:	eaffffea 	b	c2000b54 <sdrv_uart_configure_protocol+0x8c>
c2000ba8:	e3510000 	cmp	r1, #0
c2000bac:	1affffee 	bne	c2000b6c <sdrv_uart_configure_protocol+0xa4>
c2000bb0:	e3833004 	orr	r3, r3, #4
c2000bb4:	eaffffef 	b	c2000b78 <sdrv_uart_configure_protocol+0xb0>
c2000bb8:	e3510000 	cmp	r1, #0
c2000bbc:	0affffec 	beq	c2000b74 <sdrv_uart_configure_protocol+0xac>
c2000bc0:	e3833004 	orr	r3, r3, #4
c2000bc4:	eaffffeb 	b	c2000b78 <sdrv_uart_configure_protocol+0xb0>
c2000bc8:	e3520001 	cmp	r2, #1
c2000bcc:	13833018 	orrne	r3, r3, #24
c2000bd0:	1affffec 	bne	c2000b88 <sdrv_uart_configure_protocol+0xc0>
c2000bd4:	e3833008 	orr	r3, r3, #8
c2000bd8:	eaffffea 	b	c2000b88 <sdrv_uart_configure_protocol+0xc0>

c2000bdc <sdrv_uart_init>:
c2000bdc:	e92d4070 	push	{r4, r5, r6, lr}
c2000be0:	e2514000 	subs	r4, r1, #0
c2000be4:	08bd8070 	popeq	{r4, r5, r6, pc}
c2000be8:	e1a05000 	mov	r5, r0
c2000bec:	ebffff75 	bl	c20009c8 <sdrv_uart_reset>
c2000bf0:	e1a01004 	mov	r1, r4
c2000bf4:	e1a00005 	mov	r0, r5
c2000bf8:	ebffff7b 	bl	c20009ec <sdrv_uart_configure_fifo_and_dma>
c2000bfc:	e1a01004 	mov	r1, r4
c2000c00:	e1a00005 	mov	r0, r5
c2000c04:	ebffffaf 	bl	c2000ac8 <sdrv_uart_configure_protocol>
c2000c08:	e8bd8070 	pop	{r4, r5, r6, pc}

c2000c0c <sdrv_uart_send>:
c2000c0c:	e5903014 	ldr	r3, [r0, #20]
c2000c10:	e3130020 	tst	r3, #32
c2000c14:	0afffffc 	beq	c2000c0c <sdrv_uart_send>
c2000c18:	e5801000 	str	r1, [r0]
c2000c1c:	e12fff1e 	bx	lr

c2000c20 <sdrv_dtimer_wait_for_writel>:
c2000c20:	e5903054 	ldr	r3, [r0, #84]	; 0x54
c2000c24:	e3130004 	tst	r3, #4
c2000c28:	012fff1e 	bxeq	lr
c2000c2c:	e3a03001 	mov	r3, #1
c2000c30:	ea000002 	b	c2000c40 <sdrv_dtimer_wait_for_writel+0x20>
c2000c34:	e5903048 	ldr	r3, [r0, #72]	; 0x48
c2000c38:	e1a03133 	lsr	r3, r3, r1
c2000c3c:	e2033001 	and	r3, r3, #1
c2000c40:	e3530001 	cmp	r3, #1
c2000c44:	0afffffa 	beq	c2000c34 <sdrv_dtimer_wait_for_writel+0x14>
c2000c48:	e12fff1e 	bx	lr

c2000c4c <sdrv_dtimer_soft_reset>:
c2000c4c:	e2802010 	add	r2, r0, #16
c2000c50:	e5903010 	ldr	r3, [r0, #16]
c2000c54:	e3833001 	orr	r3, r3, #1
c2000c58:	e5803010 	str	r3, [r0, #16]
c2000c5c:	e3a03001 	mov	r3, #1
c2000c60:	ea000001 	b	c2000c6c <sdrv_dtimer_soft_reset+0x20>
c2000c64:	e5923000 	ldr	r3, [r2]
c2000c68:	e2033001 	and	r3, r3, #1
c2000c6c:	e3530001 	cmp	r3, #1
c2000c70:	0afffffb 	beq	c2000c64 <sdrv_dtimer_soft_reset+0x18>
c2000c74:	e12fff1e 	bx	lr

c2000c78 <sdrv_dtimer_enable>:
c2000c78:	e92d4010 	push	{r4, lr}
c2000c7c:	e1a04000 	mov	r4, r0
c2000c80:	e3a01000 	mov	r1, #0
c2000c84:	ebffffe5 	bl	c2000c20 <sdrv_dtimer_wait_for_writel>
c2000c88:	e5943038 	ldr	r3, [r4, #56]	; 0x38
c2000c8c:	e3833001 	orr	r3, r3, #1
c2000c90:	e5843038 	str	r3, [r4, #56]	; 0x38
c2000c94:	e8bd8010 	pop	{r4, pc}

c2000c98 <sdrv_dtimer_mode_configure>:
c2000c98:	e92d4070 	push	{r4, r5, r6, lr}
c2000c9c:	e1a04000 	mov	r4, r0
c2000ca0:	e1a05001 	mov	r5, r1
c2000ca4:	e3a01000 	mov	r1, #0
c2000ca8:	ebffffdc 	bl	c2000c20 <sdrv_dtimer_wait_for_writel>
c2000cac:	e5943038 	ldr	r3, [r4, #56]	; 0x38
c2000cb0:	e3c33042 	bic	r3, r3, #66	; 0x42
c2000cb4:	e5843038 	str	r3, [r4, #56]	; 0x38
c2000cb8:	e3a01000 	mov	r1, #0
c2000cbc:	e1a00004 	mov	r0, r4
c2000cc0:	ebffffd6 	bl	c2000c20 <sdrv_dtimer_wait_for_writel>
c2000cc4:	e5943038 	ldr	r3, [r4, #56]	; 0x38
c2000cc8:	e3550000 	cmp	r5, #0
c2000ccc:	1a000002 	bne	c2000cdc <sdrv_dtimer_mode_configure+0x44>
c2000cd0:	e3833002 	orr	r3, r3, #2
c2000cd4:	e5843038 	str	r3, [r4, #56]	; 0x38
c2000cd8:	e8bd8070 	pop	{r4, r5, r6, pc}
c2000cdc:	e3550001 	cmp	r5, #1
c2000ce0:	13833042 	orrne	r3, r3, #66	; 0x42
c2000ce4:	1afffffa 	bne	c2000cd4 <sdrv_dtimer_mode_configure+0x3c>
c2000ce8:	e3833040 	orr	r3, r3, #64	; 0x40
c2000cec:	eafffff8 	b	c2000cd4 <sdrv_dtimer_mode_configure+0x3c>

c2000cf0 <sdrv_dtimer_counter_set>:
c2000cf0:	e92d4070 	push	{r4, r5, r6, lr}
c2000cf4:	e1a04000 	mov	r4, r0
c2000cf8:	e1a05001 	mov	r5, r1
c2000cfc:	e3a01001 	mov	r1, #1
c2000d00:	ebffffc6 	bl	c2000c20 <sdrv_dtimer_wait_for_writel>
c2000d04:	e584503c 	str	r5, [r4, #60]	; 0x3c
c2000d08:	e8bd8070 	pop	{r4, r5, r6, pc}

c2000d0c <sdrv_dtimer_reload_set>:
c2000d0c:	e92d4070 	push	{r4, r5, r6, lr}
c2000d10:	e1a04000 	mov	r4, r0
c2000d14:	e1a05001 	mov	r5, r1
c2000d18:	e3a01002 	mov	r1, #2
c2000d1c:	ebffffbf 	bl	c2000c20 <sdrv_dtimer_wait_for_writel>
c2000d20:	e5845040 	str	r5, [r4, #64]	; 0x40
c2000d24:	e8bd8070 	pop	{r4, r5, r6, pc}

c2000d28 <sdrv_dtimer_int_status_clear>:
c2000d28:	e5903028 	ldr	r3, [r0, #40]	; 0x28
c2000d2c:	e3a02001 	mov	r2, #1
c2000d30:	e1c33112 	bic	r3, r3, r2, lsl r1
c2000d34:	e1833112 	orr	r3, r3, r2, lsl r1
c2000d38:	e5803028 	str	r3, [r0, #40]	; 0x28
c2000d3c:	e5903028 	ldr	r3, [r0, #40]	; 0x28
c2000d40:	e12fff1e 	bx	lr

c2000d44 <sdrv_dtimer_int_enable>:
c2000d44:	e590302c 	ldr	r3, [r0, #44]	; 0x2c
c2000d48:	e3a02001 	mov	r2, #1
c2000d4c:	e1c33112 	bic	r3, r3, r2, lsl r1
c2000d50:	e1833112 	orr	r3, r3, r2, lsl r1
c2000d54:	e580302c 	str	r3, [r0, #44]	; 0x2c
c2000d58:	e12fff1e 	bx	lr

c2000d5c <early_mmu_config>:
c2000d5c:	e92d4010 	push	{r4, lr}
c2000d60:	e3a00102 	mov	r0, #-2147483648	; 0x80000000
c2000d64:	ebfffdf6 	bl	c2000544 <arch_tlb_config_ttbr0>
c2000d68:	e3a00901 	mov	r0, #16384	; 0x4000
c2000d6c:	e3480000 	movt	r0, #32768	; 0x8000
c2000d70:	ebfffdf5 	bl	c200054c <arch_tlb_config_ttbr1>
c2000d74:	e3a00001 	mov	r0, #1
c2000d78:	ebfffdf5 	bl	c2000554 <arch_tlb_config_ttbcr>
c2000d7c:	e3a01000 	mov	r1, #0
c2000d80:	e1a02001 	mov	r2, r1
c2000d84:	ea00000d 	b	c2000dc0 <early_mmu_config+0x64>
c2000d88:	e3520000 	cmp	r2, #0
c2000d8c:	ba000019 	blt	c2000df8 <early_mmu_config+0x9c>
c2000d90:	e372021e 	cmn	r2, #-536870911	; 0xe0000001
c2000d94:	8a000010 	bhi	c2000ddc <early_mmu_config+0x80>
c2000d98:	e3000c12 	movw	r0, #3090	; 0xc12
c2000d9c:	e3400009 	movt	r0, #9
c2000da0:	e1a03a22 	lsr	r3, r2, #20
c2000da4:	e1a03a03 	lsl	r3, r3, #20
c2000da8:	e1a0c101 	lsl	ip, r1, #2
c2000dac:	e28cc102 	add	ip, ip, #-2147483648	; 0x80000000
c2000db0:	e1833000 	orr	r3, r3, r0
c2000db4:	e58c3000 	str	r3, [ip]
c2000db8:	e2822601 	add	r2, r2, #1048576	; 0x100000
c2000dbc:	e2811001 	add	r1, r1, #1
c2000dc0:	e3510a01 	cmp	r1, #4096	; 0x1000
c2000dc4:	3affffef 	bcc	c2000d88 <early_mmu_config+0x2c>
c2000dc8:	e3a02000 	mov	r2, #0
c2000dcc:	e3a0c902 	mov	ip, #32768	; 0x8000
c2000dd0:	e7dfc81c 	bfi	ip, ip, #16, #16
c2000dd4:	e1a01002 	mov	r1, r2
c2000dd8:	ea000015 	b	c2000e34 <early_mmu_config+0xd8>
c2000ddc:	e372036f 	cmn	r2, #-1140850687	; 0xbc000001
c2000de0:	93a00012 	movls	r0, #18
c2000de4:	93400009 	movtls	r0, #9
c2000de8:	9affffec 	bls	c2000da0 <early_mmu_config+0x44>
c2000dec:	e3000c16 	movw	r0, #3094	; 0xc16
c2000df0:	e3400009 	movt	r0, #9
c2000df4:	eaffffe9 	b	c2000da0 <early_mmu_config+0x44>
c2000df8:	e1a03101 	lsl	r3, r1, #2
c2000dfc:	e2833102 	add	r3, r3, #-2147483648	; 0x80000000
c2000e00:	e3a00000 	mov	r0, #0
c2000e04:	e5830000 	str	r0, [r3]
c2000e08:	eaffffea 	b	c2000db8 <early_mmu_config+0x5c>
c2000e0c:	e2813101 	add	r3, r1, #1073741824	; 0x40000000
c2000e10:	e373021e 	cmn	r3, #-536870911	; 0xe0000001
c2000e14:	9a00000b 	bls	c2000e48 <early_mmu_config+0xec>
c2000e18:	e1a03102 	lsl	r3, r2, #2
c2000e1c:	e2833102 	add	r3, r3, #-2147483648	; 0x80000000
c2000e20:	e2833901 	add	r3, r3, #16384	; 0x4000
c2000e24:	e3a00000 	mov	r0, #0
c2000e28:	e5830000 	str	r0, [r3]
c2000e2c:	e2811601 	add	r1, r1, #1048576	; 0x100000
c2000e30:	e2822001 	add	r2, r2, #1
c2000e34:	e3520a01 	cmp	r2, #4096	; 0x1000
c2000e38:	3afffff3 	bcc	c2000e0c <early_mmu_config+0xb0>
c2000e3c:	e3a00000 	mov	r0, #0
c2000e40:	e3a01102 	mov	r1, #-2147483648	; 0x80000000
c2000e44:	ea000016 	b	c2000ea4 <early_mmu_config+0x148>
c2000e48:	e3cc0fff 	bic	r0, ip, #1020	; 0x3fc
c2000e4c:	e3c00003 	bic	r0, r0, #3
c2000e50:	e1a03102 	lsl	r3, r2, #2
c2000e54:	e2833102 	add	r3, r3, #-2147483648	; 0x80000000
c2000e58:	e2833901 	add	r3, r3, #16384	; 0x4000
c2000e5c:	e3800009 	orr	r0, r0, #9
c2000e60:	e5830000 	str	r0, [r3]
c2000e64:	e28ccb01 	add	ip, ip, #1024	; 0x400
c2000e68:	eaffffef 	b	c2000e2c <early_mmu_config+0xd0>
c2000e6c:	e3510481 	cmp	r1, #-2130706432	; 0x81000000
c2000e70:	3a000010 	bcc	c2000eb8 <early_mmu_config+0x15c>
c2000e74:	e3510482 	cmp	r1, #-2113929216	; 0x82000000
c2000e78:	3a00000c 	bcc	c2000eb0 <early_mmu_config+0x154>
c2000e7c:	e300c87e 	movw	ip, #2174	; 0x87e
c2000e80:	e3c12eff 	bic	r2, r1, #4080	; 0xff0
c2000e84:	e3c2200f 	bic	r2, r2, #15
c2000e88:	e1a03100 	lsl	r3, r0, #2
c2000e8c:	e2833102 	add	r3, r3, #-2147483648	; 0x80000000
c2000e90:	e2833902 	add	r3, r3, #32768	; 0x8000
c2000e94:	e182200c 	orr	r2, r2, ip
c2000e98:	e5832000 	str	r2, [r3]
c2000e9c:	e2811a01 	add	r1, r1, #4096	; 0x1000
c2000ea0:	e2800001 	add	r0, r0, #1
c2000ea4:	e3500802 	cmp	r0, #131072	; 0x20000
c2000ea8:	3affffef 	bcc	c2000e6c <early_mmu_config+0x110>
c2000eac:	e8bd8010 	pop	{r4, pc}
c2000eb0:	e300c43b 	movw	ip, #1083	; 0x43b
c2000eb4:	eafffff1 	b	c2000e80 <early_mmu_config+0x124>
c2000eb8:	e300c403 	movw	ip, #1027	; 0x403
c2000ebc:	eaffffef 	b	c2000e80 <early_mmu_config+0x124>

c2000ec0 <sdrv_timer_intc_handler>:
c2000ec0:	e92d4010 	push	{r4, lr}
c2000ec4:	ebfffe09 	bl	c20006f0 <arch_update_tick>
c2000ec8:	e3a01001 	mov	r1, #1
c2000ecc:	e3a00000 	mov	r0, #0
c2000ed0:	e3440804 	movt	r0, #18436	; 0x4804
c2000ed4:	ebffff93 	bl	c2000d28 <sdrv_dtimer_int_status_clear>
c2000ed8:	e8bd8010 	pop	{r4, pc}

c2000edc <sdrv_timer_init>:
c2000edc:	e92d4010 	push	{r4, lr}
c2000ee0:	e1a04000 	mov	r4, r0
c2000ee4:	e3a03000 	mov	r3, #0
c2000ee8:	e34434e0 	movt	r3, #17632	; 0x44e0
c2000eec:	e3a02002 	mov	r2, #2
c2000ef0:	e5832508 	str	r2, [r3, #1288]	; 0x508
c2000ef4:	ebffff54 	bl	c2000c4c <sdrv_dtimer_soft_reset>
c2000ef8:	e3e010ff 	mvn	r1, #255	; 0xff
c2000efc:	e1a00004 	mov	r0, r4
c2000f00:	ebffff7a 	bl	c2000cf0 <sdrv_dtimer_counter_set>
c2000f04:	e3e010ff 	mvn	r1, #255	; 0xff
c2000f08:	e1a00004 	mov	r0, r4
c2000f0c:	ebffff7e 	bl	c2000d0c <sdrv_dtimer_reload_set>
c2000f10:	e3a01000 	mov	r1, #0
c2000f14:	e1a00004 	mov	r0, r4
c2000f18:	ebffff5e 	bl	c2000c98 <sdrv_dtimer_mode_configure>
c2000f1c:	e3a01001 	mov	r1, #1
c2000f20:	e1a00004 	mov	r0, r4
c2000f24:	ebffff86 	bl	c2000d44 <sdrv_dtimer_int_enable>
c2000f28:	e3003ec0 	movw	r3, #3776	; 0xec0
c2000f2c:	e34c3200 	movt	r3, #49664	; 0xc200
c2000f30:	e3a02000 	mov	r2, #0
c2000f34:	e3a0100f 	mov	r1, #15
c2000f38:	e3a00044 	mov	r0, #68	; 0x44
c2000f3c:	ebfffe2b 	bl	c20007f0 <arch_irq_register>
c2000f40:	e1a00004 	mov	r0, r4
c2000f44:	ebffff4b 	bl	c2000c78 <sdrv_dtimer_enable>
c2000f48:	e8bd8010 	pop	{r4, pc}

c2000f4c <__io_putchar>:
c2000f4c:	e92d4010 	push	{r4, lr}
c2000f50:	e1a04000 	mov	r4, r0
c2000f54:	e1a01000 	mov	r1, r0
c2000f58:	e3a00a09 	mov	r0, #36864	; 0x9000
c2000f5c:	e34404e0 	movt	r0, #17632	; 0x44e0
c2000f60:	ebffff29 	bl	c2000c0c <sdrv_uart_send>
c2000f64:	e1a00004 	mov	r0, r4
c2000f68:	e8bd8010 	pop	{r4, pc}

c2000f6c <_write>:
c2000f6c:	e92d4070 	push	{r4, r5, r6, lr}
c2000f70:	e1a04001 	mov	r4, r1
c2000f74:	e1a06002 	mov	r6, r2
c2000f78:	e3a05000 	mov	r5, #0
c2000f7c:	ea000002 	b	c2000f8c <_write+0x20>
c2000f80:	e4d40001 	ldrb	r0, [r4], #1
c2000f84:	ebfffff0 	bl	c2000f4c <__io_putchar>
c2000f88:	e2855001 	add	r5, r5, #1
c2000f8c:	e1550006 	cmp	r5, r6
c2000f90:	bafffffa 	blt	c2000f80 <_write+0x14>
c2000f94:	e1a00006 	mov	r0, r6
c2000f98:	e8bd8070 	pop	{r4, r5, r6, pc}

c2000f9c <board_early_init>:
c2000f9c:	e92d4010 	push	{r4, lr}
c2000fa0:	ebffff6d 	bl	c2000d5c <early_mmu_config>
c2000fa4:	e8bd8010 	pop	{r4, pc}

c2000fa8 <board_init>:
c2000fa8:	e92d4010 	push	{r4, lr}
c2000fac:	e3071cac 	movw	r1, #31916	; 0x7cac
c2000fb0:	e34c1200 	movt	r1, #49664	; 0xc200
c2000fb4:	e3a00a09 	mov	r0, #36864	; 0x9000
c2000fb8:	e34404e0 	movt	r0, #17632	; 0x44e0
c2000fbc:	ebffff06 	bl	c2000bdc <sdrv_uart_init>
c2000fc0:	e3a00000 	mov	r0, #0
c2000fc4:	e3440804 	movt	r0, #18436	; 0x4804
c2000fc8:	ebffffc3 	bl	c2000edc <sdrv_timer_init>
c2000fcc:	e3070c90 	movw	r0, #31888	; 0x7c90
c2000fd0:	e34c0200 	movt	r0, #49664	; 0xc200
c2000fd4:	fa000029 	blx	c2001080 <printf>
c2000fd8:	eafffffe 	b	c2000fd8 <board_init+0x30>

c2000fdc <memset>:
c2000fdc:	b530      	push	{r4, r5, lr}
c2000fde:	0783      	lsls	r3, r0, #30
c2000fe0:	d048      	beq.n	c2001074 <memset+0x98>
c2000fe2:	1e54      	subs	r4, r2, #1
c2000fe4:	2a00      	cmp	r2, #0
c2000fe6:	d03f      	beq.n	c2001068 <memset+0x8c>
c2000fe8:	b2ca      	uxtb	r2, r1
c2000fea:	4603      	mov	r3, r0
c2000fec:	e001      	b.n	c2000ff2 <memset+0x16>
c2000fee:	3c01      	subs	r4, #1
c2000ff0:	d33a      	bcc.n	c2001068 <memset+0x8c>
c2000ff2:	f803 2b01 	strb.w	r2, [r3], #1
c2000ff6:	079d      	lsls	r5, r3, #30
c2000ff8:	d1f9      	bne.n	c2000fee <memset+0x12>
c2000ffa:	2c03      	cmp	r4, #3
c2000ffc:	d92d      	bls.n	c200105a <memset+0x7e>
c2000ffe:	b2cd      	uxtb	r5, r1
c2001000:	2c0f      	cmp	r4, #15
c2001002:	ea45 2505 	orr.w	r5, r5, r5, lsl #8
c2001006:	ea45 4505 	orr.w	r5, r5, r5, lsl #16
c200100a:	d936      	bls.n	c200107a <memset+0x9e>
c200100c:	f1a4 0210 	sub.w	r2, r4, #16
c2001010:	f103 0e20 	add.w	lr, r3, #32
c2001014:	f022 0c0f 	bic.w	ip, r2, #15
c2001018:	44e6      	add	lr, ip
c200101a:	ea4f 1c12 	mov.w	ip, r2, lsr #4
c200101e:	f103 0210 	add.w	r2, r3, #16
c2001022:	e942 5504 	strd	r5, r5, [r2, #-16]
c2001026:	e942 5502 	strd	r5, r5, [r2, #-8]
c200102a:	3210      	adds	r2, #16
c200102c:	4572      	cmp	r2, lr
c200102e:	d1f8      	bne.n	c2001022 <memset+0x46>
c2001030:	f10c 0201 	add.w	r2, ip, #1
c2001034:	f014 0f0c 	tst.w	r4, #12
c2001038:	f004 0c0f 	and.w	ip, r4, #15
c200103c:	eb03 1202 	add.w	r2, r3, r2, lsl #4
c2001040:	d013      	beq.n	c200106a <memset+0x8e>
c2001042:	f1ac 0304 	sub.w	r3, ip, #4
c2001046:	f023 0303 	bic.w	r3, r3, #3
c200104a:	3304      	adds	r3, #4
c200104c:	4413      	add	r3, r2
c200104e:	f842 5b04 	str.w	r5, [r2], #4
c2001052:	4293      	cmp	r3, r2
c2001054:	d1fb      	bne.n	c200104e <memset+0x72>
c2001056:	f00c 0403 	and.w	r4, ip, #3
c200105a:	b12c      	cbz	r4, c2001068 <memset+0x8c>
c200105c:	b2ca      	uxtb	r2, r1
c200105e:	441c      	add	r4, r3
c2001060:	f803 2b01 	strb.w	r2, [r3], #1
c2001064:	429c      	cmp	r4, r3
c2001066:	d1fb      	bne.n	c2001060 <memset+0x84>
c2001068:	bd30      	pop	{r4, r5, pc}
c200106a:	4613      	mov	r3, r2
c200106c:	4664      	mov	r4, ip
c200106e:	2c00      	cmp	r4, #0
c2001070:	d1f4      	bne.n	c200105c <memset+0x80>
c2001072:	e7f9      	b.n	c2001068 <memset+0x8c>
c2001074:	4603      	mov	r3, r0
c2001076:	4614      	mov	r4, r2
c2001078:	e7bf      	b.n	c2000ffa <memset+0x1e>
c200107a:	461a      	mov	r2, r3
c200107c:	46a4      	mov	ip, r4
c200107e:	e7e0      	b.n	c2001042 <memset+0x66>

c2001080 <printf>:
c2001080:	b40f      	push	{r0, r1, r2, r3}
c2001082:	f248 1200 	movw	r2, #33024	; 0x8100
c2001086:	f2cc 2200 	movt	r2, #49664	; 0xc200
c200108a:	b500      	push	{lr}
c200108c:	b083      	sub	sp, #12
c200108e:	6810      	ldr	r0, [r2, #0]
c2001090:	ab04      	add	r3, sp, #16
c2001092:	6881      	ldr	r1, [r0, #8]
c2001094:	f853 2b04 	ldr.w	r2, [r3], #4
c2001098:	9301      	str	r3, [sp, #4]
c200109a:	f000 f805 	bl	c20010a8 <_vfprintf_r>
c200109e:	b003      	add	sp, #12
c20010a0:	f85d eb04 	ldr.w	lr, [sp], #4
c20010a4:	b004      	add	sp, #16
c20010a6:	4770      	bx	lr

c20010a8 <_vfprintf_r>:
c20010a8:	e92d 4ff0 	stmdb	sp!, {r4, r5, r6, r7, r8, r9, sl, fp, lr}
c20010ac:	461c      	mov	r4, r3
c20010ae:	468a      	mov	sl, r1
c20010b0:	ed2d 8b06 	vpush	{d8-d10}
c20010b4:	b0cf      	sub	sp, #316	; 0x13c
c20010b6:	4617      	mov	r7, r2
c20010b8:	4605      	mov	r5, r0
c20010ba:	ee0a 0a10 	vmov	s20, r0
c20010be:	f003 f821 	bl	c2004104 <_localeconv_r>
c20010c2:	6803      	ldr	r3, [r0, #0]
c20010c4:	9312      	str	r3, [sp, #72]	; 0x48
c20010c6:	4618      	mov	r0, r3
c20010c8:	9407      	str	r4, [sp, #28]
c20010ca:	f004 faf9 	bl	c20056c0 <strlen>
c20010ce:	9011      	str	r0, [sp, #68]	; 0x44
c20010d0:	b11d      	cbz	r5, c20010da <_vfprintf_r+0x32>
c20010d2:	6bab      	ldr	r3, [r5, #56]	; 0x38
c20010d4:	2b00      	cmp	r3, #0
c20010d6:	f000 81f4 	beq.w	c20014c2 <_vfprintf_r+0x41a>
c20010da:	f8da 3064 	ldr.w	r3, [sl, #100]	; 0x64
c20010de:	07d8      	lsls	r0, r3, #31
c20010e0:	f100 811d 	bmi.w	c200131e <_vfprintf_r+0x276>
c20010e4:	f8ba 200c 	ldrh.w	r2, [sl, #12]
c20010e8:	f9ba 300c 	ldrsh.w	r3, [sl, #12]
c20010ec:	0591      	lsls	r1, r2, #22
c20010ee:	f140 8112 	bpl.w	c2001316 <_vfprintf_r+0x26e>
c20010f2:	0496      	lsls	r6, r2, #18
c20010f4:	d40a      	bmi.n	c200110c <_vfprintf_r+0x64>
c20010f6:	f443 5300 	orr.w	r3, r3, #8192	; 0x2000
c20010fa:	f8aa 300c 	strh.w	r3, [sl, #12]
c20010fe:	b29a      	uxth	r2, r3
c2001100:	f8da 3064 	ldr.w	r3, [sl, #100]	; 0x64
c2001104:	f423 5300 	bic.w	r3, r3, #8192	; 0x2000
c2001108:	f8ca 3064 	str.w	r3, [sl, #100]	; 0x64
c200110c:	0715      	lsls	r5, r2, #28
c200110e:	f140 80db 	bpl.w	c20012c8 <_vfprintf_r+0x220>
c2001112:	f8da 3010 	ldr.w	r3, [sl, #16]
c2001116:	2b00      	cmp	r3, #0
c2001118:	f000 80d6 	beq.w	c20012c8 <_vfprintf_r+0x220>
c200111c:	f002 031a 	and.w	r3, r2, #26
c2001120:	2b0a      	cmp	r3, #10
c2001122:	f000 80e0 	beq.w	c20012e6 <_vfprintf_r+0x23e>
c2001126:	ed9f 8b86 	vldr	d8, [pc, #536]	; c2001340 <_vfprintf_r+0x298>
c200112a:	f10d 0894 	add.w	r8, sp, #148	; 0x94
c200112e:	46d1      	mov	r9, sl
c2001130:	2300      	movs	r3, #0
c2001132:	aa25      	add	r2, sp, #148	; 0x94
c2001134:	e9cd 3323 	strd	r3, r3, [sp, #140]	; 0x8c
c2001138:	9222      	str	r2, [sp, #136]	; 0x88
c200113a:	f647 5200 	movw	r2, #32000	; 0x7d00
c200113e:	f2cc 2200 	movt	r2, #49664	; 0xc200
c2001142:	930d      	str	r3, [sp, #52]	; 0x34
c2001144:	9210      	str	r2, [sp, #64]	; 0x40
c2001146:	f647 5210 	movw	r2, #32016	; 0x7d10
c200114a:	f2cc 2200 	movt	r2, #49664	; 0xc200
c200114e:	e9cd 3313 	strd	r3, r3, [sp, #76]	; 0x4c
c2001152:	920e      	str	r2, [sp, #56]	; 0x38
c2001154:	9317      	str	r3, [sp, #92]	; 0x5c
c2001156:	e9cd 3315 	strd	r3, r3, [sp, #84]	; 0x54
c200115a:	9304      	str	r3, [sp, #16]
c200115c:	783b      	ldrb	r3, [r7, #0]
c200115e:	463c      	mov	r4, r7
c2001160:	2b25      	cmp	r3, #37	; 0x25
c2001162:	bf18      	it	ne
c2001164:	2b00      	cmpne	r3, #0
c2001166:	d01a      	beq.n	c200119e <_vfprintf_r+0xf6>
c2001168:	4625      	mov	r5, r4
c200116a:	f814 3f01 	ldrb.w	r3, [r4, #1]!
c200116e:	2b00      	cmp	r3, #0
c2001170:	bf18      	it	ne
c2001172:	2b25      	cmpne	r3, #37	; 0x25
c2001174:	d1f8      	bne.n	c2001168 <_vfprintf_r+0xc0>
c2001176:	1be6      	subs	r6, r4, r7
c2001178:	d011      	beq.n	c200119e <_vfprintf_r+0xf6>
c200117a:	9b23      	ldr	r3, [sp, #140]	; 0x8c
c200117c:	9a24      	ldr	r2, [sp, #144]	; 0x90
c200117e:	3301      	adds	r3, #1
c2001180:	e9c8 7600 	strd	r7, r6, [r8]
c2001184:	2b07      	cmp	r3, #7
c2001186:	4432      	add	r2, r6
c2001188:	bfd8      	it	le
c200118a:	f108 0808 	addle.w	r8, r8, #8
c200118e:	9323      	str	r3, [sp, #140]	; 0x8c
c2001190:	9224      	str	r2, [sp, #144]	; 0x90
c2001192:	f300 80c9 	bgt.w	c2001328 <_vfprintf_r+0x280>
c2001196:	9b04      	ldr	r3, [sp, #16]
c2001198:	4433      	add	r3, r6
c200119a:	9304      	str	r3, [sp, #16]
c200119c:	786b      	ldrb	r3, [r5, #1]
c200119e:	2b00      	cmp	r3, #0
c20011a0:	f001 803e 	beq.w	c2002220 <_vfprintf_r+0x1178>
c20011a4:	2300      	movs	r3, #0
c20011a6:	7865      	ldrb	r5, [r4, #1]
c20011a8:	1c67      	adds	r7, r4, #1
c20011aa:	f04f 3aff 	mov.w	sl, #4294967295	; 0xffffffff
c20011ae:	469b      	mov	fp, r3
c20011b0:	240a      	movs	r4, #10
c20011b2:	f88d 306b 	strb.w	r3, [sp, #107]	; 0x6b
c20011b6:	9303      	str	r3, [sp, #12]
c20011b8:	3701      	adds	r7, #1
c20011ba:	f1a5 0320 	sub.w	r3, r5, #32
c20011be:	2b5a      	cmp	r3, #90	; 0x5a
c20011c0:	f200 80c6 	bhi.w	c2001350 <_vfprintf_r+0x2a8>
c20011c4:	e8df f013 	tbh	[pc, r3, lsl #1]
c20011c8:	00c40258 	sbceq	r0, r4, r8, asr r2
c20011cc:	025400c4 	subseq	r0, r4, #196	; 0xc4
c20011d0:	00c400c4 	sbceq	r0, r4, r4, asr #1
c20011d4:	006800c4 	rsbeq	r0, r8, r4, asr #1
c20011d8:	00c400c4 	sbceq	r0, r4, r4, asr #1
c20011dc:	02340225 	eorseq	r0, r4, #1342177282	; 0x50000002
c20011e0:	023000c4 	eorseq	r0, r0, #196	; 0xc4
c20011e4:	00c4023d 	sbceq	r0, r4, sp, lsr r2
c20011e8:	005b0239 	subseq	r0, fp, r9, lsr r2
c20011ec:	005b005b 	subseq	r0, fp, fp, asr r0
c20011f0:	005b005b 	subseq	r0, fp, fp, asr r0
c20011f4:	005b005b 	subseq	r0, fp, fp, asr r0
c20011f8:	005b005b 	subseq	r0, fp, fp, asr r0
c20011fc:	00c400c4 	sbceq	r0, r4, r4, asr #1
c2001200:	00c400c4 	sbceq	r0, r4, r4, asr #1
c2001204:	00c400c4 	sbceq	r0, r4, r4, asr #1
c2001208:	014600c4 	smlalbteq	r0, r6, r4, r0
c200120c:	01af00c4 			; <UNDEFINED> instruction: 0x01af00c4
c2001210:	01460185 	smlalbbeq	r0, r6, r5, r1
c2001214:	01460146 	cmpeq	r6, r6, asr #2
c2001218:	00c400c4 	sbceq	r0, r4, r4, asr #1
c200121c:	00c400c4 	sbceq	r0, r4, r4, asr #1
c2001220:	00c40274 	sbceq	r0, r4, r4, ror r2
c2001224:	01e300c4 	mvneq	r0, r4, asr #1
c2001228:	00c400c4 	sbceq	r0, r4, r4, asr #1
c200122c:	01bb00c4 			; <UNDEFINED> instruction: 0x01bb00c4
c2001230:	026200c4 	rsbeq	r0, r2, #196	; 0xc4
c2001234:	00c400c4 	sbceq	r0, r4, r4, asr #1
c2001238:	00c4072d 	sbceq	r0, r4, sp, lsr #14
c200123c:	00c400c4 	sbceq	r0, r4, r4, asr #1
c2001240:	00c400c4 	sbceq	r0, r4, r4, asr #1
c2001244:	00c400c4 	sbceq	r0, r4, r4, asr #1
c2001248:	014600c4 	smlalbteq	r0, r6, r4, r0
c200124c:	01af00c4 			; <UNDEFINED> instruction: 0x01af00c4
c2001250:	01460187 	smlalbbeq	r0, r6, r7, r1
c2001254:	01460146 	cmpeq	r6, r6, asr #2
c2001258:	018702ae 	orreq	r0, r7, lr, lsr #5
c200125c:	00c40181 	sbceq	r0, r4, r1, lsl #3
c2001260:	00c402a4 	sbceq	r0, r4, r4, lsr #5
c2001264:	01e50278 	mvneq	r0, r8, ror r2
c2001268:	0181028f 	orreq	r0, r1, pc, lsl #5
c200126c:	01bb00c4 			; <UNDEFINED> instruction: 0x01bb00c4
c2001270:	070b007e 	smlsdxeq	fp, lr, r0, r0
c2001274:	00c400c4 	sbceq	r0, r4, r4, asr #1
c2001278:	00c4070f 	sbceq	r0, r4, pc, lsl #14
c200127c:	f1a5007e 			; <UNDEFINED> instruction: 0xf1a5007e
c2001280:	0330      	lsls	r0, r6, #12
c2001282:	2200      	movs	r2, #0
c2001284:	f817 5b01 	ldrb.w	r5, [r7], #1
c2001288:	fb04 3202 	mla	r2, r4, r2, r3
c200128c:	f1a5 0330 	sub.w	r3, r5, #48	; 0x30
c2001290:	2b09      	cmp	r3, #9
c2001292:	d9f7      	bls.n	c2001284 <_vfprintf_r+0x1dc>
c2001294:	9203      	str	r2, [sp, #12]
c2001296:	e790      	b.n	c20011ba <_vfprintf_r+0x112>
c2001298:	ee1a 0a10 	vmov	r0, s20
c200129c:	f002 ff32 	bl	c2004104 <_localeconv_r>
c20012a0:	6843      	ldr	r3, [r0, #4]
c20012a2:	9316      	str	r3, [sp, #88]	; 0x58
c20012a4:	4618      	mov	r0, r3
c20012a6:	f004 fa0b 	bl	c20056c0 <strlen>
c20012aa:	4605      	mov	r5, r0
c20012ac:	9015      	str	r0, [sp, #84]	; 0x54
c20012ae:	ee1a 0a10 	vmov	r0, s20
c20012b2:	f002 ff27 	bl	c2004104 <_localeconv_r>
c20012b6:	6883      	ldr	r3, [r0, #8]
c20012b8:	9317      	str	r3, [sp, #92]	; 0x5c
c20012ba:	2d00      	cmp	r5, #0
c20012bc:	bf18      	it	ne
c20012be:	2b00      	cmpne	r3, #0
c20012c0:	f040 8683 	bne.w	c2001fca <_vfprintf_r+0xf22>
c20012c4:	783d      	ldrb	r5, [r7, #0]
c20012c6:	e777      	b.n	c20011b8 <_vfprintf_r+0x110>
c20012c8:	ee1a 0a10 	vmov	r0, s20
c20012cc:	4651      	mov	r1, sl
c20012ce:	f001 fc91 	bl	c2002bf4 <__swsetup_r>
c20012d2:	2800      	cmp	r0, #0
c20012d4:	f041 8400 	bne.w	c2002ad8 <_vfprintf_r+0x1a30>
c20012d8:	f8ba 200c 	ldrh.w	r2, [sl, #12]
c20012dc:	f002 031a 	and.w	r3, r2, #26
c20012e0:	2b0a      	cmp	r3, #10
c20012e2:	f47f af20 	bne.w	c2001126 <_vfprintf_r+0x7e>
c20012e6:	f9ba 300e 	ldrsh.w	r3, [sl, #14]
c20012ea:	2b00      	cmp	r3, #0
c20012ec:	f6ff af1b 	blt.w	c2001126 <_vfprintf_r+0x7e>
c20012f0:	f8da 3064 	ldr.w	r3, [sl, #100]	; 0x64
c20012f4:	07d9      	lsls	r1, r3, #31
c20012f6:	d402      	bmi.n	c20012fe <_vfprintf_r+0x256>
c20012f8:	0593      	lsls	r3, r2, #22
c20012fa:	f141 8114 	bpl.w	c2002526 <_vfprintf_r+0x147e>
c20012fe:	ee1a 0a10 	vmov	r0, s20
c2001302:	4623      	mov	r3, r4
c2001304:	463a      	mov	r2, r7
c2001306:	4651      	mov	r1, sl
c2001308:	b04f      	add	sp, #316	; 0x13c
c200130a:	ecbd 8b06 	vpop	{d8-d10}
c200130e:	e8bd 4ff0 	ldmia.w	sp!, {r4, r5, r6, r7, r8, r9, sl, fp, lr}
c2001312:	f001 bc2f 	b.w	c2002b74 <__sbprintf>
c2001316:	f8da 0058 	ldr.w	r0, [sl, #88]	; 0x58
c200131a:	f002 fefb 	bl	c2004114 <__retarget_lock_acquire_recursive>
c200131e:	f9ba 300c 	ldrsh.w	r3, [sl, #12]
c2001322:	f8ba 200c 	ldrh.w	r2, [sl, #12]
c2001326:	e6e4      	b.n	c20010f2 <_vfprintf_r+0x4a>
c2001328:	ee1a 0a10 	vmov	r0, s20
c200132c:	aa22      	add	r2, sp, #136	; 0x88
c200132e:	4649      	mov	r1, r9
c2001330:	f004 faa6 	bl	c2005880 <__sprint_r>
c2001334:	2800      	cmp	r0, #0
c2001336:	f041 836f 	bne.w	c2002a18 <_vfprintf_r+0x1970>
c200133a:	f10d 0894 	add.w	r8, sp, #148	; 0x94
c200133e:	e72a      	b.n	c2001196 <_vfprintf_r+0xee>
	...
c2001348:	ffffffff 			; <UNDEFINED> instruction: 0xffffffff
c200134c:	7fefffff 	svcvc	0x00efffff
c2001350:	2d00      	cmp	r5, #0
c2001352:	f000 8765 	beq.w	c2002220 <_vfprintf_r+0x1178>
c2001356:	2601      	movs	r6, #1
c2001358:	2100      	movs	r1, #0
c200135a:	f88d 50d4 	strb.w	r5, [sp, #212]	; 0xd4
c200135e:	f88d 106b 	strb.w	r1, [sp, #107]	; 0x6b
c2001362:	9106      	str	r1, [sp, #24]
c2001364:	468a      	mov	sl, r1
c2001366:	ab35      	add	r3, sp, #212	; 0xd4
c2001368:	9605      	str	r6, [sp, #20]
c200136a:	910f      	str	r1, [sp, #60]	; 0x3c
c200136c:	e9cd 110b 	strd	r1, r1, [sp, #44]	; 0x2c
c2001370:	9308      	str	r3, [sp, #32]
c2001372:	f01b 0302 	ands.w	r3, fp, #2
c2001376:	9309      	str	r3, [sp, #36]	; 0x24
c2001378:	bf18      	it	ne
c200137a:	3602      	addne	r6, #2
c200137c:	f01b 0384 	ands.w	r3, fp, #132	; 0x84
c2001380:	930a      	str	r3, [sp, #40]	; 0x28
c2001382:	d104      	bne.n	c200138e <_vfprintf_r+0x2e6>
c2001384:	9b03      	ldr	r3, [sp, #12]
c2001386:	1b9c      	subs	r4, r3, r6
c2001388:	2c00      	cmp	r4, #0
c200138a:	f300 836a 	bgt.w	c2001a62 <_vfprintf_r+0x9ba>
c200138e:	9a24      	ldr	r2, [sp, #144]	; 0x90
c2001390:	b189      	cbz	r1, c20013b6 <_vfprintf_r+0x30e>
c2001392:	9923      	ldr	r1, [sp, #140]	; 0x8c
c2001394:	f10d 006b 	add.w	r0, sp, #107	; 0x6b
c2001398:	3201      	adds	r2, #1
c200139a:	f8c8 0000 	str.w	r0, [r8]
c200139e:	3101      	adds	r1, #1
c20013a0:	2001      	movs	r0, #1
c20013a2:	2907      	cmp	r1, #7
c20013a4:	f8c8 0004 	str.w	r0, [r8, #4]
c20013a8:	9224      	str	r2, [sp, #144]	; 0x90
c20013aa:	bfd8      	it	le
c20013ac:	f108 0808 	addle.w	r8, r8, #8
c20013b0:	9123      	str	r1, [sp, #140]	; 0x8c
c20013b2:	f300 83a1 	bgt.w	c2001af8 <_vfprintf_r+0xa50>
c20013b6:	9b09      	ldr	r3, [sp, #36]	; 0x24
c20013b8:	b183      	cbz	r3, c20013dc <_vfprintf_r+0x334>
c20013ba:	9b23      	ldr	r3, [sp, #140]	; 0x8c
c20013bc:	a91b      	add	r1, sp, #108	; 0x6c
c20013be:	3202      	adds	r2, #2
c20013c0:	f8c8 1000 	str.w	r1, [r8]
c20013c4:	3301      	adds	r3, #1
c20013c6:	2102      	movs	r1, #2
c20013c8:	2b07      	cmp	r3, #7
c20013ca:	f8c8 1004 	str.w	r1, [r8, #4]
c20013ce:	9224      	str	r2, [sp, #144]	; 0x90
c20013d0:	bfd8      	it	le
c20013d2:	f108 0808 	addle.w	r8, r8, #8
c20013d6:	9323      	str	r3, [sp, #140]	; 0x8c
c20013d8:	f300 8381 	bgt.w	c2001ade <_vfprintf_r+0xa36>
c20013dc:	9b0a      	ldr	r3, [sp, #40]	; 0x28
c20013de:	2b80      	cmp	r3, #128	; 0x80
c20013e0:	f000 8209 	beq.w	c20017f6 <_vfprintf_r+0x74e>
c20013e4:	9b05      	ldr	r3, [sp, #20]
c20013e6:	ebaa 0403 	sub.w	r4, sl, r3
c20013ea:	2c00      	cmp	r4, #0
c20013ec:	f300 8252 	bgt.w	c2001894 <_vfprintf_r+0x7ec>
c20013f0:	f41b 7f80 	tst.w	fp, #256	; 0x100
c20013f4:	f040 81a0 	bne.w	c2001738 <_vfprintf_r+0x690>
c20013f8:	9b08      	ldr	r3, [sp, #32]
c20013fa:	f8c8 3000 	str.w	r3, [r8]
c20013fe:	9b05      	ldr	r3, [sp, #20]
c2001400:	f8c8 3004 	str.w	r3, [r8, #4]
c2001404:	441a      	add	r2, r3
c2001406:	9b23      	ldr	r3, [sp, #140]	; 0x8c
c2001408:	9224      	str	r2, [sp, #144]	; 0x90
c200140a:	3301      	adds	r3, #1
c200140c:	9323      	str	r3, [sp, #140]	; 0x8c
c200140e:	2b07      	cmp	r3, #7
c2001410:	f300 831b 	bgt.w	c2001a4a <_vfprintf_r+0x9a2>
c2001414:	f108 0808 	add.w	r8, r8, #8
c2001418:	f01b 0f04 	tst.w	fp, #4
c200141c:	d004      	beq.n	c2001428 <_vfprintf_r+0x380>
c200141e:	9b03      	ldr	r3, [sp, #12]
c2001420:	1b9c      	subs	r4, r3, r6
c2001422:	2c00      	cmp	r4, #0
c2001424:	f300 838a 	bgt.w	c2001b3c <_vfprintf_r+0xa94>
c2001428:	e9dd 1303 	ldrd	r1, r3, [sp, #12]
c200142c:	42b1      	cmp	r1, r6
c200142e:	bfac      	ite	ge
c2001430:	185b      	addge	r3, r3, r1
c2001432:	199b      	addlt	r3, r3, r6
c2001434:	9304      	str	r3, [sp, #16]
c2001436:	2a00      	cmp	r2, #0
c2001438:	f040 829b 	bne.w	c2001972 <_vfprintf_r+0x8ca>
c200143c:	2300      	movs	r3, #0
c200143e:	9323      	str	r3, [sp, #140]	; 0x8c
c2001440:	9b06      	ldr	r3, [sp, #24]
c2001442:	b123      	cbz	r3, c200144e <_vfprintf_r+0x3a6>
c2001444:	9906      	ldr	r1, [sp, #24]
c2001446:	ee1a 0a10 	vmov	r0, s20
c200144a:	f002 fd2d 	bl	c2003ea8 <_free_r>
c200144e:	f10d 0894 	add.w	r8, sp, #148	; 0x94
c2001452:	e683      	b.n	c200115c <_vfprintf_r+0xb4>
c2001454:	9b07      	ldr	r3, [sp, #28]
c2001456:	ed1f 6b44 	vldr	d6, [pc, #-272]	; c2001348 <_vfprintf_r+0x2a0>
c200145a:	3307      	adds	r3, #7
c200145c:	f023 0307 	bic.w	r3, r3, #7
c2001460:	ecb3 8b02 	vldmia	r3!, {d8}
c2001464:	eeb0 7bc8 	vabs.f64	d7, d8
c2001468:	9307      	str	r3, [sp, #28]
c200146a:	eeb4 7b46 	vcmp.f64	d7, d6
c200146e:	eef1 fa10 	vmrs	APSR_nzcv, fpscr
c2001472:	f340 8510 	ble.w	c2001e96 <_vfprintf_r+0xdee>
c2001476:	eeb5 8bc0 	vcmpe.f64	d8, #0.0
c200147a:	eef1 fa10 	vmrs	APSR_nzcv, fpscr
c200147e:	bf58      	it	pl
c2001480:	f89d 106b 	ldrbpl.w	r1, [sp, #107]	; 0x6b
c2001484:	d502      	bpl.n	c200148c <_vfprintf_r+0x3e4>
c2001486:	212d      	movs	r1, #45	; 0x2d
c2001488:	f88d 106b 	strb.w	r1, [sp, #107]	; 0x6b
c200148c:	f647 42bc 	movw	r2, #31932	; 0x7cbc
c2001490:	f2cc 2200 	movt	r2, #49664	; 0xc200
c2001494:	f647 43c0 	movw	r3, #31936	; 0x7cc0
c2001498:	f2cc 2300 	movt	r3, #49664	; 0xc200
c200149c:	f02b 0b80 	bic.w	fp, fp, #128	; 0x80
c20014a0:	2603      	movs	r6, #3
c20014a2:	2000      	movs	r0, #0
c20014a4:	9006      	str	r0, [sp, #24]
c20014a6:	4682      	mov	sl, r0
c20014a8:	2d47      	cmp	r5, #71	; 0x47
c20014aa:	bfc8      	it	gt
c20014ac:	461a      	movgt	r2, r3
c20014ae:	9605      	str	r6, [sp, #20]
c20014b0:	9208      	str	r2, [sp, #32]
c20014b2:	900f      	str	r0, [sp, #60]	; 0x3c
c20014b4:	e9cd 000b 	strd	r0, r0, [sp, #44]	; 0x2c
c20014b8:	2900      	cmp	r1, #0
c20014ba:	f43f af5a 	beq.w	c2001372 <_vfprintf_r+0x2ca>
c20014be:	3601      	adds	r6, #1
c20014c0:	e757      	b.n	c2001372 <_vfprintf_r+0x2ca>
c20014c2:	4628      	mov	r0, r5
c20014c4:	f002 fc00 	bl	c2003cc8 <__sinit>
c20014c8:	e607      	b.n	c20010da <_vfprintf_r+0x32>
c20014ca:	783d      	ldrb	r5, [r7, #0]
c20014cc:	f04b 0b20 	orr.w	fp, fp, #32
c20014d0:	e672      	b.n	c20011b8 <_vfprintf_r+0x110>
c20014d2:	f04b 0b10 	orr.w	fp, fp, #16
c20014d6:	9b07      	ldr	r3, [sp, #28]
c20014d8:	f01b 0f20 	tst.w	fp, #32
c20014dc:	f000 8477 	beq.w	c2001dce <_vfprintf_r+0xd26>
c20014e0:	3307      	adds	r3, #7
c20014e2:	f023 0307 	bic.w	r3, r3, #7
c20014e6:	461a      	mov	r2, r3
c20014e8:	685b      	ldr	r3, [r3, #4]
c20014ea:	f852 4b08 	ldr.w	r4, [r2], #8
c20014ee:	461e      	mov	r6, r3
c20014f0:	9207      	str	r2, [sp, #28]
c20014f2:	2b00      	cmp	r3, #0
c20014f4:	f2c0 8479 	blt.w	c2001dea <_vfprintf_r+0xd42>
c20014f8:	f1ba 3fff 	cmp.w	sl, #4294967295	; 0xffffffff
c20014fc:	f000 835e 	beq.w	c2001bbc <_vfprintf_r+0xb14>
c2001500:	ea44 0306 	orr.w	r3, r4, r6
c2001504:	f02b 0b80 	bic.w	fp, fp, #128	; 0x80
c2001508:	2b00      	cmp	r3, #0
c200150a:	bf08      	it	eq
c200150c:	f1ba 0f00 	cmpeq.w	sl, #0
c2001510:	bf14      	ite	ne
c2001512:	2301      	movne	r3, #1
c2001514:	2300      	moveq	r3, #0
c2001516:	f040 8351 	bne.w	c2001bbc <_vfprintf_r+0xb14>
c200151a:	469a      	mov	sl, r3
c200151c:	ab4e      	add	r3, sp, #312	; 0x138
c200151e:	f8cd a014 	str.w	sl, [sp, #20]
c2001522:	9308      	str	r3, [sp, #32]
c2001524:	e069      	b.n	c20015fa <_vfprintf_r+0x552>
c2001526:	9b07      	ldr	r3, [sp, #28]
c2001528:	2100      	movs	r1, #0
c200152a:	2601      	movs	r6, #1
c200152c:	f88d 106b 	strb.w	r1, [sp, #107]	; 0x6b
c2001530:	9106      	str	r1, [sp, #24]
c2001532:	f853 2b04 	ldr.w	r2, [r3], #4
c2001536:	f88d 20d4 	strb.w	r2, [sp, #212]	; 0xd4
c200153a:	9307      	str	r3, [sp, #28]
c200153c:	e712      	b.n	c2001364 <_vfprintf_r+0x2bc>
c200153e:	9c07      	ldr	r4, [sp, #28]
c2001540:	2600      	movs	r6, #0
c2001542:	f88d 606b 	strb.w	r6, [sp, #107]	; 0x6b
c2001546:	f854 3b04 	ldr.w	r3, [r4], #4
c200154a:	9308      	str	r3, [sp, #32]
c200154c:	2b00      	cmp	r3, #0
c200154e:	f000 857c 	beq.w	c200204a <_vfprintf_r+0xfa2>
c2001552:	f1ba 3fff 	cmp.w	sl, #4294967295	; 0xffffffff
c2001556:	f000 866c 	beq.w	c2002232 <_vfprintf_r+0x118a>
c200155a:	9808      	ldr	r0, [sp, #32]
c200155c:	4652      	mov	r2, sl
c200155e:	4631      	mov	r1, r6
c2001560:	f003 f8fe 	bl	c2004760 <memchr>
c2001564:	9006      	str	r0, [sp, #24]
c2001566:	2800      	cmp	r0, #0
c2001568:	f001 8179 	beq.w	c200285e <_vfprintf_r+0x17b6>
c200156c:	9b06      	ldr	r3, [sp, #24]
c200156e:	46b2      	mov	sl, r6
c2001570:	9a08      	ldr	r2, [sp, #32]
c2001572:	f89d 106b 	ldrb.w	r1, [sp, #107]	; 0x6b
c2001576:	1a9b      	subs	r3, r3, r2
c2001578:	9407      	str	r4, [sp, #28]
c200157a:	9305      	str	r3, [sp, #20]
c200157c:	ea23 76e3 	bic.w	r6, r3, r3, asr #31
c2001580:	f8cd a018 	str.w	sl, [sp, #24]
c2001584:	f8cd a03c 	str.w	sl, [sp, #60]	; 0x3c
c2001588:	e9cd aa0b 	strd	sl, sl, [sp, #44]	; 0x2c
c200158c:	e794      	b.n	c20014b8 <_vfprintf_r+0x410>
c200158e:	f04b 0b10 	orr.w	fp, fp, #16
c2001592:	f01b 0620 	ands.w	r6, fp, #32
c2001596:	f000 840a 	beq.w	c2001dae <_vfprintf_r+0xd06>
c200159a:	9b07      	ldr	r3, [sp, #28]
c200159c:	3307      	adds	r3, #7
c200159e:	f023 0307 	bic.w	r3, r3, #7
c20015a2:	685e      	ldr	r6, [r3, #4]
c20015a4:	f853 4b08 	ldr.w	r4, [r3], #8
c20015a8:	9307      	str	r3, [sp, #28]
c20015aa:	2200      	movs	r2, #0
c20015ac:	f42b 6380 	bic.w	r3, fp, #1024	; 0x400
c20015b0:	9305      	str	r3, [sp, #20]
c20015b2:	2300      	movs	r3, #0
c20015b4:	f88d 306b 	strb.w	r3, [sp, #107]	; 0x6b
c20015b8:	f1ba 3fff 	cmp.w	sl, #4294967295	; 0xffffffff
c20015bc:	f000 81b4 	beq.w	c2001928 <_vfprintf_r+0x880>
c20015c0:	ea44 0306 	orr.w	r3, r4, r6
c20015c4:	9905      	ldr	r1, [sp, #20]
c20015c6:	2b00      	cmp	r3, #0
c20015c8:	bf08      	it	eq
c20015ca:	f1ba 0f00 	cmpeq.w	sl, #0
c20015ce:	f021 0b80 	bic.w	fp, r1, #128	; 0x80
c20015d2:	bf14      	ite	ne
c20015d4:	2301      	movne	r3, #1
c20015d6:	2300      	moveq	r3, #0
c20015d8:	f040 81a4 	bne.w	c2001924 <_vfprintf_r+0x87c>
c20015dc:	2a00      	cmp	r2, #0
c20015de:	d19c      	bne.n	c200151a <_vfprintf_r+0x472>
c20015e0:	9b05      	ldr	r3, [sp, #20]
c20015e2:	4692      	mov	sl, r2
c20015e4:	f013 0301 	ands.w	r3, r3, #1
c20015e8:	9305      	str	r3, [sp, #20]
c20015ea:	bf17      	itett	ne
c20015ec:	2330      	movne	r3, #48	; 0x30
c20015ee:	ab4e      	addeq	r3, sp, #312	; 0x138
c20015f0:	f88d 3137 	strbne.w	r3, [sp, #311]	; 0x137
c20015f4:	f20d 1337 	addwne	r3, sp, #311	; 0x137
c20015f8:	9308      	str	r3, [sp, #32]
c20015fa:	9e05      	ldr	r6, [sp, #20]
c20015fc:	2300      	movs	r3, #0
c20015fe:	f89d 106b 	ldrb.w	r1, [sp, #107]	; 0x6b
c2001602:	4556      	cmp	r6, sl
c2001604:	9306      	str	r3, [sp, #24]
c2001606:	bfb8      	it	lt
c2001608:	4656      	movlt	r6, sl
c200160a:	930f      	str	r3, [sp, #60]	; 0x3c
c200160c:	e9cd 330b 	strd	r3, r3, [sp, #44]	; 0x2c
c2001610:	e752      	b.n	c20014b8 <_vfprintf_r+0x410>
c2001612:	9b07      	ldr	r3, [sp, #28]
c2001614:	f853 2b04 	ldr.w	r2, [r3], #4
c2001618:	9203      	str	r2, [sp, #12]
c200161a:	2a00      	cmp	r2, #0
c200161c:	f280 83f7 	bge.w	c2001e0e <_vfprintf_r+0xd66>
c2001620:	9a03      	ldr	r2, [sp, #12]
c2001622:	9307      	str	r3, [sp, #28]
c2001624:	4252      	negs	r2, r2
c2001626:	9203      	str	r2, [sp, #12]
c2001628:	783d      	ldrb	r5, [r7, #0]
c200162a:	f04b 0b04 	orr.w	fp, fp, #4
c200162e:	e5c3      	b.n	c20011b8 <_vfprintf_r+0x110>
c2001630:	232b      	movs	r3, #43	; 0x2b
c2001632:	783d      	ldrb	r5, [r7, #0]
c2001634:	f88d 306b 	strb.w	r3, [sp, #107]	; 0x6b
c2001638:	e5be      	b.n	c20011b8 <_vfprintf_r+0x110>
c200163a:	783d      	ldrb	r5, [r7, #0]
c200163c:	f04b 0b80 	orr.w	fp, fp, #128	; 0x80
c2001640:	e5ba      	b.n	c20011b8 <_vfprintf_r+0x110>
c2001642:	463a      	mov	r2, r7
c2001644:	f812 5b01 	ldrb.w	r5, [r2], #1
c2001648:	2d2a      	cmp	r5, #42	; 0x2a
c200164a:	f001 8268 	beq.w	c2002b1e <_vfprintf_r+0x1a76>
c200164e:	f1a5 0330 	sub.w	r3, r5, #48	; 0x30
c2001652:	4617      	mov	r7, r2
c2001654:	f04f 0a00 	mov.w	sl, #0
c2001658:	2b09      	cmp	r3, #9
c200165a:	f63f adae 	bhi.w	c20011ba <_vfprintf_r+0x112>
c200165e:	f817 5b01 	ldrb.w	r5, [r7], #1
c2001662:	fb04 3a0a 	mla	sl, r4, sl, r3
c2001666:	f1a5 0330 	sub.w	r3, r5, #48	; 0x30
c200166a:	2b09      	cmp	r3, #9
c200166c:	d9f7      	bls.n	c200165e <_vfprintf_r+0x5b6>
c200166e:	e5a4      	b.n	c20011ba <_vfprintf_r+0x112>
c2001670:	783d      	ldrb	r5, [r7, #0]
c2001672:	f04b 0b01 	orr.w	fp, fp, #1
c2001676:	e59f      	b.n	c20011b8 <_vfprintf_r+0x110>
c2001678:	f89d 306b 	ldrb.w	r3, [sp, #107]	; 0x6b
c200167c:	2b00      	cmp	r3, #0
c200167e:	f47f ae21 	bne.w	c20012c4 <_vfprintf_r+0x21c>
c2001682:	2320      	movs	r3, #32
c2001684:	783d      	ldrb	r5, [r7, #0]
c2001686:	f88d 306b 	strb.w	r3, [sp, #107]	; 0x6b
c200168a:	e595      	b.n	c20011b8 <_vfprintf_r+0x110>
c200168c:	f04b 0310 	orr.w	r3, fp, #16
c2001690:	9305      	str	r3, [sp, #20]
c2001692:	9b05      	ldr	r3, [sp, #20]
c2001694:	f013 0620 	ands.w	r6, r3, #32
c2001698:	f000 8377 	beq.w	c2001d8a <_vfprintf_r+0xce2>
c200169c:	9b07      	ldr	r3, [sp, #28]
c200169e:	2201      	movs	r2, #1
c20016a0:	3307      	adds	r3, #7
c20016a2:	f023 0307 	bic.w	r3, r3, #7
c20016a6:	685e      	ldr	r6, [r3, #4]
c20016a8:	f853 4b08 	ldr.w	r4, [r3], #8
c20016ac:	9307      	str	r3, [sp, #28]
c20016ae:	e780      	b.n	c20015b2 <_vfprintf_r+0x50a>
c20016b0:	783d      	ldrb	r5, [r7, #0]
c20016b2:	f04b 0b08 	orr.w	fp, fp, #8
c20016b6:	e57f      	b.n	c20011b8 <_vfprintf_r+0x110>
c20016b8:	f01b 0f20 	tst.w	fp, #32
c20016bc:	f040 847b 	bne.w	c2001fb6 <_vfprintf_r+0xf0e>
c20016c0:	f01b 0f10 	tst.w	fp, #16
c20016c4:	f040 85a4 	bne.w	c2002210 <_vfprintf_r+0x1168>
c20016c8:	f01b 0f40 	tst.w	fp, #64	; 0x40
c20016cc:	f040 871e 	bne.w	c200250c <_vfprintf_r+0x1464>
c20016d0:	f41b 7f00 	tst.w	fp, #512	; 0x200
c20016d4:	f000 859c 	beq.w	c2002210 <_vfprintf_r+0x1168>
c20016d8:	9b07      	ldr	r3, [sp, #28]
c20016da:	9904      	ldr	r1, [sp, #16]
c20016dc:	f853 2b04 	ldr.w	r2, [r3], #4
c20016e0:	9307      	str	r3, [sp, #28]
c20016e2:	7011      	strb	r1, [r2, #0]
c20016e4:	e53a      	b.n	c200115c <_vfprintf_r+0xb4>
c20016e6:	9b07      	ldr	r3, [sp, #28]
c20016e8:	f04b 0202 	orr.w	r2, fp, #2
c20016ec:	2578      	movs	r5, #120	; 0x78
c20016ee:	9205      	str	r2, [sp, #20]
c20016f0:	2600      	movs	r6, #0
c20016f2:	2230      	movs	r2, #48	; 0x30
c20016f4:	f853 4b04 	ldr.w	r4, [r3], #4
c20016f8:	f88d 206c 	strb.w	r2, [sp, #108]	; 0x6c
c20016fc:	2202      	movs	r2, #2
c20016fe:	9307      	str	r3, [sp, #28]
c2001700:	f647 43cc 	movw	r3, #31948	; 0x7ccc
c2001704:	f2cc 2300 	movt	r3, #49664	; 0xc200
c2001708:	f88d 506d 	strb.w	r5, [sp, #109]	; 0x6d
c200170c:	9313      	str	r3, [sp, #76]	; 0x4c
c200170e:	e750      	b.n	c20015b2 <_vfprintf_r+0x50a>
c2001710:	783d      	ldrb	r5, [r7, #0]
c2001712:	2d6c      	cmp	r5, #108	; 0x6c
c2001714:	bf09      	itett	eq
c2001716:	f04b 0b20 	orreq.w	fp, fp, #32
c200171a:	f04b 0b10 	orrne.w	fp, fp, #16
c200171e:	787d      	ldrbeq	r5, [r7, #1]
c2001720:	3701      	addeq	r7, #1
c2001722:	e549      	b.n	c20011b8 <_vfprintf_r+0x110>
c2001724:	783d      	ldrb	r5, [r7, #0]
c2001726:	2d68      	cmp	r5, #104	; 0x68
c2001728:	bf09      	itett	eq
c200172a:	f44b 7b00 	orreq.w	fp, fp, #512	; 0x200
c200172e:	f04b 0b40 	orrne.w	fp, fp, #64	; 0x40
c2001732:	787d      	ldrbeq	r5, [r7, #1]
c2001734:	3701      	addeq	r7, #1
c2001736:	e53f      	b.n	c20011b8 <_vfprintf_r+0x110>
c2001738:	2d65      	cmp	r5, #101	; 0x65
c200173a:	f340 813d 	ble.w	c20019b8 <_vfprintf_r+0x910>
c200173e:	eeb5 8b40 	vcmp.f64	d8, #0.0
c2001742:	eef1 fa10 	vmrs	APSR_nzcv, fpscr
c2001746:	f040 824b 	bne.w	c2001be0 <_vfprintf_r+0xb38>
c200174a:	9b23      	ldr	r3, [sp, #140]	; 0x8c
c200174c:	2101      	movs	r1, #1
c200174e:	3201      	adds	r2, #1
c2001750:	f8c8 1004 	str.w	r1, [r8, #4]
c2001754:	3301      	adds	r3, #1
c2001756:	f647 41fc 	movw	r1, #31996	; 0x7cfc
c200175a:	f2cc 2100 	movt	r1, #49664	; 0xc200
c200175e:	2b07      	cmp	r3, #7
c2001760:	f8c8 1000 	str.w	r1, [r8]
c2001764:	bfd8      	it	le
c2001766:	f108 0808 	addle.w	r8, r8, #8
c200176a:	9224      	str	r2, [sp, #144]	; 0x90
c200176c:	9323      	str	r3, [sp, #140]	; 0x8c
c200176e:	f300 84e1 	bgt.w	c2002134 <_vfprintf_r+0x108c>
c2001772:	9b1c      	ldr	r3, [sp, #112]	; 0x70
c2001774:	990d      	ldr	r1, [sp, #52]	; 0x34
c2001776:	428b      	cmp	r3, r1
c2001778:	f280 8344 	bge.w	c2001e04 <_vfprintf_r+0xd5c>
c200177c:	9b11      	ldr	r3, [sp, #68]	; 0x44
c200177e:	9912      	ldr	r1, [sp, #72]	; 0x48
c2001780:	441a      	add	r2, r3
c2001782:	e9c8 1300 	strd	r1, r3, [r8]
c2001786:	9b23      	ldr	r3, [sp, #140]	; 0x8c
c2001788:	9224      	str	r2, [sp, #144]	; 0x90
c200178a:	3301      	adds	r3, #1
c200178c:	9323      	str	r3, [sp, #140]	; 0x8c
c200178e:	2b07      	cmp	r3, #7
c2001790:	bfd8      	it	le
c2001792:	f108 0808 	addle.w	r8, r8, #8
c2001796:	f300 844a 	bgt.w	c200202e <_vfprintf_r+0xf86>
c200179a:	9b0d      	ldr	r3, [sp, #52]	; 0x34
c200179c:	1e5c      	subs	r4, r3, #1
c200179e:	2c00      	cmp	r4, #0
c20017a0:	f77f ae3a 	ble.w	c2001418 <_vfprintf_r+0x370>
c20017a4:	9b23      	ldr	r3, [sp, #140]	; 0x8c
c20017a6:	2c10      	cmp	r4, #16
c20017a8:	f340 84d6 	ble.w	c2002158 <_vfprintf_r+0x10b0>
c20017ac:	4649      	mov	r1, r9
c20017ae:	9705      	str	r7, [sp, #20]
c20017b0:	46b1      	mov	r9, r6
c20017b2:	ee1a aa10 	vmov	sl, s20
c20017b6:	9f0e      	ldr	r7, [sp, #56]	; 0x38
c20017b8:	2510      	movs	r5, #16
c20017ba:	460e      	mov	r6, r1
c20017bc:	e003      	b.n	c20017c6 <_vfprintf_r+0x71e>
c20017be:	3c10      	subs	r4, #16
c20017c0:	2c10      	cmp	r4, #16
c20017c2:	f340 84c5 	ble.w	c2002150 <_vfprintf_r+0x10a8>
c20017c6:	3301      	adds	r3, #1
c20017c8:	3210      	adds	r2, #16
c20017ca:	2b07      	cmp	r3, #7
c20017cc:	e9c8 7500 	strd	r7, r5, [r8]
c20017d0:	e9cd 3223 	strd	r3, r2, [sp, #140]	; 0x8c
c20017d4:	bfd8      	it	le
c20017d6:	f108 0808 	addle.w	r8, r8, #8
c20017da:	ddf0      	ble.n	c20017be <_vfprintf_r+0x716>
c20017dc:	aa22      	add	r2, sp, #136	; 0x88
c20017de:	4631      	mov	r1, r6
c20017e0:	4650      	mov	r0, sl
c20017e2:	f10d 0894 	add.w	r8, sp, #148	; 0x94
c20017e6:	f004 f84b 	bl	c2005880 <__sprint_r>
c20017ea:	2800      	cmp	r0, #0
c20017ec:	f040 81e4 	bne.w	c2001bb8 <_vfprintf_r+0xb10>
c20017f0:	e9dd 3223 	ldrd	r3, r2, [sp, #140]	; 0x8c
c20017f4:	e7e3      	b.n	c20017be <_vfprintf_r+0x716>
c20017f6:	9b03      	ldr	r3, [sp, #12]
c20017f8:	1b9c      	subs	r4, r3, r6
c20017fa:	2c00      	cmp	r4, #0
c20017fc:	f77f adf2 	ble.w	c20013e4 <_vfprintf_r+0x33c>
c2001800:	9b23      	ldr	r3, [sp, #140]	; 0x8c
c2001802:	2c10      	cmp	r4, #16
c2001804:	dd2b      	ble.n	c200185e <_vfprintf_r+0x7b6>
c2001806:	9609      	str	r6, [sp, #36]	; 0x24
c2001808:	464e      	mov	r6, r9
c200180a:	970a      	str	r7, [sp, #40]	; 0x28
c200180c:	46a9      	mov	r9, r5
c200180e:	9f0e      	ldr	r7, [sp, #56]	; 0x38
c2001810:	ee1a 5a10 	vmov	r5, s20
c2001814:	e002      	b.n	c200181c <_vfprintf_r+0x774>
c2001816:	3c10      	subs	r4, #16
c2001818:	2c10      	cmp	r4, #16
c200181a:	dd1c      	ble.n	c2001856 <_vfprintf_r+0x7ae>
c200181c:	3301      	adds	r3, #1
c200181e:	2110      	movs	r1, #16
c2001820:	2b07      	cmp	r3, #7
c2001822:	440a      	add	r2, r1
c2001824:	f8c8 7000 	str.w	r7, [r8]
c2001828:	f8c8 1004 	str.w	r1, [r8, #4]
c200182c:	bfd8      	it	le
c200182e:	f108 0808 	addle.w	r8, r8, #8
c2001832:	e9cd 3223 	strd	r3, r2, [sp, #140]	; 0x8c
c2001836:	ddee      	ble.n	c2001816 <_vfprintf_r+0x76e>
c2001838:	aa22      	add	r2, sp, #136	; 0x88
c200183a:	4631      	mov	r1, r6
c200183c:	4628      	mov	r0, r5
c200183e:	f10d 0894 	add.w	r8, sp, #148	; 0x94
c2001842:	f004 f81d 	bl	c2005880 <__sprint_r>
c2001846:	2800      	cmp	r0, #0
c2001848:	f040 81b6 	bne.w	c2001bb8 <_vfprintf_r+0xb10>
c200184c:	3c10      	subs	r4, #16
c200184e:	e9dd 3223 	ldrd	r3, r2, [sp, #140]	; 0x8c
c2001852:	2c10      	cmp	r4, #16
c2001854:	dce2      	bgt.n	c200181c <_vfprintf_r+0x774>
c2001856:	464d      	mov	r5, r9
c2001858:	46b1      	mov	r9, r6
c200185a:	e9dd 6709 	ldrd	r6, r7, [sp, #36]	; 0x24
c200185e:	3301      	adds	r3, #1
c2001860:	990e      	ldr	r1, [sp, #56]	; 0x38
c2001862:	2b07      	cmp	r3, #7
c2001864:	4422      	add	r2, r4
c2001866:	f8c8 4004 	str.w	r4, [r8, #4]
c200186a:	f8c8 1000 	str.w	r1, [r8]
c200186e:	bfd8      	it	le
c2001870:	f108 0808 	addle.w	r8, r8, #8
c2001874:	e9cd 3223 	strd	r3, r2, [sp, #140]	; 0x8c
c2001878:	f77f adb4 	ble.w	c20013e4 <_vfprintf_r+0x33c>
c200187c:	ee1a 0a10 	vmov	r0, s20
c2001880:	aa22      	add	r2, sp, #136	; 0x88
c2001882:	4649      	mov	r1, r9
c2001884:	f003 fffc 	bl	c2005880 <__sprint_r>
c2001888:	2800      	cmp	r0, #0
c200188a:	d17b      	bne.n	c2001984 <_vfprintf_r+0x8dc>
c200188c:	9a24      	ldr	r2, [sp, #144]	; 0x90
c200188e:	f10d 0894 	add.w	r8, sp, #148	; 0x94
c2001892:	e5a7      	b.n	c20013e4 <_vfprintf_r+0x33c>
c2001894:	9b23      	ldr	r3, [sp, #140]	; 0x8c
c2001896:	2c10      	cmp	r4, #16
c2001898:	dd2a      	ble.n	c20018f0 <_vfprintf_r+0x848>
c200189a:	9609      	str	r6, [sp, #36]	; 0x24
c200189c:	f04f 0a10 	mov.w	sl, #16
c20018a0:	464e      	mov	r6, r9
c20018a2:	970a      	str	r7, [sp, #40]	; 0x28
c20018a4:	46a9      	mov	r9, r5
c20018a6:	9f0e      	ldr	r7, [sp, #56]	; 0x38
c20018a8:	ee1a 5a10 	vmov	r5, s20
c20018ac:	e002      	b.n	c20018b4 <_vfprintf_r+0x80c>
c20018ae:	3c10      	subs	r4, #16
c20018b0:	2c10      	cmp	r4, #16
c20018b2:	dd19      	ble.n	c20018e8 <_vfprintf_r+0x840>
c20018b4:	3301      	adds	r3, #1
c20018b6:	3210      	adds	r2, #16
c20018b8:	2b07      	cmp	r3, #7
c20018ba:	e9c8 7a00 	strd	r7, sl, [r8]
c20018be:	e9cd 3223 	strd	r3, r2, [sp, #140]	; 0x8c
c20018c2:	bfd8      	it	le
c20018c4:	f108 0808 	addle.w	r8, r8, #8
c20018c8:	ddf1      	ble.n	c20018ae <_vfprintf_r+0x806>
c20018ca:	aa22      	add	r2, sp, #136	; 0x88
c20018cc:	4631      	mov	r1, r6
c20018ce:	4628      	mov	r0, r5
c20018d0:	f10d 0894 	add.w	r8, sp, #148	; 0x94
c20018d4:	f003 ffd4 	bl	c2005880 <__sprint_r>
c20018d8:	2800      	cmp	r0, #0
c20018da:	f040 816d 	bne.w	c2001bb8 <_vfprintf_r+0xb10>
c20018de:	3c10      	subs	r4, #16
c20018e0:	e9dd 3223 	ldrd	r3, r2, [sp, #140]	; 0x8c
c20018e4:	2c10      	cmp	r4, #16
c20018e6:	dce5      	bgt.n	c20018b4 <_vfprintf_r+0x80c>
c20018e8:	464d      	mov	r5, r9
c20018ea:	46b1      	mov	r9, r6
c20018ec:	e9dd 6709 	ldrd	r6, r7, [sp, #36]	; 0x24
c20018f0:	3301      	adds	r3, #1
c20018f2:	990e      	ldr	r1, [sp, #56]	; 0x38
c20018f4:	2b07      	cmp	r3, #7
c20018f6:	4422      	add	r2, r4
c20018f8:	f8c8 4004 	str.w	r4, [r8, #4]
c20018fc:	f8c8 1000 	str.w	r1, [r8]
c2001900:	bfd8      	it	le
c2001902:	f108 0808 	addle.w	r8, r8, #8
c2001906:	e9cd 3223 	strd	r3, r2, [sp, #140]	; 0x8c
c200190a:	f77f ad71 	ble.w	c20013f0 <_vfprintf_r+0x348>
c200190e:	ee1a 0a10 	vmov	r0, s20
c2001912:	aa22      	add	r2, sp, #136	; 0x88
c2001914:	4649      	mov	r1, r9
c2001916:	f003 ffb3 	bl	c2005880 <__sprint_r>
c200191a:	bb98      	cbnz	r0, c2001984 <_vfprintf_r+0x8dc>
c200191c:	9a24      	ldr	r2, [sp, #144]	; 0x90
c200191e:	f10d 0894 	add.w	r8, sp, #148	; 0x94
c2001922:	e565      	b.n	c20013f0 <_vfprintf_r+0x348>
c2001924:	f8cd b014 	str.w	fp, [sp, #20]
c2001928:	2a01      	cmp	r2, #1
c200192a:	f000 8149 	beq.w	c2001bc0 <_vfprintf_r+0xb18>
c200192e:	2a02      	cmp	r2, #2
c2001930:	f000 80ef 	beq.w	c2001b12 <_vfprintf_r+0xa6a>
c2001934:	a94e      	add	r1, sp, #312	; 0x138
c2001936:	08e2      	lsrs	r2, r4, #3
c2001938:	f004 0307 	and.w	r3, r4, #7
c200193c:	ea42 7446 	orr.w	r4, r2, r6, lsl #29
c2001940:	08f6      	lsrs	r6, r6, #3
c2001942:	3330      	adds	r3, #48	; 0x30
c2001944:	460a      	mov	r2, r1
c2001946:	ea54 0006 	orrs.w	r0, r4, r6
c200194a:	f801 3d01 	strb.w	r3, [r1, #-1]!
c200194e:	d1f2      	bne.n	c2001936 <_vfprintf_r+0x88e>
c2001950:	9805      	ldr	r0, [sp, #20]
c2001952:	460c      	mov	r4, r1
c2001954:	9108      	str	r1, [sp, #32]
c2001956:	4601      	mov	r1, r0
c2001958:	2b30      	cmp	r3, #48	; 0x30
c200195a:	bf0c      	ite	eq
c200195c:	2100      	moveq	r1, #0
c200195e:	f001 0101 	andne.w	r1, r1, #1
c2001962:	2900      	cmp	r1, #0
c2001964:	f040 83ce 	bne.w	c2002104 <_vfprintf_r+0x105c>
c2001968:	ab4e      	add	r3, sp, #312	; 0x138
c200196a:	4683      	mov	fp, r0
c200196c:	1b1b      	subs	r3, r3, r4
c200196e:	9305      	str	r3, [sp, #20]
c2001970:	e643      	b.n	c20015fa <_vfprintf_r+0x552>
c2001972:	ee1a 0a10 	vmov	r0, s20
c2001976:	aa22      	add	r2, sp, #136	; 0x88
c2001978:	4649      	mov	r1, r9
c200197a:	f003 ff81 	bl	c2005880 <__sprint_r>
c200197e:	2800      	cmp	r0, #0
c2001980:	f43f ad5c 	beq.w	c200143c <_vfprintf_r+0x394>
c2001984:	46ca      	mov	sl, r9
c2001986:	9906      	ldr	r1, [sp, #24]
c2001988:	b119      	cbz	r1, c2001992 <_vfprintf_r+0x8ea>
c200198a:	ee1a 0a10 	vmov	r0, s20
c200198e:	f002 fa8b 	bl	c2003ea8 <_free_r>
c2001992:	f8da 3064 	ldr.w	r3, [sl, #100]	; 0x64
c2001996:	f013 0f01 	tst.w	r3, #1
c200199a:	f8ba 300c 	ldrh.w	r3, [sl, #12]
c200199e:	d102      	bne.n	c20019a6 <_vfprintf_r+0x8fe>
c20019a0:	059a      	lsls	r2, r3, #22
c20019a2:	f140 8398 	bpl.w	c20020d6 <_vfprintf_r+0x102e>
c20019a6:	065b      	lsls	r3, r3, #25
c20019a8:	f100 87ce 	bmi.w	c2002948 <_vfprintf_r+0x18a0>
c20019ac:	9804      	ldr	r0, [sp, #16]
c20019ae:	b04f      	add	sp, #316	; 0x13c
c20019b0:	ecbd 8b06 	vpop	{d8-d10}
c20019b4:	e8bd 8ff0 	ldmia.w	sp!, {r4, r5, r6, r7, r8, r9, sl, fp, pc}
c20019b8:	9b0d      	ldr	r3, [sp, #52]	; 0x34
c20019ba:	2b01      	cmp	r3, #1
c20019bc:	f340 8198 	ble.w	c2001cf0 <_vfprintf_r+0xc48>
c20019c0:	9b08      	ldr	r3, [sp, #32]
c20019c2:	3201      	adds	r2, #1
c20019c4:	f8c8 3000 	str.w	r3, [r8]
c20019c8:	2101      	movs	r1, #1
c20019ca:	9b23      	ldr	r3, [sp, #140]	; 0x8c
c20019cc:	f8c8 1004 	str.w	r1, [r8, #4]
c20019d0:	3301      	adds	r3, #1
c20019d2:	9224      	str	r2, [sp, #144]	; 0x90
c20019d4:	2b07      	cmp	r3, #7
c20019d6:	9323      	str	r3, [sp, #140]	; 0x8c
c20019d8:	bfd8      	it	le
c20019da:	f108 0808 	addle.w	r8, r8, #8
c20019de:	f300 836c 	bgt.w	c20020ba <_vfprintf_r+0x1012>
c20019e2:	9911      	ldr	r1, [sp, #68]	; 0x44
c20019e4:	3301      	adds	r3, #1
c20019e6:	9812      	ldr	r0, [sp, #72]	; 0x48
c20019e8:	2b07      	cmp	r3, #7
c20019ea:	440a      	add	r2, r1
c20019ec:	e9c8 0100 	strd	r0, r1, [r8]
c20019f0:	e9cd 3223 	strd	r3, r2, [sp, #140]	; 0x8c
c20019f4:	bfd8      	it	le
c20019f6:	f108 0808 	addle.w	r8, r8, #8
c20019fa:	f300 8350 	bgt.w	c200209e <_vfprintf_r+0xff6>
c20019fe:	eeb5 8b40 	vcmp.f64	d8, #0.0
c2001a02:	eef1 fa10 	vmrs	APSR_nzcv, fpscr
c2001a06:	f000 8193 	beq.w	c2001d30 <_vfprintf_r+0xc88>
c2001a0a:	9908      	ldr	r1, [sp, #32]
c2001a0c:	3301      	adds	r3, #1
c2001a0e:	2b07      	cmp	r3, #7
c2001a10:	9323      	str	r3, [sp, #140]	; 0x8c
c2001a12:	f101 0101 	add.w	r1, r1, #1
c2001a16:	f8c8 1000 	str.w	r1, [r8]
c2001a1a:	990d      	ldr	r1, [sp, #52]	; 0x34
c2001a1c:	f101 31ff 	add.w	r1, r1, #4294967295	; 0xffffffff
c2001a20:	f8c8 1004 	str.w	r1, [r8, #4]
c2001a24:	440a      	add	r2, r1
c2001a26:	9224      	str	r2, [sp, #144]	; 0x90
c2001a28:	f300 8174 	bgt.w	c2001d14 <_vfprintf_r+0xc6c>
c2001a2c:	f108 0808 	add.w	r8, r8, #8
c2001a30:	9914      	ldr	r1, [sp, #80]	; 0x50
c2001a32:	3301      	adds	r3, #1
c2001a34:	f8c8 1004 	str.w	r1, [r8, #4]
c2001a38:	2b07      	cmp	r3, #7
c2001a3a:	440a      	add	r2, r1
c2001a3c:	a91e      	add	r1, sp, #120	; 0x78
c2001a3e:	e9cd 3223 	strd	r3, r2, [sp, #140]	; 0x8c
c2001a42:	f8c8 1000 	str.w	r1, [r8]
c2001a46:	f77f ace5 	ble.w	c2001414 <_vfprintf_r+0x36c>
c2001a4a:	ee1a 0a10 	vmov	r0, s20
c2001a4e:	aa22      	add	r2, sp, #136	; 0x88
c2001a50:	4649      	mov	r1, r9
c2001a52:	f003 ff15 	bl	c2005880 <__sprint_r>
c2001a56:	2800      	cmp	r0, #0
c2001a58:	d194      	bne.n	c2001984 <_vfprintf_r+0x8dc>
c2001a5a:	9a24      	ldr	r2, [sp, #144]	; 0x90
c2001a5c:	f10d 0894 	add.w	r8, sp, #148	; 0x94
c2001a60:	e4da      	b.n	c2001418 <_vfprintf_r+0x370>
c2001a62:	e9dd 1223 	ldrd	r1, r2, [sp, #140]	; 0x8c
c2001a66:	2c10      	cmp	r4, #16
c2001a68:	dd28      	ble.n	c2001abc <_vfprintf_r+0xa14>
c2001a6a:	e9cd 5718 	strd	r5, r7, [sp, #96]	; 0x60
c2001a6e:	2310      	movs	r3, #16
c2001a70:	4637      	mov	r7, r6
c2001a72:	9d10      	ldr	r5, [sp, #64]	; 0x40
c2001a74:	ee1a 6a10 	vmov	r6, s20
c2001a78:	e002      	b.n	c2001a80 <_vfprintf_r+0x9d8>
c2001a7a:	3c10      	subs	r4, #16
c2001a7c:	2c10      	cmp	r4, #16
c2001a7e:	dd1a      	ble.n	c2001ab6 <_vfprintf_r+0xa0e>
c2001a80:	3101      	adds	r1, #1
c2001a82:	3210      	adds	r2, #16
c2001a84:	2907      	cmp	r1, #7
c2001a86:	e9c8 5300 	strd	r5, r3, [r8]
c2001a8a:	e9cd 1223 	strd	r1, r2, [sp, #140]	; 0x8c
c2001a8e:	bfd8      	it	le
c2001a90:	f108 0808 	addle.w	r8, r8, #8
c2001a94:	ddf1      	ble.n	c2001a7a <_vfprintf_r+0x9d2>
c2001a96:	aa22      	add	r2, sp, #136	; 0x88
c2001a98:	4649      	mov	r1, r9
c2001a9a:	4630      	mov	r0, r6
c2001a9c:	f10d 0894 	add.w	r8, sp, #148	; 0x94
c2001aa0:	f003 feee 	bl	c2005880 <__sprint_r>
c2001aa4:	2800      	cmp	r0, #0
c2001aa6:	f47f af6d 	bne.w	c2001984 <_vfprintf_r+0x8dc>
c2001aaa:	3c10      	subs	r4, #16
c2001aac:	2310      	movs	r3, #16
c2001aae:	e9dd 1223 	ldrd	r1, r2, [sp, #140]	; 0x8c
c2001ab2:	2c10      	cmp	r4, #16
c2001ab4:	dce4      	bgt.n	c2001a80 <_vfprintf_r+0x9d8>
c2001ab6:	463e      	mov	r6, r7
c2001ab8:	9d18      	ldr	r5, [sp, #96]	; 0x60
c2001aba:	9f19      	ldr	r7, [sp, #100]	; 0x64
c2001abc:	3101      	adds	r1, #1
c2001abe:	9b10      	ldr	r3, [sp, #64]	; 0x40
c2001ac0:	4422      	add	r2, r4
c2001ac2:	2907      	cmp	r1, #7
c2001ac4:	f8c8 4004 	str.w	r4, [r8, #4]
c2001ac8:	f8c8 3000 	str.w	r3, [r8]
c2001acc:	e9cd 1223 	strd	r1, r2, [sp, #140]	; 0x8c
c2001ad0:	f300 8308 	bgt.w	c20020e4 <_vfprintf_r+0x103c>
c2001ad4:	f89d 106b 	ldrb.w	r1, [sp, #107]	; 0x6b
c2001ad8:	f108 0808 	add.w	r8, r8, #8
c2001adc:	e458      	b.n	c2001390 <_vfprintf_r+0x2e8>
c2001ade:	ee1a 0a10 	vmov	r0, s20
c2001ae2:	aa22      	add	r2, sp, #136	; 0x88
c2001ae4:	4649      	mov	r1, r9
c2001ae6:	f003 fecb 	bl	c2005880 <__sprint_r>
c2001aea:	2800      	cmp	r0, #0
c2001aec:	f47f af4a 	bne.w	c2001984 <_vfprintf_r+0x8dc>
c2001af0:	9a24      	ldr	r2, [sp, #144]	; 0x90
c2001af2:	f10d 0894 	add.w	r8, sp, #148	; 0x94
c2001af6:	e471      	b.n	c20013dc <_vfprintf_r+0x334>
c2001af8:	ee1a 0a10 	vmov	r0, s20
c2001afc:	aa22      	add	r2, sp, #136	; 0x88
c2001afe:	4649      	mov	r1, r9
c2001b00:	f003 febe 	bl	c2005880 <__sprint_r>
c2001b04:	2800      	cmp	r0, #0
c2001b06:	f47f af3d 	bne.w	c2001984 <_vfprintf_r+0x8dc>
c2001b0a:	9a24      	ldr	r2, [sp, #144]	; 0x90
c2001b0c:	f10d 0894 	add.w	r8, sp, #148	; 0x94
c2001b10:	e451      	b.n	c20013b6 <_vfprintf_r+0x30e>
c2001b12:	9913      	ldr	r1, [sp, #76]	; 0x4c
c2001b14:	ab4e      	add	r3, sp, #312	; 0x138
c2001b16:	f004 020f 	and.w	r2, r4, #15
c2001b1a:	0924      	lsrs	r4, r4, #4
c2001b1c:	ea44 7406 	orr.w	r4, r4, r6, lsl #28
c2001b20:	0936      	lsrs	r6, r6, #4
c2001b22:	5c8a      	ldrb	r2, [r1, r2]
c2001b24:	f803 2d01 	strb.w	r2, [r3, #-1]!
c2001b28:	ea54 0206 	orrs.w	r2, r4, r6
c2001b2c:	d1f3      	bne.n	c2001b16 <_vfprintf_r+0xa6e>
c2001b2e:	aa4e      	add	r2, sp, #312	; 0x138
c2001b30:	f8dd b014 	ldr.w	fp, [sp, #20]
c2001b34:	9308      	str	r3, [sp, #32]
c2001b36:	1ad3      	subs	r3, r2, r3
c2001b38:	9305      	str	r3, [sp, #20]
c2001b3a:	e55e      	b.n	c20015fa <_vfprintf_r+0x552>
c2001b3c:	9b23      	ldr	r3, [sp, #140]	; 0x8c
c2001b3e:	2c10      	cmp	r4, #16
c2001b40:	dd23      	ble.n	c2001b8a <_vfprintf_r+0xae2>
c2001b42:	46b3      	mov	fp, r6
c2001b44:	ee1a aa10 	vmov	sl, s20
c2001b48:	9e10      	ldr	r6, [sp, #64]	; 0x40
c2001b4a:	2510      	movs	r5, #16
c2001b4c:	e002      	b.n	c2001b54 <_vfprintf_r+0xaac>
c2001b4e:	3c10      	subs	r4, #16
c2001b50:	2c10      	cmp	r4, #16
c2001b52:	dd19      	ble.n	c2001b88 <_vfprintf_r+0xae0>
c2001b54:	3301      	adds	r3, #1
c2001b56:	3210      	adds	r2, #16
c2001b58:	2b07      	cmp	r3, #7
c2001b5a:	e9c8 6500 	strd	r6, r5, [r8]
c2001b5e:	e9cd 3223 	strd	r3, r2, [sp, #140]	; 0x8c
c2001b62:	bfd8      	it	le
c2001b64:	f108 0808 	addle.w	r8, r8, #8
c2001b68:	ddf1      	ble.n	c2001b4e <_vfprintf_r+0xaa6>
c2001b6a:	aa22      	add	r2, sp, #136	; 0x88
c2001b6c:	4649      	mov	r1, r9
c2001b6e:	4650      	mov	r0, sl
c2001b70:	f10d 0894 	add.w	r8, sp, #148	; 0x94
c2001b74:	f003 fe84 	bl	c2005880 <__sprint_r>
c2001b78:	2800      	cmp	r0, #0
c2001b7a:	f47f af03 	bne.w	c2001984 <_vfprintf_r+0x8dc>
c2001b7e:	3c10      	subs	r4, #16
c2001b80:	e9dd 3223 	ldrd	r3, r2, [sp, #140]	; 0x8c
c2001b84:	2c10      	cmp	r4, #16
c2001b86:	dce5      	bgt.n	c2001b54 <_vfprintf_r+0xaac>
c2001b88:	465e      	mov	r6, fp
c2001b8a:	3301      	adds	r3, #1
c2001b8c:	9910      	ldr	r1, [sp, #64]	; 0x40
c2001b8e:	4422      	add	r2, r4
c2001b90:	2b07      	cmp	r3, #7
c2001b92:	f8c8 4004 	str.w	r4, [r8, #4]
c2001b96:	f8c8 1000 	str.w	r1, [r8]
c2001b9a:	e9cd 3223 	strd	r3, r2, [sp, #140]	; 0x8c
c2001b9e:	f77f ac43 	ble.w	c2001428 <_vfprintf_r+0x380>
c2001ba2:	ee1a 0a10 	vmov	r0, s20
c2001ba6:	aa22      	add	r2, sp, #136	; 0x88
c2001ba8:	4649      	mov	r1, r9
c2001baa:	f003 fe69 	bl	c2005880 <__sprint_r>
c2001bae:	2800      	cmp	r0, #0
c2001bb0:	f47f aee8 	bne.w	c2001984 <_vfprintf_r+0x8dc>
c2001bb4:	9a24      	ldr	r2, [sp, #144]	; 0x90
c2001bb6:	e437      	b.n	c2001428 <_vfprintf_r+0x380>
c2001bb8:	46b2      	mov	sl, r6
c2001bba:	e6e4      	b.n	c2001986 <_vfprintf_r+0x8de>
c2001bbc:	f8cd b014 	str.w	fp, [sp, #20]
c2001bc0:	2c0a      	cmp	r4, #10
c2001bc2:	f176 0300 	sbcs.w	r3, r6, #0
c2001bc6:	f080 82d4 	bcs.w	c2002172 <_vfprintf_r+0x10ca>
c2001bca:	2301      	movs	r3, #1
c2001bcc:	f8dd b014 	ldr.w	fp, [sp, #20]
c2001bd0:	3430      	adds	r4, #48	; 0x30
c2001bd2:	9305      	str	r3, [sp, #20]
c2001bd4:	f88d 4137 	strb.w	r4, [sp, #311]	; 0x137
c2001bd8:	f20d 1337 	addw	r3, sp, #311	; 0x137
c2001bdc:	9308      	str	r3, [sp, #32]
c2001bde:	e50c      	b.n	c20015fa <_vfprintf_r+0x552>
c2001be0:	991c      	ldr	r1, [sp, #112]	; 0x70
c2001be2:	2900      	cmp	r1, #0
c2001be4:	f340 8117 	ble.w	c2001e16 <_vfprintf_r+0xd6e>
c2001be8:	9d0b      	ldr	r5, [sp, #44]	; 0x2c
c2001bea:	9b0d      	ldr	r3, [sp, #52]	; 0x34
c2001bec:	429d      	cmp	r5, r3
c2001bee:	bfa8      	it	ge
c2001bf0:	461d      	movge	r5, r3
c2001bf2:	2d00      	cmp	r5, #0
c2001bf4:	dd0d      	ble.n	c2001c12 <_vfprintf_r+0xb6a>
c2001bf6:	9b08      	ldr	r3, [sp, #32]
c2001bf8:	442a      	add	r2, r5
c2001bfa:	e9c8 3500 	strd	r3, r5, [r8]
c2001bfe:	9b23      	ldr	r3, [sp, #140]	; 0x8c
c2001c00:	9224      	str	r2, [sp, #144]	; 0x90
c2001c02:	3301      	adds	r3, #1
c2001c04:	9323      	str	r3, [sp, #140]	; 0x8c
c2001c06:	2b07      	cmp	r3, #7
c2001c08:	bfd8      	it	le
c2001c0a:	f108 0808 	addle.w	r8, r8, #8
c2001c0e:	f300 85e4 	bgt.w	c20027da <_vfprintf_r+0x1732>
c2001c12:	9c0b      	ldr	r4, [sp, #44]	; 0x2c
c2001c14:	2d00      	cmp	r5, #0
c2001c16:	bfa8      	it	ge
c2001c18:	1b64      	subge	r4, r4, r5
c2001c1a:	2c00      	cmp	r4, #0
c2001c1c:	f300 8319 	bgt.w	c2002252 <_vfprintf_r+0x11aa>
c2001c20:	9b0b      	ldr	r3, [sp, #44]	; 0x2c
c2001c22:	f41b 6f80 	tst.w	fp, #1024	; 0x400
c2001c26:	9908      	ldr	r1, [sp, #32]
c2001c28:	440b      	add	r3, r1
c2001c2a:	469a      	mov	sl, r3
c2001c2c:	f040 8501 	bne.w	c2002632 <_vfprintf_r+0x158a>
c2001c30:	9c1c      	ldr	r4, [sp, #112]	; 0x70
c2001c32:	9b0d      	ldr	r3, [sp, #52]	; 0x34
c2001c34:	429c      	cmp	r4, r3
c2001c36:	db03      	blt.n	c2001c40 <_vfprintf_r+0xb98>
c2001c38:	f01b 0f01 	tst.w	fp, #1
c2001c3c:	f000 845b 	beq.w	c20024f6 <_vfprintf_r+0x144e>
c2001c40:	9b11      	ldr	r3, [sp, #68]	; 0x44
c2001c42:	9912      	ldr	r1, [sp, #72]	; 0x48
c2001c44:	441a      	add	r2, r3
c2001c46:	e9c8 1300 	strd	r1, r3, [r8]
c2001c4a:	9b23      	ldr	r3, [sp, #140]	; 0x8c
c2001c4c:	9224      	str	r2, [sp, #144]	; 0x90
c2001c4e:	3301      	adds	r3, #1
c2001c50:	9323      	str	r3, [sp, #140]	; 0x8c
c2001c52:	2b07      	cmp	r3, #7
c2001c54:	bfd8      	it	le
c2001c56:	f108 0808 	addle.w	r8, r8, #8
c2001c5a:	f300 85df 	bgt.w	c200281c <_vfprintf_r+0x1774>
c2001c5e:	9b0d      	ldr	r3, [sp, #52]	; 0x34
c2001c60:	9d08      	ldr	r5, [sp, #32]
c2001c62:	1b1c      	subs	r4, r3, r4
c2001c64:	441d      	add	r5, r3
c2001c66:	eba5 050a 	sub.w	r5, r5, sl
c2001c6a:	42a5      	cmp	r5, r4
c2001c6c:	bfa8      	it	ge
c2001c6e:	4625      	movge	r5, r4
c2001c70:	2d00      	cmp	r5, #0
c2001c72:	dd0e      	ble.n	c2001c92 <_vfprintf_r+0xbea>
c2001c74:	9b23      	ldr	r3, [sp, #140]	; 0x8c
c2001c76:	442a      	add	r2, r5
c2001c78:	f8c8 a000 	str.w	sl, [r8]
c2001c7c:	3301      	adds	r3, #1
c2001c7e:	f8c8 5004 	str.w	r5, [r8, #4]
c2001c82:	2b07      	cmp	r3, #7
c2001c84:	9224      	str	r2, [sp, #144]	; 0x90
c2001c86:	bfd8      	it	le
c2001c88:	f108 0808 	addle.w	r8, r8, #8
c2001c8c:	9323      	str	r3, [sp, #140]	; 0x8c
c2001c8e:	f300 8607 	bgt.w	c20028a0 <_vfprintf_r+0x17f8>
c2001c92:	2d00      	cmp	r5, #0
c2001c94:	bfa8      	it	ge
c2001c96:	1b64      	subge	r4, r4, r5
c2001c98:	2c00      	cmp	r4, #0
c2001c9a:	f77f abbd 	ble.w	c2001418 <_vfprintf_r+0x370>
c2001c9e:	9b23      	ldr	r3, [sp, #140]	; 0x8c
c2001ca0:	2c10      	cmp	r4, #16
c2001ca2:	f340 8259 	ble.w	c2002158 <_vfprintf_r+0x10b0>
c2001ca6:	4649      	mov	r1, r9
c2001ca8:	9705      	str	r7, [sp, #20]
c2001caa:	46b1      	mov	r9, r6
c2001cac:	ee1a aa10 	vmov	sl, s20
c2001cb0:	9f0e      	ldr	r7, [sp, #56]	; 0x38
c2001cb2:	2510      	movs	r5, #16
c2001cb4:	460e      	mov	r6, r1
c2001cb6:	e003      	b.n	c2001cc0 <_vfprintf_r+0xc18>
c2001cb8:	3c10      	subs	r4, #16
c2001cba:	2c10      	cmp	r4, #16
c2001cbc:	f340 8248 	ble.w	c2002150 <_vfprintf_r+0x10a8>
c2001cc0:	3301      	adds	r3, #1
c2001cc2:	3210      	adds	r2, #16
c2001cc4:	2b07      	cmp	r3, #7
c2001cc6:	e9c8 7500 	strd	r7, r5, [r8]
c2001cca:	e9cd 3223 	strd	r3, r2, [sp, #140]	; 0x8c
c2001cce:	bfd8      	it	le
c2001cd0:	f108 0808 	addle.w	r8, r8, #8
c2001cd4:	ddf0      	ble.n	c2001cb8 <_vfprintf_r+0xc10>
c2001cd6:	aa22      	add	r2, sp, #136	; 0x88
c2001cd8:	4631      	mov	r1, r6
c2001cda:	4650      	mov	r0, sl
c2001cdc:	f10d 0894 	add.w	r8, sp, #148	; 0x94
c2001ce0:	f003 fdce 	bl	c2005880 <__sprint_r>
c2001ce4:	2800      	cmp	r0, #0
c2001ce6:	f47f af67 	bne.w	c2001bb8 <_vfprintf_r+0xb10>
c2001cea:	e9dd 3223 	ldrd	r3, r2, [sp, #140]	; 0x8c
c2001cee:	e7e3      	b.n	c2001cb8 <_vfprintf_r+0xc10>
c2001cf0:	f01b 0f01 	tst.w	fp, #1
c2001cf4:	f47f ae64 	bne.w	c20019c0 <_vfprintf_r+0x918>
c2001cf8:	9b08      	ldr	r3, [sp, #32]
c2001cfa:	3201      	adds	r2, #1
c2001cfc:	f8c8 3000 	str.w	r3, [r8]
c2001d00:	2101      	movs	r1, #1
c2001d02:	9b23      	ldr	r3, [sp, #140]	; 0x8c
c2001d04:	9224      	str	r2, [sp, #144]	; 0x90
c2001d06:	3301      	adds	r3, #1
c2001d08:	f8c8 1004 	str.w	r1, [r8, #4]
c2001d0c:	2b07      	cmp	r3, #7
c2001d0e:	9323      	str	r3, [sp, #140]	; 0x8c
c2001d10:	f77f ae8c 	ble.w	c2001a2c <_vfprintf_r+0x984>
c2001d14:	ee1a 0a10 	vmov	r0, s20
c2001d18:	aa22      	add	r2, sp, #136	; 0x88
c2001d1a:	4649      	mov	r1, r9
c2001d1c:	f003 fdb0 	bl	c2005880 <__sprint_r>
c2001d20:	2800      	cmp	r0, #0
c2001d22:	f47f ae2f 	bne.w	c2001984 <_vfprintf_r+0x8dc>
c2001d26:	e9dd 3223 	ldrd	r3, r2, [sp, #140]	; 0x8c
c2001d2a:	f10d 0894 	add.w	r8, sp, #148	; 0x94
c2001d2e:	e67f      	b.n	c2001a30 <_vfprintf_r+0x988>
c2001d30:	990d      	ldr	r1, [sp, #52]	; 0x34
c2001d32:	1e4c      	subs	r4, r1, #1
c2001d34:	2c00      	cmp	r4, #0
c2001d36:	f77f ae7b 	ble.w	c2001a30 <_vfprintf_r+0x988>
c2001d3a:	2c10      	cmp	r4, #16
c2001d3c:	f340 82b6 	ble.w	c20022ac <_vfprintf_r+0x1204>
c2001d40:	4649      	mov	r1, r9
c2001d42:	9705      	str	r7, [sp, #20]
c2001d44:	46b1      	mov	r9, r6
c2001d46:	ee1a aa10 	vmov	sl, s20
c2001d4a:	9f0e      	ldr	r7, [sp, #56]	; 0x38
c2001d4c:	2510      	movs	r5, #16
c2001d4e:	460e      	mov	r6, r1
c2001d50:	e003      	b.n	c2001d5a <_vfprintf_r+0xcb2>
c2001d52:	3c10      	subs	r4, #16
c2001d54:	2c10      	cmp	r4, #16
c2001d56:	f340 82a5 	ble.w	c20022a4 <_vfprintf_r+0x11fc>
c2001d5a:	3301      	adds	r3, #1
c2001d5c:	3210      	adds	r2, #16
c2001d5e:	2b07      	cmp	r3, #7
c2001d60:	e9c8 7500 	strd	r7, r5, [r8]
c2001d64:	e9cd 3223 	strd	r3, r2, [sp, #140]	; 0x8c
c2001d68:	bfd8      	it	le
c2001d6a:	f108 0808 	addle.w	r8, r8, #8
c2001d6e:	ddf0      	ble.n	c2001d52 <_vfprintf_r+0xcaa>
c2001d70:	aa22      	add	r2, sp, #136	; 0x88
c2001d72:	4631      	mov	r1, r6
c2001d74:	4650      	mov	r0, sl
c2001d76:	f003 fd83 	bl	c2005880 <__sprint_r>
c2001d7a:	2800      	cmp	r0, #0
c2001d7c:	f47f af1c 	bne.w	c2001bb8 <_vfprintf_r+0xb10>
c2001d80:	e9dd 3223 	ldrd	r3, r2, [sp, #140]	; 0x8c
c2001d84:	f10d 0894 	add.w	r8, sp, #148	; 0x94
c2001d88:	e7e3      	b.n	c2001d52 <_vfprintf_r+0xcaa>
c2001d8a:	9b05      	ldr	r3, [sp, #20]
c2001d8c:	f013 0310 	ands.w	r3, r3, #16
c2001d90:	f040 810a 	bne.w	c2001fa8 <_vfprintf_r+0xf00>
c2001d94:	9a05      	ldr	r2, [sp, #20]
c2001d96:	f012 0240 	ands.w	r2, r2, #64	; 0x40
c2001d9a:	f000 82a3 	beq.w	c20022e4 <_vfprintf_r+0x123c>
c2001d9e:	9907      	ldr	r1, [sp, #28]
c2001da0:	461e      	mov	r6, r3
c2001da2:	2201      	movs	r2, #1
c2001da4:	f851 4b04 	ldr.w	r4, [r1], #4
c2001da8:	9107      	str	r1, [sp, #28]
c2001daa:	b2a4      	uxth	r4, r4
c2001dac:	e401      	b.n	c20015b2 <_vfprintf_r+0x50a>
c2001dae:	f01b 0310 	ands.w	r3, fp, #16
c2001db2:	f040 80f3 	bne.w	c2001f9c <_vfprintf_r+0xef4>
c2001db6:	f01b 0240 	ands.w	r2, fp, #64	; 0x40
c2001dba:	f000 8284 	beq.w	c20022c6 <_vfprintf_r+0x121e>
c2001dbe:	9a07      	ldr	r2, [sp, #28]
c2001dc0:	461e      	mov	r6, r3
c2001dc2:	f852 4b04 	ldr.w	r4, [r2], #4
c2001dc6:	9207      	str	r2, [sp, #28]
c2001dc8:	b2a4      	uxth	r4, r4
c2001dca:	f7ff bbee 	b.w	c20015aa <_vfprintf_r+0x502>
c2001dce:	f853 4b04 	ldr.w	r4, [r3], #4
c2001dd2:	f01b 0f10 	tst.w	fp, #16
c2001dd6:	9307      	str	r3, [sp, #28]
c2001dd8:	d159      	bne.n	c2001e8e <_vfprintf_r+0xde6>
c2001dda:	f01b 0f40 	tst.w	fp, #64	; 0x40
c2001dde:	d052      	beq.n	c2001e86 <_vfprintf_r+0xdde>
c2001de0:	b224      	sxth	r4, r4
c2001de2:	17e6      	asrs	r6, r4, #31
c2001de4:	4633      	mov	r3, r6
c2001de6:	f7ff bb84 	b.w	c20014f2 <_vfprintf_r+0x44a>
c2001dea:	4264      	negs	r4, r4
c2001dec:	f04f 032d 	mov.w	r3, #45	; 0x2d
c2001df0:	f04f 0201 	mov.w	r2, #1
c2001df4:	f8cd b014 	str.w	fp, [sp, #20]
c2001df8:	eb66 0646 	sbc.w	r6, r6, r6, lsl #1
c2001dfc:	f88d 306b 	strb.w	r3, [sp, #107]	; 0x6b
c2001e00:	f7ff bbda 	b.w	c20015b8 <_vfprintf_r+0x510>
c2001e04:	f01b 0f01 	tst.w	fp, #1
c2001e08:	f43f ab06 	beq.w	c2001418 <_vfprintf_r+0x370>
c2001e0c:	e4b6      	b.n	c200177c <_vfprintf_r+0x6d4>
c2001e0e:	783d      	ldrb	r5, [r7, #0]
c2001e10:	9307      	str	r3, [sp, #28]
c2001e12:	f7ff b9d1 	b.w	c20011b8 <_vfprintf_r+0x110>
c2001e16:	9b23      	ldr	r3, [sp, #140]	; 0x8c
c2001e18:	2001      	movs	r0, #1
c2001e1a:	3201      	adds	r2, #1
c2001e1c:	f8c8 0004 	str.w	r0, [r8, #4]
c2001e20:	3301      	adds	r3, #1
c2001e22:	f647 40fc 	movw	r0, #31996	; 0x7cfc
c2001e26:	f2cc 2000 	movt	r0, #49664	; 0xc200
c2001e2a:	2b07      	cmp	r3, #7
c2001e2c:	f8c8 0000 	str.w	r0, [r8]
c2001e30:	bfd8      	it	le
c2001e32:	f108 0808 	addle.w	r8, r8, #8
c2001e36:	9224      	str	r2, [sp, #144]	; 0x90
c2001e38:	9323      	str	r3, [sp, #140]	; 0x8c
c2001e3a:	f300 84af 	bgt.w	c200279c <_vfprintf_r+0x16f4>
c2001e3e:	9b0d      	ldr	r3, [sp, #52]	; 0x34
c2001e40:	430b      	orrs	r3, r1
c2001e42:	f000 84d8 	beq.w	c20027f6 <_vfprintf_r+0x174e>
c2001e46:	9b11      	ldr	r3, [sp, #68]	; 0x44
c2001e48:	9812      	ldr	r0, [sp, #72]	; 0x48
c2001e4a:	441a      	add	r2, r3
c2001e4c:	e9c8 0300 	strd	r0, r3, [r8]
c2001e50:	9b23      	ldr	r3, [sp, #140]	; 0x8c
c2001e52:	9224      	str	r2, [sp, #144]	; 0x90
c2001e54:	3301      	adds	r3, #1
c2001e56:	9323      	str	r3, [sp, #140]	; 0x8c
c2001e58:	2b07      	cmp	r3, #7
c2001e5a:	bfd8      	it	le
c2001e5c:	f108 0808 	addle.w	r8, r8, #8
c2001e60:	f300 84ab 	bgt.w	c20027ba <_vfprintf_r+0x1712>
c2001e64:	2900      	cmp	r1, #0
c2001e66:	f2c0 853e 	blt.w	c20028e6 <_vfprintf_r+0x183e>
c2001e6a:	9908      	ldr	r1, [sp, #32]
c2001e6c:	3301      	adds	r3, #1
c2001e6e:	f8c8 1000 	str.w	r1, [r8]
c2001e72:	2b07      	cmp	r3, #7
c2001e74:	990d      	ldr	r1, [sp, #52]	; 0x34
c2001e76:	f8c8 1004 	str.w	r1, [r8, #4]
c2001e7a:	440a      	add	r2, r1
c2001e7c:	e9cd 3223 	strd	r3, r2, [sp, #140]	; 0x8c
c2001e80:	f77f aac8 	ble.w	c2001414 <_vfprintf_r+0x36c>
c2001e84:	e5e1      	b.n	c2001a4a <_vfprintf_r+0x9a2>
c2001e86:	f41b 7f00 	tst.w	fp, #512	; 0x200
c2001e8a:	f040 8347 	bne.w	c200251c <_vfprintf_r+0x1474>
c2001e8e:	17e6      	asrs	r6, r4, #31
c2001e90:	4633      	mov	r3, r6
c2001e92:	f7ff bb2e 	b.w	c20014f2 <_vfprintf_r+0x44a>
c2001e96:	eeb4 8b48 	vcmp.f64	d8, d8
c2001e9a:	eef1 fa10 	vmrs	APSR_nzcv, fpscr
c2001e9e:	f180 85cc 	bvs.w	c2002a3a <_vfprintf_r+0x1992>
c2001ea2:	f025 0420 	bic.w	r4, r5, #32
c2001ea6:	2c41      	cmp	r4, #65	; 0x41
c2001ea8:	f040 823c 	bne.w	c2002324 <_vfprintf_r+0x127c>
c2001eac:	2d61      	cmp	r5, #97	; 0x61
c2001eae:	f04f 0330 	mov.w	r3, #48	; 0x30
c2001eb2:	f88d 306c 	strb.w	r3, [sp, #108]	; 0x6c
c2001eb6:	bf0c      	ite	eq
c2001eb8:	2378      	moveq	r3, #120	; 0x78
c2001eba:	2358      	movne	r3, #88	; 0x58
c2001ebc:	f1ba 0f63 	cmp.w	sl, #99	; 0x63
c2001ec0:	f88d 306d 	strb.w	r3, [sp, #109]	; 0x6d
c2001ec4:	f300 8335 	bgt.w	c2002532 <_vfprintf_r+0x148a>
c2001ec8:	2300      	movs	r3, #0
c2001eca:	9306      	str	r3, [sp, #24]
c2001ecc:	ab35      	add	r3, sp, #212	; 0xd4
c2001ece:	9308      	str	r3, [sp, #32]
c2001ed0:	ee18 3a90 	vmov	r3, s17
c2001ed4:	2b00      	cmp	r3, #0
c2001ed6:	f280 8550 	bge.w	c200297a <_vfprintf_r+0x18d2>
c2001eda:	eeb1 0b48 	vneg.f64	d0, d8
c2001ede:	232d      	movs	r3, #45	; 0x2d
c2001ee0:	9309      	str	r3, [sp, #36]	; 0x24
c2001ee2:	a81c      	add	r0, sp, #112	; 0x70
c2001ee4:	f003 fb50 	bl	c2005588 <frexp>
c2001ee8:	eeb4 7b00 	vmov.f64	d7, #64	; 0x3e000000  0.125
c2001eec:	f647 40cc 	movw	r0, #31948	; 0x7ccc
c2001ef0:	f2cc 2000 	movt	r0, #49664	; 0xc200
c2001ef4:	ee20 0b07 	vmul.f64	d0, d0, d7
c2001ef8:	f647 42e0 	movw	r2, #31968	; 0x7ce0
c2001efc:	f2cc 2200 	movt	r2, #49664	; 0xc200
c2001f00:	eeb3 5b00 	vmov.f64	d5, #48	; 0x41800000  16.0
c2001f04:	eeb5 0b40 	vcmp.f64	d0, #0.0
c2001f08:	eef1 fa10 	vmrs	APSR_nzcv, fpscr
c2001f0c:	bf04      	itt	eq
c2001f0e:	2301      	moveq	r3, #1
c2001f10:	931c      	streq	r3, [sp, #112]	; 0x70
c2001f12:	2d61      	cmp	r5, #97	; 0x61
c2001f14:	bf18      	it	ne
c2001f16:	4610      	movne	r0, r2
c2001f18:	f10a 33ff 	add.w	r3, sl, #4294967295	; 0xffffffff
c2001f1c:	9a08      	ldr	r2, [sp, #32]
c2001f1e:	e004      	b.n	c2001f2a <_vfprintf_r+0xe82>
c2001f20:	eeb5 0b40 	vcmp.f64	d0, #0.0
c2001f24:	eef1 fa10 	vmrs	APSR_nzcv, fpscr
c2001f28:	d014      	beq.n	c2001f54 <_vfprintf_r+0xeac>
c2001f2a:	ee20 0b05 	vmul.f64	d0, d0, d5
c2001f2e:	4616      	mov	r6, r2
c2001f30:	4619      	mov	r1, r3
c2001f32:	f1b3 3fff 	cmp.w	r3, #4294967295	; 0xffffffff
c2001f36:	f103 33ff 	add.w	r3, r3, #4294967295	; 0xffffffff
c2001f3a:	eefd 7bc0 	vcvt.s32.f64	s15, d0
c2001f3e:	ee17 ca90 	vmov	ip, s15
c2001f42:	eeb8 6be7 	vcvt.f64.s32	d6, s15
c2001f46:	f810 c00c 	ldrb.w	ip, [r0, ip]
c2001f4a:	ee30 0b46 	vsub.f64	d0, d0, d6
c2001f4e:	f802 cb01 	strb.w	ip, [r2], #1
c2001f52:	d1e5      	bne.n	c2001f20 <_vfprintf_r+0xe78>
c2001f54:	eeb6 6b00 	vmov.f64	d6, #96	; 0x3f000000  0.5
c2001f58:	eeb4 0bc6 	vcmpe.f64	d0, d6
c2001f5c:	eef1 fa10 	vmrs	APSR_nzcv, fpscr
c2001f60:	f300 8589 	bgt.w	c2002a76 <_vfprintf_r+0x19ce>
c2001f64:	eeb4 0b46 	vcmp.f64	d0, d6
c2001f68:	eef1 fa10 	vmrs	APSR_nzcv, fpscr
c2001f6c:	d104      	bne.n	c2001f78 <_vfprintf_r+0xed0>
c2001f6e:	ee17 3a90 	vmov	r3, s15
c2001f72:	07db      	lsls	r3, r3, #31
c2001f74:	f100 857f 	bmi.w	c2002a76 <_vfprintf_r+0x19ce>
c2001f78:	2900      	cmp	r1, #0
c2001f7a:	bfa2      	ittt	ge
c2001f7c:	1c4b      	addge	r3, r1, #1
c2001f7e:	2130      	movge	r1, #48	; 0x30
c2001f80:	189b      	addge	r3, r3, r2
c2001f82:	db03      	blt.n	c2001f8c <_vfprintf_r+0xee4>
c2001f84:	f802 1b01 	strb.w	r1, [r2], #1
c2001f88:	4293      	cmp	r3, r2
c2001f8a:	d1fb      	bne.n	c2001f84 <_vfprintf_r+0xedc>
c2001f8c:	9b08      	ldr	r3, [sp, #32]
c2001f8e:	f04b 0b02 	orr.w	fp, fp, #2
c2001f92:	1ad3      	subs	r3, r2, r3
c2001f94:	930d      	str	r3, [sp, #52]	; 0x34
c2001f96:	9b1c      	ldr	r3, [sp, #112]	; 0x70
c2001f98:	930b      	str	r3, [sp, #44]	; 0x2c
c2001f9a:	e21d      	b.n	c20023d8 <_vfprintf_r+0x1330>
c2001f9c:	9b07      	ldr	r3, [sp, #28]
c2001f9e:	f853 4b04 	ldr.w	r4, [r3], #4
c2001fa2:	9307      	str	r3, [sp, #28]
c2001fa4:	f7ff bb01 	b.w	c20015aa <_vfprintf_r+0x502>
c2001fa8:	9b07      	ldr	r3, [sp, #28]
c2001faa:	2201      	movs	r2, #1
c2001fac:	f853 4b04 	ldr.w	r4, [r3], #4
c2001fb0:	9307      	str	r3, [sp, #28]
c2001fb2:	f7ff bafe 	b.w	c20015b2 <_vfprintf_r+0x50a>
c2001fb6:	9b07      	ldr	r3, [sp, #28]
c2001fb8:	9804      	ldr	r0, [sp, #16]
c2001fba:	f853 1b04 	ldr.w	r1, [r3], #4
c2001fbe:	17c2      	asrs	r2, r0, #31
c2001fc0:	9307      	str	r3, [sp, #28]
c2001fc2:	e9c1 0200 	strd	r0, r2, [r1]
c2001fc6:	f7ff b8c9 	b.w	c200115c <_vfprintf_r+0xb4>
c2001fca:	9b17      	ldr	r3, [sp, #92]	; 0x5c
c2001fcc:	781b      	ldrb	r3, [r3, #0]
c2001fce:	2b00      	cmp	r3, #0
c2001fd0:	f43f a978 	beq.w	c20012c4 <_vfprintf_r+0x21c>
c2001fd4:	783d      	ldrb	r5, [r7, #0]
c2001fd6:	f44b 6b80 	orr.w	fp, fp, #1024	; 0x400
c2001fda:	f7ff b8ed 	b.w	c20011b8 <_vfprintf_r+0x110>
c2001fde:	f8cd b014 	str.w	fp, [sp, #20]
c2001fe2:	f7ff bb56 	b.w	c2001692 <_vfprintf_r+0x5ea>
c2001fe6:	f647 43cc 	movw	r3, #31948	; 0x7ccc
c2001fea:	f2cc 2300 	movt	r3, #49664	; 0xc200
c2001fee:	9313      	str	r3, [sp, #76]	; 0x4c
c2001ff0:	f01b 0620 	ands.w	r6, fp, #32
c2001ff4:	d03c      	beq.n	c2002070 <_vfprintf_r+0xfc8>
c2001ff6:	9b07      	ldr	r3, [sp, #28]
c2001ff8:	3307      	adds	r3, #7
c2001ffa:	f023 0307 	bic.w	r3, r3, #7
c2001ffe:	685e      	ldr	r6, [r3, #4]
c2002000:	f853 4b08 	ldr.w	r4, [r3], #8
c2002004:	9307      	str	r3, [sp, #28]
c2002006:	ea54 0306 	orrs.w	r3, r4, r6
c200200a:	f00b 0301 	and.w	r3, fp, #1
c200200e:	bf08      	it	eq
c2002010:	2300      	moveq	r3, #0
c2002012:	2b00      	cmp	r3, #0
c2002014:	d13b      	bne.n	c200208e <_vfprintf_r+0xfe6>
c2002016:	f42b 6380 	bic.w	r3, fp, #1024	; 0x400
c200201a:	2202      	movs	r2, #2
c200201c:	9305      	str	r3, [sp, #20]
c200201e:	f7ff bac8 	b.w	c20015b2 <_vfprintf_r+0x50a>
c2002022:	f647 43e0 	movw	r3, #31968	; 0x7ce0
c2002026:	f2cc 2300 	movt	r3, #49664	; 0xc200
c200202a:	9313      	str	r3, [sp, #76]	; 0x4c
c200202c:	e7e0      	b.n	c2001ff0 <_vfprintf_r+0xf48>
c200202e:	ee1a 0a10 	vmov	r0, s20
c2002032:	aa22      	add	r2, sp, #136	; 0x88
c2002034:	4649      	mov	r1, r9
c2002036:	f003 fc23 	bl	c2005880 <__sprint_r>
c200203a:	2800      	cmp	r0, #0
c200203c:	f47f aca2 	bne.w	c2001984 <_vfprintf_r+0x8dc>
c2002040:	9a24      	ldr	r2, [sp, #144]	; 0x90
c2002042:	f10d 0894 	add.w	r8, sp, #148	; 0x94
c2002046:	f7ff bba8 	b.w	c200179a <_vfprintf_r+0x6f2>
c200204a:	4656      	mov	r6, sl
c200204c:	4619      	mov	r1, r3
c200204e:	2e06      	cmp	r6, #6
c2002050:	469a      	mov	sl, r3
c2002052:	bf28      	it	cs
c2002054:	2606      	movcs	r6, #6
c2002056:	9407      	str	r4, [sp, #28]
c2002058:	e9cd 6305 	strd	r6, r3, [sp, #20]
c200205c:	f647 43f4 	movw	r3, #31988	; 0x7cf4
c2002060:	f2cc 2300 	movt	r3, #49664	; 0xc200
c2002064:	910f      	str	r1, [sp, #60]	; 0x3c
c2002066:	9308      	str	r3, [sp, #32]
c2002068:	e9cd 110b 	strd	r1, r1, [sp, #44]	; 0x2c
c200206c:	f7ff ba24 	b.w	c20014b8 <_vfprintf_r+0x410>
c2002070:	f01b 0310 	ands.w	r3, fp, #16
c2002074:	d053      	beq.n	c200211e <_vfprintf_r+0x1076>
c2002076:	9b07      	ldr	r3, [sp, #28]
c2002078:	f853 4b04 	ldr.w	r4, [r3], #4
c200207c:	9307      	str	r3, [sp, #28]
c200207e:	ea54 0306 	orrs.w	r3, r4, r6
c2002082:	f00b 0301 	and.w	r3, fp, #1
c2002086:	bf08      	it	eq
c2002088:	2300      	moveq	r3, #0
c200208a:	2b00      	cmp	r3, #0
c200208c:	d0c3      	beq.n	c2002016 <_vfprintf_r+0xf6e>
c200208e:	2330      	movs	r3, #48	; 0x30
c2002090:	f04b 0b02 	orr.w	fp, fp, #2
c2002094:	f88d 506d 	strb.w	r5, [sp, #109]	; 0x6d
c2002098:	f88d 306c 	strb.w	r3, [sp, #108]	; 0x6c
c200209c:	e7bb      	b.n	c2002016 <_vfprintf_r+0xf6e>
c200209e:	ee1a 0a10 	vmov	r0, s20
c20020a2:	aa22      	add	r2, sp, #136	; 0x88
c20020a4:	4649      	mov	r1, r9
c20020a6:	f003 fbeb 	bl	c2005880 <__sprint_r>
c20020aa:	2800      	cmp	r0, #0
c20020ac:	f47f ac6a 	bne.w	c2001984 <_vfprintf_r+0x8dc>
c20020b0:	e9dd 3223 	ldrd	r3, r2, [sp, #140]	; 0x8c
c20020b4:	f10d 0894 	add.w	r8, sp, #148	; 0x94
c20020b8:	e4a1      	b.n	c20019fe <_vfprintf_r+0x956>
c20020ba:	ee1a 0a10 	vmov	r0, s20
c20020be:	aa22      	add	r2, sp, #136	; 0x88
c20020c0:	4649      	mov	r1, r9
c20020c2:	f003 fbdd 	bl	c2005880 <__sprint_r>
c20020c6:	2800      	cmp	r0, #0
c20020c8:	f47f ac5c 	bne.w	c2001984 <_vfprintf_r+0x8dc>
c20020cc:	e9dd 3223 	ldrd	r3, r2, [sp, #140]	; 0x8c
c20020d0:	f10d 0894 	add.w	r8, sp, #148	; 0x94
c20020d4:	e485      	b.n	c20019e2 <_vfprintf_r+0x93a>
c20020d6:	f8da 0058 	ldr.w	r0, [sl, #88]	; 0x58
c20020da:	f002 f81d 	bl	c2004118 <__retarget_lock_release_recursive>
c20020de:	f8ba 300c 	ldrh.w	r3, [sl, #12]
c20020e2:	e460      	b.n	c20019a6 <_vfprintf_r+0x8fe>
c20020e4:	ee1a 0a10 	vmov	r0, s20
c20020e8:	aa22      	add	r2, sp, #136	; 0x88
c20020ea:	4649      	mov	r1, r9
c20020ec:	f003 fbc8 	bl	c2005880 <__sprint_r>
c20020f0:	2800      	cmp	r0, #0
c20020f2:	f47f ac47 	bne.w	c2001984 <_vfprintf_r+0x8dc>
c20020f6:	f89d 106b 	ldrb.w	r1, [sp, #107]	; 0x6b
c20020fa:	f10d 0894 	add.w	r8, sp, #148	; 0x94
c20020fe:	9a24      	ldr	r2, [sp, #144]	; 0x90
c2002100:	f7ff b946 	b.w	c2001390 <_vfprintf_r+0x2e8>
c2002104:	9908      	ldr	r1, [sp, #32]
c2002106:	3a02      	subs	r2, #2
c2002108:	2330      	movs	r3, #48	; 0x30
c200210a:	f8dd b014 	ldr.w	fp, [sp, #20]
c200210e:	9208      	str	r2, [sp, #32]
c2002110:	f801 3c01 	strb.w	r3, [r1, #-1]
c2002114:	ab4e      	add	r3, sp, #312	; 0x138
c2002116:	1a9b      	subs	r3, r3, r2
c2002118:	9305      	str	r3, [sp, #20]
c200211a:	f7ff ba6e 	b.w	c20015fa <_vfprintf_r+0x552>
c200211e:	f01b 0240 	ands.w	r2, fp, #64	; 0x40
c2002122:	f000 80f1 	beq.w	c2002308 <_vfprintf_r+0x1260>
c2002126:	9a07      	ldr	r2, [sp, #28]
c2002128:	461e      	mov	r6, r3
c200212a:	f852 4b04 	ldr.w	r4, [r2], #4
c200212e:	9207      	str	r2, [sp, #28]
c2002130:	b2a4      	uxth	r4, r4
c2002132:	e768      	b.n	c2002006 <_vfprintf_r+0xf5e>
c2002134:	ee1a 0a10 	vmov	r0, s20
c2002138:	aa22      	add	r2, sp, #136	; 0x88
c200213a:	4649      	mov	r1, r9
c200213c:	f003 fba0 	bl	c2005880 <__sprint_r>
c2002140:	2800      	cmp	r0, #0
c2002142:	f47f ac1f 	bne.w	c2001984 <_vfprintf_r+0x8dc>
c2002146:	9a24      	ldr	r2, [sp, #144]	; 0x90
c2002148:	f10d 0894 	add.w	r8, sp, #148	; 0x94
c200214c:	f7ff bb11 	b.w	c2001772 <_vfprintf_r+0x6ca>
c2002150:	4631      	mov	r1, r6
c2002152:	9f05      	ldr	r7, [sp, #20]
c2002154:	464e      	mov	r6, r9
c2002156:	4689      	mov	r9, r1
c2002158:	3301      	adds	r3, #1
c200215a:	990e      	ldr	r1, [sp, #56]	; 0x38
c200215c:	4422      	add	r2, r4
c200215e:	f8c8 4004 	str.w	r4, [r8, #4]
c2002162:	f8c8 1000 	str.w	r1, [r8]
c2002166:	2b07      	cmp	r3, #7
c2002168:	e9cd 3223 	strd	r3, r2, [sp, #140]	; 0x8c
c200216c:	f77f a952 	ble.w	c2001414 <_vfprintf_r+0x36c>
c2002170:	e46b      	b.n	c2001a4a <_vfprintf_r+0x9a2>
c2002172:	9b05      	ldr	r3, [sp, #20]
c2002174:	2200      	movs	r2, #0
c2002176:	9506      	str	r5, [sp, #24]
c2002178:	ee09 9a10 	vmov	s18, r9
c200217c:	f403 6380 	and.w	r3, r3, #1024	; 0x400
c2002180:	970a      	str	r7, [sp, #40]	; 0x28
c2002182:	f8dd 905c 	ldr.w	r9, [sp, #92]	; 0x5c
c2002186:	f50d 7b9c 	add.w	fp, sp, #312	; 0x138
c200218a:	4615      	mov	r5, r2
c200218c:	461f      	mov	r7, r3
c200218e:	f8cd a024 	str.w	sl, [sp, #36]	; 0x24
c2002192:	e00c      	b.n	c20021ae <_vfprintf_r+0x1106>
c2002194:	2300      	movs	r3, #0
c2002196:	4620      	mov	r0, r4
c2002198:	4631      	mov	r1, r6
c200219a:	220a      	movs	r2, #10
c200219c:	f005 fc02 	bl	c20079a4 <__aeabi_uldivmod>
c20021a0:	2c0a      	cmp	r4, #10
c20021a2:	f176 0300 	sbcs.w	r3, r6, #0
c20021a6:	d320      	bcc.n	c20021ea <_vfprintf_r+0x1142>
c20021a8:	4604      	mov	r4, r0
c20021aa:	460e      	mov	r6, r1
c20021ac:	46d3      	mov	fp, sl
c20021ae:	4620      	mov	r0, r4
c20021b0:	4631      	mov	r1, r6
c20021b2:	220a      	movs	r2, #10
c20021b4:	2300      	movs	r3, #0
c20021b6:	f005 fbf5 	bl	c20079a4 <__aeabi_uldivmod>
c20021ba:	f10b 3aff 	add.w	sl, fp, #4294967295	; 0xffffffff
c20021be:	3230      	adds	r2, #48	; 0x30
c20021c0:	3501      	adds	r5, #1
c20021c2:	f80b 2c01 	strb.w	r2, [fp, #-1]
c20021c6:	2f00      	cmp	r7, #0
c20021c8:	d0e4      	beq.n	c2002194 <_vfprintf_r+0x10ec>
c20021ca:	f899 3000 	ldrb.w	r3, [r9]
c20021ce:	f1b3 02ff 	subs.w	r2, r3, #255	; 0xff
c20021d2:	bf18      	it	ne
c20021d4:	2201      	movne	r2, #1
c20021d6:	42ab      	cmp	r3, r5
c20021d8:	bf18      	it	ne
c20021da:	2200      	movne	r2, #0
c20021dc:	2a00      	cmp	r2, #0
c20021de:	d0d9      	beq.n	c2002194 <_vfprintf_r+0x10ec>
c20021e0:	2c0a      	cmp	r4, #10
c20021e2:	f176 0300 	sbcs.w	r3, r6, #0
c20021e6:	f080 8346 	bcs.w	c2002876 <_vfprintf_r+0x17ce>
c20021ea:	4652      	mov	r2, sl
c20021ec:	ab4e      	add	r3, sp, #312	; 0x138
c20021ee:	f8dd b014 	ldr.w	fp, [sp, #20]
c20021f2:	1a9b      	subs	r3, r3, r2
c20021f4:	f8cd a020 	str.w	sl, [sp, #32]
c20021f8:	f8cd 905c 	str.w	r9, [sp, #92]	; 0x5c
c20021fc:	ee19 9a10 	vmov	r9, s18
c2002200:	950d      	str	r5, [sp, #52]	; 0x34
c2002202:	f8dd a024 	ldr.w	sl, [sp, #36]	; 0x24
c2002206:	9d06      	ldr	r5, [sp, #24]
c2002208:	9f0a      	ldr	r7, [sp, #40]	; 0x28
c200220a:	9305      	str	r3, [sp, #20]
c200220c:	f7ff b9f5 	b.w	c20015fa <_vfprintf_r+0x552>
c2002210:	9b07      	ldr	r3, [sp, #28]
c2002212:	9904      	ldr	r1, [sp, #16]
c2002214:	f853 2b04 	ldr.w	r2, [r3], #4
c2002218:	6011      	str	r1, [r2, #0]
c200221a:	9307      	str	r3, [sp, #28]
c200221c:	f7fe bf9e 	b.w	c200115c <_vfprintf_r+0xb4>
c2002220:	9b24      	ldr	r3, [sp, #144]	; 0x90
c2002222:	46ca      	mov	sl, r9
c2002224:	2b00      	cmp	r3, #0
c2002226:	f040 8384 	bne.w	c2002932 <_vfprintf_r+0x188a>
c200222a:	2300      	movs	r3, #0
c200222c:	9323      	str	r3, [sp, #140]	; 0x8c
c200222e:	f7ff bbb0 	b.w	c2001992 <_vfprintf_r+0x8ea>
c2002232:	9808      	ldr	r0, [sp, #32]
c2002234:	46b2      	mov	sl, r6
c2002236:	9407      	str	r4, [sp, #28]
c2002238:	f003 fa42 	bl	c20056c0 <strlen>
c200223c:	9606      	str	r6, [sp, #24]
c200223e:	960f      	str	r6, [sp, #60]	; 0x3c
c2002240:	ea20 76e0 	bic.w	r6, r0, r0, asr #31
c2002244:	f89d 106b 	ldrb.w	r1, [sp, #107]	; 0x6b
c2002248:	9005      	str	r0, [sp, #20]
c200224a:	e9cd aa0b 	strd	sl, sl, [sp, #44]	; 0x2c
c200224e:	f7ff b933 	b.w	c20014b8 <_vfprintf_r+0x410>
c2002252:	9b23      	ldr	r3, [sp, #140]	; 0x8c
c2002254:	2c10      	cmp	r4, #16
c2002256:	f340 8131 	ble.w	c20024bc <_vfprintf_r+0x1414>
c200225a:	4649      	mov	r1, r9
c200225c:	9705      	str	r7, [sp, #20]
c200225e:	46b1      	mov	r9, r6
c2002260:	ee1a aa10 	vmov	sl, s20
c2002264:	9f0e      	ldr	r7, [sp, #56]	; 0x38
c2002266:	2510      	movs	r5, #16
c2002268:	460e      	mov	r6, r1
c200226a:	e003      	b.n	c2002274 <_vfprintf_r+0x11cc>
c200226c:	3c10      	subs	r4, #16
c200226e:	2c10      	cmp	r4, #16
c2002270:	f340 8120 	ble.w	c20024b4 <_vfprintf_r+0x140c>
c2002274:	3301      	adds	r3, #1
c2002276:	3210      	adds	r2, #16
c2002278:	2b07      	cmp	r3, #7
c200227a:	e9c8 7500 	strd	r7, r5, [r8]
c200227e:	e9cd 3223 	strd	r3, r2, [sp, #140]	; 0x8c
c2002282:	bfd8      	it	le
c2002284:	f108 0808 	addle.w	r8, r8, #8
c2002288:	ddf0      	ble.n	c200226c <_vfprintf_r+0x11c4>
c200228a:	aa22      	add	r2, sp, #136	; 0x88
c200228c:	4631      	mov	r1, r6
c200228e:	4650      	mov	r0, sl
c2002290:	f10d 0894 	add.w	r8, sp, #148	; 0x94
c2002294:	f003 faf4 	bl	c2005880 <__sprint_r>
c2002298:	2800      	cmp	r0, #0
c200229a:	f47f ac8d 	bne.w	c2001bb8 <_vfprintf_r+0xb10>
c200229e:	e9dd 3223 	ldrd	r3, r2, [sp, #140]	; 0x8c
c20022a2:	e7e3      	b.n	c200226c <_vfprintf_r+0x11c4>
c20022a4:	4631      	mov	r1, r6
c20022a6:	9f05      	ldr	r7, [sp, #20]
c20022a8:	464e      	mov	r6, r9
c20022aa:	4689      	mov	r9, r1
c20022ac:	3301      	adds	r3, #1
c20022ae:	990e      	ldr	r1, [sp, #56]	; 0x38
c20022b0:	4422      	add	r2, r4
c20022b2:	2b07      	cmp	r3, #7
c20022b4:	f8c8 4004 	str.w	r4, [r8, #4]
c20022b8:	f8c8 1000 	str.w	r1, [r8]
c20022bc:	e9cd 3223 	strd	r3, r2, [sp, #140]	; 0x8c
c20022c0:	f77f abb4 	ble.w	c2001a2c <_vfprintf_r+0x984>
c20022c4:	e526      	b.n	c2001d14 <_vfprintf_r+0xc6c>
c20022c6:	f41b 7600 	ands.w	r6, fp, #512	; 0x200
c20022ca:	9b07      	ldr	r3, [sp, #28]
c20022cc:	bf1b      	ittet	ne
c20022ce:	4616      	movne	r6, r2
c20022d0:	f853 4b04 	ldrne.w	r4, [r3], #4
c20022d4:	f853 4b04 	ldreq.w	r4, [r3], #4
c20022d8:	9307      	strne	r3, [sp, #28]
c20022da:	bf14      	ite	ne
c20022dc:	b2e4      	uxtbne	r4, r4
c20022de:	9307      	streq	r3, [sp, #28]
c20022e0:	f7ff b963 	b.w	c20015aa <_vfprintf_r+0x502>
c20022e4:	9b05      	ldr	r3, [sp, #20]
c20022e6:	f413 7600 	ands.w	r6, r3, #512	; 0x200
c20022ea:	9b07      	ldr	r3, [sp, #28]
c20022ec:	bf17      	itett	ne
c20022ee:	4616      	movne	r6, r2
c20022f0:	2201      	moveq	r2, #1
c20022f2:	2201      	movne	r2, #1
c20022f4:	f853 4b04 	ldrne.w	r4, [r3], #4
c20022f8:	bf0d      	iteet	eq
c20022fa:	f853 4b04 	ldreq.w	r4, [r3], #4
c20022fe:	9307      	strne	r3, [sp, #28]
c2002300:	b2e4      	uxtbne	r4, r4
c2002302:	9307      	streq	r3, [sp, #28]
c2002304:	f7ff b955 	b.w	c20015b2 <_vfprintf_r+0x50a>
c2002308:	f41b 7600 	ands.w	r6, fp, #512	; 0x200
c200230c:	9b07      	ldr	r3, [sp, #28]
c200230e:	bf1b      	ittet	ne
c2002310:	4616      	movne	r6, r2
c2002312:	f853 4b04 	ldrne.w	r4, [r3], #4
c2002316:	f853 4b04 	ldreq.w	r4, [r3], #4
c200231a:	9307      	strne	r3, [sp, #28]
c200231c:	bf14      	ite	ne
c200231e:	b2e4      	uxtbne	r4, r4
c2002320:	9307      	streq	r3, [sp, #28]
c2002322:	e670      	b.n	c2002006 <_vfprintf_r+0xf5e>
c2002324:	f1ba 3fff 	cmp.w	sl, #4294967295	; 0xffffffff
c2002328:	f000 8110 	beq.w	c200254c <_vfprintf_r+0x14a4>
c200232c:	2c47      	cmp	r4, #71	; 0x47
c200232e:	bf08      	it	eq
c2002330:	f1ba 0f00 	cmpeq.w	sl, #0
c2002334:	f040 810c 	bne.w	c2002550 <_vfprintf_r+0x14a8>
c2002338:	f44b 7380 	orr.w	r3, fp, #256	; 0x100
c200233c:	9306      	str	r3, [sp, #24]
c200233e:	ee18 3a90 	vmov	r3, s17
c2002342:	2b00      	cmp	r3, #0
c2002344:	f2c0 836b 	blt.w	c2002a1e <_vfprintf_r+0x1976>
c2002348:	f04f 0a01 	mov.w	sl, #1
c200234c:	eeb0 9b48 	vmov.f64	d9, d8
c2002350:	4656      	mov	r6, sl
c2002352:	2300      	movs	r3, #0
c2002354:	9309      	str	r3, [sp, #36]	; 0x24
c2002356:	ab20      	add	r3, sp, #128	; 0x80
c2002358:	eeb0 0b49 	vmov.f64	d0, d9
c200235c:	9301      	str	r3, [sp, #4]
c200235e:	ee1a 0a10 	vmov	r0, s20
c2002362:	ab1d      	add	r3, sp, #116	; 0x74
c2002364:	4632      	mov	r2, r6
c2002366:	9300      	str	r3, [sp, #0]
c2002368:	2102      	movs	r1, #2
c200236a:	ab1c      	add	r3, sp, #112	; 0x70
c200236c:	f000 fd44 	bl	c2002df8 <_dtoa_r>
c2002370:	2c47      	cmp	r4, #71	; 0x47
c2002372:	9008      	str	r0, [sp, #32]
c2002374:	d104      	bne.n	c2002380 <_vfprintf_r+0x12d8>
c2002376:	f01b 0f01 	tst.w	fp, #1
c200237a:	bf08      	it	eq
c200237c:	9b20      	ldreq	r3, [sp, #128]	; 0x80
c200237e:	d012      	beq.n	c20023a6 <_vfprintf_r+0x12fe>
c2002380:	9b08      	ldr	r3, [sp, #32]
c2002382:	1999      	adds	r1, r3, r6
c2002384:	eeb5 9b40 	vcmp.f64	d9, #0.0
c2002388:	eef1 fa10 	vmrs	APSR_nzcv, fpscr
c200238c:	bf08      	it	eq
c200238e:	460b      	moveq	r3, r1
c2002390:	d009      	beq.n	c20023a6 <_vfprintf_r+0x12fe>
c2002392:	9b20      	ldr	r3, [sp, #128]	; 0x80
c2002394:	428b      	cmp	r3, r1
c2002396:	d206      	bcs.n	c20023a6 <_vfprintf_r+0x12fe>
c2002398:	2030      	movs	r0, #48	; 0x30
c200239a:	1c5a      	adds	r2, r3, #1
c200239c:	9220      	str	r2, [sp, #128]	; 0x80
c200239e:	7018      	strb	r0, [r3, #0]
c20023a0:	9b20      	ldr	r3, [sp, #128]	; 0x80
c20023a2:	4299      	cmp	r1, r3
c20023a4:	d8f9      	bhi.n	c200239a <_vfprintf_r+0x12f2>
c20023a6:	9a08      	ldr	r2, [sp, #32]
c20023a8:	2c47      	cmp	r4, #71	; 0x47
c20023aa:	eba3 0302 	sub.w	r3, r3, r2
c20023ae:	930d      	str	r3, [sp, #52]	; 0x34
c20023b0:	f040 811f 	bne.w	c20025f2 <_vfprintf_r+0x154a>
c20023b4:	9a1c      	ldr	r2, [sp, #112]	; 0x70
c20023b6:	920b      	str	r2, [sp, #44]	; 0x2c
c20023b8:	1cd1      	adds	r1, r2, #3
c20023ba:	bfac      	ite	ge
c20023bc:	2300      	movge	r3, #0
c20023be:	2301      	movlt	r3, #1
c20023c0:	4552      	cmp	r2, sl
c20023c2:	bfc8      	it	gt
c20023c4:	f043 0301 	orrgt.w	r3, r3, #1
c20023c8:	2b00      	cmp	r3, #0
c20023ca:	f000 80f4 	beq.w	c20025b6 <_vfprintf_r+0x150e>
c20023ce:	3d02      	subs	r5, #2
c20023d0:	2300      	movs	r3, #0
c20023d2:	f025 0420 	bic.w	r4, r5, #32
c20023d6:	9306      	str	r3, [sp, #24]
c20023d8:	2c41      	cmp	r4, #65	; 0x41
c20023da:	9b0b      	ldr	r3, [sp, #44]	; 0x2c
c20023dc:	bf0c      	ite	eq
c20023de:	f105 020f 	addeq.w	r2, r5, #15
c20023e2:	b2ea      	uxtbne	r2, r5
c20023e4:	f103 33ff 	add.w	r3, r3, #4294967295	; 0xffffffff
c20023e8:	931c      	str	r3, [sp, #112]	; 0x70
c20023ea:	bf08      	it	eq
c20023ec:	b2d2      	uxtbeq	r2, r2
c20023ee:	2b00      	cmp	r3, #0
c20023f0:	f88d 2078 	strb.w	r2, [sp, #120]	; 0x78
c20023f4:	bfb4      	ite	lt
c20023f6:	222d      	movlt	r2, #45	; 0x2d
c20023f8:	222b      	movge	r2, #43	; 0x2b
c20023fa:	f88d 2079 	strb.w	r2, [sp, #121]	; 0x79
c20023fe:	bfbc      	itt	lt
c2002400:	9b0b      	ldrlt	r3, [sp, #44]	; 0x2c
c2002402:	f1c3 0301 	rsblt	r3, r3, #1
c2002406:	2b09      	cmp	r3, #9
c2002408:	f340 8350 	ble.w	c2002aac <_vfprintf_r+0x1a04>
c200240c:	f10d 0e87 	add.w	lr, sp, #135	; 0x87
c2002410:	f246 6667 	movw	r6, #26215	; 0x6667
c2002414:	f2c6 6666 	movt	r6, #26214	; 0x6666
c2002418:	4672      	mov	r2, lr
c200241a:	f04f 0c0a 	mov.w	ip, #10
c200241e:	4610      	mov	r0, r2
c2002420:	fb86 2103 	smull	r2, r1, r6, r3
c2002424:	17da      	asrs	r2, r3, #31
c2002426:	461c      	mov	r4, r3
c2002428:	2c63      	cmp	r4, #99	; 0x63
c200242a:	ebc2 02a1 	rsb	r2, r2, r1, asr #2
c200242e:	fb0c 3112 	mls	r1, ip, r2, r3
c2002432:	4613      	mov	r3, r2
c2002434:	f101 0230 	add.w	r2, r1, #48	; 0x30
c2002438:	f800 2c01 	strb.w	r2, [r0, #-1]
c200243c:	f100 32ff 	add.w	r2, r0, #4294967295	; 0xffffffff
c2002440:	dced      	bgt.n	c200241e <_vfprintf_r+0x1376>
c2002442:	3330      	adds	r3, #48	; 0x30
c2002444:	1e81      	subs	r1, r0, #2
c2002446:	458e      	cmp	lr, r1
c2002448:	b2db      	uxtb	r3, r3
c200244a:	f802 3c01 	strb.w	r3, [r2, #-1]
c200244e:	f240 838d 	bls.w	c2002b6c <_vfprintf_r+0x1ac4>
c2002452:	f10d 017a 	add.w	r1, sp, #122	; 0x7a
c2002456:	e001      	b.n	c200245c <_vfprintf_r+0x13b4>
c2002458:	f812 3b01 	ldrb.w	r3, [r2], #1
c200245c:	4596      	cmp	lr, r2
c200245e:	f801 3b01 	strb.w	r3, [r1], #1
c2002462:	d1f9      	bne.n	c2002458 <_vfprintf_r+0x13b0>
c2002464:	f10d 0389 	add.w	r3, sp, #137	; 0x89
c2002468:	f10d 027a 	add.w	r2, sp, #122	; 0x7a
c200246c:	1a1b      	subs	r3, r3, r0
c200246e:	4413      	add	r3, r2
c2002470:	aa1e      	add	r2, sp, #120	; 0x78
c2002472:	1a9b      	subs	r3, r3, r2
c2002474:	9314      	str	r3, [sp, #80]	; 0x50
c2002476:	9b0d      	ldr	r3, [sp, #52]	; 0x34
c2002478:	9a14      	ldr	r2, [sp, #80]	; 0x50
c200247a:	2b01      	cmp	r3, #1
c200247c:	441a      	add	r2, r3
c200247e:	9205      	str	r2, [sp, #20]
c2002480:	f340 8325 	ble.w	c2002ace <_vfprintf_r+0x1a26>
c2002484:	9b05      	ldr	r3, [sp, #20]
c2002486:	9a11      	ldr	r2, [sp, #68]	; 0x44
c2002488:	4413      	add	r3, r2
c200248a:	9305      	str	r3, [sp, #20]
c200248c:	9a05      	ldr	r2, [sp, #20]
c200248e:	f42b 6380 	bic.w	r3, fp, #1024	; 0x400
c2002492:	f443 7b80 	orr.w	fp, r3, #256	; 0x100
c2002496:	2300      	movs	r3, #0
c2002498:	930f      	str	r3, [sp, #60]	; 0x3c
c200249a:	ea22 76e2 	bic.w	r6, r2, r2, asr #31
c200249e:	e9cd 330b 	strd	r3, r3, [sp, #44]	; 0x2c
c20024a2:	9b09      	ldr	r3, [sp, #36]	; 0x24
c20024a4:	2b00      	cmp	r3, #0
c20024a6:	f040 80bd 	bne.w	c2002624 <_vfprintf_r+0x157c>
c20024aa:	f89d 106b 	ldrb.w	r1, [sp, #107]	; 0x6b
c20024ae:	469a      	mov	sl, r3
c20024b0:	f7ff b802 	b.w	c20014b8 <_vfprintf_r+0x410>
c20024b4:	4631      	mov	r1, r6
c20024b6:	9f05      	ldr	r7, [sp, #20]
c20024b8:	464e      	mov	r6, r9
c20024ba:	4689      	mov	r9, r1
c20024bc:	3301      	adds	r3, #1
c20024be:	990e      	ldr	r1, [sp, #56]	; 0x38
c20024c0:	2b07      	cmp	r3, #7
c20024c2:	4422      	add	r2, r4
c20024c4:	f8c8 4004 	str.w	r4, [r8, #4]
c20024c8:	f8c8 1000 	str.w	r1, [r8]
c20024cc:	bfd8      	it	le
c20024ce:	f108 0808 	addle.w	r8, r8, #8
c20024d2:	e9cd 3223 	strd	r3, r2, [sp, #140]	; 0x8c
c20024d6:	f77f aba3 	ble.w	c2001c20 <_vfprintf_r+0xb78>
c20024da:	ee1a 0a10 	vmov	r0, s20
c20024de:	aa22      	add	r2, sp, #136	; 0x88
c20024e0:	4649      	mov	r1, r9
c20024e2:	f003 f9cd 	bl	c2005880 <__sprint_r>
c20024e6:	2800      	cmp	r0, #0
c20024e8:	f47f aa4c 	bne.w	c2001984 <_vfprintf_r+0x8dc>
c20024ec:	9a24      	ldr	r2, [sp, #144]	; 0x90
c20024ee:	f10d 0894 	add.w	r8, sp, #148	; 0x94
c20024f2:	f7ff bb95 	b.w	c2001c20 <_vfprintf_r+0xb78>
c20024f6:	9b0d      	ldr	r3, [sp, #52]	; 0x34
c20024f8:	9d08      	ldr	r5, [sp, #32]
c20024fa:	1b1c      	subs	r4, r3, r4
c20024fc:	441d      	add	r5, r3
c20024fe:	eba5 050a 	sub.w	r5, r5, sl
c2002502:	42a5      	cmp	r5, r4
c2002504:	bfa8      	it	ge
c2002506:	4625      	movge	r5, r4
c2002508:	f7ff bbc3 	b.w	c2001c92 <_vfprintf_r+0xbea>
c200250c:	9b07      	ldr	r3, [sp, #28]
c200250e:	9904      	ldr	r1, [sp, #16]
c2002510:	f853 2b04 	ldr.w	r2, [r3], #4
c2002514:	9307      	str	r3, [sp, #28]
c2002516:	8011      	strh	r1, [r2, #0]
c2002518:	f7fe be20 	b.w	c200115c <_vfprintf_r+0xb4>
c200251c:	b264      	sxtb	r4, r4
c200251e:	17e6      	asrs	r6, r4, #31
c2002520:	4633      	mov	r3, r6
c2002522:	f7fe bfe6 	b.w	c20014f2 <_vfprintf_r+0x44a>
c2002526:	f8da 0058 	ldr.w	r0, [sl, #88]	; 0x58
c200252a:	f001 fdf5 	bl	c2004118 <__retarget_lock_release_recursive>
c200252e:	f7fe bee6 	b.w	c20012fe <_vfprintf_r+0x256>
c2002532:	ee1a 0a10 	vmov	r0, s20
c2002536:	f10a 0101 	add.w	r1, sl, #1
c200253a:	f001 fe61 	bl	c2004200 <_malloc_r>
c200253e:	9008      	str	r0, [sp, #32]
c2002540:	2800      	cmp	r0, #0
c2002542:	f000 82fa 	beq.w	c2002b3a <_vfprintf_r+0x1a92>
c2002546:	9b08      	ldr	r3, [sp, #32]
c2002548:	9306      	str	r3, [sp, #24]
c200254a:	e4c1      	b.n	c2001ed0 <_vfprintf_r+0xe28>
c200254c:	f04f 0a06 	mov.w	sl, #6
c2002550:	f44b 7380 	orr.w	r3, fp, #256	; 0x100
c2002554:	9306      	str	r3, [sp, #24]
c2002556:	ee18 3a90 	vmov	r3, s17
c200255a:	2b00      	cmp	r3, #0
c200255c:	f2c0 8261 	blt.w	c2002a22 <_vfprintf_r+0x197a>
c2002560:	eeb0 9b48 	vmov.f64	d9, d8
c2002564:	2300      	movs	r3, #0
c2002566:	9309      	str	r3, [sp, #36]	; 0x24
c2002568:	2c46      	cmp	r4, #70	; 0x46
c200256a:	f040 81f2 	bne.w	c2002952 <_vfprintf_r+0x18aa>
c200256e:	ab20      	add	r3, sp, #128	; 0x80
c2002570:	4652      	mov	r2, sl
c2002572:	9301      	str	r3, [sp, #4]
c2002574:	eeb0 0b49 	vmov.f64	d0, d9
c2002578:	ab1d      	add	r3, sp, #116	; 0x74
c200257a:	ee1a 0a10 	vmov	r0, s20
c200257e:	9300      	str	r3, [sp, #0]
c2002580:	2103      	movs	r1, #3
c2002582:	ab1c      	add	r3, sp, #112	; 0x70
c2002584:	f000 fc38 	bl	c2002df8 <_dtoa_r>
c2002588:	eeb5 9b40 	vcmp.f64	d9, #0.0
c200258c:	7802      	ldrb	r2, [r0, #0]
c200258e:	4603      	mov	r3, r0
c2002590:	9008      	str	r0, [sp, #32]
c2002592:	eef1 fa10 	vmrs	APSR_nzcv, fpscr
c2002596:	bf14      	ite	ne
c2002598:	2301      	movne	r3, #1
c200259a:	2300      	moveq	r3, #0
c200259c:	2a30      	cmp	r2, #48	; 0x30
c200259e:	bf14      	ite	ne
c20025a0:	2300      	movne	r3, #0
c20025a2:	f003 0301 	andeq.w	r3, r3, #1
c20025a6:	2b00      	cmp	r3, #0
c20025a8:	f040 82c3 	bne.w	c2002b32 <_vfprintf_r+0x1a8a>
c20025ac:	9b1c      	ldr	r3, [sp, #112]	; 0x70
c20025ae:	9a08      	ldr	r2, [sp, #32]
c20025b0:	4453      	add	r3, sl
c20025b2:	18d1      	adds	r1, r2, r3
c20025b4:	e6e6      	b.n	c2002384 <_vfprintf_r+0x12dc>
c20025b6:	9b0b      	ldr	r3, [sp, #44]	; 0x2c
c20025b8:	9a0d      	ldr	r2, [sp, #52]	; 0x34
c20025ba:	4293      	cmp	r3, r2
c20025bc:	f2c0 8181 	blt.w	c20028c2 <_vfprintf_r+0x181a>
c20025c0:	f01b 0f01 	tst.w	fp, #1
c20025c4:	f000 8225 	beq.w	c2002a12 <_vfprintf_r+0x196a>
c20025c8:	9a11      	ldr	r2, [sp, #68]	; 0x44
c20025ca:	4413      	add	r3, r2
c20025cc:	9305      	str	r3, [sp, #20]
c20025ce:	f41b 6f80 	tst.w	fp, #1024	; 0x400
c20025d2:	d003      	beq.n	c20025dc <_vfprintf_r+0x1534>
c20025d4:	9b0b      	ldr	r3, [sp, #44]	; 0x2c
c20025d6:	2b00      	cmp	r3, #0
c20025d8:	f300 81f1 	bgt.w	c20029be <_vfprintf_r+0x1916>
c20025dc:	9b05      	ldr	r3, [sp, #20]
c20025de:	2567      	movs	r5, #103	; 0x67
c20025e0:	ea23 76e3 	bic.w	r6, r3, r3, asr #31
c20025e4:	2300      	movs	r3, #0
c20025e6:	f8dd b018 	ldr.w	fp, [sp, #24]
c20025ea:	930f      	str	r3, [sp, #60]	; 0x3c
c20025ec:	9306      	str	r3, [sp, #24]
c20025ee:	930c      	str	r3, [sp, #48]	; 0x30
c20025f0:	e757      	b.n	c20024a2 <_vfprintf_r+0x13fa>
c20025f2:	2c46      	cmp	r4, #70	; 0x46
c20025f4:	f040 82b6 	bne.w	c2002b64 <_vfprintf_r+0x1abc>
c20025f8:	9a1c      	ldr	r2, [sp, #112]	; 0x70
c20025fa:	f00b 0301 	and.w	r3, fp, #1
c20025fe:	920b      	str	r2, [sp, #44]	; 0x2c
c2002600:	2a00      	cmp	r2, #0
c2002602:	f340 827c 	ble.w	c2002afe <_vfprintf_r+0x1a56>
c2002606:	ea53 030a 	orrs.w	r3, r3, sl
c200260a:	f040 820f 	bne.w	c2002a2c <_vfprintf_r+0x1984>
c200260e:	9b0b      	ldr	r3, [sp, #44]	; 0x2c
c2002610:	2566      	movs	r5, #102	; 0x66
c2002612:	9305      	str	r3, [sp, #20]
c2002614:	f41b 6f80 	tst.w	fp, #1024	; 0x400
c2002618:	f040 81d2 	bne.w	c20029c0 <_vfprintf_r+0x1918>
c200261c:	9b05      	ldr	r3, [sp, #20]
c200261e:	ea23 76e3 	bic.w	r6, r3, r3, asr #31
c2002622:	e7df      	b.n	c20025e4 <_vfprintf_r+0x153c>
c2002624:	212d      	movs	r1, #45	; 0x2d
c2002626:	f04f 0a00 	mov.w	sl, #0
c200262a:	f88d 106b 	strb.w	r1, [sp, #107]	; 0x6b
c200262e:	f7fe bf46 	b.w	c20014be <_vfprintf_r+0x416>
c2002632:	9b0f      	ldr	r3, [sp, #60]	; 0x3c
c2002634:	990c      	ldr	r1, [sp, #48]	; 0x30
c2002636:	2900      	cmp	r1, #0
c2002638:	bfd8      	it	le
c200263a:	2b00      	cmple	r3, #0
c200263c:	f340 8286 	ble.w	c2002b4c <_vfprintf_r+0x1aa4>
c2002640:	9908      	ldr	r1, [sp, #32]
c2002642:	980d      	ldr	r0, [sp, #52]	; 0x34
c2002644:	f8cd b02c 	str.w	fp, [sp, #44]	; 0x2c
c2002648:	4401      	add	r1, r0
c200264a:	960f      	str	r6, [sp, #60]	; 0x3c
c200264c:	9109      	str	r1, [sp, #36]	; 0x24
c200264e:	4656      	mov	r6, sl
c2002650:	4649      	mov	r1, r9
c2002652:	f8dd a05c 	ldr.w	sl, [sp, #92]	; 0x5c
c2002656:	ee1a 9a10 	vmov	r9, s20
c200265a:	f8dd b038 	ldr.w	fp, [sp, #56]	; 0x38
c200265e:	9718      	str	r7, [sp, #96]	; 0x60
c2002660:	461f      	mov	r7, r3
c2002662:	2f00      	cmp	r7, #0
c2002664:	d03f      	beq.n	c20026e6 <_vfprintf_r+0x163e>
c2002666:	3f01      	subs	r7, #1
c2002668:	9b15      	ldr	r3, [sp, #84]	; 0x54
c200266a:	9816      	ldr	r0, [sp, #88]	; 0x58
c200266c:	e9c8 0300 	strd	r0, r3, [r8]
c2002670:	441a      	add	r2, r3
c2002672:	9823      	ldr	r0, [sp, #140]	; 0x8c
c2002674:	9224      	str	r2, [sp, #144]	; 0x90
c2002676:	3001      	adds	r0, #1
c2002678:	9023      	str	r0, [sp, #140]	; 0x8c
c200267a:	2807      	cmp	r0, #7
c200267c:	bfd8      	it	le
c200267e:	f108 0808 	addle.w	r8, r8, #8
c2002682:	dc6f      	bgt.n	c2002764 <_vfprintf_r+0x16bc>
c2002684:	9b09      	ldr	r3, [sp, #36]	; 0x24
c2002686:	f89a 0000 	ldrb.w	r0, [sl]
c200268a:	1b9d      	subs	r5, r3, r6
c200268c:	9305      	str	r3, [sp, #20]
c200268e:	4285      	cmp	r5, r0
c2002690:	bfa8      	it	ge
c2002692:	4605      	movge	r5, r0
c2002694:	2d00      	cmp	r5, #0
c2002696:	dd0c      	ble.n	c20026b2 <_vfprintf_r+0x160a>
c2002698:	9823      	ldr	r0, [sp, #140]	; 0x8c
c200269a:	442a      	add	r2, r5
c200269c:	e9c8 6500 	strd	r6, r5, [r8]
c20026a0:	3001      	adds	r0, #1
c20026a2:	9224      	str	r2, [sp, #144]	; 0x90
c20026a4:	2807      	cmp	r0, #7
c20026a6:	9023      	str	r0, [sp, #140]	; 0x8c
c20026a8:	dc69      	bgt.n	c200277e <_vfprintf_r+0x16d6>
c20026aa:	f89a 0000 	ldrb.w	r0, [sl]
c20026ae:	f108 0808 	add.w	r8, r8, #8
c20026b2:	2d00      	cmp	r5, #0
c20026b4:	bfac      	ite	ge
c20026b6:	1b44      	subge	r4, r0, r5
c20026b8:	4604      	movlt	r4, r0
c20026ba:	2c00      	cmp	r4, #0
c20026bc:	dc19      	bgt.n	c20026f2 <_vfprintf_r+0x164a>
c20026be:	9b0c      	ldr	r3, [sp, #48]	; 0x30
c20026c0:	4406      	add	r6, r0
c20026c2:	2f00      	cmp	r7, #0
c20026c4:	bfd8      	it	le
c20026c6:	2b00      	cmple	r3, #0
c20026c8:	dccb      	bgt.n	c2002662 <_vfprintf_r+0x15ba>
c20026ca:	f8cd a05c 	str.w	sl, [sp, #92]	; 0x5c
c20026ce:	46b2      	mov	sl, r6
c20026d0:	f8dd b02c 	ldr.w	fp, [sp, #44]	; 0x2c
c20026d4:	4689      	mov	r9, r1
c20026d6:	9e0f      	ldr	r6, [sp, #60]	; 0x3c
c20026d8:	9f18      	ldr	r7, [sp, #96]	; 0x60
c20026da:	9b05      	ldr	r3, [sp, #20]
c20026dc:	459a      	cmp	sl, r3
c20026de:	bf28      	it	cs
c20026e0:	469a      	movcs	sl, r3
c20026e2:	f7ff baa5 	b.w	c2001c30 <_vfprintf_r+0xb88>
c20026e6:	9b0c      	ldr	r3, [sp, #48]	; 0x30
c20026e8:	f10a 3aff 	add.w	sl, sl, #4294967295	; 0xffffffff
c20026ec:	3b01      	subs	r3, #1
c20026ee:	930c      	str	r3, [sp, #48]	; 0x30
c20026f0:	e7ba      	b.n	c2002668 <_vfprintf_r+0x15c0>
c20026f2:	9823      	ldr	r0, [sp, #140]	; 0x8c
c20026f4:	2c10      	cmp	r4, #16
c20026f6:	dd28      	ble.n	c200274a <_vfprintf_r+0x16a2>
c20026f8:	465b      	mov	r3, fp
c20026fa:	970a      	str	r7, [sp, #40]	; 0x28
c20026fc:	46b3      	mov	fp, r6
c20026fe:	2510      	movs	r5, #16
c2002700:	460f      	mov	r7, r1
c2002702:	461e      	mov	r6, r3
c2002704:	e002      	b.n	c200270c <_vfprintf_r+0x1664>
c2002706:	3c10      	subs	r4, #16
c2002708:	2c10      	cmp	r4, #16
c200270a:	dd19      	ble.n	c2002740 <_vfprintf_r+0x1698>
c200270c:	3001      	adds	r0, #1
c200270e:	3210      	adds	r2, #16
c2002710:	2807      	cmp	r0, #7
c2002712:	e9c8 6500 	strd	r6, r5, [r8]
c2002716:	e9cd 0223 	strd	r0, r2, [sp, #140]	; 0x8c
c200271a:	bfd8      	it	le
c200271c:	f108 0808 	addle.w	r8, r8, #8
c2002720:	ddf1      	ble.n	c2002706 <_vfprintf_r+0x165e>
c2002722:	aa22      	add	r2, sp, #136	; 0x88
c2002724:	4639      	mov	r1, r7
c2002726:	4648      	mov	r0, r9
c2002728:	f10d 0894 	add.w	r8, sp, #148	; 0x94
c200272c:	f003 f8a8 	bl	c2005880 <__sprint_r>
c2002730:	2800      	cmp	r0, #0
c2002732:	f040 8082 	bne.w	c200283a <_vfprintf_r+0x1792>
c2002736:	3c10      	subs	r4, #16
c2002738:	e9dd 0223 	ldrd	r0, r2, [sp, #140]	; 0x8c
c200273c:	2c10      	cmp	r4, #16
c200273e:	dce5      	bgt.n	c200270c <_vfprintf_r+0x1664>
c2002740:	4633      	mov	r3, r6
c2002742:	4639      	mov	r1, r7
c2002744:	9f0a      	ldr	r7, [sp, #40]	; 0x28
c2002746:	465e      	mov	r6, fp
c2002748:	469b      	mov	fp, r3
c200274a:	3001      	adds	r0, #1
c200274c:	4422      	add	r2, r4
c200274e:	2807      	cmp	r0, #7
c2002750:	e9c8 b400 	strd	fp, r4, [r8]
c2002754:	e9cd 0223 	strd	r0, r2, [sp, #140]	; 0x8c
c2002758:	dc72      	bgt.n	c2002840 <_vfprintf_r+0x1798>
c200275a:	f89a 0000 	ldrb.w	r0, [sl]
c200275e:	f108 0808 	add.w	r8, r8, #8
c2002762:	e7ac      	b.n	c20026be <_vfprintf_r+0x1616>
c2002764:	aa22      	add	r2, sp, #136	; 0x88
c2002766:	4648      	mov	r0, r9
c2002768:	9105      	str	r1, [sp, #20]
c200276a:	f003 f889 	bl	c2005880 <__sprint_r>
c200276e:	9905      	ldr	r1, [sp, #20]
c2002770:	2800      	cmp	r0, #0
c2002772:	f040 817d 	bne.w	c2002a70 <_vfprintf_r+0x19c8>
c2002776:	9a24      	ldr	r2, [sp, #144]	; 0x90
c2002778:	f10d 0894 	add.w	r8, sp, #148	; 0x94
c200277c:	e782      	b.n	c2002684 <_vfprintf_r+0x15dc>
c200277e:	aa22      	add	r2, sp, #136	; 0x88
c2002780:	4648      	mov	r0, r9
c2002782:	910a      	str	r1, [sp, #40]	; 0x28
c2002784:	f003 f87c 	bl	c2005880 <__sprint_r>
c2002788:	990a      	ldr	r1, [sp, #40]	; 0x28
c200278a:	2800      	cmp	r0, #0
c200278c:	f040 8170 	bne.w	c2002a70 <_vfprintf_r+0x19c8>
c2002790:	f89a 0000 	ldrb.w	r0, [sl]
c2002794:	f10d 0894 	add.w	r8, sp, #148	; 0x94
c2002798:	9a24      	ldr	r2, [sp, #144]	; 0x90
c200279a:	e78a      	b.n	c20026b2 <_vfprintf_r+0x160a>
c200279c:	ee1a 0a10 	vmov	r0, s20
c20027a0:	aa22      	add	r2, sp, #136	; 0x88
c20027a2:	4649      	mov	r1, r9
c20027a4:	f003 f86c 	bl	c2005880 <__sprint_r>
c20027a8:	2800      	cmp	r0, #0
c20027aa:	f47f a8eb 	bne.w	c2001984 <_vfprintf_r+0x8dc>
c20027ae:	991c      	ldr	r1, [sp, #112]	; 0x70
c20027b0:	f10d 0894 	add.w	r8, sp, #148	; 0x94
c20027b4:	9a24      	ldr	r2, [sp, #144]	; 0x90
c20027b6:	f7ff bb42 	b.w	c2001e3e <_vfprintf_r+0xd96>
c20027ba:	ee1a 0a10 	vmov	r0, s20
c20027be:	aa22      	add	r2, sp, #136	; 0x88
c20027c0:	4649      	mov	r1, r9
c20027c2:	f003 f85d 	bl	c2005880 <__sprint_r>
c20027c6:	2800      	cmp	r0, #0
c20027c8:	f47f a8dc 	bne.w	c2001984 <_vfprintf_r+0x8dc>
c20027cc:	991c      	ldr	r1, [sp, #112]	; 0x70
c20027ce:	f10d 0894 	add.w	r8, sp, #148	; 0x94
c20027d2:	e9dd 3223 	ldrd	r3, r2, [sp, #140]	; 0x8c
c20027d6:	f7ff bb45 	b.w	c2001e64 <_vfprintf_r+0xdbc>
c20027da:	ee1a 0a10 	vmov	r0, s20
c20027de:	aa22      	add	r2, sp, #136	; 0x88
c20027e0:	4649      	mov	r1, r9
c20027e2:	f003 f84d 	bl	c2005880 <__sprint_r>
c20027e6:	2800      	cmp	r0, #0
c20027e8:	f47f a8cc 	bne.w	c2001984 <_vfprintf_r+0x8dc>
c20027ec:	9a24      	ldr	r2, [sp, #144]	; 0x90
c20027ee:	f10d 0894 	add.w	r8, sp, #148	; 0x94
c20027f2:	f7ff ba0e 	b.w	c2001c12 <_vfprintf_r+0xb6a>
c20027f6:	f01b 0f01 	tst.w	fp, #1
c20027fa:	f43e ae0d 	beq.w	c2001418 <_vfprintf_r+0x370>
c20027fe:	9b11      	ldr	r3, [sp, #68]	; 0x44
c2002800:	9912      	ldr	r1, [sp, #72]	; 0x48
c2002802:	441a      	add	r2, r3
c2002804:	e9c8 1300 	strd	r1, r3, [r8]
c2002808:	9b23      	ldr	r3, [sp, #140]	; 0x8c
c200280a:	9224      	str	r2, [sp, #144]	; 0x90
c200280c:	3301      	adds	r3, #1
c200280e:	9323      	str	r3, [sp, #140]	; 0x8c
c2002810:	2b07      	cmp	r3, #7
c2002812:	dcd2      	bgt.n	c20027ba <_vfprintf_r+0x1712>
c2002814:	f108 0808 	add.w	r8, r8, #8
c2002818:	f7ff bb27 	b.w	c2001e6a <_vfprintf_r+0xdc2>
c200281c:	ee1a 0a10 	vmov	r0, s20
c2002820:	aa22      	add	r2, sp, #136	; 0x88
c2002822:	4649      	mov	r1, r9
c2002824:	f003 f82c 	bl	c2005880 <__sprint_r>
c2002828:	2800      	cmp	r0, #0
c200282a:	f47f a8ab 	bne.w	c2001984 <_vfprintf_r+0x8dc>
c200282e:	9c1c      	ldr	r4, [sp, #112]	; 0x70
c2002830:	f10d 0894 	add.w	r8, sp, #148	; 0x94
c2002834:	9a24      	ldr	r2, [sp, #144]	; 0x90
c2002836:	f7ff ba12 	b.w	c2001c5e <_vfprintf_r+0xbb6>
c200283a:	46ba      	mov	sl, r7
c200283c:	f7ff b8a3 	b.w	c2001986 <_vfprintf_r+0x8de>
c2002840:	aa22      	add	r2, sp, #136	; 0x88
c2002842:	4648      	mov	r0, r9
c2002844:	910a      	str	r1, [sp, #40]	; 0x28
c2002846:	f003 f81b 	bl	c2005880 <__sprint_r>
c200284a:	990a      	ldr	r1, [sp, #40]	; 0x28
c200284c:	2800      	cmp	r0, #0
c200284e:	f040 810f 	bne.w	c2002a70 <_vfprintf_r+0x19c8>
c2002852:	f89a 0000 	ldrb.w	r0, [sl]
c2002856:	f10d 0894 	add.w	r8, sp, #148	; 0x94
c200285a:	9a24      	ldr	r2, [sp, #144]	; 0x90
c200285c:	e72f      	b.n	c20026be <_vfprintf_r+0x1616>
c200285e:	4656      	mov	r6, sl
c2002860:	f8cd a014 	str.w	sl, [sp, #20]
c2002864:	f89d 106b 	ldrb.w	r1, [sp, #107]	; 0x6b
c2002868:	4682      	mov	sl, r0
c200286a:	9407      	str	r4, [sp, #28]
c200286c:	900f      	str	r0, [sp, #60]	; 0x3c
c200286e:	e9cd 000b 	strd	r0, r0, [sp, #44]	; 0x2c
c2002872:	f7fe be21 	b.w	c20014b8 <_vfprintf_r+0x410>
c2002876:	9b15      	ldr	r3, [sp, #84]	; 0x54
c2002878:	9916      	ldr	r1, [sp, #88]	; 0x58
c200287a:	ebaa 0a03 	sub.w	sl, sl, r3
c200287e:	461a      	mov	r2, r3
c2002880:	4650      	mov	r0, sl
c2002882:	f002 ff8b 	bl	c200579c <strncpy>
c2002886:	f899 3001 	ldrb.w	r3, [r9, #1]
c200288a:	b10b      	cbz	r3, c2002890 <_vfprintf_r+0x17e8>
c200288c:	f109 0901 	add.w	r9, r9, #1
c2002890:	4620      	mov	r0, r4
c2002892:	4631      	mov	r1, r6
c2002894:	220a      	movs	r2, #10
c2002896:	2300      	movs	r3, #0
c2002898:	2500      	movs	r5, #0
c200289a:	f005 f883 	bl	c20079a4 <__aeabi_uldivmod>
c200289e:	e483      	b.n	c20021a8 <_vfprintf_r+0x1100>
c20028a0:	ee1a 0a10 	vmov	r0, s20
c20028a4:	aa22      	add	r2, sp, #136	; 0x88
c20028a6:	4649      	mov	r1, r9
c20028a8:	f002 ffea 	bl	c2005880 <__sprint_r>
c20028ac:	2800      	cmp	r0, #0
c20028ae:	f47f a869 	bne.w	c2001984 <_vfprintf_r+0x8dc>
c20028b2:	9c1c      	ldr	r4, [sp, #112]	; 0x70
c20028b4:	f10d 0894 	add.w	r8, sp, #148	; 0x94
c20028b8:	9b0d      	ldr	r3, [sp, #52]	; 0x34
c20028ba:	9a24      	ldr	r2, [sp, #144]	; 0x90
c20028bc:	1b1c      	subs	r4, r3, r4
c20028be:	f7ff b9e8 	b.w	c2001c92 <_vfprintf_r+0xbea>
c20028c2:	9b0d      	ldr	r3, [sp, #52]	; 0x34
c20028c4:	9a11      	ldr	r2, [sp, #68]	; 0x44
c20028c6:	189a      	adds	r2, r3, r2
c20028c8:	9b0b      	ldr	r3, [sp, #44]	; 0x2c
c20028ca:	9205      	str	r2, [sp, #20]
c20028cc:	2b00      	cmp	r3, #0
c20028ce:	bfc8      	it	gt
c20028d0:	2567      	movgt	r5, #103	; 0x67
c20028d2:	f73f ae9f 	bgt.w	c2002614 <_vfprintf_r+0x156c>
c20028d6:	f1c3 0301 	rsb	r3, r3, #1
c20028da:	2567      	movs	r5, #103	; 0x67
c20028dc:	441a      	add	r2, r3
c20028de:	9205      	str	r2, [sp, #20]
c20028e0:	ea22 76e2 	bic.w	r6, r2, r2, asr #31
c20028e4:	e67e      	b.n	c20025e4 <_vfprintf_r+0x153c>
c20028e6:	424c      	negs	r4, r1
c20028e8:	3110      	adds	r1, #16
c20028ea:	da4d      	bge.n	c2002988 <_vfprintf_r+0x18e0>
c20028ec:	4649      	mov	r1, r9
c20028ee:	ee1a aa10 	vmov	sl, s20
c20028f2:	f8dd 9038 	ldr.w	r9, [sp, #56]	; 0x38
c20028f6:	2510      	movs	r5, #16
c20028f8:	e002      	b.n	c2002900 <_vfprintf_r+0x1858>
c20028fa:	3c10      	subs	r4, #16
c20028fc:	2c10      	cmp	r4, #16
c20028fe:	dd42      	ble.n	c2002986 <_vfprintf_r+0x18de>
c2002900:	3301      	adds	r3, #1
c2002902:	3210      	adds	r2, #16
c2002904:	2b07      	cmp	r3, #7
c2002906:	e9c8 9500 	strd	r9, r5, [r8]
c200290a:	e9cd 3223 	strd	r3, r2, [sp, #140]	; 0x8c
c200290e:	bfd8      	it	le
c2002910:	f108 0808 	addle.w	r8, r8, #8
c2002914:	ddf1      	ble.n	c20028fa <_vfprintf_r+0x1852>
c2002916:	aa22      	add	r2, sp, #136	; 0x88
c2002918:	4650      	mov	r0, sl
c200291a:	9105      	str	r1, [sp, #20]
c200291c:	f002 ffb0 	bl	c2005880 <__sprint_r>
c2002920:	9905      	ldr	r1, [sp, #20]
c2002922:	2800      	cmp	r0, #0
c2002924:	f040 80a4 	bne.w	c2002a70 <_vfprintf_r+0x19c8>
c2002928:	e9dd 3223 	ldrd	r3, r2, [sp, #140]	; 0x8c
c200292c:	f10d 0894 	add.w	r8, sp, #148	; 0x94
c2002930:	e7e3      	b.n	c20028fa <_vfprintf_r+0x1852>
c2002932:	ee1a 0a10 	vmov	r0, s20
c2002936:	aa22      	add	r2, sp, #136	; 0x88
c2002938:	4649      	mov	r1, r9
c200293a:	f002 ffa1 	bl	c2005880 <__sprint_r>
c200293e:	2800      	cmp	r0, #0
c2002940:	f43f ac73 	beq.w	c200222a <_vfprintf_r+0x1182>
c2002944:	f7ff b825 	b.w	c2001992 <_vfprintf_r+0x8ea>
c2002948:	f04f 33ff 	mov.w	r3, #4294967295	; 0xffffffff
c200294c:	9304      	str	r3, [sp, #16]
c200294e:	f7ff b82d 	b.w	c20019ac <_vfprintf_r+0x904>
c2002952:	2c45      	cmp	r4, #69	; 0x45
c2002954:	f040 80ff 	bne.w	c2002b56 <_vfprintf_r+0x1aae>
c2002958:	f10a 0601 	add.w	r6, sl, #1
c200295c:	ab20      	add	r3, sp, #128	; 0x80
c200295e:	eeb0 0b49 	vmov.f64	d0, d9
c2002962:	9301      	str	r3, [sp, #4]
c2002964:	ee1a 0a10 	vmov	r0, s20
c2002968:	ab1d      	add	r3, sp, #116	; 0x74
c200296a:	4632      	mov	r2, r6
c200296c:	9300      	str	r3, [sp, #0]
c200296e:	2102      	movs	r1, #2
c2002970:	ab1c      	add	r3, sp, #112	; 0x70
c2002972:	f000 fa41 	bl	c2002df8 <_dtoa_r>
c2002976:	9008      	str	r0, [sp, #32]
c2002978:	e502      	b.n	c2002380 <_vfprintf_r+0x12d8>
c200297a:	2300      	movs	r3, #0
c200297c:	eeb0 0b48 	vmov.f64	d0, d8
c2002980:	9309      	str	r3, [sp, #36]	; 0x24
c2002982:	f7ff baae 	b.w	c2001ee2 <_vfprintf_r+0xe3a>
c2002986:	4689      	mov	r9, r1
c2002988:	3301      	adds	r3, #1
c200298a:	990e      	ldr	r1, [sp, #56]	; 0x38
c200298c:	4422      	add	r2, r4
c200298e:	2b07      	cmp	r3, #7
c2002990:	f8c8 4004 	str.w	r4, [r8, #4]
c2002994:	f8c8 1000 	str.w	r1, [r8]
c2002998:	e9cd 3223 	strd	r3, r2, [sp, #140]	; 0x8c
c200299c:	f77f af3a 	ble.w	c2002814 <_vfprintf_r+0x176c>
c20029a0:	ee1a 0a10 	vmov	r0, s20
c20029a4:	aa22      	add	r2, sp, #136	; 0x88
c20029a6:	4649      	mov	r1, r9
c20029a8:	f002 ff6a 	bl	c2005880 <__sprint_r>
c20029ac:	2800      	cmp	r0, #0
c20029ae:	f47e afe9 	bne.w	c2001984 <_vfprintf_r+0x8dc>
c20029b2:	e9dd 3223 	ldrd	r3, r2, [sp, #140]	; 0x8c
c20029b6:	f10d 0894 	add.w	r8, sp, #148	; 0x94
c20029ba:	f7ff ba56 	b.w	c2001e6a <_vfprintf_r+0xdc2>
c20029be:	2567      	movs	r5, #103	; 0x67
c20029c0:	9917      	ldr	r1, [sp, #92]	; 0x5c
c20029c2:	780b      	ldrb	r3, [r1, #0]
c20029c4:	2bff      	cmp	r3, #255	; 0xff
c20029c6:	f000 80c9 	beq.w	c2002b5c <_vfprintf_r+0x1ab4>
c20029ca:	2400      	movs	r4, #0
c20029cc:	9a0b      	ldr	r2, [sp, #44]	; 0x2c
c20029ce:	4620      	mov	r0, r4
c20029d0:	e003      	b.n	c20029da <_vfprintf_r+0x1932>
c20029d2:	3001      	adds	r0, #1
c20029d4:	3101      	adds	r1, #1
c20029d6:	2bff      	cmp	r3, #255	; 0xff
c20029d8:	d008      	beq.n	c20029ec <_vfprintf_r+0x1944>
c20029da:	4293      	cmp	r3, r2
c20029dc:	da06      	bge.n	c20029ec <_vfprintf_r+0x1944>
c20029de:	1ad2      	subs	r2, r2, r3
c20029e0:	784b      	ldrb	r3, [r1, #1]
c20029e2:	2b00      	cmp	r3, #0
c20029e4:	d1f5      	bne.n	c20029d2 <_vfprintf_r+0x192a>
c20029e6:	780b      	ldrb	r3, [r1, #0]
c20029e8:	3401      	adds	r4, #1
c20029ea:	e7f4      	b.n	c20029d6 <_vfprintf_r+0x192e>
c20029ec:	920b      	str	r2, [sp, #44]	; 0x2c
c20029ee:	9117      	str	r1, [sp, #92]	; 0x5c
c20029f0:	900c      	str	r0, [sp, #48]	; 0x30
c20029f2:	940f      	str	r4, [sp, #60]	; 0x3c
c20029f4:	9a0f      	ldr	r2, [sp, #60]	; 0x3c
c20029f6:	9b0c      	ldr	r3, [sp, #48]	; 0x30
c20029f8:	9915      	ldr	r1, [sp, #84]	; 0x54
c20029fa:	4413      	add	r3, r2
c20029fc:	9a05      	ldr	r2, [sp, #20]
c20029fe:	f8dd b018 	ldr.w	fp, [sp, #24]
c2002a02:	fb01 2303 	mla	r3, r1, r3, r2
c2002a06:	2200      	movs	r2, #0
c2002a08:	9305      	str	r3, [sp, #20]
c2002a0a:	9206      	str	r2, [sp, #24]
c2002a0c:	ea23 76e3 	bic.w	r6, r3, r3, asr #31
c2002a10:	e547      	b.n	c20024a2 <_vfprintf_r+0x13fa>
c2002a12:	9b0b      	ldr	r3, [sp, #44]	; 0x2c
c2002a14:	9305      	str	r3, [sp, #20]
c2002a16:	e5da      	b.n	c20025ce <_vfprintf_r+0x1526>
c2002a18:	46ca      	mov	sl, r9
c2002a1a:	f7fe bfba 	b.w	c2001992 <_vfprintf_r+0x8ea>
c2002a1e:	f04f 0a01 	mov.w	sl, #1
c2002a22:	232d      	movs	r3, #45	; 0x2d
c2002a24:	eeb1 9b48 	vneg.f64	d9, d8
c2002a28:	9309      	str	r3, [sp, #36]	; 0x24
c2002a2a:	e59d      	b.n	c2002568 <_vfprintf_r+0x14c0>
c2002a2c:	9b11      	ldr	r3, [sp, #68]	; 0x44
c2002a2e:	2566      	movs	r5, #102	; 0x66
c2002a30:	18d6      	adds	r6, r2, r3
c2002a32:	eb06 030a 	add.w	r3, r6, sl
c2002a36:	9305      	str	r3, [sp, #20]
c2002a38:	e5ec      	b.n	c2002614 <_vfprintf_r+0x156c>
c2002a3a:	ee18 3a90 	vmov	r3, s17
c2002a3e:	f647 42c4 	movw	r2, #31940	; 0x7cc4
c2002a42:	f2cc 2200 	movt	r2, #49664	; 0xc200
c2002a46:	f02b 0b80 	bic.w	fp, fp, #128	; 0x80
c2002a4a:	2603      	movs	r6, #3
c2002a4c:	2b00      	cmp	r3, #0
c2002a4e:	f04f 0300 	mov.w	r3, #0
c2002a52:	bfb8      	it	lt
c2002a54:	212d      	movlt	r1, #45	; 0x2d
c2002a56:	4618      	mov	r0, r3
c2002a58:	9306      	str	r3, [sp, #24]
c2002a5a:	f647 43c8 	movw	r3, #31944	; 0x7cc8
c2002a5e:	f2cc 2300 	movt	r3, #49664	; 0xc200
c2002a62:	bfac      	ite	ge
c2002a64:	f89d 106b 	ldrbge.w	r1, [sp, #107]	; 0x6b
c2002a68:	f88d 106b 	strblt.w	r1, [sp, #107]	; 0x6b
c2002a6c:	f7fe bd1b 	b.w	c20014a6 <_vfprintf_r+0x3fe>
c2002a70:	468a      	mov	sl, r1
c2002a72:	f7fe bf88 	b.w	c2001986 <_vfprintf_r+0x8de>
c2002a76:	9620      	str	r6, [sp, #128]	; 0x80
c2002a78:	4613      	mov	r3, r2
c2002a7a:	7bc6      	ldrb	r6, [r0, #15]
c2002a7c:	f812 1c01 	ldrb.w	r1, [r2, #-1]
c2002a80:	42b1      	cmp	r1, r6
c2002a82:	d10a      	bne.n	c2002a9a <_vfprintf_r+0x19f2>
c2002a84:	f04f 0c30 	mov.w	ip, #48	; 0x30
c2002a88:	f803 cc01 	strb.w	ip, [r3, #-1]
c2002a8c:	9b20      	ldr	r3, [sp, #128]	; 0x80
c2002a8e:	1e59      	subs	r1, r3, #1
c2002a90:	9120      	str	r1, [sp, #128]	; 0x80
c2002a92:	f813 1c01 	ldrb.w	r1, [r3, #-1]
c2002a96:	428e      	cmp	r6, r1
c2002a98:	d0f6      	beq.n	c2002a88 <_vfprintf_r+0x19e0>
c2002a9a:	2939      	cmp	r1, #57	; 0x39
c2002a9c:	bf16      	itet	ne
c2002a9e:	3101      	addne	r1, #1
c2002aa0:	7a81      	ldrbeq	r1, [r0, #10]
c2002aa2:	b2c9      	uxtbne	r1, r1
c2002aa4:	f803 1c01 	strb.w	r1, [r3, #-1]
c2002aa8:	f7ff ba70 	b.w	c2001f8c <_vfprintf_r+0xee4>
c2002aac:	2c41      	cmp	r4, #65	; 0x41
c2002aae:	f103 0330 	add.w	r3, r3, #48	; 0x30
c2002ab2:	bf17      	itett	ne
c2002ab4:	2230      	movne	r2, #48	; 0x30
c2002ab6:	f10d 027a 	addeq.w	r2, sp, #122	; 0x7a
c2002aba:	f88d 207a 	strbne.w	r2, [sp, #122]	; 0x7a
c2002abe:	f10d 027b 	addne.w	r2, sp, #123	; 0x7b
c2002ac2:	f802 3b01 	strb.w	r3, [r2], #1
c2002ac6:	ab1e      	add	r3, sp, #120	; 0x78
c2002ac8:	1ad3      	subs	r3, r2, r3
c2002aca:	9314      	str	r3, [sp, #80]	; 0x50
c2002acc:	e4d3      	b.n	c2002476 <_vfprintf_r+0x13ce>
c2002ace:	f01b 0f01 	tst.w	fp, #1
c2002ad2:	f43f acdb 	beq.w	c200248c <_vfprintf_r+0x13e4>
c2002ad6:	e4d5      	b.n	c2002484 <_vfprintf_r+0x13dc>
c2002ad8:	f8da 3064 	ldr.w	r3, [sl, #100]	; 0x64
c2002adc:	07dc      	lsls	r4, r3, #31
c2002ade:	f53f af33 	bmi.w	c2002948 <_vfprintf_r+0x18a0>
c2002ae2:	f8ba 300c 	ldrh.w	r3, [sl, #12]
c2002ae6:	0598      	lsls	r0, r3, #22
c2002ae8:	f53f af2e 	bmi.w	c2002948 <_vfprintf_r+0x18a0>
c2002aec:	f8da 0058 	ldr.w	r0, [sl, #88]	; 0x58
c2002af0:	f04f 33ff 	mov.w	r3, #4294967295	; 0xffffffff
c2002af4:	9304      	str	r3, [sp, #16]
c2002af6:	f001 fb0f 	bl	c2004118 <__retarget_lock_release_recursive>
c2002afa:	f7fe bf57 	b.w	c20019ac <_vfprintf_r+0x904>
c2002afe:	ea53 030a 	orrs.w	r3, r3, sl
c2002b02:	d103      	bne.n	c2002b0c <_vfprintf_r+0x1a64>
c2002b04:	2601      	movs	r6, #1
c2002b06:	2566      	movs	r5, #102	; 0x66
c2002b08:	9605      	str	r6, [sp, #20]
c2002b0a:	e56b      	b.n	c20025e4 <_vfprintf_r+0x153c>
c2002b0c:	9b11      	ldr	r3, [sp, #68]	; 0x44
c2002b0e:	2566      	movs	r5, #102	; 0x66
c2002b10:	1c5e      	adds	r6, r3, #1
c2002b12:	eb06 030a 	add.w	r3, r6, sl
c2002b16:	9305      	str	r3, [sp, #20]
c2002b18:	ea23 76e3 	bic.w	r6, r3, r3, asr #31
c2002b1c:	e562      	b.n	c20025e4 <_vfprintf_r+0x153c>
c2002b1e:	9b07      	ldr	r3, [sp, #28]
c2002b20:	787d      	ldrb	r5, [r7, #1]
c2002b22:	4617      	mov	r7, r2
c2002b24:	f853 2b04 	ldr.w	r2, [r3], #4
c2002b28:	9307      	str	r3, [sp, #28]
c2002b2a:	ea42 7ae2 	orr.w	sl, r2, r2, asr #31
c2002b2e:	f7fe bb43 	b.w	c20011b8 <_vfprintf_r+0x110>
c2002b32:	f1ca 0301 	rsb	r3, sl, #1
c2002b36:	931c      	str	r3, [sp, #112]	; 0x70
c2002b38:	e539      	b.n	c20025ae <_vfprintf_r+0x1506>
c2002b3a:	f8b9 300c 	ldrh.w	r3, [r9, #12]
c2002b3e:	46ca      	mov	sl, r9
c2002b40:	f043 0340 	orr.w	r3, r3, #64	; 0x40
c2002b44:	f8a9 300c 	strh.w	r3, [r9, #12]
c2002b48:	f7fe bf23 	b.w	c2001992 <_vfprintf_r+0x8ea>
c2002b4c:	9b08      	ldr	r3, [sp, #32]
c2002b4e:	990d      	ldr	r1, [sp, #52]	; 0x34
c2002b50:	440b      	add	r3, r1
c2002b52:	9305      	str	r3, [sp, #20]
c2002b54:	e5c1      	b.n	c20026da <_vfprintf_r+0x1632>
c2002b56:	4656      	mov	r6, sl
c2002b58:	f7ff bbfd 	b.w	c2002356 <_vfprintf_r+0x12ae>
c2002b5c:	2300      	movs	r3, #0
c2002b5e:	930f      	str	r3, [sp, #60]	; 0x3c
c2002b60:	930c      	str	r3, [sp, #48]	; 0x30
c2002b62:	e747      	b.n	c20029f4 <_vfprintf_r+0x194c>
c2002b64:	2300      	movs	r3, #0
c2002b66:	9306      	str	r3, [sp, #24]
c2002b68:	f7ff ba15 	b.w	c2001f96 <_vfprintf_r+0xeee>
c2002b6c:	2302      	movs	r3, #2
c2002b6e:	9314      	str	r3, [sp, #80]	; 0x50
c2002b70:	e481      	b.n	c2002476 <_vfprintf_r+0x13ce>
c2002b72:	bf00      	nop

c2002b74 <__sbprintf>:
c2002b74:	b570      	push	{r4, r5, r6, lr}
c2002b76:	460c      	mov	r4, r1
c2002b78:	8989      	ldrh	r1, [r1, #12]
c2002b7a:	f5ad 6d8e 	sub.w	sp, sp, #1136	; 0x470
c2002b7e:	4606      	mov	r6, r0
c2002b80:	f021 0102 	bic.w	r1, r1, #2
c2002b84:	a818      	add	r0, sp, #96	; 0x60
c2002b86:	f8ad 1014 	strh.w	r1, [sp, #20]
c2002b8a:	6e61      	ldr	r1, [r4, #100]	; 0x64
c2002b8c:	911b      	str	r1, [sp, #108]	; 0x6c
c2002b8e:	89e1      	ldrh	r1, [r4, #14]
c2002b90:	f8ad 1016 	strh.w	r1, [sp, #22]
c2002b94:	69e1      	ldr	r1, [r4, #28]
c2002b96:	9109      	str	r1, [sp, #36]	; 0x24
c2002b98:	6a61      	ldr	r1, [r4, #36]	; 0x24
c2002b9a:	e9cd 3200 	strd	r3, r2, [sp]
c2002b9e:	910b      	str	r1, [sp, #44]	; 0x2c
c2002ba0:	a91c      	add	r1, sp, #112	; 0x70
c2002ba2:	9102      	str	r1, [sp, #8]
c2002ba4:	9106      	str	r1, [sp, #24]
c2002ba6:	f44f 6180 	mov.w	r1, #1024	; 0x400
c2002baa:	9104      	str	r1, [sp, #16]
c2002bac:	9107      	str	r1, [sp, #28]
c2002bae:	2100      	movs	r1, #0
c2002bb0:	9108      	str	r1, [sp, #32]
c2002bb2:	f001 faab 	bl	c200410c <__retarget_lock_init_recursive>
c2002bb6:	e9dd 3200 	ldrd	r3, r2, [sp]
c2002bba:	a902      	add	r1, sp, #8
c2002bbc:	4630      	mov	r0, r6
c2002bbe:	f7fe fa73 	bl	c20010a8 <_vfprintf_r>
c2002bc2:	1e05      	subs	r5, r0, #0
c2002bc4:	db07      	blt.n	c2002bd6 <__sbprintf+0x62>
c2002bc6:	a902      	add	r1, sp, #8
c2002bc8:	4630      	mov	r0, r6
c2002bca:	f001 f849 	bl	c2003c60 <_fflush_r>
c2002bce:	2800      	cmp	r0, #0
c2002bd0:	bf18      	it	ne
c2002bd2:	f04f 35ff 	movne.w	r5, #4294967295	; 0xffffffff
c2002bd6:	f8bd 3014 	ldrh.w	r3, [sp, #20]
c2002bda:	9818      	ldr	r0, [sp, #96]	; 0x60
c2002bdc:	065b      	lsls	r3, r3, #25
c2002bde:	bf42      	ittt	mi
c2002be0:	89a3      	ldrhmi	r3, [r4, #12]
c2002be2:	f043 0340 	orrmi.w	r3, r3, #64	; 0x40
c2002be6:	81a3      	strhmi	r3, [r4, #12]
c2002be8:	f001 fa92 	bl	c2004110 <__retarget_lock_close_recursive>
c2002bec:	4628      	mov	r0, r5
c2002bee:	f50d 6d8e 	add.w	sp, sp, #1136	; 0x470
c2002bf2:	bd70      	pop	{r4, r5, r6, pc}

c2002bf4 <__swsetup_r>:
c2002bf4:	b538      	push	{r3, r4, r5, lr}
c2002bf6:	f248 1300 	movw	r3, #33024	; 0x8100
c2002bfa:	f2cc 2300 	movt	r3, #49664	; 0xc200
c2002bfe:	4605      	mov	r5, r0
c2002c00:	460c      	mov	r4, r1
c2002c02:	6818      	ldr	r0, [r3, #0]
c2002c04:	b110      	cbz	r0, c2002c0c <__swsetup_r+0x18>
c2002c06:	6b82      	ldr	r2, [r0, #56]	; 0x38
c2002c08:	2a00      	cmp	r2, #0
c2002c0a:	d040      	beq.n	c2002c8e <__swsetup_r+0x9a>
c2002c0c:	89a3      	ldrh	r3, [r4, #12]
c2002c0e:	f9b4 c00c 	ldrsh.w	ip, [r4, #12]
c2002c12:	071a      	lsls	r2, r3, #28
c2002c14:	bf48      	it	mi
c2002c16:	6920      	ldrmi	r0, [r4, #16]
c2002c18:	d41e      	bmi.n	c2002c58 <__swsetup_r+0x64>
c2002c1a:	06d8      	lsls	r0, r3, #27
c2002c1c:	d548      	bpl.n	c2002cb0 <__swsetup_r+0xbc>
c2002c1e:	0759      	lsls	r1, r3, #29
c2002c20:	bf58      	it	pl
c2002c22:	6920      	ldrpl	r0, [r4, #16]
c2002c24:	d512      	bpl.n	c2002c4c <__swsetup_r+0x58>
c2002c26:	6b21      	ldr	r1, [r4, #48]	; 0x30
c2002c28:	b151      	cbz	r1, c2002c40 <__swsetup_r+0x4c>
c2002c2a:	f104 0340 	add.w	r3, r4, #64	; 0x40
c2002c2e:	4299      	cmp	r1, r3
c2002c30:	d004      	beq.n	c2002c3c <__swsetup_r+0x48>
c2002c32:	4628      	mov	r0, r5
c2002c34:	f001 f938 	bl	c2003ea8 <_free_r>
c2002c38:	f9b4 c00c 	ldrsh.w	ip, [r4, #12]
c2002c3c:	2300      	movs	r3, #0
c2002c3e:	6323      	str	r3, [r4, #48]	; 0x30
c2002c40:	6920      	ldr	r0, [r4, #16]
c2002c42:	f02c 0c24 	bic.w	ip, ip, #36	; 0x24
c2002c46:	2300      	movs	r3, #0
c2002c48:	e9c4 0300 	strd	r0, r3, [r4]
c2002c4c:	f04c 0c08 	orr.w	ip, ip, #8
c2002c50:	f8a4 c00c 	strh.w	ip, [r4, #12]
c2002c54:	fa1f f38c 	uxth.w	r3, ip
c2002c58:	b1e0      	cbz	r0, c2002c94 <__swsetup_r+0xa0>
c2002c5a:	f013 0101 	ands.w	r1, r3, #1
c2002c5e:	d007      	beq.n	c2002c70 <__swsetup_r+0x7c>
c2002c60:	2100      	movs	r1, #0
c2002c62:	60a1      	str	r1, [r4, #8]
c2002c64:	6961      	ldr	r1, [r4, #20]
c2002c66:	4249      	negs	r1, r1
c2002c68:	61a1      	str	r1, [r4, #24]
c2002c6a:	b138      	cbz	r0, c2002c7c <__swsetup_r+0x88>
c2002c6c:	2000      	movs	r0, #0
c2002c6e:	bd38      	pop	{r3, r4, r5, pc}
c2002c70:	079a      	lsls	r2, r3, #30
c2002c72:	bf58      	it	pl
c2002c74:	6961      	ldrpl	r1, [r4, #20]
c2002c76:	60a1      	str	r1, [r4, #8]
c2002c78:	2800      	cmp	r0, #0
c2002c7a:	d1f7      	bne.n	c2002c6c <__swsetup_r+0x78>
c2002c7c:	061b      	lsls	r3, r3, #24
c2002c7e:	bf42      	ittt	mi
c2002c80:	f04c 0c40 	orrmi.w	ip, ip, #64	; 0x40
c2002c84:	f04f 30ff 	movmi.w	r0, #4294967295	; 0xffffffff
c2002c88:	f8a4 c00c 	strhmi.w	ip, [r4, #12]
c2002c8c:	bd38      	pop	{r3, r4, r5, pc}
c2002c8e:	f001 f81b 	bl	c2003cc8 <__sinit>
c2002c92:	e7bb      	b.n	c2002c0c <__swsetup_r+0x18>
c2002c94:	f403 7120 	and.w	r1, r3, #640	; 0x280
c2002c98:	f5b1 7f00 	cmp.w	r1, #512	; 0x200
c2002c9c:	d0dd      	beq.n	c2002c5a <__swsetup_r+0x66>
c2002c9e:	4628      	mov	r0, r5
c2002ca0:	4621      	mov	r1, r4
c2002ca2:	f001 fa3b 	bl	c200411c <__smakebuf_r>
c2002ca6:	f9b4 c00c 	ldrsh.w	ip, [r4, #12]
c2002caa:	89a3      	ldrh	r3, [r4, #12]
c2002cac:	6920      	ldr	r0, [r4, #16]
c2002cae:	e7d4      	b.n	c2002c5a <__swsetup_r+0x66>
c2002cb0:	2309      	movs	r3, #9
c2002cb2:	f04c 0c40 	orr.w	ip, ip, #64	; 0x40
c2002cb6:	602b      	str	r3, [r5, #0]
c2002cb8:	f04f 30ff 	mov.w	r0, #4294967295	; 0xffffffff
c2002cbc:	f8a4 c00c 	strh.w	ip, [r4, #12]
c2002cc0:	bd38      	pop	{r3, r4, r5, pc}
c2002cc2:	bf00      	nop

c2002cc4 <quorem>:
c2002cc4:	6903      	ldr	r3, [r0, #16]
c2002cc6:	e92d 4ff0 	stmdb	sp!, {r4, r5, r6, r7, r8, r9, sl, fp, lr}
c2002cca:	690d      	ldr	r5, [r1, #16]
c2002ccc:	b085      	sub	sp, #20
c2002cce:	42ab      	cmp	r3, r5
c2002cd0:	bfb8      	it	lt
c2002cd2:	2000      	movlt	r0, #0
c2002cd4:	f2c0 808a 	blt.w	c2002dec <quorem+0x128>
c2002cd8:	3d01      	subs	r5, #1
c2002cda:	f100 0814 	add.w	r8, r0, #20
c2002cde:	f101 0414 	add.w	r4, r1, #20
c2002ce2:	468a      	mov	sl, r1
c2002ce4:	00ab      	lsls	r3, r5, #2
c2002ce6:	4681      	mov	r9, r0
c2002ce8:	f858 b025 	ldr.w	fp, [r8, r5, lsl #2]
c2002cec:	18e7      	adds	r7, r4, r3
c2002cee:	f854 1025 	ldr.w	r1, [r4, r5, lsl #2]
c2002cf2:	4658      	mov	r0, fp
c2002cf4:	3101      	adds	r1, #1
c2002cf6:	e9cd 3101 	strd	r3, r1, [sp, #4]
c2002cfa:	f004 fbbd 	bl	c2007478 <__udivsi3>
c2002cfe:	9b01      	ldr	r3, [sp, #4]
c2002d00:	9902      	ldr	r1, [sp, #8]
c2002d02:	4606      	mov	r6, r0
c2002d04:	4443      	add	r3, r8
c2002d06:	9303      	str	r3, [sp, #12]
c2002d08:	458b      	cmp	fp, r1
c2002d0a:	d33b      	bcc.n	c2002d84 <quorem+0xc0>
c2002d0c:	f04f 0c00 	mov.w	ip, #0
c2002d10:	4620      	mov	r0, r4
c2002d12:	4641      	mov	r1, r8
c2002d14:	4662      	mov	r2, ip
c2002d16:	f850 3b04 	ldr.w	r3, [r0], #4
c2002d1a:	f8d1 b000 	ldr.w	fp, [r1]
c2002d1e:	4287      	cmp	r7, r0
c2002d20:	fa1f fe83 	uxth.w	lr, r3
c2002d24:	ea4f 4313 	mov.w	r3, r3, lsr #16
c2002d28:	fb06 cc0e 	mla	ip, r6, lr, ip
c2002d2c:	ea4f 4e1c 	mov.w	lr, ip, lsr #16
c2002d30:	fb06 ee03 	mla	lr, r6, r3, lr
c2002d34:	fa1f f38c 	uxth.w	r3, ip
c2002d38:	eba2 0203 	sub.w	r2, r2, r3
c2002d3c:	fa12 f38b 	uxtah	r3, r2, fp
c2002d40:	fa1f f28e 	uxth.w	r2, lr
c2002d44:	ea4f 4c1e 	mov.w	ip, lr, lsr #16
c2002d48:	ebc2 421b 	rsb	r2, r2, fp, lsr #16
c2002d4c:	eb02 4223 	add.w	r2, r2, r3, asr #16
c2002d50:	b29b      	uxth	r3, r3
c2002d52:	ea43 4302 	orr.w	r3, r3, r2, lsl #16
c2002d56:	ea4f 4222 	mov.w	r2, r2, asr #16
c2002d5a:	f841 3b04 	str.w	r3, [r1], #4
c2002d5e:	d2da      	bcs.n	c2002d16 <quorem+0x52>
c2002d60:	9b01      	ldr	r3, [sp, #4]
c2002d62:	f858 3003 	ldr.w	r3, [r8, r3]
c2002d66:	b96b      	cbnz	r3, c2002d84 <quorem+0xc0>
c2002d68:	9b03      	ldr	r3, [sp, #12]
c2002d6a:	3b04      	subs	r3, #4
c2002d6c:	4598      	cmp	r8, r3
c2002d6e:	d303      	bcc.n	c2002d78 <quorem+0xb4>
c2002d70:	e006      	b.n	c2002d80 <quorem+0xbc>
c2002d72:	3d01      	subs	r5, #1
c2002d74:	4598      	cmp	r8, r3
c2002d76:	d203      	bcs.n	c2002d80 <quorem+0xbc>
c2002d78:	f853 2904 	ldr.w	r2, [r3], #-4
c2002d7c:	2a00      	cmp	r2, #0
c2002d7e:	d0f8      	beq.n	c2002d72 <quorem+0xae>
c2002d80:	f8c9 5010 	str.w	r5, [r9, #16]
c2002d84:	4651      	mov	r1, sl
c2002d86:	4648      	mov	r0, r9
c2002d88:	f002 fac8 	bl	c200531c <__mcmp>
c2002d8c:	2800      	cmp	r0, #0
c2002d8e:	db2c      	blt.n	c2002dea <quorem+0x126>
c2002d90:	3601      	adds	r6, #1
c2002d92:	4640      	mov	r0, r8
c2002d94:	f04f 0c00 	mov.w	ip, #0
c2002d98:	f854 3b04 	ldr.w	r3, [r4], #4
c2002d9c:	6802      	ldr	r2, [r0, #0]
c2002d9e:	42a7      	cmp	r7, r4
c2002da0:	b299      	uxth	r1, r3
c2002da2:	ea4f 4313 	mov.w	r3, r3, lsr #16
c2002da6:	ebac 0101 	sub.w	r1, ip, r1
c2002daa:	ebc3 4c12 	rsb	ip, r3, r2, lsr #16
c2002dae:	fa11 f382 	uxtah	r3, r1, r2
c2002db2:	eb0c 4c23 	add.w	ip, ip, r3, asr #16
c2002db6:	b29b      	uxth	r3, r3
c2002db8:	ea43 430c 	orr.w	r3, r3, ip, lsl #16
c2002dbc:	ea4f 4c2c 	mov.w	ip, ip, asr #16
c2002dc0:	f840 3b04 	str.w	r3, [r0], #4
c2002dc4:	d2e8      	bcs.n	c2002d98 <quorem+0xd4>
c2002dc6:	f858 2025 	ldr.w	r2, [r8, r5, lsl #2]
c2002dca:	eb08 0385 	add.w	r3, r8, r5, lsl #2
c2002dce:	b962      	cbnz	r2, c2002dea <quorem+0x126>
c2002dd0:	3b04      	subs	r3, #4
c2002dd2:	4598      	cmp	r8, r3
c2002dd4:	d303      	bcc.n	c2002dde <quorem+0x11a>
c2002dd6:	e006      	b.n	c2002de6 <quorem+0x122>
c2002dd8:	3d01      	subs	r5, #1
c2002dda:	4598      	cmp	r8, r3
c2002ddc:	d203      	bcs.n	c2002de6 <quorem+0x122>
c2002dde:	f853 2904 	ldr.w	r2, [r3], #-4
c2002de2:	2a00      	cmp	r2, #0
c2002de4:	d0f8      	beq.n	c2002dd8 <quorem+0x114>
c2002de6:	f8c9 5010 	str.w	r5, [r9, #16]
c2002dea:	4630      	mov	r0, r6
c2002dec:	b005      	add	sp, #20
c2002dee:	e8bd 8ff0 	ldmia.w	sp!, {r4, r5, r6, r7, r8, r9, sl, fp, pc}
c2002df2:	bf00      	nop
c2002df4:	0000      	movs	r0, r0
	...

c2002df8 <_dtoa_r>:
c2002df8:	e92d 4ff0 	stmdb	sp!, {r4, r5, r6, r7, r8, r9, sl, fp, lr}
c2002dfc:	ec57 6b10 	vmov	r6, r7, d0
c2002e00:	4604      	mov	r4, r0
c2002e02:	ed2d 8b02 	vpush	{d8}
c2002e06:	b08f      	sub	sp, #60	; 0x3c
c2002e08:	9102      	str	r1, [sp, #8]
c2002e0a:	6c01      	ldr	r1, [r0, #64]	; 0x40
c2002e0c:	9d1a      	ldr	r5, [sp, #104]	; 0x68
c2002e0e:	e9cd 3205 	strd	r3, r2, [sp, #20]
c2002e12:	ed8d 0b00 	vstr	d0, [sp]
c2002e16:	b141      	cbz	r1, c2002e2a <_dtoa_r+0x32>
c2002e18:	6c42      	ldr	r2, [r0, #68]	; 0x44
c2002e1a:	2301      	movs	r3, #1
c2002e1c:	604a      	str	r2, [r1, #4]
c2002e1e:	4093      	lsls	r3, r2
c2002e20:	608b      	str	r3, [r1, #8]
c2002e22:	f002 f80f 	bl	c2004e44 <_Bfree>
c2002e26:	2300      	movs	r3, #0
c2002e28:	6423      	str	r3, [r4, #64]	; 0x40
c2002e2a:	f1b7 0800 	subs.w	r8, r7, #0
c2002e2e:	bfb6      	itet	lt
c2002e30:	2301      	movlt	r3, #1
c2002e32:	2300      	movge	r3, #0
c2002e34:	f028 4800 	biclt.w	r8, r8, #2147483648	; 0x80000000
c2002e38:	602b      	str	r3, [r5, #0]
c2002e3a:	f04f 0300 	mov.w	r3, #0
c2002e3e:	f6c7 73f0 	movt	r3, #32752	; 0x7ff0
c2002e42:	bfb8      	it	lt
c2002e44:	f8cd 8004 	strlt.w	r8, [sp, #4]
c2002e48:	ea33 0308 	bics.w	r3, r3, r8
c2002e4c:	f000 80ad 	beq.w	c2002faa <_dtoa_r+0x1b2>
c2002e50:	ed9d 8b00 	vldr	d8, [sp]
c2002e54:	eeb5 8b40 	vcmp.f64	d8, #0.0
c2002e58:	eef1 fa10 	vmrs	APSR_nzcv, fpscr
c2002e5c:	d111      	bne.n	c2002e82 <_dtoa_r+0x8a>
c2002e5e:	9a05      	ldr	r2, [sp, #20]
c2002e60:	2301      	movs	r3, #1
c2002e62:	6013      	str	r3, [r2, #0]
c2002e64:	9b1b      	ldr	r3, [sp, #108]	; 0x6c
c2002e66:	2b00      	cmp	r3, #0
c2002e68:	f000 8343 	beq.w	c20034f2 <_dtoa_r+0x6fa>
c2002e6c:	4bc4      	ldr	r3, [pc, #784]	; (c2003180 <_dtoa_r+0x388>)
c2002e6e:	9a1b      	ldr	r2, [sp, #108]	; 0x6c
c2002e70:	f103 3aff 	add.w	sl, r3, #4294967295	; 0xffffffff
c2002e74:	6013      	str	r3, [r2, #0]
c2002e76:	4650      	mov	r0, sl
c2002e78:	b00f      	add	sp, #60	; 0x3c
c2002e7a:	ecbd 8b02 	vpop	{d8}
c2002e7e:	e8bd 8ff0 	ldmia.w	sp!, {r4, r5, r6, r7, r8, r9, sl, fp, pc}
c2002e82:	eeb0 0b48 	vmov.f64	d0, d8
c2002e86:	aa0c      	add	r2, sp, #48	; 0x30
c2002e88:	a90d      	add	r1, sp, #52	; 0x34
c2002e8a:	4620      	mov	r0, r4
c2002e8c:	f002 fb16 	bl	c20054bc <__d2b>
c2002e90:	ea5f 5318 	movs.w	r3, r8, lsr #20
c2002e94:	4605      	mov	r5, r0
c2002e96:	f040 80a3 	bne.w	c2002fe0 <_dtoa_r+0x1e8>
c2002e9a:	e9dd 130c 	ldrd	r1, r3, [sp, #48]	; 0x30
c2002e9e:	440b      	add	r3, r1
c2002ea0:	f203 4232 	addw	r2, r3, #1074	; 0x432
c2002ea4:	1e58      	subs	r0, r3, #1
c2002ea6:	2a20      	cmp	r2, #32
c2002ea8:	bfc9      	itett	gt
c2002eaa:	f1c2 0240 	rsbgt	r2, r2, #64	; 0x40
c2002eae:	f1c2 0220 	rsble	r2, r2, #32
c2002eb2:	fa08 f802 	lslgt.w	r8, r8, r2
c2002eb6:	f203 4212 	addwgt	r2, r3, #1042	; 0x412
c2002eba:	bfd2      	itee	le
c2002ebc:	fa06 f202 	lslle.w	r2, r6, r2
c2002ec0:	40d6      	lsrgt	r6, r2
c2002ec2:	ea48 0206 	orrgt.w	r2, r8, r6
c2002ec6:	ee07 2a10 	vmov	s14, r2
c2002eca:	f04f 0801 	mov.w	r8, #1
c2002ece:	eeb8 7b47 	vcvt.f64.u32	d7, s14
c2002ed2:	ee17 6a90 	vmov	r6, s15
c2002ed6:	ec53 2b17 	vmov	r2, r3, d7
c2002eda:	f1a6 73f8 	sub.w	r3, r6, #32505856	; 0x1f00000
c2002ede:	ec43 2b17 	vmov	d7, r2, r3
c2002ee2:	eeb7 6b08 	vmov.f64	d6, #120	; 0x3fc00000  1.5
c2002ee6:	ed9f 4ba0 	vldr	d4, [pc, #640]	; c2003168 <_dtoa_r+0x370>
c2002eea:	ee37 6b46 	vsub.f64	d6, d7, d6
c2002eee:	ed9f 7ba0 	vldr	d7, [pc, #640]	; c2003170 <_dtoa_r+0x378>
c2002ef2:	ed9f 5ba1 	vldr	d5, [pc, #644]	; c2003178 <_dtoa_r+0x380>
c2002ef6:	ee06 7b04 	vmla.f64	d7, d6, d4
c2002efa:	ee06 0a90 	vmov	s13, r0
c2002efe:	eeb8 6be6 	vcvt.f64.s32	d6, s13
c2002f02:	ee06 7b05 	vmla.f64	d7, d6, d5
c2002f06:	eeb5 7bc0 	vcmpe.f64	d7, #0.0
c2002f0a:	eefd 6bc7 	vcvt.s32.f64	s13, d7
c2002f0e:	eef1 fa10 	vmrs	APSR_nzcv, fpscr
c2002f12:	ee16 9a90 	vmov	r9, s13
c2002f16:	d508      	bpl.n	c2002f2a <_dtoa_r+0x132>
c2002f18:	eeb8 6be6 	vcvt.f64.s32	d6, s13
c2002f1c:	eeb4 6b47 	vcmp.f64	d6, d7
c2002f20:	eef1 fa10 	vmrs	APSR_nzcv, fpscr
c2002f24:	bf18      	it	ne
c2002f26:	f109 39ff 	addne.w	r9, r9, #4294967295	; 0xffffffff
c2002f2a:	f1b9 0f16 	cmp.w	r9, #22
c2002f2e:	f200 82d7 	bhi.w	c20034e0 <_dtoa_r+0x6e8>
c2002f32:	f647 6370 	movw	r3, #32368	; 0x7e70
c2002f36:	f2cc 2300 	movt	r3, #49664	; 0xc200
c2002f3a:	eb03 03c9 	add.w	r3, r3, r9, lsl #3
c2002f3e:	ed93 7b00 	vldr	d7, [r3]
c2002f42:	eeb4 8bc7 	vcmpe.f64	d8, d7
c2002f46:	eef1 fa10 	vmrs	APSR_nzcv, fpscr
c2002f4a:	d564      	bpl.n	c2003016 <_dtoa_r+0x21e>
c2002f4c:	f109 39ff 	add.w	r9, r9, #4294967295	; 0xffffffff
c2002f50:	2300      	movs	r3, #0
c2002f52:	930a      	str	r3, [sp, #40]	; 0x28
c2002f54:	1a0b      	subs	r3, r1, r0
c2002f56:	f1b3 0a01 	subs.w	sl, r3, #1
c2002f5a:	bf5c      	itt	pl
c2002f5c:	2300      	movpl	r3, #0
c2002f5e:	9307      	strpl	r3, [sp, #28]
c2002f60:	f100 82c1 	bmi.w	c20034e6 <_dtoa_r+0x6ee>
c2002f64:	f1b9 0f00 	cmp.w	r9, #0
c2002f68:	da60      	bge.n	c200302c <_dtoa_r+0x234>
c2002f6a:	9b07      	ldr	r3, [sp, #28]
c2002f6c:	f8cd 9010 	str.w	r9, [sp, #16]
c2002f70:	eba3 0309 	sub.w	r3, r3, r9
c2002f74:	9307      	str	r3, [sp, #28]
c2002f76:	f1c9 0300 	rsb	r3, r9, #0
c2002f7a:	9309      	str	r3, [sp, #36]	; 0x24
c2002f7c:	9b02      	ldr	r3, [sp, #8]
c2002f7e:	f04f 0900 	mov.w	r9, #0
c2002f82:	2b09      	cmp	r3, #9
c2002f84:	d85a      	bhi.n	c200303c <_dtoa_r+0x244>
c2002f86:	2b05      	cmp	r3, #5
c2002f88:	bfd8      	it	le
c2002f8a:	2601      	movle	r6, #1
c2002f8c:	dd02      	ble.n	c2002f94 <_dtoa_r+0x19c>
c2002f8e:	2600      	movs	r6, #0
c2002f90:	3b04      	subs	r3, #4
c2002f92:	9302      	str	r3, [sp, #8]
c2002f94:	9b02      	ldr	r3, [sp, #8]
c2002f96:	3b02      	subs	r3, #2
c2002f98:	2b03      	cmp	r3, #3
c2002f9a:	f200 8492 	bhi.w	c20038c2 <_dtoa_r+0xaca>
c2002f9e:	e8df f013 	tbh	[pc, r3, lsl #1]
c2002fa2:	0349034c 	movteq	r0, #37708	; 0x934c
c2002fa6:	0321033d 			; <UNDEFINED> instruction: 0x0321033d
c2002faa:	9a05      	ldr	r2, [sp, #20]
c2002fac:	f3c8 0813 	ubfx	r8, r8, #0, #20
c2002fb0:	f242 730f 	movw	r3, #9999	; 0x270f
c2002fb4:	6013      	str	r3, [r2, #0]
c2002fb6:	ea58 0306 	orrs.w	r3, r8, r6
c2002fba:	d021      	beq.n	c2003000 <_dtoa_r+0x208>
c2002fbc:	9b1b      	ldr	r3, [sp, #108]	; 0x6c
c2002fbe:	f647 5a20 	movw	sl, #32032	; 0x7d20
c2002fc2:	f2cc 2a00 	movt	sl, #49664	; 0xc200
c2002fc6:	2b00      	cmp	r3, #0
c2002fc8:	f43f af55 	beq.w	c2002e76 <_dtoa_r+0x7e>
c2002fcc:	f10a 0303 	add.w	r3, sl, #3
c2002fd0:	9a1b      	ldr	r2, [sp, #108]	; 0x6c
c2002fd2:	4650      	mov	r0, sl
c2002fd4:	6013      	str	r3, [r2, #0]
c2002fd6:	b00f      	add	sp, #60	; 0x3c
c2002fd8:	ecbd 8b02 	vpop	{d8}
c2002fdc:	e8bd 8ff0 	ldmia.w	sp!, {r4, r5, r6, r7, r8, r9, sl, fp, pc}
c2002fe0:	ee18 6a90 	vmov	r6, s17
c2002fe4:	f2a3 30ff 	subw	r0, r3, #1023	; 0x3ff
c2002fe8:	ec53 2b18 	vmov	r2, r3, d8
c2002fec:	990c      	ldr	r1, [sp, #48]	; 0x30
c2002fee:	f04f 0800 	mov.w	r8, #0
c2002ff2:	f3c6 0613 	ubfx	r6, r6, #0, #20
c2002ff6:	f046 537f 	orr.w	r3, r6, #1069547520	; 0x3fc00000
c2002ffa:	f443 1340 	orr.w	r3, r3, #3145728	; 0x300000
c2002ffe:	e76e      	b.n	c2002ede <_dtoa_r+0xe6>
c2003000:	9b1b      	ldr	r3, [sp, #108]	; 0x6c
c2003002:	f647 5a24 	movw	sl, #32036	; 0x7d24
c2003006:	f2cc 2a00 	movt	sl, #49664	; 0xc200
c200300a:	2b00      	cmp	r3, #0
c200300c:	f43f af33 	beq.w	c2002e76 <_dtoa_r+0x7e>
c2003010:	f10a 0308 	add.w	r3, sl, #8
c2003014:	e7dc      	b.n	c2002fd0 <_dtoa_r+0x1d8>
c2003016:	1a0b      	subs	r3, r1, r0
c2003018:	f1b3 0a01 	subs.w	sl, r3, #1
c200301c:	bf44      	itt	mi
c200301e:	2200      	movmi	r2, #0
c2003020:	920a      	strmi	r2, [sp, #40]	; 0x28
c2003022:	f100 8260 	bmi.w	c20034e6 <_dtoa_r+0x6ee>
c2003026:	2300      	movs	r3, #0
c2003028:	930a      	str	r3, [sp, #40]	; 0x28
c200302a:	9307      	str	r3, [sp, #28]
c200302c:	2300      	movs	r3, #0
c200302e:	9309      	str	r3, [sp, #36]	; 0x24
c2003030:	9b02      	ldr	r3, [sp, #8]
c2003032:	44ca      	add	sl, r9
c2003034:	f8cd 9010 	str.w	r9, [sp, #16]
c2003038:	2b09      	cmp	r3, #9
c200303a:	d9a4      	bls.n	c2002f86 <_dtoa_r+0x18e>
c200303c:	f04f 3bff 	mov.w	fp, #4294967295	; 0xffffffff
c2003040:	2300      	movs	r3, #0
c2003042:	2601      	movs	r6, #1
c2003044:	9302      	str	r3, [sp, #8]
c2003046:	9608      	str	r6, [sp, #32]
c2003048:	9306      	str	r3, [sp, #24]
c200304a:	2100      	movs	r1, #0
c200304c:	f8cd b02c 	str.w	fp, [sp, #44]	; 0x2c
c2003050:	6461      	str	r1, [r4, #68]	; 0x44
c2003052:	4620      	mov	r0, r4
c2003054:	f001 fed0 	bl	c2004df8 <_Balloc>
c2003058:	9003      	str	r0, [sp, #12]
c200305a:	2800      	cmp	r0, #0
c200305c:	f000 8529 	beq.w	c2003ab2 <_dtoa_r+0xcba>
c2003060:	9b03      	ldr	r3, [sp, #12]
c2003062:	f1bb 0f0e 	cmp.w	fp, #14
c2003066:	bf8c      	ite	hi
c2003068:	2600      	movhi	r6, #0
c200306a:	f006 0601 	andls.w	r6, r6, #1
c200306e:	6423      	str	r3, [r4, #64]	; 0x40
c2003070:	2e00      	cmp	r6, #0
c2003072:	f000 80dc 	beq.w	c200322e <_dtoa_r+0x436>
c2003076:	9904      	ldr	r1, [sp, #16]
c2003078:	2900      	cmp	r1, #0
c200307a:	f340 824b 	ble.w	c2003514 <_dtoa_r+0x71c>
c200307e:	f001 020f 	and.w	r2, r1, #15
c2003082:	f647 6370 	movw	r3, #32368	; 0x7e70
c2003086:	f2cc 2300 	movt	r3, #49664	; 0xc200
c200308a:	05ce      	lsls	r6, r1, #23
c200308c:	eb03 03c2 	add.w	r3, r3, r2, lsl #3
c2003090:	ed93 7b00 	vldr	d7, [r3]
c2003094:	ea4f 1321 	mov.w	r3, r1, asr #4
c2003098:	f140 82a0 	bpl.w	c20035dc <_dtoa_r+0x7e4>
c200309c:	f647 6248 	movw	r2, #32328	; 0x7e48
c20030a0:	f2cc 2200 	movt	r2, #49664	; 0xc200
c20030a4:	f003 030f 	and.w	r3, r3, #15
c20030a8:	2103      	movs	r1, #3
c20030aa:	ed92 6b08 	vldr	d6, [r2, #32]
c20030ae:	ee88 5b06 	vdiv.f64	d5, d8, d6
c20030b2:	b16b      	cbz	r3, c20030d0 <_dtoa_r+0x2d8>
c20030b4:	f647 6248 	movw	r2, #32328	; 0x7e48
c20030b8:	f2cc 2200 	movt	r2, #49664	; 0xc200
c20030bc:	07d8      	lsls	r0, r3, #31
c20030be:	d504      	bpl.n	c20030ca <_dtoa_r+0x2d2>
c20030c0:	ed92 6b00 	vldr	d6, [r2]
c20030c4:	3101      	adds	r1, #1
c20030c6:	ee27 7b06 	vmul.f64	d7, d7, d6
c20030ca:	3208      	adds	r2, #8
c20030cc:	105b      	asrs	r3, r3, #1
c20030ce:	d1f5      	bne.n	c20030bc <_dtoa_r+0x2c4>
c20030d0:	ee85 6b07 	vdiv.f64	d6, d5, d7
c20030d4:	9b0a      	ldr	r3, [sp, #40]	; 0x28
c20030d6:	b13b      	cbz	r3, c20030e8 <_dtoa_r+0x2f0>
c20030d8:	eeb7 7b00 	vmov.f64	d7, #112	; 0x3f800000  1.0
c20030dc:	eeb4 6bc7 	vcmpe.f64	d6, d7
c20030e0:	eef1 fa10 	vmrs	APSR_nzcv, fpscr
c20030e4:	f100 83b4 	bmi.w	c2003850 <_dtoa_r+0xa58>
c20030e8:	ee07 1a90 	vmov	s15, r1
c20030ec:	eeb8 5be7 	vcvt.f64.s32	d5, s15
c20030f0:	eeb1 7b0c 	vmov.f64	d7, #28	; 0x40e00000  7.0
c20030f4:	ee05 7b06 	vmla.f64	d7, d5, d6
c20030f8:	ee17 1a90 	vmov	r1, s15
c20030fc:	ec53 2b17 	vmov	r2, r3, d7
c2003100:	f1a1 7350 	sub.w	r3, r1, #54525952	; 0x3400000
c2003104:	f1bb 0f00 	cmp.w	fp, #0
c2003108:	d07d      	beq.n	c2003206 <_dtoa_r+0x40e>
c200310a:	9904      	ldr	r1, [sp, #16]
c200310c:	4658      	mov	r0, fp
c200310e:	9e08      	ldr	r6, [sp, #32]
c2003110:	2e00      	cmp	r6, #0
c2003112:	f000 8295 	beq.w	c2003640 <_dtoa_r+0x848>
c2003116:	eefd 4bc6 	vcvt.s32.f64	s9, d6
c200311a:	f647 6670 	movw	r6, #32368	; 0x7e70
c200311e:	f2cc 2600 	movt	r6, #49664	; 0xc200
c2003122:	eeb6 3b00 	vmov.f64	d3, #96	; 0x3f000000  0.5
c2003126:	eb06 06c0 	add.w	r6, r6, r0, lsl #3
c200312a:	eeb8 7be4 	vcvt.f64.s32	d7, s9
c200312e:	ee36 7b47 	vsub.f64	d7, d6, d7
c2003132:	ed16 6b02 	vldr	d6, [r6, #-8]
c2003136:	ee83 5b06 	vdiv.f64	d5, d3, d6
c200313a:	ec43 2b16 	vmov	d6, r2, r3
c200313e:	ee14 2a90 	vmov	r2, s9
c2003142:	9b03      	ldr	r3, [sp, #12]
c2003144:	3230      	adds	r2, #48	; 0x30
c2003146:	f803 2b01 	strb.w	r2, [r3], #1
c200314a:	ee35 5b46 	vsub.f64	d5, d5, d6
c200314e:	eeb4 5bc7 	vcmpe.f64	d5, d7
c2003152:	eef1 fa10 	vmrs	APSR_nzcv, fpscr
c2003156:	f300 843d 	bgt.w	c20039d4 <_dtoa_r+0xbdc>
c200315a:	2600      	movs	r6, #0
c200315c:	eeb7 2b00 	vmov.f64	d2, #112	; 0x3f800000  1.0
c2003160:	eeb2 4b04 	vmov.f64	d4, #36	; 0x41200000  10.0
c2003164:	e026      	b.n	c20031b4 <_dtoa_r+0x3bc>
c2003166:	bf00      	nop
c2003168:	636f4361 	cmnvs	pc, #-2080374783	; 0x84000001
c200316c:	3fd287a7 	svccc	0x00d287a7
c2003170:	8b60c8b3 	blhi	c3835444 <__HeapLimit+0x1828444>
c2003174:	3fc68a28 	svccc	0x00c68a28
c2003178:	509f79fb 			; <UNDEFINED> instruction: 0x509f79fb
c200317c:	3fd34413 	svccc	0x00d34413
c2003180:	c2007cfd 	andgt	r7, r0, #64768	; 0xfd00
c2003184:	3601      	adds	r6, #1
c2003186:	4286      	cmp	r6, r0
c2003188:	da51      	bge.n	c200322e <_dtoa_r+0x436>
c200318a:	ee27 7b04 	vmul.f64	d7, d7, d4
c200318e:	ee25 5b04 	vmul.f64	d5, d5, d4
c2003192:	eefd 6bc7 	vcvt.s32.f64	s13, d7
c2003196:	eeb8 3be6 	vcvt.f64.s32	d3, s13
c200319a:	ee16 2a90 	vmov	r2, s13
c200319e:	ee37 7b43 	vsub.f64	d7, d7, d3
c20031a2:	3230      	adds	r2, #48	; 0x30
c20031a4:	f803 2b01 	strb.w	r2, [r3], #1
c20031a8:	eeb4 7bc5 	vcmpe.f64	d7, d5
c20031ac:	eef1 fa10 	vmrs	APSR_nzcv, fpscr
c20031b0:	f100 8410 	bmi.w	c20039d4 <_dtoa_r+0xbdc>
c20031b4:	ee32 6b47 	vsub.f64	d6, d2, d7
c20031b8:	eeb4 6bc5 	vcmpe.f64	d6, d5
c20031bc:	eef1 fa10 	vmrs	APSR_nzcv, fpscr
c20031c0:	d5e0      	bpl.n	c2003184 <_dtoa_r+0x38c>
c20031c2:	9e03      	ldr	r6, [sp, #12]
c20031c4:	e002      	b.n	c20031cc <_dtoa_r+0x3d4>
c20031c6:	429e      	cmp	r6, r3
c20031c8:	f000 83e5 	beq.w	c2003996 <_dtoa_r+0xb9e>
c20031cc:	4618      	mov	r0, r3
c20031ce:	f813 2d01 	ldrb.w	r2, [r3, #-1]!
c20031d2:	2a39      	cmp	r2, #57	; 0x39
c20031d4:	d0f7      	beq.n	c20031c6 <_dtoa_r+0x3ce>
c20031d6:	3201      	adds	r2, #1
c20031d8:	9603      	str	r6, [sp, #12]
c20031da:	b2d2      	uxtb	r2, r2
c20031dc:	701a      	strb	r2, [r3, #0]
c20031de:	f8dd a00c 	ldr.w	sl, [sp, #12]
c20031e2:	1c4b      	adds	r3, r1, #1
c20031e4:	e9cd 0303 	strd	r0, r3, [sp, #12]
c20031e8:	e165      	b.n	c20034b6 <_dtoa_r+0x6be>
c20031ea:	ee07 1a90 	vmov	s15, r1
c20031ee:	eeb1 5b0c 	vmov.f64	d5, #28	; 0x40e00000  7.0
c20031f2:	eeb8 7be7 	vcvt.f64.s32	d7, s15
c20031f6:	ee07 5b06 	vmla.f64	d5, d7, d6
c20031fa:	ee15 1a90 	vmov	r1, s11
c20031fe:	ec53 2b15 	vmov	r2, r3, d5
c2003202:	f1a1 7350 	sub.w	r3, r1, #54525952	; 0x3400000
c2003206:	eeb1 7b04 	vmov.f64	d7, #20	; 0x40a00000  5.0
c200320a:	ec43 2b15 	vmov	d5, r2, r3
c200320e:	ee36 7b47 	vsub.f64	d7, d6, d7
c2003212:	eeb4 7bc5 	vcmpe.f64	d7, d5
c2003216:	eef1 fa10 	vmrs	APSR_nzcv, fpscr
c200321a:	f300 834e 	bgt.w	c20038ba <_dtoa_r+0xac2>
c200321e:	eeb1 5b45 	vneg.f64	d5, d5
c2003222:	eeb4 7bc5 	vcmpe.f64	d7, d5
c2003226:	eef1 fa10 	vmrs	APSR_nzcv, fpscr
c200322a:	f100 82dc 	bmi.w	c20037e6 <_dtoa_r+0x9ee>
c200322e:	9b0d      	ldr	r3, [sp, #52]	; 0x34
c2003230:	9904      	ldr	r1, [sp, #16]
c2003232:	43da      	mvns	r2, r3
c2003234:	290e      	cmp	r1, #14
c2003236:	ea4f 72d2 	mov.w	r2, r2, lsr #31
c200323a:	bfc8      	it	gt
c200323c:	2200      	movgt	r2, #0
c200323e:	2a00      	cmp	r2, #0
c2003240:	f040 8193 	bne.w	c200356a <_dtoa_r+0x772>
c2003244:	9a08      	ldr	r2, [sp, #32]
c2003246:	2a00      	cmp	r2, #0
c2003248:	f000 815f 	beq.w	c200350a <_dtoa_r+0x712>
c200324c:	9a02      	ldr	r2, [sp, #8]
c200324e:	2a01      	cmp	r2, #1
c2003250:	f340 831c 	ble.w	c200388c <_dtoa_r+0xa94>
c2003254:	9b09      	ldr	r3, [sp, #36]	; 0x24
c2003256:	f10b 38ff 	add.w	r8, fp, #4294967295	; 0xffffffff
c200325a:	4543      	cmp	r3, r8
c200325c:	bfaf      	iteee	ge
c200325e:	eba3 0808 	subge.w	r8, r3, r8
c2003262:	9b09      	ldrlt	r3, [sp, #36]	; 0x24
c2003264:	f8cd 8024 	strlt.w	r8, [sp, #36]	; 0x24
c2003268:	eba8 0303 	sublt.w	r3, r8, r3
c200326c:	bfbc      	itt	lt
c200326e:	f04f 0800 	movlt.w	r8, #0
c2003272:	4499      	addlt	r9, r3
c2003274:	f1bb 0f00 	cmp.w	fp, #0
c2003278:	bfab      	itete	ge
c200327a:	44da      	addge	sl, fp
c200327c:	9b07      	ldrlt	r3, [sp, #28]
c200327e:	9b07      	ldrge	r3, [sp, #28]
c2003280:	eba3 070b 	sublt.w	r7, r3, fp
c2003284:	bfa2      	ittt	ge
c2003286:	461f      	movge	r7, r3
c2003288:	445b      	addge	r3, fp
c200328a:	9307      	strge	r3, [sp, #28]
c200328c:	2101      	movs	r1, #1
c200328e:	4620      	mov	r0, r4
c2003290:	f001 fe84 	bl	c2004f9c <__i2b>
c2003294:	4606      	mov	r6, r0
c2003296:	2f00      	cmp	r7, #0
c2003298:	bfc8      	it	gt
c200329a:	f1ba 0f00 	cmpgt.w	sl, #0
c200329e:	dd09      	ble.n	c20032b4 <_dtoa_r+0x4bc>
c20032a0:	4557      	cmp	r7, sl
c20032a2:	463b      	mov	r3, r7
c20032a4:	9a07      	ldr	r2, [sp, #28]
c20032a6:	bfa8      	it	ge
c20032a8:	4653      	movge	r3, sl
c20032aa:	1aff      	subs	r7, r7, r3
c20032ac:	ebaa 0a03 	sub.w	sl, sl, r3
c20032b0:	1ad2      	subs	r2, r2, r3
c20032b2:	9207      	str	r2, [sp, #28]
c20032b4:	9b09      	ldr	r3, [sp, #36]	; 0x24
c20032b6:	b163      	cbz	r3, c20032d2 <_dtoa_r+0x4da>
c20032b8:	9b08      	ldr	r3, [sp, #32]
c20032ba:	2b00      	cmp	r3, #0
c20032bc:	f000 82f6 	beq.w	c20038ac <_dtoa_r+0xab4>
c20032c0:	f1b8 0f00 	cmp.w	r8, #0
c20032c4:	f300 8293 	bgt.w	c20037ee <_dtoa_r+0x9f6>
c20032c8:	9b09      	ldr	r3, [sp, #36]	; 0x24
c20032ca:	ebb3 0208 	subs.w	r2, r3, r8
c20032ce:	f040 829f 	bne.w	c2003810 <_dtoa_r+0xa18>
c20032d2:	2101      	movs	r1, #1
c20032d4:	4620      	mov	r0, r4
c20032d6:	f001 fe61 	bl	c2004f9c <__i2b>
c20032da:	f1b9 0f00 	cmp.w	r9, #0
c20032de:	4680      	mov	r8, r0
c20032e0:	f300 8166 	bgt.w	c20035b0 <_dtoa_r+0x7b8>
c20032e4:	9b02      	ldr	r3, [sp, #8]
c20032e6:	2b01      	cmp	r3, #1
c20032e8:	f340 82a5 	ble.w	c2003836 <_dtoa_r+0xa3e>
c20032ec:	2300      	movs	r3, #0
c20032ee:	9309      	str	r3, [sp, #36]	; 0x24
c20032f0:	2301      	movs	r3, #1
c20032f2:	f1b9 0f00 	cmp.w	r9, #0
c20032f6:	f040 8167 	bne.w	c20035c8 <_dtoa_r+0x7d0>
c20032fa:	4453      	add	r3, sl
c20032fc:	f013 031f 	ands.w	r3, r3, #31
c2003300:	f000 8101 	beq.w	c2003506 <_dtoa_r+0x70e>
c2003304:	f1c3 0220 	rsb	r2, r3, #32
c2003308:	2a04      	cmp	r2, #4
c200330a:	f340 83df 	ble.w	c2003acc <_dtoa_r+0xcd4>
c200330e:	f1c3 031c 	rsb	r3, r3, #28
c2003312:	9a07      	ldr	r2, [sp, #28]
c2003314:	441f      	add	r7, r3
c2003316:	449a      	add	sl, r3
c2003318:	441a      	add	r2, r3
c200331a:	9207      	str	r2, [sp, #28]
c200331c:	9b07      	ldr	r3, [sp, #28]
c200331e:	2b00      	cmp	r3, #0
c2003320:	dd05      	ble.n	c200332e <_dtoa_r+0x536>
c2003322:	4629      	mov	r1, r5
c2003324:	461a      	mov	r2, r3
c2003326:	4620      	mov	r0, r4
c2003328:	f001 ff82 	bl	c2005230 <__lshift>
c200332c:	4605      	mov	r5, r0
c200332e:	f1ba 0f00 	cmp.w	sl, #0
c2003332:	dd05      	ble.n	c2003340 <_dtoa_r+0x548>
c2003334:	4641      	mov	r1, r8
c2003336:	4652      	mov	r2, sl
c2003338:	4620      	mov	r0, r4
c200333a:	f001 ff79 	bl	c2005230 <__lshift>
c200333e:	4680      	mov	r8, r0
c2003340:	9b0a      	ldr	r3, [sp, #40]	; 0x28
c2003342:	2b00      	cmp	r3, #0
c2003344:	d17d      	bne.n	c2003442 <_dtoa_r+0x64a>
c2003346:	9a02      	ldr	r2, [sp, #8]
c2003348:	f1bb 0f00 	cmp.w	fp, #0
c200334c:	bfd4      	ite	le
c200334e:	2301      	movle	r3, #1
c2003350:	2300      	movgt	r3, #0
c2003352:	2a02      	cmp	r2, #2
c2003354:	bfd8      	it	le
c2003356:	2300      	movle	r3, #0
c2003358:	2b00      	cmp	r3, #0
c200335a:	f040 8099 	bne.w	c2003490 <_dtoa_r+0x698>
c200335e:	9b08      	ldr	r3, [sp, #32]
c2003360:	2b00      	cmp	r3, #0
c2003362:	f000 81cb 	beq.w	c20036fc <_dtoa_r+0x904>
c2003366:	2f00      	cmp	r7, #0
c2003368:	dd05      	ble.n	c2003376 <_dtoa_r+0x57e>
c200336a:	4631      	mov	r1, r6
c200336c:	463a      	mov	r2, r7
c200336e:	4620      	mov	r0, r4
c2003370:	f001 ff5e 	bl	c2005230 <__lshift>
c2003374:	4606      	mov	r6, r0
c2003376:	9b09      	ldr	r3, [sp, #36]	; 0x24
c2003378:	46b2      	mov	sl, r6
c200337a:	2b00      	cmp	r3, #0
c200337c:	f040 8330 	bne.w	c20039e0 <_dtoa_r+0xbe8>
c2003380:	9b00      	ldr	r3, [sp, #0]
c2003382:	9a03      	ldr	r2, [sp, #12]
c2003384:	f003 0301 	and.w	r3, r3, #1
c2003388:	9300      	str	r3, [sp, #0]
c200338a:	4691      	mov	r9, r2
c200338c:	1e53      	subs	r3, r2, #1
c200338e:	445b      	add	r3, fp
c2003390:	9309      	str	r3, [sp, #36]	; 0x24
c2003392:	4641      	mov	r1, r8
c2003394:	4628      	mov	r0, r5
c2003396:	f7ff fc95 	bl	c2002cc4 <quorem>
c200339a:	4631      	mov	r1, r6
c200339c:	4683      	mov	fp, r0
c200339e:	4628      	mov	r0, r5
c20033a0:	f001 ffbc 	bl	c200531c <__mcmp>
c20033a4:	4652      	mov	r2, sl
c20033a6:	4641      	mov	r1, r8
c20033a8:	4607      	mov	r7, r0
c20033aa:	4620      	mov	r0, r4
c20033ac:	f001 ffd8 	bl	c2005360 <__mdiff>
c20033b0:	68c2      	ldr	r2, [r0, #12]
c20033b2:	4601      	mov	r1, r0
c20033b4:	f10b 0330 	add.w	r3, fp, #48	; 0x30
c20033b8:	2a00      	cmp	r2, #0
c20033ba:	f040 822f 	bne.w	c200381c <_dtoa_r+0xa24>
c20033be:	e9cd 0307 	strd	r0, r3, [sp, #28]
c20033c2:	4628      	mov	r0, r5
c20033c4:	f001 ffaa 	bl	c200531c <__mcmp>
c20033c8:	9907      	ldr	r1, [sp, #28]
c20033ca:	9006      	str	r0, [sp, #24]
c20033cc:	4620      	mov	r0, r4
c20033ce:	f001 fd39 	bl	c2004e44 <_Bfree>
c20033d2:	9b02      	ldr	r3, [sp, #8]
c20033d4:	9a06      	ldr	r2, [sp, #24]
c20033d6:	ea42 0103 	orr.w	r1, r2, r3
c20033da:	9b00      	ldr	r3, [sp, #0]
c20033dc:	430b      	orrs	r3, r1
c20033de:	9b08      	ldr	r3, [sp, #32]
c20033e0:	f000 833e 	beq.w	c2003a60 <_dtoa_r+0xc68>
c20033e4:	2f00      	cmp	r7, #0
c20033e6:	f2c0 82da 	blt.w	c200399e <_dtoa_r+0xba6>
c20033ea:	9902      	ldr	r1, [sp, #8]
c20033ec:	430f      	orrs	r7, r1
c20033ee:	9900      	ldr	r1, [sp, #0]
c20033f0:	4339      	orrs	r1, r7
c20033f2:	f000 82d4 	beq.w	c200399e <_dtoa_r+0xba6>
c20033f6:	2a00      	cmp	r2, #0
c20033f8:	f300 831c 	bgt.w	c2003a34 <_dtoa_r+0xc3c>
c20033fc:	9a09      	ldr	r2, [sp, #36]	; 0x24
c20033fe:	f109 0701 	add.w	r7, r9, #1
c2003402:	46bb      	mov	fp, r7
c2003404:	f889 3000 	strb.w	r3, [r9]
c2003408:	454a      	cmp	r2, r9
c200340a:	f000 8321 	beq.w	c2003a50 <_dtoa_r+0xc58>
c200340e:	4629      	mov	r1, r5
c2003410:	2300      	movs	r3, #0
c2003412:	220a      	movs	r2, #10
c2003414:	4620      	mov	r0, r4
c2003416:	f001 fd1f 	bl	c2004e58 <__multadd>
c200341a:	4631      	mov	r1, r6
c200341c:	4605      	mov	r5, r0
c200341e:	2300      	movs	r3, #0
c2003420:	220a      	movs	r2, #10
c2003422:	4620      	mov	r0, r4
c2003424:	4556      	cmp	r6, sl
c2003426:	f000 8200 	beq.w	c200382a <_dtoa_r+0xa32>
c200342a:	f001 fd15 	bl	c2004e58 <__multadd>
c200342e:	4651      	mov	r1, sl
c2003430:	4606      	mov	r6, r0
c2003432:	2300      	movs	r3, #0
c2003434:	220a      	movs	r2, #10
c2003436:	4620      	mov	r0, r4
c2003438:	f001 fd0e 	bl	c2004e58 <__multadd>
c200343c:	46b9      	mov	r9, r7
c200343e:	4682      	mov	sl, r0
c2003440:	e7a7      	b.n	c2003392 <_dtoa_r+0x59a>
c2003442:	4641      	mov	r1, r8
c2003444:	4628      	mov	r0, r5
c2003446:	f001 ff69 	bl	c200531c <__mcmp>
c200344a:	2800      	cmp	r0, #0
c200344c:	f6bf af7b 	bge.w	c2003346 <_dtoa_r+0x54e>
c2003450:	4629      	mov	r1, r5
c2003452:	2300      	movs	r3, #0
c2003454:	220a      	movs	r2, #10
c2003456:	4620      	mov	r0, r4
c2003458:	f001 fcfe 	bl	c2004e58 <__multadd>
c200345c:	9b04      	ldr	r3, [sp, #16]
c200345e:	4605      	mov	r5, r0
c2003460:	f103 39ff 	add.w	r9, r3, #4294967295	; 0xffffffff
c2003464:	9b08      	ldr	r3, [sp, #32]
c2003466:	2b00      	cmp	r3, #0
c2003468:	f040 82ff 	bne.w	c2003a6a <_dtoa_r+0xc72>
c200346c:	9a0b      	ldr	r2, [sp, #44]	; 0x2c
c200346e:	9902      	ldr	r1, [sp, #8]
c2003470:	2a00      	cmp	r2, #0
c2003472:	4613      	mov	r3, r2
c2003474:	bfd4      	ite	le
c2003476:	2301      	movle	r3, #1
c2003478:	2300      	movgt	r3, #0
c200347a:	2902      	cmp	r1, #2
c200347c:	4693      	mov	fp, r2
c200347e:	bfd8      	it	le
c2003480:	2300      	movle	r3, #0
c2003482:	2b00      	cmp	r3, #0
c2003484:	f000 813d 	beq.w	c2003702 <_dtoa_r+0x90a>
c2003488:	f8cd 9010 	str.w	r9, [sp, #16]
c200348c:	f8dd b02c 	ldr.w	fp, [sp, #44]	; 0x2c
c2003490:	f1bb 0f00 	cmp.w	fp, #0
c2003494:	f000 811b 	beq.w	c20036ce <_dtoa_r+0x8d6>
c2003498:	9b06      	ldr	r3, [sp, #24]
c200349a:	f8dd a00c 	ldr.w	sl, [sp, #12]
c200349e:	43df      	mvns	r7, r3
c20034a0:	4641      	mov	r1, r8
c20034a2:	4620      	mov	r0, r4
c20034a4:	f001 fcce 	bl	c2004e44 <_Bfree>
c20034a8:	1c7b      	adds	r3, r7, #1
c20034aa:	9304      	str	r3, [sp, #16]
c20034ac:	b11e      	cbz	r6, c20034b6 <_dtoa_r+0x6be>
c20034ae:	4631      	mov	r1, r6
c20034b0:	4620      	mov	r0, r4
c20034b2:	f001 fcc7 	bl	c2004e44 <_Bfree>
c20034b6:	4629      	mov	r1, r5
c20034b8:	4620      	mov	r0, r4
c20034ba:	f001 fcc3 	bl	c2004e44 <_Bfree>
c20034be:	9a03      	ldr	r2, [sp, #12]
c20034c0:	2300      	movs	r3, #0
c20034c2:	7013      	strb	r3, [r2, #0]
c20034c4:	e9dd 1304 	ldrd	r1, r3, [sp, #16]
c20034c8:	6019      	str	r1, [r3, #0]
c20034ca:	9b1b      	ldr	r3, [sp, #108]	; 0x6c
c20034cc:	2b00      	cmp	r3, #0
c20034ce:	f43f acd2 	beq.w	c2002e76 <_dtoa_r+0x7e>
c20034d2:	4650      	mov	r0, sl
c20034d4:	601a      	str	r2, [r3, #0]
c20034d6:	b00f      	add	sp, #60	; 0x3c
c20034d8:	ecbd 8b02 	vpop	{d8}
c20034dc:	e8bd 8ff0 	ldmia.w	sp!, {r4, r5, r6, r7, r8, r9, sl, fp, pc}
c20034e0:	2301      	movs	r3, #1
c20034e2:	930a      	str	r3, [sp, #40]	; 0x28
c20034e4:	e536      	b.n	c2002f54 <_dtoa_r+0x15c>
c20034e6:	f1c3 0301 	rsb	r3, r3, #1
c20034ea:	f04f 0a00 	mov.w	sl, #0
c20034ee:	9307      	str	r3, [sp, #28]
c20034f0:	e538      	b.n	c2002f64 <_dtoa_r+0x16c>
c20034f2:	f647 4afc 	movw	sl, #31996	; 0x7cfc
c20034f6:	f2cc 2a00 	movt	sl, #49664	; 0xc200
c20034fa:	4650      	mov	r0, sl
c20034fc:	b00f      	add	sp, #60	; 0x3c
c20034fe:	ecbd 8b02 	vpop	{d8}
c2003502:	e8bd 8ff0 	ldmia.w	sp!, {r4, r5, r6, r7, r8, r9, sl, fp, pc}
c2003506:	231c      	movs	r3, #28
c2003508:	e703      	b.n	c2003312 <_dtoa_r+0x51a>
c200350a:	f8dd 8024 	ldr.w	r8, [sp, #36]	; 0x24
c200350e:	e9dd 7607 	ldrd	r7, r6, [sp, #28]
c2003512:	e6c0      	b.n	c2003296 <_dtoa_r+0x49e>
c2003514:	f000 8148 	beq.w	c20037a8 <_dtoa_r+0x9b0>
c2003518:	9b04      	ldr	r3, [sp, #16]
c200351a:	f647 6270 	movw	r2, #32368	; 0x7e70
c200351e:	f2cc 2200 	movt	r2, #49664	; 0xc200
c2003522:	425b      	negs	r3, r3
c2003524:	f003 010f 	and.w	r1, r3, #15
c2003528:	111b      	asrs	r3, r3, #4
c200352a:	eb02 02c1 	add.w	r2, r2, r1, lsl #3
c200352e:	ed92 5b00 	vldr	d5, [r2]
c2003532:	ee28 5b05 	vmul.f64	d5, d8, d5
c2003536:	eeb0 6b45 	vmov.f64	d6, d5
c200353a:	f000 82b4 	beq.w	c2003aa6 <_dtoa_r+0xcae>
c200353e:	f647 6248 	movw	r2, #32328	; 0x7e48
c2003542:	f2cc 2200 	movt	r2, #49664	; 0xc200
c2003546:	2000      	movs	r0, #0
c2003548:	2102      	movs	r1, #2
c200354a:	07df      	lsls	r7, r3, #31
c200354c:	d505      	bpl.n	c200355a <_dtoa_r+0x762>
c200354e:	ed92 7b00 	vldr	d7, [r2]
c2003552:	3101      	adds	r1, #1
c2003554:	4630      	mov	r0, r6
c2003556:	ee26 6b07 	vmul.f64	d6, d6, d7
c200355a:	3208      	adds	r2, #8
c200355c:	105b      	asrs	r3, r3, #1
c200355e:	d1f4      	bne.n	c200354a <_dtoa_r+0x752>
c2003560:	2800      	cmp	r0, #0
c2003562:	bf08      	it	eq
c2003564:	eeb0 6b45 	vmoveq.f64	d6, d5
c2003568:	e5b4      	b.n	c20030d4 <_dtoa_r+0x2dc>
c200356a:	f647 6370 	movw	r3, #32368	; 0x7e70
c200356e:	f2cc 2300 	movt	r3, #49664	; 0xc200
c2003572:	eb03 03c1 	add.w	r3, r3, r1, lsl #3
c2003576:	9a06      	ldr	r2, [sp, #24]
c2003578:	f1bb 0f00 	cmp.w	fp, #0
c200357c:	ed93 6b00 	vldr	d6, [r3]
c2003580:	bfcc      	ite	gt
c2003582:	2300      	movgt	r3, #0
c2003584:	2301      	movle	r3, #1
c2003586:	ea13 73d2 	ands.w	r3, r3, r2, lsr #31
c200358a:	f000 81b8 	beq.w	c20038fe <_dtoa_r+0xb06>
c200358e:	f1bb 0f00 	cmp.w	fp, #0
c2003592:	f040 8128 	bne.w	c20037e6 <_dtoa_r+0x9ee>
c2003596:	eeb1 7b04 	vmov.f64	d7, #20	; 0x40a00000  5.0
c200359a:	46d8      	mov	r8, fp
c200359c:	465e      	mov	r6, fp
c200359e:	ee26 6b07 	vmul.f64	d6, d6, d7
c20035a2:	eeb4 8bc6 	vcmpe.f64	d8, d6
c20035a6:	eef1 fa10 	vmrs	APSR_nzcv, fpscr
c20035aa:	f67f af75 	bls.w	c2003498 <_dtoa_r+0x6a0>
c20035ae:	e09c      	b.n	c20036ea <_dtoa_r+0x8f2>
c20035b0:	4601      	mov	r1, r0
c20035b2:	464a      	mov	r2, r9
c20035b4:	4620      	mov	r0, r4
c20035b6:	f001 fdd9 	bl	c200516c <__pow5mult>
c20035ba:	9b02      	ldr	r3, [sp, #8]
c20035bc:	4680      	mov	r8, r0
c20035be:	2b01      	cmp	r3, #1
c20035c0:	f340 80f6 	ble.w	c20037b0 <_dtoa_r+0x9b8>
c20035c4:	2300      	movs	r3, #0
c20035c6:	9309      	str	r3, [sp, #36]	; 0x24
c20035c8:	f8d8 3010 	ldr.w	r3, [r8, #16]
c20035cc:	eb08 0383 	add.w	r3, r8, r3, lsl #2
c20035d0:	6918      	ldr	r0, [r3, #16]
c20035d2:	f001 fc97 	bl	c2004f04 <__hi0bits>
c20035d6:	f1c0 0320 	rsb	r3, r0, #32
c20035da:	e68e      	b.n	c20032fa <_dtoa_r+0x502>
c20035dc:	eeb0 5b48 	vmov.f64	d5, d8
c20035e0:	2102      	movs	r1, #2
c20035e2:	e566      	b.n	c20030b2 <_dtoa_r+0x2ba>
c20035e4:	2301      	movs	r3, #1
c20035e6:	9308      	str	r3, [sp, #32]
c20035e8:	9b06      	ldr	r3, [sp, #24]
c20035ea:	9a04      	ldr	r2, [sp, #16]
c20035ec:	4413      	add	r3, r2
c20035ee:	930b      	str	r3, [sp, #44]	; 0x2c
c20035f0:	f103 0b01 	add.w	fp, r3, #1
c20035f4:	465f      	mov	r7, fp
c20035f6:	2f01      	cmp	r7, #1
c20035f8:	bfb8      	it	lt
c20035fa:	2701      	movlt	r7, #1
c20035fc:	2100      	movs	r1, #0
c20035fe:	2f17      	cmp	r7, #23
c2003600:	6461      	str	r1, [r4, #68]	; 0x44
c2003602:	f77f ad26 	ble.w	c2003052 <_dtoa_r+0x25a>
c2003606:	2201      	movs	r2, #1
c2003608:	2304      	movs	r3, #4
c200360a:	005b      	lsls	r3, r3, #1
c200360c:	4611      	mov	r1, r2
c200360e:	f103 0014 	add.w	r0, r3, #20
c2003612:	3201      	adds	r2, #1
c2003614:	42b8      	cmp	r0, r7
c2003616:	d9f8      	bls.n	c200360a <_dtoa_r+0x812>
c2003618:	6461      	str	r1, [r4, #68]	; 0x44
c200361a:	e51a      	b.n	c2003052 <_dtoa_r+0x25a>
c200361c:	2301      	movs	r3, #1
c200361e:	9308      	str	r3, [sp, #32]
c2003620:	9f06      	ldr	r7, [sp, #24]
c2003622:	2f00      	cmp	r7, #0
c2003624:	bfc4      	itt	gt
c2003626:	970b      	strgt	r7, [sp, #44]	; 0x2c
c2003628:	46bb      	movgt	fp, r7
c200362a:	dce7      	bgt.n	c20035fc <_dtoa_r+0x804>
c200362c:	2301      	movs	r3, #1
c200362e:	9306      	str	r3, [sp, #24]
c2003630:	469b      	mov	fp, r3
c2003632:	e50a      	b.n	c200304a <_dtoa_r+0x252>
c2003634:	2300      	movs	r3, #0
c2003636:	9308      	str	r3, [sp, #32]
c2003638:	e7d6      	b.n	c20035e8 <_dtoa_r+0x7f0>
c200363a:	2300      	movs	r3, #0
c200363c:	9308      	str	r3, [sp, #32]
c200363e:	e7ef      	b.n	c2003620 <_dtoa_r+0x828>
c2003640:	eefd 5bc6 	vcvt.s32.f64	s11, d6
c2003644:	f647 6670 	movw	r6, #32368	; 0x7e70
c2003648:	f2cc 2600 	movt	r6, #49664	; 0xc200
c200364c:	2801      	cmp	r0, #1
c200364e:	eb06 06c0 	add.w	r6, r6, r0, lsl #3
c2003652:	eeb2 4b04 	vmov.f64	d4, #36	; 0x41200000  10.0
c2003656:	eeb8 7be5 	vcvt.f64.s32	d7, s11
c200365a:	ed16 3b02 	vldr	d3, [r6, #-8]
c200365e:	9e03      	ldr	r6, [sp, #12]
c2003660:	ee36 7b47 	vsub.f64	d7, d6, d7
c2003664:	ec43 2b16 	vmov	d6, r2, r3
c2003668:	ee15 3a90 	vmov	r3, s11
c200366c:	ee23 3b06 	vmul.f64	d3, d3, d6
c2003670:	f103 0330 	add.w	r3, r3, #48	; 0x30
c2003674:	f806 3b01 	strb.w	r3, [r6], #1
c2003678:	9b03      	ldr	r3, [sp, #12]
c200367a:	4403      	add	r3, r0
c200367c:	f000 820d 	beq.w	c2003a9a <_dtoa_r+0xca2>
c2003680:	ee27 7b04 	vmul.f64	d7, d7, d4
c2003684:	eefd 6bc7 	vcvt.s32.f64	s13, d7
c2003688:	ee16 2a90 	vmov	r2, s13
c200368c:	eeb8 5be6 	vcvt.f64.s32	d5, s13
c2003690:	3230      	adds	r2, #48	; 0x30
c2003692:	f806 2b01 	strb.w	r2, [r6], #1
c2003696:	ee37 7b45 	vsub.f64	d7, d7, d5
c200369a:	429e      	cmp	r6, r3
c200369c:	d1f0      	bne.n	c2003680 <_dtoa_r+0x888>
c200369e:	eeb6 6b00 	vmov.f64	d6, #96	; 0x3f000000  0.5
c20036a2:	ee33 5b06 	vadd.f64	d5, d3, d6
c20036a6:	eeb4 7bc5 	vcmpe.f64	d7, d5
c20036aa:	eef1 fa10 	vmrs	APSR_nzcv, fpscr
c20036ae:	f73f ad88 	bgt.w	c20031c2 <_dtoa_r+0x3ca>
c20036b2:	ee36 6b43 	vsub.f64	d6, d6, d3
c20036b6:	eeb4 7bc6 	vcmpe.f64	d7, d6
c20036ba:	eef1 fa10 	vmrs	APSR_nzcv, fpscr
c20036be:	f57f adb6 	bpl.w	c200322e <_dtoa_r+0x436>
c20036c2:	4618      	mov	r0, r3
c20036c4:	f813 2d01 	ldrb.w	r2, [r3, #-1]!
c20036c8:	2a30      	cmp	r2, #48	; 0x30
c20036ca:	d0fa      	beq.n	c20036c2 <_dtoa_r+0x8ca>
c20036cc:	e587      	b.n	c20031de <_dtoa_r+0x3e6>
c20036ce:	4641      	mov	r1, r8
c20036d0:	465b      	mov	r3, fp
c20036d2:	2205      	movs	r2, #5
c20036d4:	4620      	mov	r0, r4
c20036d6:	f001 fbbf 	bl	c2004e58 <__multadd>
c20036da:	4680      	mov	r8, r0
c20036dc:	4641      	mov	r1, r8
c20036de:	4628      	mov	r0, r5
c20036e0:	f001 fe1c 	bl	c200531c <__mcmp>
c20036e4:	2800      	cmp	r0, #0
c20036e6:	f77f aed7 	ble.w	c2003498 <_dtoa_r+0x6a0>
c20036ea:	9803      	ldr	r0, [sp, #12]
c20036ec:	2331      	movs	r3, #49	; 0x31
c20036ee:	9f04      	ldr	r7, [sp, #16]
c20036f0:	4682      	mov	sl, r0
c20036f2:	f800 3b01 	strb.w	r3, [r0], #1
c20036f6:	3701      	adds	r7, #1
c20036f8:	9003      	str	r0, [sp, #12]
c20036fa:	e6d1      	b.n	c20034a0 <_dtoa_r+0x6a8>
c20036fc:	9b04      	ldr	r3, [sp, #16]
c20036fe:	3301      	adds	r3, #1
c2003700:	9304      	str	r3, [sp, #16]
c2003702:	f8dd 900c 	ldr.w	r9, [sp, #12]
c2003706:	2701      	movs	r7, #1
c2003708:	e007      	b.n	c200371a <_dtoa_r+0x922>
c200370a:	4629      	mov	r1, r5
c200370c:	2300      	movs	r3, #0
c200370e:	220a      	movs	r2, #10
c2003710:	4620      	mov	r0, r4
c2003712:	f001 fba1 	bl	c2004e58 <__multadd>
c2003716:	3701      	adds	r7, #1
c2003718:	4605      	mov	r5, r0
c200371a:	4641      	mov	r1, r8
c200371c:	4628      	mov	r0, r5
c200371e:	f7ff fad1 	bl	c2002cc4 <quorem>
c2003722:	455f      	cmp	r7, fp
c2003724:	f100 0030 	add.w	r0, r0, #48	; 0x30
c2003728:	f809 0b01 	strb.w	r0, [r9], #1
c200372c:	dbed      	blt.n	c200370a <_dtoa_r+0x912>
c200372e:	f1bb 0f00 	cmp.w	fp, #0
c2003732:	9a03      	ldr	r2, [sp, #12]
c2003734:	bfd8      	it	le
c2003736:	f04f 0b01 	movle.w	fp, #1
c200373a:	4603      	mov	r3, r0
c200373c:	4493      	add	fp, r2
c200373e:	2700      	movs	r7, #0
c2003740:	4629      	mov	r1, r5
c2003742:	2201      	movs	r2, #1
c2003744:	4620      	mov	r0, r4
c2003746:	9302      	str	r3, [sp, #8]
c2003748:	f001 fd72 	bl	c2005230 <__lshift>
c200374c:	4641      	mov	r1, r8
c200374e:	4605      	mov	r5, r0
c2003750:	f001 fde4 	bl	c200531c <__mcmp>
c2003754:	2800      	cmp	r0, #0
c2003756:	f340 8113 	ble.w	c2003980 <_dtoa_r+0xb88>
c200375a:	f81b 3c01 	ldrb.w	r3, [fp, #-1]
c200375e:	9a03      	ldr	r2, [sp, #12]
c2003760:	f10b 3bff 	add.w	fp, fp, #4294967295	; 0xffffffff
c2003764:	e004      	b.n	c2003770 <_dtoa_r+0x978>
c2003766:	455a      	cmp	r2, fp
c2003768:	f000 8103 	beq.w	c2003972 <_dtoa_r+0xb7a>
c200376c:	f81b 3d01 	ldrb.w	r3, [fp, #-1]!
c2003770:	f10b 0901 	add.w	r9, fp, #1
c2003774:	2b39      	cmp	r3, #57	; 0x39
c2003776:	d0f6      	beq.n	c2003766 <_dtoa_r+0x96e>
c2003778:	3301      	adds	r3, #1
c200377a:	f88b 3000 	strb.w	r3, [fp]
c200377e:	4641      	mov	r1, r8
c2003780:	4620      	mov	r0, r4
c2003782:	f001 fb5f 	bl	c2004e44 <_Bfree>
c2003786:	2e00      	cmp	r6, #0
c2003788:	f000 80ee 	beq.w	c2003968 <_dtoa_r+0xb70>
c200378c:	2f00      	cmp	r7, #0
c200378e:	bf18      	it	ne
c2003790:	42b7      	cmpne	r7, r6
c2003792:	f000 81a0 	beq.w	c2003ad6 <_dtoa_r+0xcde>
c2003796:	4639      	mov	r1, r7
c2003798:	4620      	mov	r0, r4
c200379a:	f8dd a00c 	ldr.w	sl, [sp, #12]
c200379e:	f8cd 900c 	str.w	r9, [sp, #12]
c20037a2:	f001 fb4f 	bl	c2004e44 <_Bfree>
c20037a6:	e682      	b.n	c20034ae <_dtoa_r+0x6b6>
c20037a8:	eeb0 6b48 	vmov.f64	d6, d8
c20037ac:	2102      	movs	r1, #2
c20037ae:	e491      	b.n	c20030d4 <_dtoa_r+0x2dc>
c20037b0:	9b00      	ldr	r3, [sp, #0]
c20037b2:	2b00      	cmp	r3, #0
c20037b4:	f47f af06 	bne.w	c20035c4 <_dtoa_r+0x7cc>
c20037b8:	e9dd 0100 	ldrd	r0, r1, [sp]
c20037bc:	460a      	mov	r2, r1
c20037be:	f3c1 0313 	ubfx	r3, r1, #0, #20
c20037c2:	2b00      	cmp	r3, #0
c20037c4:	f040 8172 	bne.w	c2003aac <_dtoa_r+0xcb4>
c20037c8:	2300      	movs	r3, #0
c20037ca:	f6c7 73f0 	movt	r3, #32752	; 0x7ff0
c20037ce:	4013      	ands	r3, r2
c20037d0:	2b00      	cmp	r3, #0
c20037d2:	f000 8143 	beq.w	c2003a5c <_dtoa_r+0xc64>
c20037d6:	9b07      	ldr	r3, [sp, #28]
c20037d8:	f10a 0a01 	add.w	sl, sl, #1
c20037dc:	3301      	adds	r3, #1
c20037de:	9307      	str	r3, [sp, #28]
c20037e0:	2301      	movs	r3, #1
c20037e2:	9309      	str	r3, [sp, #36]	; 0x24
c20037e4:	e584      	b.n	c20032f0 <_dtoa_r+0x4f8>
c20037e6:	f04f 0800 	mov.w	r8, #0
c20037ea:	4646      	mov	r6, r8
c20037ec:	e654      	b.n	c2003498 <_dtoa_r+0x6a0>
c20037ee:	4631      	mov	r1, r6
c20037f0:	4642      	mov	r2, r8
c20037f2:	4620      	mov	r0, r4
c20037f4:	f001 fcba 	bl	c200516c <__pow5mult>
c20037f8:	462a      	mov	r2, r5
c20037fa:	4601      	mov	r1, r0
c20037fc:	4606      	mov	r6, r0
c20037fe:	4620      	mov	r0, r4
c2003800:	f001 fbfc 	bl	c2004ffc <__multiply>
c2003804:	4629      	mov	r1, r5
c2003806:	4605      	mov	r5, r0
c2003808:	4620      	mov	r0, r4
c200380a:	f001 fb1b 	bl	c2004e44 <_Bfree>
c200380e:	e55b      	b.n	c20032c8 <_dtoa_r+0x4d0>
c2003810:	4629      	mov	r1, r5
c2003812:	4620      	mov	r0, r4
c2003814:	f001 fcaa 	bl	c200516c <__pow5mult>
c2003818:	4605      	mov	r5, r0
c200381a:	e55a      	b.n	c20032d2 <_dtoa_r+0x4da>
c200381c:	4620      	mov	r0, r4
c200381e:	9306      	str	r3, [sp, #24]
c2003820:	f001 fb10 	bl	c2004e44 <_Bfree>
c2003824:	9b06      	ldr	r3, [sp, #24]
c2003826:	2201      	movs	r2, #1
c2003828:	e5dc      	b.n	c20033e4 <_dtoa_r+0x5ec>
c200382a:	f001 fb15 	bl	c2004e58 <__multadd>
c200382e:	46b9      	mov	r9, r7
c2003830:	4606      	mov	r6, r0
c2003832:	4682      	mov	sl, r0
c2003834:	e5ad      	b.n	c2003392 <_dtoa_r+0x59a>
c2003836:	e9dd 0100 	ldrd	r0, r1, [sp]
c200383a:	2800      	cmp	r0, #0
c200383c:	f47f ad56 	bne.w	c20032ec <_dtoa_r+0x4f4>
c2003840:	460a      	mov	r2, r1
c2003842:	f3c1 0313 	ubfx	r3, r1, #0, #20
c2003846:	2b00      	cmp	r3, #0
c2003848:	d0be      	beq.n	c20037c8 <_dtoa_r+0x9d0>
c200384a:	9b00      	ldr	r3, [sp, #0]
c200384c:	9309      	str	r3, [sp, #36]	; 0x24
c200384e:	e54f      	b.n	c20032f0 <_dtoa_r+0x4f8>
c2003850:	f1bb 0f00 	cmp.w	fp, #0
c2003854:	f43f acc9 	beq.w	c20031ea <_dtoa_r+0x3f2>
c2003858:	980b      	ldr	r0, [sp, #44]	; 0x2c
c200385a:	2800      	cmp	r0, #0
c200385c:	f77f ace7 	ble.w	c200322e <_dtoa_r+0x436>
c2003860:	3101      	adds	r1, #1
c2003862:	eeb2 4b04 	vmov.f64	d4, #36	; 0x41200000  10.0
c2003866:	ee07 1a90 	vmov	s15, r1
c200386a:	9b04      	ldr	r3, [sp, #16]
c200386c:	ee26 6b04 	vmul.f64	d6, d6, d4
c2003870:	eeb8 5be7 	vcvt.f64.s32	d5, s15
c2003874:	eeb1 7b0c 	vmov.f64	d7, #28	; 0x40e00000  7.0
c2003878:	1e59      	subs	r1, r3, #1
c200387a:	ee05 7b06 	vmla.f64	d7, d5, d6
c200387e:	ee17 6a90 	vmov	r6, s15
c2003882:	ec53 2b17 	vmov	r2, r3, d7
c2003886:	f1a6 7350 	sub.w	r3, r6, #54525952	; 0x3400000
c200388a:	e440      	b.n	c200310e <_dtoa_r+0x316>
c200388c:	f203 4333 	addw	r3, r3, #1075	; 0x433
c2003890:	f1b8 0f00 	cmp.w	r8, #0
c2003894:	d102      	bne.n	c200389c <_dtoa_r+0xaa4>
c2003896:	9b0c      	ldr	r3, [sp, #48]	; 0x30
c2003898:	f1c3 0336 	rsb	r3, r3, #54	; 0x36
c200389c:	9a07      	ldr	r2, [sp, #28]
c200389e:	449a      	add	sl, r3
c20038a0:	f8dd 8024 	ldr.w	r8, [sp, #36]	; 0x24
c20038a4:	4617      	mov	r7, r2
c20038a6:	441a      	add	r2, r3
c20038a8:	9207      	str	r2, [sp, #28]
c20038aa:	e4ef      	b.n	c200328c <_dtoa_r+0x494>
c20038ac:	4629      	mov	r1, r5
c20038ae:	9a09      	ldr	r2, [sp, #36]	; 0x24
c20038b0:	4620      	mov	r0, r4
c20038b2:	f001 fc5b 	bl	c200516c <__pow5mult>
c20038b6:	4605      	mov	r5, r0
c20038b8:	e50b      	b.n	c20032d2 <_dtoa_r+0x4da>
c20038ba:	f04f 0800 	mov.w	r8, #0
c20038be:	4646      	mov	r6, r8
c20038c0:	e713      	b.n	c20036ea <_dtoa_r+0x8f2>
c20038c2:	2100      	movs	r1, #0
c20038c4:	4620      	mov	r0, r4
c20038c6:	6461      	str	r1, [r4, #68]	; 0x44
c20038c8:	f001 fa96 	bl	c2004df8 <_Balloc>
c20038cc:	9003      	str	r0, [sp, #12]
c20038ce:	2800      	cmp	r0, #0
c20038d0:	f000 80ef 	beq.w	c2003ab2 <_dtoa_r+0xcba>
c20038d4:	9a04      	ldr	r2, [sp, #16]
c20038d6:	9b03      	ldr	r3, [sp, #12]
c20038d8:	6423      	str	r3, [r4, #64]	; 0x40
c20038da:	2a0e      	cmp	r2, #14
c20038dc:	9b0d      	ldr	r3, [sp, #52]	; 0x34
c20038de:	f300 810c 	bgt.w	c2003afa <_dtoa_r+0xd02>
c20038e2:	2b00      	cmp	r3, #0
c20038e4:	f2c0 8109 	blt.w	c2003afa <_dtoa_r+0xd02>
c20038e8:	9a04      	ldr	r2, [sp, #16]
c20038ea:	f647 6370 	movw	r3, #32368	; 0x7e70
c20038ee:	f2cc 2300 	movt	r3, #49664	; 0xc200
c20038f2:	f04f 3bff 	mov.w	fp, #4294967295	; 0xffffffff
c20038f6:	eb03 03c2 	add.w	r3, r3, r2, lsl #3
c20038fa:	ed93 6b00 	vldr	d6, [r3]
c20038fe:	ee88 7b06 	vdiv.f64	d7, d8, d6
c2003902:	9b03      	ldr	r3, [sp, #12]
c2003904:	f1bb 0f01 	cmp.w	fp, #1
c2003908:	eeb2 4b04 	vmov.f64	d4, #36	; 0x41200000  10.0
c200390c:	eebd 7bc7 	vcvt.s32.f64	s14, d7
c2003910:	eeb8 5bc7 	vcvt.f64.s32	d5, s14
c2003914:	ee17 2a10 	vmov	r2, s14
c2003918:	ee05 8b46 	vmls.f64	d8, d5, d6
c200391c:	f102 0230 	add.w	r2, r2, #48	; 0x30
c2003920:	f803 2b01 	strb.w	r2, [r3], #1
c2003924:	f04f 0201 	mov.w	r2, #1
c2003928:	d111      	bne.n	c200394e <_dtoa_r+0xb56>
c200392a:	e06f      	b.n	c2003a0c <_dtoa_r+0xc14>
c200392c:	ee88 7b06 	vdiv.f64	d7, d8, d6
c2003930:	3201      	adds	r2, #1
c2003932:	455a      	cmp	r2, fp
c2003934:	eebd 7bc7 	vcvt.s32.f64	s14, d7
c2003938:	eeb8 5bc7 	vcvt.f64.s32	d5, s14
c200393c:	ee17 1a10 	vmov	r1, s14
c2003940:	ee05 8b46 	vmls.f64	d8, d5, d6
c2003944:	f101 0130 	add.w	r1, r1, #48	; 0x30
c2003948:	f803 1b01 	strb.w	r1, [r3], #1
c200394c:	d05e      	beq.n	c2003a0c <_dtoa_r+0xc14>
c200394e:	ee28 8b04 	vmul.f64	d8, d8, d4
c2003952:	eeb5 8b40 	vcmp.f64	d8, #0.0
c2003956:	eef1 fa10 	vmrs	APSR_nzcv, fpscr
c200395a:	d1e7      	bne.n	c200392c <_dtoa_r+0xb34>
c200395c:	e9dd a203 	ldrd	sl, r2, [sp, #12]
c2003960:	3201      	adds	r2, #1
c2003962:	e9cd 3203 	strd	r3, r2, [sp, #12]
c2003966:	e5a6      	b.n	c20034b6 <_dtoa_r+0x6be>
c2003968:	f8dd a00c 	ldr.w	sl, [sp, #12]
c200396c:	f8cd 900c 	str.w	r9, [sp, #12]
c2003970:	e5a1      	b.n	c20034b6 <_dtoa_r+0x6be>
c2003972:	9a03      	ldr	r2, [sp, #12]
c2003974:	9b04      	ldr	r3, [sp, #16]
c2003976:	3301      	adds	r3, #1
c2003978:	9304      	str	r3, [sp, #16]
c200397a:	2331      	movs	r3, #49	; 0x31
c200397c:	7013      	strb	r3, [r2, #0]
c200397e:	e6fe      	b.n	c200377e <_dtoa_r+0x986>
c2003980:	d103      	bne.n	c200398a <_dtoa_r+0xb92>
c2003982:	9b02      	ldr	r3, [sp, #8]
c2003984:	07d8      	lsls	r0, r3, #31
c2003986:	f53f aee8 	bmi.w	c200375a <_dtoa_r+0x962>
c200398a:	46d9      	mov	r9, fp
c200398c:	f81b 3d01 	ldrb.w	r3, [fp, #-1]!
c2003990:	2b30      	cmp	r3, #48	; 0x30
c2003992:	d0fa      	beq.n	c200398a <_dtoa_r+0xb92>
c2003994:	e6f3      	b.n	c200377e <_dtoa_r+0x986>
c2003996:	3101      	adds	r1, #1
c2003998:	2231      	movs	r2, #49	; 0x31
c200399a:	9603      	str	r6, [sp, #12]
c200399c:	e41e      	b.n	c20031dc <_dtoa_r+0x3e4>
c200399e:	2a00      	cmp	r2, #0
c20039a0:	dd10      	ble.n	c20039c4 <_dtoa_r+0xbcc>
c20039a2:	4629      	mov	r1, r5
c20039a4:	2201      	movs	r2, #1
c20039a6:	4620      	mov	r0, r4
c20039a8:	9302      	str	r3, [sp, #8]
c20039aa:	f001 fc41 	bl	c2005230 <__lshift>
c20039ae:	4641      	mov	r1, r8
c20039b0:	4605      	mov	r5, r0
c20039b2:	f001 fcb3 	bl	c200531c <__mcmp>
c20039b6:	9b02      	ldr	r3, [sp, #8]
c20039b8:	2800      	cmp	r0, #0
c20039ba:	dd70      	ble.n	c2003a9e <_dtoa_r+0xca6>
c20039bc:	2b39      	cmp	r3, #57	; 0x39
c20039be:	d03d      	beq.n	c2003a3c <_dtoa_r+0xc44>
c20039c0:	f10b 0331 	add.w	r3, fp, #49	; 0x31
c20039c4:	f809 3b01 	strb.w	r3, [r9], #1
c20039c8:	4637      	mov	r7, r6
c20039ca:	9b04      	ldr	r3, [sp, #16]
c20039cc:	4656      	mov	r6, sl
c20039ce:	3301      	adds	r3, #1
c20039d0:	9304      	str	r3, [sp, #16]
c20039d2:	e6d4      	b.n	c200377e <_dtoa_r+0x986>
c20039d4:	f8dd a00c 	ldr.w	sl, [sp, #12]
c20039d8:	1c4a      	adds	r2, r1, #1
c20039da:	e9cd 3203 	strd	r3, r2, [sp, #12]
c20039de:	e56a      	b.n	c20034b6 <_dtoa_r+0x6be>
c20039e0:	6871      	ldr	r1, [r6, #4]
c20039e2:	4620      	mov	r0, r4
c20039e4:	f001 fa08 	bl	c2004df8 <_Balloc>
c20039e8:	4607      	mov	r7, r0
c20039ea:	2800      	cmp	r0, #0
c20039ec:	d078      	beq.n	c2003ae0 <_dtoa_r+0xce8>
c20039ee:	6933      	ldr	r3, [r6, #16]
c20039f0:	f106 010c 	add.w	r1, r6, #12
c20039f4:	300c      	adds	r0, #12
c20039f6:	3302      	adds	r3, #2
c20039f8:	009a      	lsls	r2, r3, #2
c20039fa:	f000 ef02 	blx	c2004800 <memcpy>
c20039fe:	4639      	mov	r1, r7
c2003a00:	2201      	movs	r2, #1
c2003a02:	4620      	mov	r0, r4
c2003a04:	f001 fc14 	bl	c2005230 <__lshift>
c2003a08:	4682      	mov	sl, r0
c2003a0a:	e4b9      	b.n	c2003380 <_dtoa_r+0x588>
c2003a0c:	ee38 8b08 	vadd.f64	d8, d8, d8
c2003a10:	eeb4 8bc6 	vcmpe.f64	d8, d6
c2003a14:	eef1 fa10 	vmrs	APSR_nzcv, fpscr
c2003a18:	dc08      	bgt.n	c2003a2c <_dtoa_r+0xc34>
c2003a1a:	eeb4 8b46 	vcmp.f64	d8, d6
c2003a1e:	eef1 fa10 	vmrs	APSR_nzcv, fpscr
c2003a22:	d19b      	bne.n	c200395c <_dtoa_r+0xb64>
c2003a24:	ee17 2a10 	vmov	r2, s14
c2003a28:	07d2      	lsls	r2, r2, #31
c2003a2a:	d597      	bpl.n	c200395c <_dtoa_r+0xb64>
c2003a2c:	e9dd 6103 	ldrd	r6, r1, [sp, #12]
c2003a30:	f7ff bbcc 	b.w	c20031cc <_dtoa_r+0x3d4>
c2003a34:	2b39      	cmp	r3, #57	; 0x39
c2003a36:	bf18      	it	ne
c2003a38:	3301      	addne	r3, #1
c2003a3a:	d1c3      	bne.n	c20039c4 <_dtoa_r+0xbcc>
c2003a3c:	46cb      	mov	fp, r9
c2003a3e:	9b04      	ldr	r3, [sp, #16]
c2003a40:	4637      	mov	r7, r6
c2003a42:	4656      	mov	r6, sl
c2003a44:	3301      	adds	r3, #1
c2003a46:	9304      	str	r3, [sp, #16]
c2003a48:	2339      	movs	r3, #57	; 0x39
c2003a4a:	f80b 3b01 	strb.w	r3, [fp], #1
c2003a4e:	e686      	b.n	c200375e <_dtoa_r+0x966>
c2003a50:	9a04      	ldr	r2, [sp, #16]
c2003a52:	4637      	mov	r7, r6
c2003a54:	4656      	mov	r6, sl
c2003a56:	3201      	adds	r2, #1
c2003a58:	9204      	str	r2, [sp, #16]
c2003a5a:	e671      	b.n	c2003740 <_dtoa_r+0x948>
c2003a5c:	9309      	str	r3, [sp, #36]	; 0x24
c2003a5e:	e447      	b.n	c20032f0 <_dtoa_r+0x4f8>
c2003a60:	2b39      	cmp	r3, #57	; 0x39
c2003a62:	d0eb      	beq.n	c2003a3c <_dtoa_r+0xc44>
c2003a64:	2f00      	cmp	r7, #0
c2003a66:	dcab      	bgt.n	c20039c0 <_dtoa_r+0xbc8>
c2003a68:	e7ac      	b.n	c20039c4 <_dtoa_r+0xbcc>
c2003a6a:	4631      	mov	r1, r6
c2003a6c:	2300      	movs	r3, #0
c2003a6e:	220a      	movs	r2, #10
c2003a70:	4620      	mov	r0, r4
c2003a72:	f001 f9f1 	bl	c2004e58 <__multadd>
c2003a76:	9a0b      	ldr	r2, [sp, #44]	; 0x2c
c2003a78:	9902      	ldr	r1, [sp, #8]
c2003a7a:	4606      	mov	r6, r0
c2003a7c:	2a00      	cmp	r2, #0
c2003a7e:	4613      	mov	r3, r2
c2003a80:	bfd4      	ite	le
c2003a82:	2301      	movle	r3, #1
c2003a84:	2300      	movgt	r3, #0
c2003a86:	2902      	cmp	r1, #2
c2003a88:	4693      	mov	fp, r2
c2003a8a:	bfd8      	it	le
c2003a8c:	2300      	movle	r3, #0
c2003a8e:	f8cd 9010 	str.w	r9, [sp, #16]
c2003a92:	2b00      	cmp	r3, #0
c2003a94:	f47f acfa 	bne.w	c200348c <_dtoa_r+0x694>
c2003a98:	e465      	b.n	c2003366 <_dtoa_r+0x56e>
c2003a9a:	4633      	mov	r3, r6
c2003a9c:	e5ff      	b.n	c200369e <_dtoa_r+0x8a6>
c2003a9e:	d191      	bne.n	c20039c4 <_dtoa_r+0xbcc>
c2003aa0:	07df      	lsls	r7, r3, #31
c2003aa2:	d58f      	bpl.n	c20039c4 <_dtoa_r+0xbcc>
c2003aa4:	e78a      	b.n	c20039bc <_dtoa_r+0xbc4>
c2003aa6:	2102      	movs	r1, #2
c2003aa8:	f7ff bb14 	b.w	c20030d4 <_dtoa_r+0x2dc>
c2003aac:	9b00      	ldr	r3, [sp, #0]
c2003aae:	9309      	str	r3, [sp, #36]	; 0x24
c2003ab0:	e58a      	b.n	c20035c8 <_dtoa_r+0x7d0>
c2003ab2:	f647 5330 	movw	r3, #32048	; 0x7d30
c2003ab6:	f2cc 2300 	movt	r3, #49664	; 0xc200
c2003aba:	f647 5044 	movw	r0, #32068	; 0x7d44
c2003abe:	f2cc 2000 	movt	r0, #49664	; 0xc200
c2003ac2:	2200      	movs	r2, #0
c2003ac4:	f44f 71d5 	mov.w	r1, #426	; 0x1aa
c2003ac8:	f002 fe0e 	bl	c20066e8 <__assert_func>
c2003acc:	f43f ac26 	beq.w	c200331c <_dtoa_r+0x524>
c2003ad0:	f1c3 033c 	rsb	r3, r3, #60	; 0x3c
c2003ad4:	e41d      	b.n	c2003312 <_dtoa_r+0x51a>
c2003ad6:	f8dd a00c 	ldr.w	sl, [sp, #12]
c2003ada:	f8cd 900c 	str.w	r9, [sp, #12]
c2003ade:	e4e6      	b.n	c20034ae <_dtoa_r+0x6b6>
c2003ae0:	f647 5330 	movw	r3, #32048	; 0x7d30
c2003ae4:	f2cc 2300 	movt	r3, #49664	; 0xc200
c2003ae8:	f647 5044 	movw	r0, #32068	; 0x7d44
c2003aec:	f2cc 2000 	movt	r0, #49664	; 0xc200
c2003af0:	463a      	mov	r2, r7
c2003af2:	f240 21ea 	movw	r1, #746	; 0x2ea
c2003af6:	f002 fdf7 	bl	c20066e8 <__assert_func>
c2003afa:	2200      	movs	r2, #0
c2003afc:	f04f 3bff 	mov.w	fp, #4294967295	; 0xffffffff
c2003b00:	9206      	str	r2, [sp, #24]
c2003b02:	2201      	movs	r2, #1
c2003b04:	f8cd b02c 	str.w	fp, [sp, #44]	; 0x2c
c2003b08:	9208      	str	r2, [sp, #32]
c2003b0a:	f7ff bb9f 	b.w	c200324c <_dtoa_r+0x454>
c2003b0e:	bf00      	nop

c2003b10 <__sflush_r>:
c2003b10:	e92d 43f8 	stmdb	sp!, {r3, r4, r5, r6, r7, r8, r9, lr}
c2003b14:	460c      	mov	r4, r1
c2003b16:	898b      	ldrh	r3, [r1, #12]
c2003b18:	f9b1 200c 	ldrsh.w	r2, [r1, #12]
c2003b1c:	4681      	mov	r9, r0
c2003b1e:	0719      	lsls	r1, r3, #28
c2003b20:	d448      	bmi.n	c2003bb4 <__sflush_r+0xa4>
c2003b22:	6863      	ldr	r3, [r4, #4]
c2003b24:	f442 6200 	orr.w	r2, r2, #2048	; 0x800
c2003b28:	81a2      	strh	r2, [r4, #12]
c2003b2a:	2b00      	cmp	r3, #0
c2003b2c:	dd66      	ble.n	c2003bfc <__sflush_r+0xec>
c2003b2e:	6aa6      	ldr	r6, [r4, #40]	; 0x28
c2003b30:	2e00      	cmp	r6, #0
c2003b32:	d066      	beq.n	c2003c02 <__sflush_r+0xf2>
c2003b34:	f412 5580 	ands.w	r5, r2, #4096	; 0x1000
c2003b38:	f04f 0300 	mov.w	r3, #0
c2003b3c:	f8d9 8000 	ldr.w	r8, [r9]
c2003b40:	f8c9 3000 	str.w	r3, [r9]
c2003b44:	b293      	uxth	r3, r2
c2003b46:	bf18      	it	ne
c2003b48:	6d20      	ldrne	r0, [r4, #80]	; 0x50
c2003b4a:	d108      	bne.n	c2003b5e <__sflush_r+0x4e>
c2003b4c:	2301      	movs	r3, #1
c2003b4e:	69e1      	ldr	r1, [r4, #28]
c2003b50:	462a      	mov	r2, r5
c2003b52:	4648      	mov	r0, r9
c2003b54:	47b0      	blx	r6
c2003b56:	1c43      	adds	r3, r0, #1
c2003b58:	d074      	beq.n	c2003c44 <__sflush_r+0x134>
c2003b5a:	89a3      	ldrh	r3, [r4, #12]
c2003b5c:	6aa6      	ldr	r6, [r4, #40]	; 0x28
c2003b5e:	075f      	lsls	r7, r3, #29
c2003b60:	d505      	bpl.n	c2003b6e <__sflush_r+0x5e>
c2003b62:	6b23      	ldr	r3, [r4, #48]	; 0x30
c2003b64:	6862      	ldr	r2, [r4, #4]
c2003b66:	1a80      	subs	r0, r0, r2
c2003b68:	b10b      	cbz	r3, c2003b6e <__sflush_r+0x5e>
c2003b6a:	6be3      	ldr	r3, [r4, #60]	; 0x3c
c2003b6c:	1ac0      	subs	r0, r0, r3
c2003b6e:	4602      	mov	r2, r0
c2003b70:	69e1      	ldr	r1, [r4, #28]
c2003b72:	2300      	movs	r3, #0
c2003b74:	4648      	mov	r0, r9
c2003b76:	47b0      	blx	r6
c2003b78:	1c45      	adds	r5, r0, #1
c2003b7a:	d045      	beq.n	c2003c08 <__sflush_r+0xf8>
c2003b7c:	f9b4 300c 	ldrsh.w	r3, [r4, #12]
c2003b80:	6922      	ldr	r2, [r4, #16]
c2003b82:	f423 6300 	bic.w	r3, r3, #2048	; 0x800
c2003b86:	6022      	str	r2, [r4, #0]
c2003b88:	81a3      	strh	r3, [r4, #12]
c2003b8a:	2200      	movs	r2, #0
c2003b8c:	6062      	str	r2, [r4, #4]
c2003b8e:	04da      	lsls	r2, r3, #19
c2003b90:	d500      	bpl.n	c2003b94 <__sflush_r+0x84>
c2003b92:	6520      	str	r0, [r4, #80]	; 0x50
c2003b94:	6b21      	ldr	r1, [r4, #48]	; 0x30
c2003b96:	f8c9 8000 	str.w	r8, [r9]
c2003b9a:	2900      	cmp	r1, #0
c2003b9c:	d031      	beq.n	c2003c02 <__sflush_r+0xf2>
c2003b9e:	f104 0340 	add.w	r3, r4, #64	; 0x40
c2003ba2:	4299      	cmp	r1, r3
c2003ba4:	d002      	beq.n	c2003bac <__sflush_r+0x9c>
c2003ba6:	4648      	mov	r0, r9
c2003ba8:	f000 f97e 	bl	c2003ea8 <_free_r>
c2003bac:	2000      	movs	r0, #0
c2003bae:	6320      	str	r0, [r4, #48]	; 0x30
c2003bb0:	e8bd 83f8 	ldmia.w	sp!, {r3, r4, r5, r6, r7, r8, r9, pc}
c2003bb4:	6926      	ldr	r6, [r4, #16]
c2003bb6:	b326      	cbz	r6, c2003c02 <__sflush_r+0xf2>
c2003bb8:	0799      	lsls	r1, r3, #30
c2003bba:	6825      	ldr	r5, [r4, #0]
c2003bbc:	bf18      	it	ne
c2003bbe:	2300      	movne	r3, #0
c2003bc0:	6026      	str	r6, [r4, #0]
c2003bc2:	bf08      	it	eq
c2003bc4:	6963      	ldreq	r3, [r4, #20]
c2003bc6:	1bad      	subs	r5, r5, r6
c2003bc8:	2d00      	cmp	r5, #0
c2003bca:	60a3      	str	r3, [r4, #8]
c2003bcc:	dc05      	bgt.n	c2003bda <__sflush_r+0xca>
c2003bce:	e018      	b.n	c2003c02 <__sflush_r+0xf2>
c2003bd0:	eba5 050c 	sub.w	r5, r5, ip
c2003bd4:	4466      	add	r6, ip
c2003bd6:	2d00      	cmp	r5, #0
c2003bd8:	dd13      	ble.n	c2003c02 <__sflush_r+0xf2>
c2003bda:	69e1      	ldr	r1, [r4, #28]
c2003bdc:	462b      	mov	r3, r5
c2003bde:	6a67      	ldr	r7, [r4, #36]	; 0x24
c2003be0:	4632      	mov	r2, r6
c2003be2:	4648      	mov	r0, r9
c2003be4:	47b8      	blx	r7
c2003be6:	f1b0 0c00 	subs.w	ip, r0, #0
c2003bea:	dcf1      	bgt.n	c2003bd0 <__sflush_r+0xc0>
c2003bec:	89a3      	ldrh	r3, [r4, #12]
c2003bee:	f04f 30ff 	mov.w	r0, #4294967295	; 0xffffffff
c2003bf2:	f043 0340 	orr.w	r3, r3, #64	; 0x40
c2003bf6:	81a3      	strh	r3, [r4, #12]
c2003bf8:	e8bd 83f8 	ldmia.w	sp!, {r3, r4, r5, r6, r7, r8, r9, pc}
c2003bfc:	6be3      	ldr	r3, [r4, #60]	; 0x3c
c2003bfe:	2b00      	cmp	r3, #0
c2003c00:	dc95      	bgt.n	c2003b2e <__sflush_r+0x1e>
c2003c02:	2000      	movs	r0, #0
c2003c04:	e8bd 83f8 	ldmia.w	sp!, {r3, r4, r5, r6, r7, r8, r9, pc}
c2003c08:	f8d9 2000 	ldr.w	r2, [r9]
c2003c0c:	2a1d      	cmp	r2, #29
c2003c0e:	d904      	bls.n	c2003c1a <__sflush_r+0x10a>
c2003c10:	89a3      	ldrh	r3, [r4, #12]
c2003c12:	f043 0340 	orr.w	r3, r3, #64	; 0x40
c2003c16:	81a3      	strh	r3, [r4, #12]
c2003c18:	e7f4      	b.n	c2003c04 <__sflush_r+0xf4>
c2003c1a:	2301      	movs	r3, #1
c2003c1c:	f2c2 0340 	movt	r3, #8256	; 0x2040
c2003c20:	40d3      	lsrs	r3, r2
c2003c22:	43db      	mvns	r3, r3
c2003c24:	f013 0301 	ands.w	r3, r3, #1
c2003c28:	d1f2      	bne.n	c2003c10 <__sflush_r+0x100>
c2003c2a:	6063      	str	r3, [r4, #4]
c2003c2c:	f9b4 300c 	ldrsh.w	r3, [r4, #12]
c2003c30:	6921      	ldr	r1, [r4, #16]
c2003c32:	f423 6300 	bic.w	r3, r3, #2048	; 0x800
c2003c36:	6021      	str	r1, [r4, #0]
c2003c38:	81a3      	strh	r3, [r4, #12]
c2003c3a:	04db      	lsls	r3, r3, #19
c2003c3c:	d5aa      	bpl.n	c2003b94 <__sflush_r+0x84>
c2003c3e:	2a00      	cmp	r2, #0
c2003c40:	d1a8      	bne.n	c2003b94 <__sflush_r+0x84>
c2003c42:	e7a6      	b.n	c2003b92 <__sflush_r+0x82>
c2003c44:	f8d9 3000 	ldr.w	r3, [r9]
c2003c48:	2b00      	cmp	r3, #0
c2003c4a:	d086      	beq.n	c2003b5a <__sflush_r+0x4a>
c2003c4c:	2b16      	cmp	r3, #22
c2003c4e:	bf18      	it	ne
c2003c50:	2b1d      	cmpne	r3, #29
c2003c52:	bf04      	itt	eq
c2003c54:	f8c9 8000 	streq.w	r8, [r9]
c2003c58:	4628      	moveq	r0, r5
c2003c5a:	d0d3      	beq.n	c2003c04 <__sflush_r+0xf4>
c2003c5c:	e7d8      	b.n	c2003c10 <__sflush_r+0x100>
c2003c5e:	bf00      	nop

c2003c60 <_fflush_r>:
c2003c60:	b538      	push	{r3, r4, r5, lr}
c2003c62:	460c      	mov	r4, r1
c2003c64:	4605      	mov	r5, r0
c2003c66:	b108      	cbz	r0, c2003c6c <_fflush_r+0xc>
c2003c68:	6b83      	ldr	r3, [r0, #56]	; 0x38
c2003c6a:	b1a3      	cbz	r3, c2003c96 <_fflush_r+0x36>
c2003c6c:	f9b4 000c 	ldrsh.w	r0, [r4, #12]
c2003c70:	b1b8      	cbz	r0, c2003ca2 <_fflush_r+0x42>
c2003c72:	6e63      	ldr	r3, [r4, #100]	; 0x64
c2003c74:	07db      	lsls	r3, r3, #31
c2003c76:	d401      	bmi.n	c2003c7c <_fflush_r+0x1c>
c2003c78:	0581      	lsls	r1, r0, #22
c2003c7a:	d515      	bpl.n	c2003ca8 <_fflush_r+0x48>
c2003c7c:	4628      	mov	r0, r5
c2003c7e:	4621      	mov	r1, r4
c2003c80:	f7ff ff46 	bl	c2003b10 <__sflush_r>
c2003c84:	6e63      	ldr	r3, [r4, #100]	; 0x64
c2003c86:	4605      	mov	r5, r0
c2003c88:	07da      	lsls	r2, r3, #31
c2003c8a:	d402      	bmi.n	c2003c92 <_fflush_r+0x32>
c2003c8c:	89a3      	ldrh	r3, [r4, #12]
c2003c8e:	059b      	lsls	r3, r3, #22
c2003c90:	d50e      	bpl.n	c2003cb0 <_fflush_r+0x50>
c2003c92:	4628      	mov	r0, r5
c2003c94:	bd38      	pop	{r3, r4, r5, pc}
c2003c96:	f000 f817 	bl	c2003cc8 <__sinit>
c2003c9a:	f9b4 000c 	ldrsh.w	r0, [r4, #12]
c2003c9e:	2800      	cmp	r0, #0
c2003ca0:	d1e7      	bne.n	c2003c72 <_fflush_r+0x12>
c2003ca2:	4605      	mov	r5, r0
c2003ca4:	4628      	mov	r0, r5
c2003ca6:	bd38      	pop	{r3, r4, r5, pc}
c2003ca8:	6da0      	ldr	r0, [r4, #88]	; 0x58
c2003caa:	f000 fa33 	bl	c2004114 <__retarget_lock_acquire_recursive>
c2003cae:	e7e5      	b.n	c2003c7c <_fflush_r+0x1c>
c2003cb0:	6da0      	ldr	r0, [r4, #88]	; 0x58
c2003cb2:	f000 fa31 	bl	c2004118 <__retarget_lock_release_recursive>
c2003cb6:	4628      	mov	r0, r5
c2003cb8:	bd38      	pop	{r3, r4, r5, pc}
c2003cba:	bf00      	nop

c2003cbc <_cleanup_r>:
c2003cbc:	f246 71d9 	movw	r1, #26585	; 0x67d9
c2003cc0:	f2cc 2100 	movt	r1, #49664	; 0xc200
c2003cc4:	f000 b9fe 	b.w	c20040c4 <_fwalk_reent>

c2003cc8 <__sinit>:
c2003cc8:	e92d 47f0 	stmdb	sp!, {r4, r5, r6, r7, r8, r9, sl, lr}
c2003ccc:	4606      	mov	r6, r0
c2003cce:	f648 7010 	movw	r0, #36624	; 0x8f10
c2003cd2:	f2cc 2000 	movt	r0, #49664	; 0xc200
c2003cd6:	f000 fa1d 	bl	c2004114 <__retarget_lock_acquire_recursive>
c2003cda:	6bb4      	ldr	r4, [r6, #56]	; 0x38
c2003cdc:	2c00      	cmp	r4, #0
c2003cde:	d179      	bne.n	c2003dd4 <__sinit+0x10c>
c2003ce0:	6875      	ldr	r5, [r6, #4]
c2003ce2:	4621      	mov	r1, r4
c2003ce4:	f8c6 42e0 	str.w	r4, [r6, #736]	; 0x2e0
c2003ce8:	2208      	movs	r2, #8
c2003cea:	2303      	movs	r3, #3
c2003cec:	f105 005c 	add.w	r0, r5, #92	; 0x5c
c2003cf0:	f8c6 32e4 	str.w	r3, [r6, #740]	; 0x2e4
c2003cf4:	f643 43bd 	movw	r3, #15549	; 0x3cbd
c2003cf8:	f2cc 2300 	movt	r3, #49664	; 0xc200
c2003cfc:	63f3      	str	r3, [r6, #60]	; 0x3c
c2003cfe:	f506 733b 	add.w	r3, r6, #748	; 0x2ec
c2003d02:	f8c6 32e8 	str.w	r3, [r6, #744]	; 0x2e8
c2003d06:	2304      	movs	r3, #4
c2003d08:	666c      	str	r4, [r5, #100]	; 0x64
c2003d0a:	60eb      	str	r3, [r5, #12]
c2003d0c:	f245 6a29 	movw	sl, #22057	; 0x5629
c2003d10:	f2cc 2a00 	movt	sl, #49664	; 0xc200
c2003d14:	e9c5 4400 	strd	r4, r4, [r5]
c2003d18:	60ac      	str	r4, [r5, #8]
c2003d1a:	f245 694d 	movw	r9, #22093	; 0x564d
c2003d1e:	f2cc 2900 	movt	r9, #49664	; 0xc200
c2003d22:	e9c5 4404 	strd	r4, r4, [r5, #16]
c2003d26:	61ac      	str	r4, [r5, #24]
c2003d28:	f245 688d 	movw	r8, #22157	; 0x568d
c2003d2c:	f2cc 2800 	movt	r8, #49664	; 0xc200
c2003d30:	f7fd f954 	bl	c2000fdc <memset>
c2003d34:	f245 67ad 	movw	r7, #22189	; 0x56ad
c2003d38:	f2cc 2700 	movt	r7, #49664	; 0xc200
c2003d3c:	f105 0058 	add.w	r0, r5, #88	; 0x58
c2003d40:	e9c5 5a07 	strd	r5, sl, [r5, #28]
c2003d44:	f8c5 9024 	str.w	r9, [r5, #36]	; 0x24
c2003d48:	f8c5 8028 	str.w	r8, [r5, #40]	; 0x28
c2003d4c:	62ef      	str	r7, [r5, #44]	; 0x2c
c2003d4e:	f000 f9dd 	bl	c200410c <__retarget_lock_init_recursive>
c2003d52:	68b5      	ldr	r5, [r6, #8]
c2003d54:	4621      	mov	r1, r4
c2003d56:	2208      	movs	r2, #8
c2003d58:	f105 005c 	add.w	r0, r5, #92	; 0x5c
c2003d5c:	2309      	movs	r3, #9
c2003d5e:	f2c0 0301 	movt	r3, #1
c2003d62:	666c      	str	r4, [r5, #100]	; 0x64
c2003d64:	60eb      	str	r3, [r5, #12]
c2003d66:	e9c5 4400 	strd	r4, r4, [r5]
c2003d6a:	60ac      	str	r4, [r5, #8]
c2003d6c:	e9c5 4404 	strd	r4, r4, [r5, #16]
c2003d70:	61ac      	str	r4, [r5, #24]
c2003d72:	f7fd f933 	bl	c2000fdc <memset>
c2003d76:	f105 0058 	add.w	r0, r5, #88	; 0x58
c2003d7a:	e9c5 5a07 	strd	r5, sl, [r5, #28]
c2003d7e:	e9c5 9809 	strd	r9, r8, [r5, #36]	; 0x24
c2003d82:	62ef      	str	r7, [r5, #44]	; 0x2c
c2003d84:	f000 f9c2 	bl	c200410c <__retarget_lock_init_recursive>
c2003d88:	68f5      	ldr	r5, [r6, #12]
c2003d8a:	4621      	mov	r1, r4
c2003d8c:	2208      	movs	r2, #8
c2003d8e:	f105 005c 	add.w	r0, r5, #92	; 0x5c
c2003d92:	2312      	movs	r3, #18
c2003d94:	f2c0 0302 	movt	r3, #2
c2003d98:	666c      	str	r4, [r5, #100]	; 0x64
c2003d9a:	60eb      	str	r3, [r5, #12]
c2003d9c:	e9c5 4400 	strd	r4, r4, [r5]
c2003da0:	60ac      	str	r4, [r5, #8]
c2003da2:	e9c5 4404 	strd	r4, r4, [r5, #16]
c2003da6:	61ac      	str	r4, [r5, #24]
c2003da8:	f7fd f918 	bl	c2000fdc <memset>
c2003dac:	f105 0058 	add.w	r0, r5, #88	; 0x58
c2003db0:	e9c5 5a07 	strd	r5, sl, [r5, #28]
c2003db4:	f8c5 9024 	str.w	r9, [r5, #36]	; 0x24
c2003db8:	e9c5 870a 	strd	r8, r7, [r5, #40]	; 0x28
c2003dbc:	f000 f9a6 	bl	c200410c <__retarget_lock_init_recursive>
c2003dc0:	2301      	movs	r3, #1
c2003dc2:	f648 7010 	movw	r0, #36624	; 0x8f10
c2003dc6:	f2cc 2000 	movt	r0, #49664	; 0xc200
c2003dca:	63b3      	str	r3, [r6, #56]	; 0x38
c2003dcc:	e8bd 47f0 	ldmia.w	sp!, {r4, r5, r6, r7, r8, r9, sl, lr}
c2003dd0:	f000 b9a2 	b.w	c2004118 <__retarget_lock_release_recursive>
c2003dd4:	f648 7010 	movw	r0, #36624	; 0x8f10
c2003dd8:	f2cc 2000 	movt	r0, #49664	; 0xc200
c2003ddc:	e8bd 47f0 	ldmia.w	sp!, {r4, r5, r6, r7, r8, r9, sl, lr}
c2003de0:	f000 b99a 	b.w	c2004118 <__retarget_lock_release_recursive>

c2003de4 <__sfp_lock_acquire>:
c2003de4:	f648 700c 	movw	r0, #36620	; 0x8f0c
c2003de8:	f2cc 2000 	movt	r0, #49664	; 0xc200
c2003dec:	f000 b992 	b.w	c2004114 <__retarget_lock_acquire_recursive>

c2003df0 <__sfp_lock_release>:
c2003df0:	f648 700c 	movw	r0, #36620	; 0x8f0c
c2003df4:	f2cc 2000 	movt	r0, #49664	; 0xc200
c2003df8:	f000 b98e 	b.w	c2004118 <__retarget_lock_release_recursive>

c2003dfc <_malloc_trim_r>:
c2003dfc:	b5f8      	push	{r3, r4, r5, r6, r7, lr}
c2003dfe:	f248 5730 	movw	r7, #34096	; 0x8530
c2003e02:	f2cc 2700 	movt	r7, #49664	; 0xc200
c2003e06:	460c      	mov	r4, r1
c2003e08:	4606      	mov	r6, r0
c2003e0a:	f000 ffe9 	bl	c2004de0 <__malloc_lock>
c2003e0e:	f5c4 637e 	rsb	r3, r4, #4064	; 0xfe0
c2003e12:	68ba      	ldr	r2, [r7, #8]
c2003e14:	330f      	adds	r3, #15
c2003e16:	6855      	ldr	r5, [r2, #4]
c2003e18:	f025 0503 	bic.w	r5, r5, #3
c2003e1c:	442b      	add	r3, r5
c2003e1e:	f423 637f 	bic.w	r3, r3, #4080	; 0xff0
c2003e22:	f023 030f 	bic.w	r3, r3, #15
c2003e26:	f5a3 5480 	sub.w	r4, r3, #4096	; 0x1000
c2003e2a:	f5b4 5f80 	cmp.w	r4, #4096	; 0x1000
c2003e2e:	db07      	blt.n	c2003e40 <_malloc_trim_r+0x44>
c2003e30:	2100      	movs	r1, #0
c2003e32:	4630      	mov	r0, r6
c2003e34:	f001 fbe4 	bl	c2005600 <_sbrk_r>
c2003e38:	68bb      	ldr	r3, [r7, #8]
c2003e3a:	442b      	add	r3, r5
c2003e3c:	4298      	cmp	r0, r3
c2003e3e:	d004      	beq.n	c2003e4a <_malloc_trim_r+0x4e>
c2003e40:	4630      	mov	r0, r6
c2003e42:	f000 ffd3 	bl	c2004dec <__malloc_unlock>
c2003e46:	2000      	movs	r0, #0
c2003e48:	bdf8      	pop	{r3, r4, r5, r6, r7, pc}
c2003e4a:	4261      	negs	r1, r4
c2003e4c:	4630      	mov	r0, r6
c2003e4e:	f001 fbd7 	bl	c2005600 <_sbrk_r>
c2003e52:	3001      	adds	r0, #1
c2003e54:	d010      	beq.n	c2003e78 <_malloc_trim_r+0x7c>
c2003e56:	68bb      	ldr	r3, [r7, #8]
c2003e58:	f648 7214 	movw	r2, #36628	; 0x8f14
c2003e5c:	f2cc 2200 	movt	r2, #49664	; 0xc200
c2003e60:	1b2d      	subs	r5, r5, r4
c2003e62:	f045 0501 	orr.w	r5, r5, #1
c2003e66:	4630      	mov	r0, r6
c2003e68:	605d      	str	r5, [r3, #4]
c2003e6a:	6813      	ldr	r3, [r2, #0]
c2003e6c:	1b1b      	subs	r3, r3, r4
c2003e6e:	6013      	str	r3, [r2, #0]
c2003e70:	f000 ffbc 	bl	c2004dec <__malloc_unlock>
c2003e74:	2001      	movs	r0, #1
c2003e76:	bdf8      	pop	{r3, r4, r5, r6, r7, pc}
c2003e78:	2100      	movs	r1, #0
c2003e7a:	4630      	mov	r0, r6
c2003e7c:	f001 fbc0 	bl	c2005600 <_sbrk_r>
c2003e80:	68ba      	ldr	r2, [r7, #8]
c2003e82:	1a83      	subs	r3, r0, r2
c2003e84:	2b0f      	cmp	r3, #15
c2003e86:	dddb      	ble.n	c2003e40 <_malloc_trim_r+0x44>
c2003e88:	f043 0301 	orr.w	r3, r3, #1
c2003e8c:	6053      	str	r3, [r2, #4]
c2003e8e:	f648 1338 	movw	r3, #35128	; 0x8938
c2003e92:	f2cc 2300 	movt	r3, #49664	; 0xc200
c2003e96:	f648 7114 	movw	r1, #36628	; 0x8f14
c2003e9a:	f2cc 2100 	movt	r1, #49664	; 0xc200
c2003e9e:	681b      	ldr	r3, [r3, #0]
c2003ea0:	1ac0      	subs	r0, r0, r3
c2003ea2:	6008      	str	r0, [r1, #0]
c2003ea4:	e7cc      	b.n	c2003e40 <_malloc_trim_r+0x44>
c2003ea6:	bf00      	nop

c2003ea8 <_free_r>:
c2003ea8:	2900      	cmp	r1, #0
c2003eaa:	d066      	beq.n	c2003f7a <_free_r+0xd2>
c2003eac:	b5f8      	push	{r3, r4, r5, r6, r7, lr}
c2003eae:	460c      	mov	r4, r1
c2003eb0:	4606      	mov	r6, r0
c2003eb2:	f000 ff95 	bl	c2004de0 <__malloc_lock>
c2003eb6:	f1a4 0508 	sub.w	r5, r4, #8
c2003eba:	f854 2c04 	ldr.w	r2, [r4, #-4]
c2003ebe:	f248 5c30 	movw	ip, #34096	; 0x8530
c2003ec2:	f2cc 2c00 	movt	ip, #49664	; 0xc200
c2003ec6:	f022 0101 	bic.w	r1, r2, #1
c2003eca:	eb05 0e01 	add.w	lr, r5, r1
c2003ece:	f8dc 0008 	ldr.w	r0, [ip, #8]
c2003ed2:	f8de 3004 	ldr.w	r3, [lr, #4]
c2003ed6:	4570      	cmp	r0, lr
c2003ed8:	f023 0303 	bic.w	r3, r3, #3
c2003edc:	f000 8093 	beq.w	c2004006 <_free_r+0x15e>
c2003ee0:	f8ce 3004 	str.w	r3, [lr, #4]
c2003ee4:	07d7      	lsls	r7, r2, #31
c2003ee6:	d432      	bmi.n	c2003f4e <_free_r+0xa6>
c2003ee8:	f854 2c08 	ldr.w	r2, [r4, #-8]
c2003eec:	f10c 0008 	add.w	r0, ip, #8
c2003ef0:	1aad      	subs	r5, r5, r2
c2003ef2:	4411      	add	r1, r2
c2003ef4:	68aa      	ldr	r2, [r5, #8]
c2003ef6:	4282      	cmp	r2, r0
c2003ef8:	d06c      	beq.n	c2003fd4 <_free_r+0x12c>
c2003efa:	eb0e 0403 	add.w	r4, lr, r3
c2003efe:	6867      	ldr	r7, [r4, #4]
c2003f00:	68ec      	ldr	r4, [r5, #12]
c2003f02:	60d4      	str	r4, [r2, #12]
c2003f04:	60a2      	str	r2, [r4, #8]
c2003f06:	07fc      	lsls	r4, r7, #31
c2003f08:	f140 80a8 	bpl.w	c200405c <_free_r+0x1b4>
c2003f0c:	f041 0301 	orr.w	r3, r1, #1
c2003f10:	606b      	str	r3, [r5, #4]
c2003f12:	f8ce 1000 	str.w	r1, [lr]
c2003f16:	f5b1 7f00 	cmp.w	r1, #512	; 0x200
c2003f1a:	d238      	bcs.n	c2003f8e <_free_r+0xe6>
c2003f1c:	094a      	lsrs	r2, r1, #5
c2003f1e:	08cb      	lsrs	r3, r1, #3
c2003f20:	2101      	movs	r1, #1
c2003f22:	3301      	adds	r3, #1
c2003f24:	4091      	lsls	r1, r2
c2003f26:	f8dc 2004 	ldr.w	r2, [ip, #4]
c2003f2a:	4311      	orrs	r1, r2
c2003f2c:	f8cc 1004 	str.w	r1, [ip, #4]
c2003f30:	f85c 1033 	ldr.w	r1, [ip, r3, lsl #3]
c2003f34:	eb0c 02c3 	add.w	r2, ip, r3, lsl #3
c2003f38:	3a08      	subs	r2, #8
c2003f3a:	e9c5 1202 	strd	r1, r2, [r5, #8]
c2003f3e:	f84c 5033 	str.w	r5, [ip, r3, lsl #3]
c2003f42:	60cd      	str	r5, [r1, #12]
c2003f44:	4630      	mov	r0, r6
c2003f46:	e8bd 40f8 	ldmia.w	sp!, {r3, r4, r5, r6, r7, lr}
c2003f4a:	f000 bf4f 	b.w	c2004dec <__malloc_unlock>
c2003f4e:	eb0e 0203 	add.w	r2, lr, r3
c2003f52:	6852      	ldr	r2, [r2, #4]
c2003f54:	07d0      	lsls	r0, r2, #31
c2003f56:	d411      	bmi.n	c2003f7c <_free_r+0xd4>
c2003f58:	4419      	add	r1, r3
c2003f5a:	f10c 0008 	add.w	r0, ip, #8
c2003f5e:	f8de 3008 	ldr.w	r3, [lr, #8]
c2003f62:	4283      	cmp	r3, r0
c2003f64:	f000 808c 	beq.w	c2004080 <_free_r+0x1d8>
c2003f68:	f8de 200c 	ldr.w	r2, [lr, #12]
c2003f6c:	60da      	str	r2, [r3, #12]
c2003f6e:	6093      	str	r3, [r2, #8]
c2003f70:	f041 0301 	orr.w	r3, r1, #1
c2003f74:	606b      	str	r3, [r5, #4]
c2003f76:	5069      	str	r1, [r5, r1]
c2003f78:	e7cd      	b.n	c2003f16 <_free_r+0x6e>
c2003f7a:	4770      	bx	lr
c2003f7c:	f041 0301 	orr.w	r3, r1, #1
c2003f80:	f5b1 7f00 	cmp.w	r1, #512	; 0x200
c2003f84:	f844 3c04 	str.w	r3, [r4, #-4]
c2003f88:	f8ce 1000 	str.w	r1, [lr]
c2003f8c:	d3c6      	bcc.n	c2003f1c <_free_r+0x74>
c2003f8e:	0a4b      	lsrs	r3, r1, #9
c2003f90:	f5b1 6f20 	cmp.w	r1, #2560	; 0xa00
c2003f94:	d257      	bcs.n	c2004046 <_free_r+0x19e>
c2003f96:	098b      	lsrs	r3, r1, #6
c2003f98:	f103 0039 	add.w	r0, r3, #57	; 0x39
c2003f9c:	f103 0238 	add.w	r2, r3, #56	; 0x38
c2003fa0:	00c3      	lsls	r3, r0, #3
c2003fa2:	eb0c 0003 	add.w	r0, ip, r3
c2003fa6:	f85c 3003 	ldr.w	r3, [ip, r3]
c2003faa:	3808      	subs	r0, #8
c2003fac:	4298      	cmp	r0, r3
c2003fae:	d05d      	beq.n	c200406c <_free_r+0x1c4>
c2003fb0:	685a      	ldr	r2, [r3, #4]
c2003fb2:	f022 0203 	bic.w	r2, r2, #3
c2003fb6:	428a      	cmp	r2, r1
c2003fb8:	d902      	bls.n	c2003fc0 <_free_r+0x118>
c2003fba:	689b      	ldr	r3, [r3, #8]
c2003fbc:	4298      	cmp	r0, r3
c2003fbe:	d1f7      	bne.n	c2003fb0 <_free_r+0x108>
c2003fc0:	68d8      	ldr	r0, [r3, #12]
c2003fc2:	e9c5 3002 	strd	r3, r0, [r5, #8]
c2003fc6:	6085      	str	r5, [r0, #8]
c2003fc8:	4630      	mov	r0, r6
c2003fca:	60dd      	str	r5, [r3, #12]
c2003fcc:	e8bd 40f8 	ldmia.w	sp!, {r3, r4, r5, r6, r7, lr}
c2003fd0:	f000 bf0c 	b.w	c2004dec <__malloc_unlock>
c2003fd4:	eb0e 0203 	add.w	r2, lr, r3
c2003fd8:	6852      	ldr	r2, [r2, #4]
c2003fda:	07d2      	lsls	r2, r2, #31
c2003fdc:	bf42      	ittt	mi
c2003fde:	f041 0301 	orrmi.w	r3, r1, #1
c2003fe2:	606b      	strmi	r3, [r5, #4]
c2003fe4:	f8ce 1000 	strmi.w	r1, [lr]
c2003fe8:	d4ac      	bmi.n	c2003f44 <_free_r+0x9c>
c2003fea:	440b      	add	r3, r1
c2003fec:	4630      	mov	r0, r6
c2003fee:	e9de 1202 	ldrd	r1, r2, [lr, #8]
c2003ff2:	60ca      	str	r2, [r1, #12]
c2003ff4:	6091      	str	r1, [r2, #8]
c2003ff6:	f043 0201 	orr.w	r2, r3, #1
c2003ffa:	606a      	str	r2, [r5, #4]
c2003ffc:	50eb      	str	r3, [r5, r3]
c2003ffe:	e8bd 40f8 	ldmia.w	sp!, {r3, r4, r5, r6, r7, lr}
c2004002:	f000 bef3 	b.w	c2004dec <__malloc_unlock>
c2004006:	440b      	add	r3, r1
c2004008:	07d2      	lsls	r2, r2, #31
c200400a:	d407      	bmi.n	c200401c <_free_r+0x174>
c200400c:	f854 2c08 	ldr.w	r2, [r4, #-8]
c2004010:	1aad      	subs	r5, r5, r2
c2004012:	4413      	add	r3, r2
c2004014:	e9d5 1202 	ldrd	r1, r2, [r5, #8]
c2004018:	60ca      	str	r2, [r1, #12]
c200401a:	6091      	str	r1, [r2, #8]
c200401c:	f043 0201 	orr.w	r2, r3, #1
c2004020:	606a      	str	r2, [r5, #4]
c2004022:	f648 123c 	movw	r2, #35132	; 0x893c
c2004026:	f2cc 2200 	movt	r2, #49664	; 0xc200
c200402a:	f8cc 5008 	str.w	r5, [ip, #8]
c200402e:	6812      	ldr	r2, [r2, #0]
c2004030:	429a      	cmp	r2, r3
c2004032:	d887      	bhi.n	c2003f44 <_free_r+0x9c>
c2004034:	f648 7344 	movw	r3, #36676	; 0x8f44
c2004038:	f2cc 2300 	movt	r3, #49664	; 0xc200
c200403c:	4630      	mov	r0, r6
c200403e:	6819      	ldr	r1, [r3, #0]
c2004040:	f7ff fedc 	bl	c2003dfc <_malloc_trim_r>
c2004044:	e77e      	b.n	c2003f44 <_free_r+0x9c>
c2004046:	2b14      	cmp	r3, #20
c2004048:	d90a      	bls.n	c2004060 <_free_r+0x1b8>
c200404a:	2b54      	cmp	r3, #84	; 0x54
c200404c:	d821      	bhi.n	c2004092 <_free_r+0x1ea>
c200404e:	0b0b      	lsrs	r3, r1, #12
c2004050:	f103 006f 	add.w	r0, r3, #111	; 0x6f
c2004054:	f103 026e 	add.w	r2, r3, #110	; 0x6e
c2004058:	00c3      	lsls	r3, r0, #3
c200405a:	e7a2      	b.n	c2003fa2 <_free_r+0xfa>
c200405c:	4419      	add	r1, r3
c200405e:	e77e      	b.n	c2003f5e <_free_r+0xb6>
c2004060:	f103 005c 	add.w	r0, r3, #92	; 0x5c
c2004064:	f103 025b 	add.w	r2, r3, #91	; 0x5b
c2004068:	00c3      	lsls	r3, r0, #3
c200406a:	e79a      	b.n	c2003fa2 <_free_r+0xfa>
c200406c:	2101      	movs	r1, #1
c200406e:	1092      	asrs	r2, r2, #2
c2004070:	fa01 f202 	lsl.w	r2, r1, r2
c2004074:	f8dc 1004 	ldr.w	r1, [ip, #4]
c2004078:	430a      	orrs	r2, r1
c200407a:	f8cc 2004 	str.w	r2, [ip, #4]
c200407e:	e7a0      	b.n	c2003fc2 <_free_r+0x11a>
c2004080:	e9cc 5504 	strd	r5, r5, [ip, #16]
c2004084:	f041 0301 	orr.w	r3, r1, #1
c2004088:	e9c5 0002 	strd	r0, r0, [r5, #8]
c200408c:	606b      	str	r3, [r5, #4]
c200408e:	5069      	str	r1, [r5, r1]
c2004090:	e758      	b.n	c2003f44 <_free_r+0x9c>
c2004092:	f5b3 7faa 	cmp.w	r3, #340	; 0x154
c2004096:	d806      	bhi.n	c20040a6 <_free_r+0x1fe>
c2004098:	0bcb      	lsrs	r3, r1, #15
c200409a:	f103 0078 	add.w	r0, r3, #120	; 0x78
c200409e:	f103 0277 	add.w	r2, r3, #119	; 0x77
c20040a2:	00c3      	lsls	r3, r0, #3
c20040a4:	e77d      	b.n	c2003fa2 <_free_r+0xfa>
c20040a6:	f240 5254 	movw	r2, #1364	; 0x554
c20040aa:	4293      	cmp	r3, r2
c20040ac:	bf97      	itett	ls
c20040ae:	0c8b      	lsrls	r3, r1, #18
c20040b0:	f44f 737e 	movhi.w	r3, #1016	; 0x3f8
c20040b4:	f103 007d 	addls.w	r0, r3, #125	; 0x7d
c20040b8:	f103 027c 	addls.w	r2, r3, #124	; 0x7c
c20040bc:	bf8c      	ite	hi
c20040be:	227e      	movhi	r2, #126	; 0x7e
c20040c0:	00c3      	lslls	r3, r0, #3
c20040c2:	e76e      	b.n	c2003fa2 <_free_r+0xfa>

c20040c4 <_fwalk_reent>:
c20040c4:	e92d 43f8 	stmdb	sp!, {r3, r4, r5, r6, r7, r8, r9, lr}
c20040c8:	4681      	mov	r9, r0
c20040ca:	4688      	mov	r8, r1
c20040cc:	f500 7738 	add.w	r7, r0, #736	; 0x2e0
c20040d0:	2600      	movs	r6, #0
c20040d2:	e9d7 5401 	ldrd	r5, r4, [r7, #4]
c20040d6:	3d01      	subs	r5, #1
c20040d8:	d40e      	bmi.n	c20040f8 <_fwalk_reent+0x34>
c20040da:	89a3      	ldrh	r3, [r4, #12]
c20040dc:	3d01      	subs	r5, #1
c20040de:	2b01      	cmp	r3, #1
c20040e0:	d907      	bls.n	c20040f2 <_fwalk_reent+0x2e>
c20040e2:	f9b4 300e 	ldrsh.w	r3, [r4, #14]
c20040e6:	4621      	mov	r1, r4
c20040e8:	4648      	mov	r0, r9
c20040ea:	3301      	adds	r3, #1
c20040ec:	d001      	beq.n	c20040f2 <_fwalk_reent+0x2e>
c20040ee:	47c0      	blx	r8
c20040f0:	4306      	orrs	r6, r0
c20040f2:	3468      	adds	r4, #104	; 0x68
c20040f4:	1c6b      	adds	r3, r5, #1
c20040f6:	d1f0      	bne.n	c20040da <_fwalk_reent+0x16>
c20040f8:	683f      	ldr	r7, [r7, #0]
c20040fa:	2f00      	cmp	r7, #0
c20040fc:	d1e9      	bne.n	c20040d2 <_fwalk_reent+0xe>
c20040fe:	4630      	mov	r0, r6
c2004100:	e8bd 83f8 	ldmia.w	sp!, {r3, r4, r5, r6, r7, r8, r9, pc}

c2004104 <_localeconv_r>:
c2004104:	4800      	ldr	r0, [pc, #0]	; (c2004108 <_localeconv_r+0x4>)
c2004106:	4770      	bx	lr
c2004108:	c2008a30 	andgt	r8, r0, #48, 20	; 0x30000

c200410c <__retarget_lock_init_recursive>:
c200410c:	4770      	bx	lr
c200410e:	bf00      	nop

c2004110 <__retarget_lock_close_recursive>:
c2004110:	4770      	bx	lr
c2004112:	bf00      	nop

c2004114 <__retarget_lock_acquire_recursive>:
c2004114:	4770      	bx	lr
c2004116:	bf00      	nop

c2004118 <__retarget_lock_release_recursive>:
c2004118:	4770      	bx	lr
c200411a:	bf00      	nop

c200411c <__smakebuf_r>:
c200411c:	898b      	ldrh	r3, [r1, #12]
c200411e:	e92d 41f0 	stmdb	sp!, {r4, r5, r6, r7, r8, lr}
c2004122:	460c      	mov	r4, r1
c2004124:	b096      	sub	sp, #88	; 0x58
c2004126:	0799      	lsls	r1, r3, #30
c2004128:	d508      	bpl.n	c200413c <__smakebuf_r+0x20>
c200412a:	f104 0343 	add.w	r3, r4, #67	; 0x43
c200412e:	2201      	movs	r2, #1
c2004130:	6023      	str	r3, [r4, #0]
c2004132:	e9c4 3204 	strd	r3, r2, [r4, #16]
c2004136:	b016      	add	sp, #88	; 0x58
c2004138:	e8bd 81f0 	ldmia.w	sp!, {r4, r5, r6, r7, r8, pc}
c200413c:	f9b4 100e 	ldrsh.w	r1, [r4, #14]
c2004140:	4606      	mov	r6, r0
c2004142:	2900      	cmp	r1, #0
c2004144:	db2a      	blt.n	c200419c <__smakebuf_r+0x80>
c2004146:	466a      	mov	r2, sp
c2004148:	f002 fc4e 	bl	c20069e8 <_fstat_r>
c200414c:	2800      	cmp	r0, #0
c200414e:	db24      	blt.n	c200419a <__smakebuf_r+0x7e>
c2004150:	9d01      	ldr	r5, [sp, #4]
c2004152:	f44f 6880 	mov.w	r8, #1024	; 0x400
c2004156:	f44f 6700 	mov.w	r7, #2048	; 0x800
c200415a:	f405 4570 	and.w	r5, r5, #61440	; 0xf000
c200415e:	f5a5 5500 	sub.w	r5, r5, #8192	; 0x2000
c2004162:	fab5 f585 	clz	r5, r5
c2004166:	096d      	lsrs	r5, r5, #5
c2004168:	4641      	mov	r1, r8
c200416a:	4630      	mov	r0, r6
c200416c:	f000 f848 	bl	c2004200 <_malloc_r>
c2004170:	f9b4 300c 	ldrsh.w	r3, [r4, #12]
c2004174:	b328      	cbz	r0, c20041c2 <__smakebuf_r+0xa6>
c2004176:	f043 0380 	orr.w	r3, r3, #128	; 0x80
c200417a:	f643 42bd 	movw	r2, #15549	; 0x3cbd
c200417e:	f2cc 2200 	movt	r2, #49664	; 0xc200
c2004182:	63f2      	str	r2, [r6, #60]	; 0x3c
c2004184:	f8c4 8014 	str.w	r8, [r4, #20]
c2004188:	81a3      	strh	r3, [r4, #12]
c200418a:	6020      	str	r0, [r4, #0]
c200418c:	6120      	str	r0, [r4, #16]
c200418e:	bb35      	cbnz	r5, c20041de <__smakebuf_r+0xc2>
c2004190:	433b      	orrs	r3, r7
c2004192:	81a3      	strh	r3, [r4, #12]
c2004194:	b016      	add	sp, #88	; 0x58
c2004196:	e8bd 81f0 	ldmia.w	sp!, {r4, r5, r6, r7, r8, pc}
c200419a:	89a3      	ldrh	r3, [r4, #12]
c200419c:	f013 0580 	ands.w	r5, r3, #128	; 0x80
c20041a0:	bf04      	itt	eq
c20041a2:	f44f 6880 	moveq.w	r8, #1024	; 0x400
c20041a6:	462f      	moveq	r7, r5
c20041a8:	d0de      	beq.n	c2004168 <__smakebuf_r+0x4c>
c20041aa:	f04f 0840 	mov.w	r8, #64	; 0x40
c20041ae:	2500      	movs	r5, #0
c20041b0:	4641      	mov	r1, r8
c20041b2:	4630      	mov	r0, r6
c20041b4:	f000 f824 	bl	c2004200 <_malloc_r>
c20041b8:	462f      	mov	r7, r5
c20041ba:	f9b4 300c 	ldrsh.w	r3, [r4, #12]
c20041be:	2800      	cmp	r0, #0
c20041c0:	d1d9      	bne.n	c2004176 <__smakebuf_r+0x5a>
c20041c2:	059a      	lsls	r2, r3, #22
c20041c4:	d4b7      	bmi.n	c2004136 <__smakebuf_r+0x1a>
c20041c6:	f023 0303 	bic.w	r3, r3, #3
c20041ca:	f104 0243 	add.w	r2, r4, #67	; 0x43
c20041ce:	f043 0302 	orr.w	r3, r3, #2
c20041d2:	2101      	movs	r1, #1
c20041d4:	81a3      	strh	r3, [r4, #12]
c20041d6:	6022      	str	r2, [r4, #0]
c20041d8:	e9c4 2104 	strd	r2, r1, [r4, #16]
c20041dc:	e7ab      	b.n	c2004136 <__smakebuf_r+0x1a>
c20041de:	f9b4 100e 	ldrsh.w	r1, [r4, #14]
c20041e2:	4630      	mov	r0, r6
c20041e4:	f002 fd94 	bl	c2006d10 <_isatty_r>
c20041e8:	b910      	cbnz	r0, c20041f0 <__smakebuf_r+0xd4>
c20041ea:	f9b4 300c 	ldrsh.w	r3, [r4, #12]
c20041ee:	e7cf      	b.n	c2004190 <__smakebuf_r+0x74>
c20041f0:	89a3      	ldrh	r3, [r4, #12]
c20041f2:	f023 0303 	bic.w	r3, r3, #3
c20041f6:	f043 0301 	orr.w	r3, r3, #1
c20041fa:	b21b      	sxth	r3, r3
c20041fc:	e7c8      	b.n	c2004190 <__smakebuf_r+0x74>
c20041fe:	bf00      	nop

c2004200 <_malloc_r>:
c2004200:	e92d 4ff0 	stmdb	sp!, {r4, r5, r6, r7, r8, r9, sl, fp, lr}
c2004204:	f101 030b 	add.w	r3, r1, #11
c2004208:	4605      	mov	r5, r0
c200420a:	b083      	sub	sp, #12
c200420c:	2b16      	cmp	r3, #22
c200420e:	d825      	bhi.n	c200425c <_malloc_r+0x5c>
c2004210:	2910      	cmp	r1, #16
c2004212:	d857      	bhi.n	c20042c4 <_malloc_r+0xc4>
c2004214:	f000 fde4 	bl	c2004de0 <__malloc_lock>
c2004218:	2410      	movs	r4, #16
c200421a:	2218      	movs	r2, #24
c200421c:	2002      	movs	r0, #2
c200421e:	f248 5630 	movw	r6, #34096	; 0x8530
c2004222:	f2cc 2600 	movt	r6, #49664	; 0xc200
c2004226:	4432      	add	r2, r6
c2004228:	f1a2 0108 	sub.w	r1, r2, #8
c200422c:	6853      	ldr	r3, [r2, #4]
c200422e:	428b      	cmp	r3, r1
c2004230:	d04f      	beq.n	c20042d2 <_malloc_r+0xd2>
c2004232:	685a      	ldr	r2, [r3, #4]
c2004234:	4628      	mov	r0, r5
c2004236:	e9d3 6102 	ldrd	r6, r1, [r3, #8]
c200423a:	f022 0203 	bic.w	r2, r2, #3
c200423e:	441a      	add	r2, r3
c2004240:	f103 0408 	add.w	r4, r3, #8
c2004244:	6853      	ldr	r3, [r2, #4]
c2004246:	60f1      	str	r1, [r6, #12]
c2004248:	f043 0301 	orr.w	r3, r3, #1
c200424c:	608e      	str	r6, [r1, #8]
c200424e:	6053      	str	r3, [r2, #4]
c2004250:	f000 fdcc 	bl	c2004dec <__malloc_unlock>
c2004254:	4620      	mov	r0, r4
c2004256:	b003      	add	sp, #12
c2004258:	e8bd 8ff0 	ldmia.w	sp!, {r4, r5, r6, r7, r8, r9, sl, fp, pc}
c200425c:	f023 0407 	bic.w	r4, r3, #7
c2004260:	42a1      	cmp	r1, r4
c2004262:	bf94      	ite	ls
c2004264:	2100      	movls	r1, #0
c2004266:	2101      	movhi	r1, #1
c2004268:	ea51 73d3 	orrs.w	r3, r1, r3, lsr #31
c200426c:	d12a      	bne.n	c20042c4 <_malloc_r+0xc4>
c200426e:	f000 fdb7 	bl	c2004de0 <__malloc_lock>
c2004272:	f5b4 7ffc 	cmp.w	r4, #504	; 0x1f8
c2004276:	f0c0 81b1 	bcc.w	c20045dc <_malloc_r+0x3dc>
c200427a:	0a63      	lsrs	r3, r4, #9
c200427c:	f000 810c 	beq.w	c2004498 <_malloc_r+0x298>
c2004280:	2b04      	cmp	r3, #4
c2004282:	f200 8187 	bhi.w	c2004594 <_malloc_r+0x394>
c2004286:	09a3      	lsrs	r3, r4, #6
c2004288:	f103 0039 	add.w	r0, r3, #57	; 0x39
c200428c:	f103 0738 	add.w	r7, r3, #56	; 0x38
c2004290:	00c3      	lsls	r3, r0, #3
c2004292:	f248 5630 	movw	r6, #34096	; 0x8530
c2004296:	f2cc 2600 	movt	r6, #49664	; 0xc200
c200429a:	4433      	add	r3, r6
c200429c:	f1a3 0c08 	sub.w	ip, r3, #8
c20042a0:	685b      	ldr	r3, [r3, #4]
c20042a2:	459c      	cmp	ip, r3
c20042a4:	d106      	bne.n	c20042b4 <_malloc_r+0xb4>
c20042a6:	e019      	b.n	c20042dc <_malloc_r+0xdc>
c20042a8:	2900      	cmp	r1, #0
c20042aa:	f280 814a 	bge.w	c2004542 <_malloc_r+0x342>
c20042ae:	68db      	ldr	r3, [r3, #12]
c20042b0:	459c      	cmp	ip, r3
c20042b2:	d013      	beq.n	c20042dc <_malloc_r+0xdc>
c20042b4:	685a      	ldr	r2, [r3, #4]
c20042b6:	f022 0203 	bic.w	r2, r2, #3
c20042ba:	1b11      	subs	r1, r2, r4
c20042bc:	290f      	cmp	r1, #15
c20042be:	ddf3      	ble.n	c20042a8 <_malloc_r+0xa8>
c20042c0:	4638      	mov	r0, r7
c20042c2:	e00b      	b.n	c20042dc <_malloc_r+0xdc>
c20042c4:	2400      	movs	r4, #0
c20042c6:	230c      	movs	r3, #12
c20042c8:	602b      	str	r3, [r5, #0]
c20042ca:	4620      	mov	r0, r4
c20042cc:	b003      	add	sp, #12
c20042ce:	e8bd 8ff0 	ldmia.w	sp!, {r4, r5, r6, r7, r8, r9, sl, fp, pc}
c20042d2:	68d3      	ldr	r3, [r2, #12]
c20042d4:	429a      	cmp	r2, r3
c20042d6:	bf08      	it	eq
c20042d8:	3002      	addeq	r0, #2
c20042da:	d1aa      	bne.n	c2004232 <_malloc_r+0x32>
c20042dc:	6933      	ldr	r3, [r6, #16]
c20042de:	f8df e470 	ldr.w	lr, [pc, #1136]	; c2004750 <_malloc_r+0x550>
c20042e2:	4573      	cmp	r3, lr
c20042e4:	bf08      	it	eq
c20042e6:	6872      	ldreq	r2, [r6, #4]
c20042e8:	d023      	beq.n	c2004332 <_malloc_r+0x132>
c20042ea:	6859      	ldr	r1, [r3, #4]
c20042ec:	f021 0103 	bic.w	r1, r1, #3
c20042f0:	1b0a      	subs	r2, r1, r4
c20042f2:	2a0f      	cmp	r2, #15
c20042f4:	f300 8176 	bgt.w	c20045e4 <_malloc_r+0x3e4>
c20042f8:	2a00      	cmp	r2, #0
c20042fa:	e9c6 ee04 	strd	lr, lr, [r6, #16]
c20042fe:	f280 8104 	bge.w	c200450a <_malloc_r+0x30a>
c2004302:	f5b1 7f00 	cmp.w	r1, #512	; 0x200
c2004306:	f080 8121 	bcs.w	c200454c <_malloc_r+0x34c>
c200430a:	ea4f 0cd1 	mov.w	ip, r1, lsr #3
c200430e:	2201      	movs	r2, #1
c2004310:	f10c 0c01 	add.w	ip, ip, #1
c2004314:	0949      	lsrs	r1, r1, #5
c2004316:	408a      	lsls	r2, r1
c2004318:	6871      	ldr	r1, [r6, #4]
c200431a:	f856 703c 	ldr.w	r7, [r6, ip, lsl #3]
c200431e:	430a      	orrs	r2, r1
c2004320:	eb06 01cc 	add.w	r1, r6, ip, lsl #3
c2004324:	6072      	str	r2, [r6, #4]
c2004326:	3908      	subs	r1, #8
c2004328:	609f      	str	r7, [r3, #8]
c200432a:	60d9      	str	r1, [r3, #12]
c200432c:	f846 303c 	str.w	r3, [r6, ip, lsl #3]
c2004330:	60fb      	str	r3, [r7, #12]
c2004332:	1083      	asrs	r3, r0, #2
c2004334:	2101      	movs	r1, #1
c2004336:	4099      	lsls	r1, r3
c2004338:	4291      	cmp	r1, r2
c200433a:	f240 80b2 	bls.w	c20044a2 <_malloc_r+0x2a2>
c200433e:	68b7      	ldr	r7, [r6, #8]
c2004340:	687b      	ldr	r3, [r7, #4]
c2004342:	f023 0803 	bic.w	r8, r3, #3
c2004346:	4544      	cmp	r4, r8
c2004348:	eba8 0304 	sub.w	r3, r8, r4
c200434c:	bf94      	ite	ls
c200434e:	2200      	movls	r2, #0
c2004350:	2201      	movhi	r2, #1
c2004352:	2b0f      	cmp	r3, #15
c2004354:	bfd8      	it	le
c2004356:	f042 0201 	orrle.w	r2, r2, #1
c200435a:	2a00      	cmp	r2, #0
c200435c:	f000 80e0 	beq.w	c2004520 <_malloc_r+0x320>
c2004360:	f648 7344 	movw	r3, #36676	; 0x8f44
c2004364:	f2cc 2300 	movt	r3, #49664	; 0xc200
c2004368:	f648 1a38 	movw	sl, #35128	; 0x8938
c200436c:	f2cc 2a00 	movt	sl, #49664	; 0xc200
c2004370:	4628      	mov	r0, r5
c2004372:	eb07 0b08 	add.w	fp, r7, r8
c2004376:	681b      	ldr	r3, [r3, #0]
c2004378:	f8da 2000 	ldr.w	r2, [sl]
c200437c:	4423      	add	r3, r4
c200437e:	3201      	adds	r2, #1
c2004380:	bf17      	itett	ne
c2004382:	f503 5380 	addne.w	r3, r3, #4096	; 0x1000
c2004386:	f103 0910 	addeq.w	r9, r3, #16
c200438a:	330f      	addne	r3, #15
c200438c:	f423 697f 	bicne.w	r9, r3, #4080	; 0xff0
c2004390:	bf18      	it	ne
c2004392:	f029 090f 	bicne.w	r9, r9, #15
c2004396:	4649      	mov	r1, r9
c2004398:	f001 f932 	bl	c2005600 <_sbrk_r>
c200439c:	4602      	mov	r2, r0
c200439e:	1c41      	adds	r1, r0, #1
c20043a0:	f000 8183 	beq.w	c20046aa <_malloc_r+0x4aa>
c20043a4:	42b7      	cmp	r7, r6
c20043a6:	bf18      	it	ne
c20043a8:	4583      	cmpne	fp, r0
c20043aa:	f200 817e 	bhi.w	c20046aa <_malloc_r+0x4aa>
c20043ae:	f648 7314 	movw	r3, #36628	; 0x8f14
c20043b2:	f2cc 2300 	movt	r3, #49664	; 0xc200
c20043b6:	4583      	cmp	fp, r0
c20043b8:	6819      	ldr	r1, [r3, #0]
c20043ba:	4449      	add	r1, r9
c20043bc:	6019      	str	r1, [r3, #0]
c20043be:	f000 8169 	beq.w	c2004694 <_malloc_r+0x494>
c20043c2:	f8da 0000 	ldr.w	r0, [sl]
c20043c6:	9301      	str	r3, [sp, #4]
c20043c8:	3001      	adds	r0, #1
c20043ca:	bf0f      	iteee	eq
c20043cc:	f8ca 2000 	streq.w	r2, [sl]
c20043d0:	eba2 0b0b 	subne.w	fp, r2, fp
c20043d4:	4459      	addne	r1, fp
c20043d6:	6019      	strne	r1, [r3, #0]
c20043d8:	f012 0b07 	ands.w	fp, r2, #7
c20043dc:	f040 8120 	bne.w	c2004620 <_malloc_r+0x420>
c20043e0:	eb02 0109 	add.w	r1, r2, r9
c20043e4:	4628      	mov	r0, r5
c20043e6:	4249      	negs	r1, r1
c20043e8:	9200      	str	r2, [sp, #0]
c20043ea:	f3c1 0a0b 	ubfx	sl, r1, #0, #12
c20043ee:	4651      	mov	r1, sl
c20043f0:	f001 f906 	bl	c2005600 <_sbrk_r>
c20043f4:	1c43      	adds	r3, r0, #1
c20043f6:	bf08      	it	eq
c20043f8:	46da      	moveq	sl, fp
c20043fa:	e9dd 2300 	ldrd	r2, r3, [sp]
c20043fe:	d002      	beq.n	c2004406 <_malloc_r+0x206>
c2004400:	1a80      	subs	r0, r0, r2
c2004402:	eb00 090a 	add.w	r9, r0, sl
c2004406:	6819      	ldr	r1, [r3, #0]
c2004408:	f049 0001 	orr.w	r0, r9, #1
c200440c:	60b2      	str	r2, [r6, #8]
c200440e:	42b7      	cmp	r7, r6
c2004410:	4451      	add	r1, sl
c2004412:	6050      	str	r0, [r2, #4]
c2004414:	6019      	str	r1, [r3, #0]
c2004416:	f000 8164 	beq.w	c20046e2 <_malloc_r+0x4e2>
c200441a:	f1b8 0f0f 	cmp.w	r8, #15
c200441e:	bf9c      	itt	ls
c2004420:	2301      	movls	r3, #1
c2004422:	6053      	strls	r3, [r2, #4]
c2004424:	d933      	bls.n	c200448e <_malloc_r+0x28e>
c2004426:	6878      	ldr	r0, [r7, #4]
c2004428:	f1a8 0c0c 	sub.w	ip, r8, #12
c200442c:	f02c 0c07 	bic.w	ip, ip, #7
c2004430:	f04f 0e05 	mov.w	lr, #5
c2004434:	f000 0001 	and.w	r0, r0, #1
c2004438:	f1bc 0f0f 	cmp.w	ip, #15
c200443c:	ea40 000c 	orr.w	r0, r0, ip
c2004440:	6078      	str	r0, [r7, #4]
c2004442:	eb07 000c 	add.w	r0, r7, ip
c2004446:	e9c0 ee01 	strd	lr, lr, [r0, #4]
c200444a:	f200 8160 	bhi.w	c200470e <_malloc_r+0x50e>
c200444e:	6850      	ldr	r0, [r2, #4]
c2004450:	4617      	mov	r7, r2
c2004452:	f648 733c 	movw	r3, #36668	; 0x8f3c
c2004456:	f2cc 2300 	movt	r3, #49664	; 0xc200
c200445a:	681a      	ldr	r2, [r3, #0]
c200445c:	428a      	cmp	r2, r1
c200445e:	bf38      	it	cc
c2004460:	6019      	strcc	r1, [r3, #0]
c2004462:	f648 7340 	movw	r3, #36672	; 0x8f40
c2004466:	f2cc 2300 	movt	r3, #49664	; 0xc200
c200446a:	681a      	ldr	r2, [r3, #0]
c200446c:	428a      	cmp	r2, r1
c200446e:	bf38      	it	cc
c2004470:	6019      	strcc	r1, [r3, #0]
c2004472:	f020 0903 	bic.w	r9, r0, #3
c2004476:	eba9 0304 	sub.w	r3, r9, r4
c200447a:	2b0f      	cmp	r3, #15
c200447c:	bfcc      	ite	gt
c200447e:	2200      	movgt	r2, #0
c2004480:	2201      	movle	r2, #1
c2004482:	454c      	cmp	r4, r9
c2004484:	bf88      	it	hi
c2004486:	f042 0201 	orrhi.w	r2, r2, #1
c200448a:	2a00      	cmp	r2, #0
c200448c:	d048      	beq.n	c2004520 <_malloc_r+0x320>
c200448e:	4628      	mov	r0, r5
c2004490:	2400      	movs	r4, #0
c2004492:	f000 fcab 	bl	c2004dec <__malloc_unlock>
c2004496:	e718      	b.n	c20042ca <_malloc_r+0xca>
c2004498:	f44f 7300 	mov.w	r3, #512	; 0x200
c200449c:	2040      	movs	r0, #64	; 0x40
c200449e:	273f      	movs	r7, #63	; 0x3f
c20044a0:	e6f7      	b.n	c2004292 <_malloc_r+0x92>
c20044a2:	4211      	tst	r1, r2
c20044a4:	d105      	bne.n	c20044b2 <_malloc_r+0x2b2>
c20044a6:	f020 0003 	bic.w	r0, r0, #3
c20044aa:	0049      	lsls	r1, r1, #1
c20044ac:	3004      	adds	r0, #4
c20044ae:	4211      	tst	r1, r2
c20044b0:	d0fb      	beq.n	c20044aa <_malloc_r+0x2aa>
c20044b2:	eb06 09c0 	add.w	r9, r6, r0, lsl #3
c20044b6:	4680      	mov	r8, r0
c20044b8:	46cc      	mov	ip, r9
c20044ba:	f8dc 700c 	ldr.w	r7, [ip, #12]
c20044be:	45bc      	cmp	ip, r7
c20044c0:	d105      	bne.n	c20044ce <_malloc_r+0x2ce>
c20044c2:	e073      	b.n	c20045ac <_malloc_r+0x3ac>
c20044c4:	2b00      	cmp	r3, #0
c20044c6:	da7a      	bge.n	c20045be <_malloc_r+0x3be>
c20044c8:	68ff      	ldr	r7, [r7, #12]
c20044ca:	45bc      	cmp	ip, r7
c20044cc:	d06e      	beq.n	c20045ac <_malloc_r+0x3ac>
c20044ce:	687a      	ldr	r2, [r7, #4]
c20044d0:	f022 0203 	bic.w	r2, r2, #3
c20044d4:	1b13      	subs	r3, r2, r4
c20044d6:	2b0f      	cmp	r3, #15
c20044d8:	ddf4      	ble.n	c20044c4 <_malloc_r+0x2c4>
c20044da:	4628      	mov	r0, r5
c20044dc:	1939      	adds	r1, r7, r4
c20044de:	e9d7 c502 	ldrd	ip, r5, [r7, #8]
c20044e2:	f044 0401 	orr.w	r4, r4, #1
c20044e6:	607c      	str	r4, [r7, #4]
c20044e8:	f043 0401 	orr.w	r4, r3, #1
c20044ec:	f8cc 500c 	str.w	r5, [ip, #12]
c20044f0:	f8c5 c008 	str.w	ip, [r5, #8]
c20044f4:	e9c6 1104 	strd	r1, r1, [r6, #16]
c20044f8:	604c      	str	r4, [r1, #4]
c20044fa:	f107 0408 	add.w	r4, r7, #8
c20044fe:	e9c1 ee02 	strd	lr, lr, [r1, #8]
c2004502:	50bb      	str	r3, [r7, r2]
c2004504:	f000 fc72 	bl	c2004dec <__malloc_unlock>
c2004508:	e6df      	b.n	c20042ca <_malloc_r+0xca>
c200450a:	4419      	add	r1, r3
c200450c:	f103 0408 	add.w	r4, r3, #8
c2004510:	4628      	mov	r0, r5
c2004512:	684b      	ldr	r3, [r1, #4]
c2004514:	f043 0301 	orr.w	r3, r3, #1
c2004518:	604b      	str	r3, [r1, #4]
c200451a:	f000 fc67 	bl	c2004dec <__malloc_unlock>
c200451e:	e6d4      	b.n	c20042ca <_malloc_r+0xca>
c2004520:	193a      	adds	r2, r7, r4
c2004522:	f043 0301 	orr.w	r3, r3, #1
c2004526:	4628      	mov	r0, r5
c2004528:	f044 0401 	orr.w	r4, r4, #1
c200452c:	607c      	str	r4, [r7, #4]
c200452e:	f107 0408 	add.w	r4, r7, #8
c2004532:	60b2      	str	r2, [r6, #8]
c2004534:	6053      	str	r3, [r2, #4]
c2004536:	f000 fc59 	bl	c2004dec <__malloc_unlock>
c200453a:	4620      	mov	r0, r4
c200453c:	b003      	add	sp, #12
c200453e:	e8bd 8ff0 	ldmia.w	sp!, {r4, r5, r6, r7, r8, r9, sl, fp, pc}
c2004542:	e9d3 6102 	ldrd	r6, r1, [r3, #8]
c2004546:	441a      	add	r2, r3
c2004548:	4628      	mov	r0, r5
c200454a:	e679      	b.n	c2004240 <_malloc_r+0x40>
c200454c:	0a4a      	lsrs	r2, r1, #9
c200454e:	f5b1 6f20 	cmp.w	r1, #2560	; 0xa00
c2004552:	d359      	bcc.n	c2004608 <_malloc_r+0x408>
c2004554:	2a14      	cmp	r2, #20
c2004556:	f200 80b2 	bhi.w	c20046be <_malloc_r+0x4be>
c200455a:	f102 075c 	add.w	r7, r2, #92	; 0x5c
c200455e:	325b      	adds	r2, #91	; 0x5b
c2004560:	00ff      	lsls	r7, r7, #3
c2004562:	eb06 0c07 	add.w	ip, r6, r7
c2004566:	59f7      	ldr	r7, [r6, r7]
c2004568:	f1ac 0c08 	sub.w	ip, ip, #8
c200456c:	45bc      	cmp	ip, r7
c200456e:	f000 809f 	beq.w	c20046b0 <_malloc_r+0x4b0>
c2004572:	687a      	ldr	r2, [r7, #4]
c2004574:	f022 0203 	bic.w	r2, r2, #3
c2004578:	428a      	cmp	r2, r1
c200457a:	d902      	bls.n	c2004582 <_malloc_r+0x382>
c200457c:	68bf      	ldr	r7, [r7, #8]
c200457e:	45bc      	cmp	ip, r7
c2004580:	d1f7      	bne.n	c2004572 <_malloc_r+0x372>
c2004582:	f8d7 c00c 	ldr.w	ip, [r7, #12]
c2004586:	6872      	ldr	r2, [r6, #4]
c2004588:	e9c3 7c02 	strd	r7, ip, [r3, #8]
c200458c:	f8cc 3008 	str.w	r3, [ip, #8]
c2004590:	60fb      	str	r3, [r7, #12]
c2004592:	e6ce      	b.n	c2004332 <_malloc_r+0x132>
c2004594:	2b14      	cmp	r3, #20
c2004596:	d93d      	bls.n	c2004614 <_malloc_r+0x414>
c2004598:	2b54      	cmp	r3, #84	; 0x54
c200459a:	f200 8098 	bhi.w	c20046ce <_malloc_r+0x4ce>
c200459e:	0b23      	lsrs	r3, r4, #12
c20045a0:	f103 006f 	add.w	r0, r3, #111	; 0x6f
c20045a4:	f103 076e 	add.w	r7, r3, #110	; 0x6e
c20045a8:	00c3      	lsls	r3, r0, #3
c20045aa:	e672      	b.n	c2004292 <_malloc_r+0x92>
c20045ac:	f108 0801 	add.w	r8, r8, #1
c20045b0:	f10c 0c08 	add.w	ip, ip, #8
c20045b4:	f018 0f03 	tst.w	r8, #3
c20045b8:	f47f af7f 	bne.w	c20044ba <_malloc_r+0x2ba>
c20045bc:	e052      	b.n	c2004664 <_malloc_r+0x464>
c20045be:	463c      	mov	r4, r7
c20045c0:	443a      	add	r2, r7
c20045c2:	68f9      	ldr	r1, [r7, #12]
c20045c4:	4628      	mov	r0, r5
c20045c6:	f854 5f08 	ldr.w	r5, [r4, #8]!
c20045ca:	6853      	ldr	r3, [r2, #4]
c20045cc:	f043 0301 	orr.w	r3, r3, #1
c20045d0:	6053      	str	r3, [r2, #4]
c20045d2:	60e9      	str	r1, [r5, #12]
c20045d4:	608d      	str	r5, [r1, #8]
c20045d6:	f000 fc09 	bl	c2004dec <__malloc_unlock>
c20045da:	e676      	b.n	c20042ca <_malloc_r+0xca>
c20045dc:	08e0      	lsrs	r0, r4, #3
c20045de:	f104 0208 	add.w	r2, r4, #8
c20045e2:	e61c      	b.n	c200421e <_malloc_r+0x1e>
c20045e4:	4628      	mov	r0, r5
c20045e6:	191d      	adds	r5, r3, r4
c20045e8:	f044 0401 	orr.w	r4, r4, #1
c20045ec:	605c      	str	r4, [r3, #4]
c20045ee:	e9c6 5504 	strd	r5, r5, [r6, #16]
c20045f2:	f042 0401 	orr.w	r4, r2, #1
c20045f6:	e9c5 ee02 	strd	lr, lr, [r5, #8]
c20045fa:	606c      	str	r4, [r5, #4]
c20045fc:	f103 0408 	add.w	r4, r3, #8
c2004600:	505a      	str	r2, [r3, r1]
c2004602:	f000 fbf3 	bl	c2004dec <__malloc_unlock>
c2004606:	e660      	b.n	c20042ca <_malloc_r+0xca>
c2004608:	098a      	lsrs	r2, r1, #6
c200460a:	f102 0739 	add.w	r7, r2, #57	; 0x39
c200460e:	3238      	adds	r2, #56	; 0x38
c2004610:	00ff      	lsls	r7, r7, #3
c2004612:	e7a6      	b.n	c2004562 <_malloc_r+0x362>
c2004614:	f103 005c 	add.w	r0, r3, #92	; 0x5c
c2004618:	f103 075b 	add.w	r7, r3, #91	; 0x5b
c200461c:	00c3      	lsls	r3, r0, #3
c200461e:	e638      	b.n	c2004292 <_malloc_r+0x92>
c2004620:	f1cb 0108 	rsb	r1, fp, #8
c2004624:	4628      	mov	r0, r5
c2004626:	440a      	add	r2, r1
c2004628:	f5cb 5180 	rsb	r1, fp, #4096	; 0x1000
c200462c:	4491      	add	r9, r2
c200462e:	3108      	adds	r1, #8
c2004630:	eba1 0109 	sub.w	r1, r1, r9
c2004634:	9200      	str	r2, [sp, #0]
c2004636:	f3c1 0a0b 	ubfx	sl, r1, #0, #12
c200463a:	4651      	mov	r1, sl
c200463c:	f000 ffe0 	bl	c2005600 <_sbrk_r>
c2004640:	1c42      	adds	r2, r0, #1
c2004642:	e9dd 2300 	ldrd	r2, r3, [sp]
c2004646:	f47f aedb 	bne.w	c2004400 <_malloc_r+0x200>
c200464a:	f1ab 0b08 	sub.w	fp, fp, #8
c200464e:	f04f 0a00 	mov.w	sl, #0
c2004652:	44d9      	add	r9, fp
c2004654:	eba9 0902 	sub.w	r9, r9, r2
c2004658:	e6d5      	b.n	c2004406 <_malloc_r+0x206>
c200465a:	f859 3908 	ldr.w	r3, [r9], #-8
c200465e:	3801      	subs	r0, #1
c2004660:	454b      	cmp	r3, r9
c2004662:	d172      	bne.n	c200474a <_malloc_r+0x54a>
c2004664:	0787      	lsls	r7, r0, #30
c2004666:	d1f8      	bne.n	c200465a <_malloc_r+0x45a>
c2004668:	6873      	ldr	r3, [r6, #4]
c200466a:	ea23 0301 	bic.w	r3, r3, r1
c200466e:	6073      	str	r3, [r6, #4]
c2004670:	0049      	lsls	r1, r1, #1
c2004672:	bf14      	ite	ne
c2004674:	2201      	movne	r2, #1
c2004676:	2200      	moveq	r2, #0
c2004678:	4299      	cmp	r1, r3
c200467a:	bf8c      	ite	hi
c200467c:	2200      	movhi	r2, #0
c200467e:	f002 0201 	andls.w	r2, r2, #1
c2004682:	b91a      	cbnz	r2, c200468c <_malloc_r+0x48c>
c2004684:	e65b      	b.n	c200433e <_malloc_r+0x13e>
c2004686:	0049      	lsls	r1, r1, #1
c2004688:	f108 0804 	add.w	r8, r8, #4
c200468c:	4219      	tst	r1, r3
c200468e:	d0fa      	beq.n	c2004686 <_malloc_r+0x486>
c2004690:	4640      	mov	r0, r8
c2004692:	e70e      	b.n	c20044b2 <_malloc_r+0x2b2>
c2004694:	f3cb 000b 	ubfx	r0, fp, #0, #12
c2004698:	2800      	cmp	r0, #0
c200469a:	f47f ae92 	bne.w	c20043c2 <_malloc_r+0x1c2>
c200469e:	68b7      	ldr	r7, [r6, #8]
c20046a0:	44c1      	add	r9, r8
c20046a2:	f049 0001 	orr.w	r0, r9, #1
c20046a6:	6078      	str	r0, [r7, #4]
c20046a8:	e6d3      	b.n	c2004452 <_malloc_r+0x252>
c20046aa:	68b7      	ldr	r7, [r6, #8]
c20046ac:	6878      	ldr	r0, [r7, #4]
c20046ae:	e6e0      	b.n	c2004472 <_malloc_r+0x272>
c20046b0:	1092      	asrs	r2, r2, #2
c20046b2:	2101      	movs	r1, #1
c20046b4:	4091      	lsls	r1, r2
c20046b6:	6872      	ldr	r2, [r6, #4]
c20046b8:	430a      	orrs	r2, r1
c20046ba:	6072      	str	r2, [r6, #4]
c20046bc:	e764      	b.n	c2004588 <_malloc_r+0x388>
c20046be:	2a54      	cmp	r2, #84	; 0x54
c20046c0:	d811      	bhi.n	c20046e6 <_malloc_r+0x4e6>
c20046c2:	0b0a      	lsrs	r2, r1, #12
c20046c4:	f102 076f 	add.w	r7, r2, #111	; 0x6f
c20046c8:	326e      	adds	r2, #110	; 0x6e
c20046ca:	00ff      	lsls	r7, r7, #3
c20046cc:	e749      	b.n	c2004562 <_malloc_r+0x362>
c20046ce:	f5b3 7faa 	cmp.w	r3, #340	; 0x154
c20046d2:	d811      	bhi.n	c20046f8 <_malloc_r+0x4f8>
c20046d4:	0be3      	lsrs	r3, r4, #15
c20046d6:	f103 0078 	add.w	r0, r3, #120	; 0x78
c20046da:	f103 0777 	add.w	r7, r3, #119	; 0x77
c20046de:	00c3      	lsls	r3, r0, #3
c20046e0:	e5d7      	b.n	c2004292 <_malloc_r+0x92>
c20046e2:	4617      	mov	r7, r2
c20046e4:	e6b5      	b.n	c2004452 <_malloc_r+0x252>
c20046e6:	f5b2 7faa 	cmp.w	r2, #340	; 0x154
c20046ea:	d81b      	bhi.n	c2004724 <_malloc_r+0x524>
c20046ec:	0bca      	lsrs	r2, r1, #15
c20046ee:	f102 0778 	add.w	r7, r2, #120	; 0x78
c20046f2:	3277      	adds	r2, #119	; 0x77
c20046f4:	00ff      	lsls	r7, r7, #3
c20046f6:	e734      	b.n	c2004562 <_malloc_r+0x362>
c20046f8:	f240 5254 	movw	r2, #1364	; 0x554
c20046fc:	4293      	cmp	r3, r2
c20046fe:	d81f      	bhi.n	c2004740 <_malloc_r+0x540>
c2004700:	0ca3      	lsrs	r3, r4, #18
c2004702:	f103 007d 	add.w	r0, r3, #125	; 0x7d
c2004706:	f103 077c 	add.w	r7, r3, #124	; 0x7c
c200470a:	00c3      	lsls	r3, r0, #3
c200470c:	e5c1      	b.n	c2004292 <_malloc_r+0x92>
c200470e:	f107 0108 	add.w	r1, r7, #8
c2004712:	4628      	mov	r0, r5
c2004714:	9300      	str	r3, [sp, #0]
c2004716:	f7ff fbc7 	bl	c2003ea8 <_free_r>
c200471a:	68b7      	ldr	r7, [r6, #8]
c200471c:	9b00      	ldr	r3, [sp, #0]
c200471e:	6878      	ldr	r0, [r7, #4]
c2004720:	6819      	ldr	r1, [r3, #0]
c2004722:	e696      	b.n	c2004452 <_malloc_r+0x252>
c2004724:	f240 5754 	movw	r7, #1364	; 0x554
c2004728:	42ba      	cmp	r2, r7
c200472a:	bf95      	itete	ls
c200472c:	0c8a      	lsrls	r2, r1, #18
c200472e:	f44f 777e 	movhi.w	r7, #1016	; 0x3f8
c2004732:	f102 077d 	addls.w	r7, r2, #125	; 0x7d
c2004736:	227e      	movhi	r2, #126	; 0x7e
c2004738:	bf9c      	itt	ls
c200473a:	327c      	addls	r2, #124	; 0x7c
c200473c:	00ff      	lslls	r7, r7, #3
c200473e:	e710      	b.n	c2004562 <_malloc_r+0x362>
c2004740:	f44f 737e 	mov.w	r3, #1016	; 0x3f8
c2004744:	207f      	movs	r0, #127	; 0x7f
c2004746:	277e      	movs	r7, #126	; 0x7e
c2004748:	e5a3      	b.n	c2004292 <_malloc_r+0x92>
c200474a:	6873      	ldr	r3, [r6, #4]
c200474c:	e790      	b.n	c2004670 <_malloc_r+0x470>
c200474e:	bf00      	nop
c2004750:	c2008538 	andgt	r8, r0, #56, 10	; 0xe000000
	...

c2004760 <memchr>:
c2004760:	f001 01ff 	and.w	r1, r1, #255	; 0xff
c2004764:	2a10      	cmp	r2, #16
c2004766:	db2b      	blt.n	c20047c0 <memchr+0x60>
c2004768:	f010 0f07 	tst.w	r0, #7
c200476c:	d008      	beq.n	c2004780 <memchr+0x20>
c200476e:	f810 3b01 	ldrb.w	r3, [r0], #1
c2004772:	3a01      	subs	r2, #1
c2004774:	428b      	cmp	r3, r1
c2004776:	d02d      	beq.n	c20047d4 <memchr+0x74>
c2004778:	f010 0f07 	tst.w	r0, #7
c200477c:	b342      	cbz	r2, c20047d0 <memchr+0x70>
c200477e:	d1f6      	bne.n	c200476e <memchr+0xe>
c2004780:	b4f0      	push	{r4, r5, r6, r7}
c2004782:	ea41 2101 	orr.w	r1, r1, r1, lsl #8
c2004786:	ea41 4101 	orr.w	r1, r1, r1, lsl #16
c200478a:	f022 0407 	bic.w	r4, r2, #7
c200478e:	f07f 0700 	mvns.w	r7, #0
c2004792:	2300      	movs	r3, #0
c2004794:	e8f0 5602 	ldrd	r5, r6, [r0], #8
c2004798:	3c08      	subs	r4, #8
c200479a:	ea85 0501 	eor.w	r5, r5, r1
c200479e:	ea86 0601 	eor.w	r6, r6, r1
c20047a2:	fa85 f547 	uadd8	r5, r5, r7
c20047a6:	faa3 f587 	sel	r5, r3, r7
c20047aa:	fa86 f647 	uadd8	r6, r6, r7
c20047ae:	faa5 f687 	sel	r6, r5, r7
c20047b2:	b98e      	cbnz	r6, c20047d8 <memchr+0x78>
c20047b4:	d1ee      	bne.n	c2004794 <memchr+0x34>
c20047b6:	bcf0      	pop	{r4, r5, r6, r7}
c20047b8:	f001 01ff 	and.w	r1, r1, #255	; 0xff
c20047bc:	f002 0207 	and.w	r2, r2, #7
c20047c0:	b132      	cbz	r2, c20047d0 <memchr+0x70>
c20047c2:	f810 3b01 	ldrb.w	r3, [r0], #1
c20047c6:	3a01      	subs	r2, #1
c20047c8:	ea83 0301 	eor.w	r3, r3, r1
c20047cc:	b113      	cbz	r3, c20047d4 <memchr+0x74>
c20047ce:	d1f8      	bne.n	c20047c2 <memchr+0x62>
c20047d0:	2000      	movs	r0, #0
c20047d2:	4770      	bx	lr
c20047d4:	3801      	subs	r0, #1
c20047d6:	4770      	bx	lr
c20047d8:	2d00      	cmp	r5, #0
c20047da:	bf06      	itte	eq
c20047dc:	4635      	moveq	r5, r6
c20047de:	3803      	subeq	r0, #3
c20047e0:	3807      	subne	r0, #7
c20047e2:	f015 0f01 	tst.w	r5, #1
c20047e6:	d107      	bne.n	c20047f8 <memchr+0x98>
c20047e8:	3001      	adds	r0, #1
c20047ea:	f415 7f80 	tst.w	r5, #256	; 0x100
c20047ee:	bf02      	ittt	eq
c20047f0:	3001      	addeq	r0, #1
c20047f2:	f415 3fc0 	tsteq.w	r5, #98304	; 0x18000
c20047f6:	3001      	addeq	r0, #1
c20047f8:	bcf0      	pop	{r4, r5, r6, r7}
c20047fa:	3801      	subs	r0, #1
c20047fc:	4770      	bx	lr
c20047fe:	bf00      	nop

c2004800 <memcpy>:
c2004800:	e1a0c000 	mov	ip, r0
c2004804:	e3520040 	cmp	r2, #64	; 0x40
c2004808:	aa000028 	bge	c20048b0 <memcpy+0xb0>
c200480c:	e202303c 	and	r3, r2, #60	; 0x3c
c2004810:	e08cc003 	add	ip, ip, r3
c2004814:	e0811003 	add	r1, r1, r3
c2004818:	e263303a 	rsb	r3, r3, #58	; 0x3a
c200481c:	e08ff083 	add	pc, pc, r3, lsl #1
c2004820:	e511303c 	ldr	r3, [r1, #-60]	; 0xffffffc4
c2004824:	e50c303c 	str	r3, [ip, #-60]	; 0xffffffc4
c2004828:	e5113038 	ldr	r3, [r1, #-56]	; 0xffffffc8
c200482c:	e50c3038 	str	r3, [ip, #-56]	; 0xffffffc8
c2004830:	e5113034 	ldr	r3, [r1, #-52]	; 0xffffffcc
c2004834:	e50c3034 	str	r3, [ip, #-52]	; 0xffffffcc
c2004838:	e5113030 	ldr	r3, [r1, #-48]	; 0xffffffd0
c200483c:	e50c3030 	str	r3, [ip, #-48]	; 0xffffffd0
c2004840:	e511302c 	ldr	r3, [r1, #-44]	; 0xffffffd4
c2004844:	e50c302c 	str	r3, [ip, #-44]	; 0xffffffd4
c2004848:	e5113028 	ldr	r3, [r1, #-40]	; 0xffffffd8
c200484c:	e50c3028 	str	r3, [ip, #-40]	; 0xffffffd8
c2004850:	e5113024 	ldr	r3, [r1, #-36]	; 0xffffffdc
c2004854:	e50c3024 	str	r3, [ip, #-36]	; 0xffffffdc
c2004858:	e5113020 	ldr	r3, [r1, #-32]	; 0xffffffe0
c200485c:	e50c3020 	str	r3, [ip, #-32]	; 0xffffffe0
c2004860:	e511301c 	ldr	r3, [r1, #-28]	; 0xffffffe4
c2004864:	e50c301c 	str	r3, [ip, #-28]	; 0xffffffe4
c2004868:	e5113018 	ldr	r3, [r1, #-24]	; 0xffffffe8
c200486c:	e50c3018 	str	r3, [ip, #-24]	; 0xffffffe8
c2004870:	e5113014 	ldr	r3, [r1, #-20]	; 0xffffffec
c2004874:	e50c3014 	str	r3, [ip, #-20]	; 0xffffffec
c2004878:	e5113010 	ldr	r3, [r1, #-16]
c200487c:	e50c3010 	str	r3, [ip, #-16]
c2004880:	e511300c 	ldr	r3, [r1, #-12]
c2004884:	e50c300c 	str	r3, [ip, #-12]
c2004888:	e5113008 	ldr	r3, [r1, #-8]
c200488c:	e50c3008 	str	r3, [ip, #-8]
c2004890:	e5113004 	ldr	r3, [r1, #-4]
c2004894:	e50c3004 	str	r3, [ip, #-4]
c2004898:	e1b02f82 	lsls	r2, r2, #31
c200489c:	20d130b2 	ldrhcs	r3, [r1], #2
c20048a0:	15d11000 	ldrbne	r1, [r1]
c20048a4:	20cc30b2 	strhcs	r3, [ip], #2
c20048a8:	15cc1000 	strbne	r1, [ip]
c20048ac:	e12fff1e 	bx	lr
c20048b0:	e52da020 	str	sl, [sp, #-32]!	; 0xffffffe0
c20048b4:	e201a007 	and	sl, r1, #7
c20048b8:	e20c3007 	and	r3, ip, #7
c20048bc:	e153000a 	cmp	r3, sl
c20048c0:	1a0000f1 	bne	c2004c8c <memcpy+0x48c>
c20048c4:	eeb00a40 	vmov.f32	s0, s0
c20048c8:	e1b0ae8c 	lsls	sl, ip, #29
c20048cc:	0a000008 	beq	c20048f4 <memcpy+0xf4>
c20048d0:	e27aa000 	rsbs	sl, sl, #0
c20048d4:	e0422eaa 	sub	r2, r2, sl, lsr #29
c20048d8:	44913004 	ldrmi	r3, [r1], #4
c20048dc:	448c3004 	strmi	r3, [ip], #4
c20048e0:	e1b0a10a 	lsls	sl, sl, #2
c20048e4:	20d130b2 	ldrhcs	r3, [r1], #2
c20048e8:	14d1a001 	ldrbne	sl, [r1], #1
c20048ec:	20cc30b2 	strhcs	r3, [ip], #2
c20048f0:	14cca001 	strbne	sl, [ip], #1
c20048f4:	e252a040 	subs	sl, r2, #64	; 0x40
c20048f8:	ba000017 	blt	c200495c <memcpy+0x15c>
c20048fc:	e35a0c02 	cmp	sl, #512	; 0x200
c2004900:	aa000032 	bge	c20049d0 <memcpy+0x1d0>
c2004904:	ed910b00 	vldr	d0, [r1]
c2004908:	e25aa040 	subs	sl, sl, #64	; 0x40
c200490c:	ed911b02 	vldr	d1, [r1, #8]
c2004910:	ed8c0b00 	vstr	d0, [ip]
c2004914:	ed910b04 	vldr	d0, [r1, #16]
c2004918:	ed8c1b02 	vstr	d1, [ip, #8]
c200491c:	ed911b06 	vldr	d1, [r1, #24]
c2004920:	ed8c0b04 	vstr	d0, [ip, #16]
c2004924:	ed910b08 	vldr	d0, [r1, #32]
c2004928:	ed8c1b06 	vstr	d1, [ip, #24]
c200492c:	ed911b0a 	vldr	d1, [r1, #40]	; 0x28
c2004930:	ed8c0b08 	vstr	d0, [ip, #32]
c2004934:	ed910b0c 	vldr	d0, [r1, #48]	; 0x30
c2004938:	ed8c1b0a 	vstr	d1, [ip, #40]	; 0x28
c200493c:	ed911b0e 	vldr	d1, [r1, #56]	; 0x38
c2004940:	ed8c0b0c 	vstr	d0, [ip, #48]	; 0x30
c2004944:	e2811040 	add	r1, r1, #64	; 0x40
c2004948:	ed8c1b0e 	vstr	d1, [ip, #56]	; 0x38
c200494c:	e28cc040 	add	ip, ip, #64	; 0x40
c2004950:	aaffffeb 	bge	c2004904 <memcpy+0x104>
c2004954:	e31a003f 	tst	sl, #63	; 0x3f
c2004958:	0a00001a 	beq	c20049c8 <memcpy+0x1c8>
c200495c:	e20a3038 	and	r3, sl, #56	; 0x38
c2004960:	e08cc003 	add	ip, ip, r3
c2004964:	e0811003 	add	r1, r1, r3
c2004968:	e2633034 	rsb	r3, r3, #52	; 0x34
c200496c:	e08ff003 	add	pc, pc, r3
c2004970:	ed110b0e 	vldr	d0, [r1, #-56]	; 0xffffffc8
c2004974:	ed0c0b0e 	vstr	d0, [ip, #-56]	; 0xffffffc8
c2004978:	ed110b0c 	vldr	d0, [r1, #-48]	; 0xffffffd0
c200497c:	ed0c0b0c 	vstr	d0, [ip, #-48]	; 0xffffffd0
c2004980:	ed110b0a 	vldr	d0, [r1, #-40]	; 0xffffffd8
c2004984:	ed0c0b0a 	vstr	d0, [ip, #-40]	; 0xffffffd8
c2004988:	ed110b08 	vldr	d0, [r1, #-32]	; 0xffffffe0
c200498c:	ed0c0b08 	vstr	d0, [ip, #-32]	; 0xffffffe0
c2004990:	ed110b06 	vldr	d0, [r1, #-24]	; 0xffffffe8
c2004994:	ed0c0b06 	vstr	d0, [ip, #-24]	; 0xffffffe8
c2004998:	ed110b04 	vldr	d0, [r1, #-16]
c200499c:	ed0c0b04 	vstr	d0, [ip, #-16]
c20049a0:	ed110b02 	vldr	d0, [r1, #-8]
c20049a4:	ed0c0b02 	vstr	d0, [ip, #-8]
c20049a8:	e31a0004 	tst	sl, #4
c20049ac:	14913004 	ldrne	r3, [r1], #4
c20049b0:	148c3004 	strne	r3, [ip], #4
c20049b4:	e1b0af8a 	lsls	sl, sl, #31
c20049b8:	20d130b2 	ldrhcs	r3, [r1], #2
c20049bc:	15d1a000 	ldrbne	sl, [r1]
c20049c0:	20cc30b2 	strhcs	r3, [ip], #2
c20049c4:	15cca000 	strbne	sl, [ip]
c20049c8:	e49da020 	ldr	sl, [sp], #32
c20049cc:	e12fff1e 	bx	lr
c20049d0:	ed913b00 	vldr	d3, [r1]
c20049d4:	ed914b10 	vldr	d4, [r1, #64]	; 0x40
c20049d8:	ed915b20 	vldr	d5, [r1, #128]	; 0x80
c20049dc:	ed916b30 	vldr	d6, [r1, #192]	; 0xc0
c20049e0:	ed917b40 	vldr	d7, [r1, #256]	; 0x100
c20049e4:	ed910b02 	vldr	d0, [r1, #8]
c20049e8:	ed911b04 	vldr	d1, [r1, #16]
c20049ec:	ed912b06 	vldr	d2, [r1, #24]
c20049f0:	e2811020 	add	r1, r1, #32
c20049f4:	e25aad0a 	subs	sl, sl, #640	; 0x280
c20049f8:	ba000055 	blt	c2004b54 <memcpy+0x354>
c20049fc:	ed8c3b00 	vstr	d3, [ip]
c2004a00:	ed913b00 	vldr	d3, [r1]
c2004a04:	ed8c0b02 	vstr	d0, [ip, #8]
c2004a08:	ed910b02 	vldr	d0, [r1, #8]
c2004a0c:	ed8c1b04 	vstr	d1, [ip, #16]
c2004a10:	ed911b04 	vldr	d1, [r1, #16]
c2004a14:	ed8c2b06 	vstr	d2, [ip, #24]
c2004a18:	ed912b06 	vldr	d2, [r1, #24]
c2004a1c:	ed8c3b08 	vstr	d3, [ip, #32]
c2004a20:	ed913b48 	vldr	d3, [r1, #288]	; 0x120
c2004a24:	ed8c0b0a 	vstr	d0, [ip, #40]	; 0x28
c2004a28:	ed910b0a 	vldr	d0, [r1, #40]	; 0x28
c2004a2c:	ed8c1b0c 	vstr	d1, [ip, #48]	; 0x30
c2004a30:	ed911b0c 	vldr	d1, [r1, #48]	; 0x30
c2004a34:	ed8c2b0e 	vstr	d2, [ip, #56]	; 0x38
c2004a38:	ed912b0e 	vldr	d2, [r1, #56]	; 0x38
c2004a3c:	ed8c4b10 	vstr	d4, [ip, #64]	; 0x40
c2004a40:	ed914b10 	vldr	d4, [r1, #64]	; 0x40
c2004a44:	ed8c0b12 	vstr	d0, [ip, #72]	; 0x48
c2004a48:	ed910b12 	vldr	d0, [r1, #72]	; 0x48
c2004a4c:	ed8c1b14 	vstr	d1, [ip, #80]	; 0x50
c2004a50:	ed911b14 	vldr	d1, [r1, #80]	; 0x50
c2004a54:	ed8c2b16 	vstr	d2, [ip, #88]	; 0x58
c2004a58:	ed912b16 	vldr	d2, [r1, #88]	; 0x58
c2004a5c:	ed8c4b18 	vstr	d4, [ip, #96]	; 0x60
c2004a60:	ed914b58 	vldr	d4, [r1, #352]	; 0x160
c2004a64:	ed8c0b1a 	vstr	d0, [ip, #104]	; 0x68
c2004a68:	ed910b1a 	vldr	d0, [r1, #104]	; 0x68
c2004a6c:	ed8c1b1c 	vstr	d1, [ip, #112]	; 0x70
c2004a70:	ed911b1c 	vldr	d1, [r1, #112]	; 0x70
c2004a74:	ed8c2b1e 	vstr	d2, [ip, #120]	; 0x78
c2004a78:	ed912b1e 	vldr	d2, [r1, #120]	; 0x78
c2004a7c:	ed8c5b20 	vstr	d5, [ip, #128]	; 0x80
c2004a80:	ed915b20 	vldr	d5, [r1, #128]	; 0x80
c2004a84:	ed8c0b22 	vstr	d0, [ip, #136]	; 0x88
c2004a88:	ed910b22 	vldr	d0, [r1, #136]	; 0x88
c2004a8c:	ed8c1b24 	vstr	d1, [ip, #144]	; 0x90
c2004a90:	ed911b24 	vldr	d1, [r1, #144]	; 0x90
c2004a94:	ed8c2b26 	vstr	d2, [ip, #152]	; 0x98
c2004a98:	ed912b26 	vldr	d2, [r1, #152]	; 0x98
c2004a9c:	ed8c5b28 	vstr	d5, [ip, #160]	; 0xa0
c2004aa0:	ed915b68 	vldr	d5, [r1, #416]	; 0x1a0
c2004aa4:	ed8c0b2a 	vstr	d0, [ip, #168]	; 0xa8
c2004aa8:	ed910b2a 	vldr	d0, [r1, #168]	; 0xa8
c2004aac:	ed8c1b2c 	vstr	d1, [ip, #176]	; 0xb0
c2004ab0:	ed911b2c 	vldr	d1, [r1, #176]	; 0xb0
c2004ab4:	ed8c2b2e 	vstr	d2, [ip, #184]	; 0xb8
c2004ab8:	ed912b2e 	vldr	d2, [r1, #184]	; 0xb8
c2004abc:	e28cc0c0 	add	ip, ip, #192	; 0xc0
c2004ac0:	e28110c0 	add	r1, r1, #192	; 0xc0
c2004ac4:	ed8c6b00 	vstr	d6, [ip]
c2004ac8:	ed916b00 	vldr	d6, [r1]
c2004acc:	ed8c0b02 	vstr	d0, [ip, #8]
c2004ad0:	ed910b02 	vldr	d0, [r1, #8]
c2004ad4:	ed8c1b04 	vstr	d1, [ip, #16]
c2004ad8:	ed911b04 	vldr	d1, [r1, #16]
c2004adc:	ed8c2b06 	vstr	d2, [ip, #24]
c2004ae0:	ed912b06 	vldr	d2, [r1, #24]
c2004ae4:	ed8c6b08 	vstr	d6, [ip, #32]
c2004ae8:	ed916b48 	vldr	d6, [r1, #288]	; 0x120
c2004aec:	ed8c0b0a 	vstr	d0, [ip, #40]	; 0x28
c2004af0:	ed910b0a 	vldr	d0, [r1, #40]	; 0x28
c2004af4:	ed8c1b0c 	vstr	d1, [ip, #48]	; 0x30
c2004af8:	ed911b0c 	vldr	d1, [r1, #48]	; 0x30
c2004afc:	ed8c2b0e 	vstr	d2, [ip, #56]	; 0x38
c2004b00:	ed912b0e 	vldr	d2, [r1, #56]	; 0x38
c2004b04:	ed8c7b10 	vstr	d7, [ip, #64]	; 0x40
c2004b08:	ed917b10 	vldr	d7, [r1, #64]	; 0x40
c2004b0c:	ed8c0b12 	vstr	d0, [ip, #72]	; 0x48
c2004b10:	ed910b12 	vldr	d0, [r1, #72]	; 0x48
c2004b14:	ed8c1b14 	vstr	d1, [ip, #80]	; 0x50
c2004b18:	ed911b14 	vldr	d1, [r1, #80]	; 0x50
c2004b1c:	ed8c2b16 	vstr	d2, [ip, #88]	; 0x58
c2004b20:	ed912b16 	vldr	d2, [r1, #88]	; 0x58
c2004b24:	ed8c7b18 	vstr	d7, [ip, #96]	; 0x60
c2004b28:	ed917b58 	vldr	d7, [r1, #352]	; 0x160
c2004b2c:	ed8c0b1a 	vstr	d0, [ip, #104]	; 0x68
c2004b30:	ed910b1a 	vldr	d0, [r1, #104]	; 0x68
c2004b34:	ed8c1b1c 	vstr	d1, [ip, #112]	; 0x70
c2004b38:	ed911b1c 	vldr	d1, [r1, #112]	; 0x70
c2004b3c:	ed8c2b1e 	vstr	d2, [ip, #120]	; 0x78
c2004b40:	ed912b1e 	vldr	d2, [r1, #120]	; 0x78
c2004b44:	e28cc080 	add	ip, ip, #128	; 0x80
c2004b48:	e2811080 	add	r1, r1, #128	; 0x80
c2004b4c:	e25aad05 	subs	sl, sl, #320	; 0x140
c2004b50:	aaffffa9 	bge	c20049fc <memcpy+0x1fc>
c2004b54:	ed8c3b00 	vstr	d3, [ip]
c2004b58:	ed913b00 	vldr	d3, [r1]
c2004b5c:	ed8c0b02 	vstr	d0, [ip, #8]
c2004b60:	ed910b02 	vldr	d0, [r1, #8]
c2004b64:	ed8c1b04 	vstr	d1, [ip, #16]
c2004b68:	ed911b04 	vldr	d1, [r1, #16]
c2004b6c:	ed8c2b06 	vstr	d2, [ip, #24]
c2004b70:	ed912b06 	vldr	d2, [r1, #24]
c2004b74:	ed8c3b08 	vstr	d3, [ip, #32]
c2004b78:	ed8c0b0a 	vstr	d0, [ip, #40]	; 0x28
c2004b7c:	ed910b0a 	vldr	d0, [r1, #40]	; 0x28
c2004b80:	ed8c1b0c 	vstr	d1, [ip, #48]	; 0x30
c2004b84:	ed911b0c 	vldr	d1, [r1, #48]	; 0x30
c2004b88:	ed8c2b0e 	vstr	d2, [ip, #56]	; 0x38
c2004b8c:	ed912b0e 	vldr	d2, [r1, #56]	; 0x38
c2004b90:	ed8c4b10 	vstr	d4, [ip, #64]	; 0x40
c2004b94:	ed914b10 	vldr	d4, [r1, #64]	; 0x40
c2004b98:	ed8c0b12 	vstr	d0, [ip, #72]	; 0x48
c2004b9c:	ed910b12 	vldr	d0, [r1, #72]	; 0x48
c2004ba0:	ed8c1b14 	vstr	d1, [ip, #80]	; 0x50
c2004ba4:	ed911b14 	vldr	d1, [r1, #80]	; 0x50
c2004ba8:	ed8c2b16 	vstr	d2, [ip, #88]	; 0x58
c2004bac:	ed912b16 	vldr	d2, [r1, #88]	; 0x58
c2004bb0:	ed8c4b18 	vstr	d4, [ip, #96]	; 0x60
c2004bb4:	ed8c0b1a 	vstr	d0, [ip, #104]	; 0x68
c2004bb8:	ed910b1a 	vldr	d0, [r1, #104]	; 0x68
c2004bbc:	ed8c1b1c 	vstr	d1, [ip, #112]	; 0x70
c2004bc0:	ed911b1c 	vldr	d1, [r1, #112]	; 0x70
c2004bc4:	ed8c2b1e 	vstr	d2, [ip, #120]	; 0x78
c2004bc8:	ed912b1e 	vldr	d2, [r1, #120]	; 0x78
c2004bcc:	ed8c5b20 	vstr	d5, [ip, #128]	; 0x80
c2004bd0:	ed915b20 	vldr	d5, [r1, #128]	; 0x80
c2004bd4:	ed8c0b22 	vstr	d0, [ip, #136]	; 0x88
c2004bd8:	ed910b22 	vldr	d0, [r1, #136]	; 0x88
c2004bdc:	ed8c1b24 	vstr	d1, [ip, #144]	; 0x90
c2004be0:	ed911b24 	vldr	d1, [r1, #144]	; 0x90
c2004be4:	ed8c2b26 	vstr	d2, [ip, #152]	; 0x98
c2004be8:	ed912b26 	vldr	d2, [r1, #152]	; 0x98
c2004bec:	ed8c5b28 	vstr	d5, [ip, #160]	; 0xa0
c2004bf0:	ed8c0b2a 	vstr	d0, [ip, #168]	; 0xa8
c2004bf4:	ed910b2a 	vldr	d0, [r1, #168]	; 0xa8
c2004bf8:	ed8c1b2c 	vstr	d1, [ip, #176]	; 0xb0
c2004bfc:	ed911b2c 	vldr	d1, [r1, #176]	; 0xb0
c2004c00:	ed8c2b2e 	vstr	d2, [ip, #184]	; 0xb8
c2004c04:	ed912b2e 	vldr	d2, [r1, #184]	; 0xb8
c2004c08:	e28110c0 	add	r1, r1, #192	; 0xc0
c2004c0c:	e28cc0c0 	add	ip, ip, #192	; 0xc0
c2004c10:	ed8c6b00 	vstr	d6, [ip]
c2004c14:	ed916b00 	vldr	d6, [r1]
c2004c18:	ed8c0b02 	vstr	d0, [ip, #8]
c2004c1c:	ed910b02 	vldr	d0, [r1, #8]
c2004c20:	ed8c1b04 	vstr	d1, [ip, #16]
c2004c24:	ed911b04 	vldr	d1, [r1, #16]
c2004c28:	ed8c2b06 	vstr	d2, [ip, #24]
c2004c2c:	ed912b06 	vldr	d2, [r1, #24]
c2004c30:	ed8c6b08 	vstr	d6, [ip, #32]
c2004c34:	ed8c0b0a 	vstr	d0, [ip, #40]	; 0x28
c2004c38:	ed910b0a 	vldr	d0, [r1, #40]	; 0x28
c2004c3c:	ed8c1b0c 	vstr	d1, [ip, #48]	; 0x30
c2004c40:	ed911b0c 	vldr	d1, [r1, #48]	; 0x30
c2004c44:	ed8c2b0e 	vstr	d2, [ip, #56]	; 0x38
c2004c48:	ed912b0e 	vldr	d2, [r1, #56]	; 0x38
c2004c4c:	ed8c7b10 	vstr	d7, [ip, #64]	; 0x40
c2004c50:	ed917b10 	vldr	d7, [r1, #64]	; 0x40
c2004c54:	ed8c0b12 	vstr	d0, [ip, #72]	; 0x48
c2004c58:	ed910b12 	vldr	d0, [r1, #72]	; 0x48
c2004c5c:	ed8c1b14 	vstr	d1, [ip, #80]	; 0x50
c2004c60:	ed911b14 	vldr	d1, [r1, #80]	; 0x50
c2004c64:	ed8c2b16 	vstr	d2, [ip, #88]	; 0x58
c2004c68:	ed912b16 	vldr	d2, [r1, #88]	; 0x58
c2004c6c:	ed8c7b18 	vstr	d7, [ip, #96]	; 0x60
c2004c70:	e2811060 	add	r1, r1, #96	; 0x60
c2004c74:	ed8c0b1a 	vstr	d0, [ip, #104]	; 0x68
c2004c78:	ed8c1b1c 	vstr	d1, [ip, #112]	; 0x70
c2004c7c:	ed8c2b1e 	vstr	d2, [ip, #120]	; 0x78
c2004c80:	e28cc080 	add	ip, ip, #128	; 0x80
c2004c84:	e28aad05 	add	sl, sl, #320	; 0x140
c2004c88:	eaffff1d 	b	c2004904 <memcpy+0x104>
c2004c8c:	f5d1f000 	pld	[r1]
c2004c90:	f5d1f040 	pld	[r1, #64]	; 0x40
c2004c94:	e1b0ae8c 	lsls	sl, ip, #29
c2004c98:	f5d1f080 	pld	[r1, #128]	; 0x80
c2004c9c:	0a000008 	beq	c2004cc4 <memcpy+0x4c4>
c2004ca0:	e27aa000 	rsbs	sl, sl, #0
c2004ca4:	e0422eaa 	sub	r2, r2, sl, lsr #29
c2004ca8:	44913004 	ldrmi	r3, [r1], #4
c2004cac:	448c3004 	strmi	r3, [ip], #4
c2004cb0:	e1b0a10a 	lsls	sl, sl, #2
c2004cb4:	14d13001 	ldrbne	r3, [r1], #1
c2004cb8:	20d1a0b2 	ldrhcs	sl, [r1], #2
c2004cbc:	14cc3001 	strbne	r3, [ip], #1
c2004cc0:	20cca0b2 	strhcs	sl, [ip], #2
c2004cc4:	f5d1f0c0 	pld	[r1, #192]	; 0xc0
c2004cc8:	e2522040 	subs	r2, r2, #64	; 0x40
c2004ccc:	449da020 	ldrmi	sl, [sp], #32
c2004cd0:	4afffecd 	bmi	c200480c <memcpy+0xc>
c2004cd4:	f5d1f100 	pld	[r1, #256]	; 0x100
c2004cd8:	e2411004 	sub	r1, r1, #4
c2004cdc:	e24cc008 	sub	ip, ip, #8
c2004ce0:	e252a040 	subs	sl, r2, #64	; 0x40
c2004ce4:	e5912004 	ldr	r2, [r1, #4]
c2004ce8:	e5913008 	ldr	r3, [r1, #8]
c2004cec:	e1cd40f8 	strd	r4, [sp, #8]
c2004cf0:	e591400c 	ldr	r4, [r1, #12]
c2004cf4:	e5915010 	ldr	r5, [r1, #16]
c2004cf8:	e1cd61f0 	strd	r6, [sp, #16]
c2004cfc:	e5916014 	ldr	r6, [r1, #20]
c2004d00:	e5917018 	ldr	r7, [r1, #24]
c2004d04:	e1cd81f8 	strd	r8, [sp, #24]
c2004d08:	e591801c 	ldr	r8, [r1, #28]
c2004d0c:	e5b19020 	ldr	r9, [r1, #32]!
c2004d10:	ea000018 	b	c2004d78 <memcpy+0x578>
c2004d14:	e1a00000 	nop			; (mov r0, r0)
c2004d18:	e1a00000 	nop			; (mov r0, r0)
c2004d1c:	e1a00000 	nop			; (mov r0, r0)
c2004d20:	e1a00000 	nop			; (mov r0, r0)
c2004d24:	e1a00000 	nop			; (mov r0, r0)
c2004d28:	e1a00000 	nop			; (mov r0, r0)
c2004d2c:	e1a00000 	nop			; (mov r0, r0)
c2004d30:	e1a00000 	nop			; (mov r0, r0)
c2004d34:	e1a00000 	nop			; (mov r0, r0)
c2004d38:	e1a00000 	nop			; (mov r0, r0)
c2004d3c:	e1a00000 	nop			; (mov r0, r0)
c2004d40:	f5d1f124 	pld	[r1, #292]	; 0x124
c2004d44:	e1cc22f8 	strd	r2, [ip, #40]	; 0x28
c2004d48:	e5912024 	ldr	r2, [r1, #36]	; 0x24
c2004d4c:	e5913028 	ldr	r3, [r1, #40]	; 0x28
c2004d50:	e1cc43f0 	strd	r4, [ip, #48]	; 0x30
c2004d54:	e591402c 	ldr	r4, [r1, #44]	; 0x2c
c2004d58:	e5915030 	ldr	r5, [r1, #48]	; 0x30
c2004d5c:	e1cc63f8 	strd	r6, [ip, #56]	; 0x38
c2004d60:	e5916034 	ldr	r6, [r1, #52]	; 0x34
c2004d64:	e5917038 	ldr	r7, [r1, #56]	; 0x38
c2004d68:	e1ec84f0 	strd	r8, [ip, #64]!	; 0x40
c2004d6c:	e591803c 	ldr	r8, [r1, #60]	; 0x3c
c2004d70:	e5b19040 	ldr	r9, [r1, #64]!	; 0x40
c2004d74:	e25aa040 	subs	sl, sl, #64	; 0x40
c2004d78:	e1cc20f8 	strd	r2, [ip, #8]
c2004d7c:	e5912004 	ldr	r2, [r1, #4]
c2004d80:	e5913008 	ldr	r3, [r1, #8]
c2004d84:	e1cc41f0 	strd	r4, [ip, #16]
c2004d88:	e591400c 	ldr	r4, [r1, #12]
c2004d8c:	e5915010 	ldr	r5, [r1, #16]
c2004d90:	e1cc61f8 	strd	r6, [ip, #24]
c2004d94:	e5916014 	ldr	r6, [r1, #20]
c2004d98:	e5917018 	ldr	r7, [r1, #24]
c2004d9c:	e1cc82f0 	strd	r8, [ip, #32]
c2004da0:	e591801c 	ldr	r8, [r1, #28]
c2004da4:	e5919020 	ldr	r9, [r1, #32]
c2004da8:	2affffe4 	bcs	c2004d40 <memcpy+0x540>
c2004dac:	e1cc22f8 	strd	r2, [ip, #40]	; 0x28
c2004db0:	e2811024 	add	r1, r1, #36	; 0x24
c2004db4:	e1cc43f0 	strd	r4, [ip, #48]	; 0x30
c2004db8:	e1cd40d8 	ldrd	r4, [sp, #8]
c2004dbc:	e1cc63f8 	strd	r6, [ip, #56]	; 0x38
c2004dc0:	e1cd61d0 	ldrd	r6, [sp, #16]
c2004dc4:	e1cc84f0 	strd	r8, [ip, #64]	; 0x40
c2004dc8:	e1cd81d8 	ldrd	r8, [sp, #24]
c2004dcc:	e28cc048 	add	ip, ip, #72	; 0x48
c2004dd0:	e21a203f 	ands	r2, sl, #63	; 0x3f
c2004dd4:	e49da020 	ldr	sl, [sp], #32
c2004dd8:	1afffe8b 	bne	c200480c <memcpy+0xc>
c2004ddc:	e12fff1e 	bx	lr

c2004de0 <__malloc_lock>:
c2004de0:	f648 7008 	movw	r0, #36616	; 0x8f08
c2004de4:	f2cc 2000 	movt	r0, #49664	; 0xc200
c2004de8:	f7ff b994 	b.w	c2004114 <__retarget_lock_acquire_recursive>

c2004dec <__malloc_unlock>:
c2004dec:	f648 7008 	movw	r0, #36616	; 0x8f08
c2004df0:	f2cc 2000 	movt	r0, #49664	; 0xc200
c2004df4:	f7ff b990 	b.w	c2004118 <__retarget_lock_release_recursive>

c2004df8 <_Balloc>:
c2004df8:	b538      	push	{r3, r4, r5, lr}
c2004dfa:	4605      	mov	r5, r0
c2004dfc:	6cc3      	ldr	r3, [r0, #76]	; 0x4c
c2004dfe:	460c      	mov	r4, r1
c2004e00:	b14b      	cbz	r3, c2004e16 <_Balloc+0x1e>
c2004e02:	f853 0024 	ldr.w	r0, [r3, r4, lsl #2]
c2004e06:	b180      	cbz	r0, c2004e2a <_Balloc+0x32>
c2004e08:	6802      	ldr	r2, [r0, #0]
c2004e0a:	f843 2024 	str.w	r2, [r3, r4, lsl #2]
c2004e0e:	2300      	movs	r3, #0
c2004e10:	e9c0 3303 	strd	r3, r3, [r0, #12]
c2004e14:	bd38      	pop	{r3, r4, r5, pc}
c2004e16:	2221      	movs	r2, #33	; 0x21
c2004e18:	2104      	movs	r1, #4
c2004e1a:	f001 fc87 	bl	c200672c <_calloc_r>
c2004e1e:	4603      	mov	r3, r0
c2004e20:	64e8      	str	r0, [r5, #76]	; 0x4c
c2004e22:	2800      	cmp	r0, #0
c2004e24:	d1ed      	bne.n	c2004e02 <_Balloc+0xa>
c2004e26:	2000      	movs	r0, #0
c2004e28:	bd38      	pop	{r3, r4, r5, pc}
c2004e2a:	2101      	movs	r1, #1
c2004e2c:	4628      	mov	r0, r5
c2004e2e:	fa01 f504 	lsl.w	r5, r1, r4
c2004e32:	1d6a      	adds	r2, r5, #5
c2004e34:	0092      	lsls	r2, r2, #2
c2004e36:	f001 fc79 	bl	c200672c <_calloc_r>
c2004e3a:	2800      	cmp	r0, #0
c2004e3c:	d0f3      	beq.n	c2004e26 <_Balloc+0x2e>
c2004e3e:	e9c0 4501 	strd	r4, r5, [r0, #4]
c2004e42:	e7e4      	b.n	c2004e0e <_Balloc+0x16>

c2004e44 <_Bfree>:
c2004e44:	b131      	cbz	r1, c2004e54 <_Bfree+0x10>
c2004e46:	6cc3      	ldr	r3, [r0, #76]	; 0x4c
c2004e48:	684a      	ldr	r2, [r1, #4]
c2004e4a:	f853 0022 	ldr.w	r0, [r3, r2, lsl #2]
c2004e4e:	6008      	str	r0, [r1, #0]
c2004e50:	f843 1022 	str.w	r1, [r3, r2, lsl #2]
c2004e54:	4770      	bx	lr
c2004e56:	bf00      	nop

c2004e58 <__multadd>:
c2004e58:	b5f0      	push	{r4, r5, r6, r7, lr}
c2004e5a:	4607      	mov	r7, r0
c2004e5c:	690d      	ldr	r5, [r1, #16]
c2004e5e:	b083      	sub	sp, #12
c2004e60:	460e      	mov	r6, r1
c2004e62:	f101 0e14 	add.w	lr, r1, #20
c2004e66:	2000      	movs	r0, #0
c2004e68:	f8de 1000 	ldr.w	r1, [lr]
c2004e6c:	3001      	adds	r0, #1
c2004e6e:	4285      	cmp	r5, r0
c2004e70:	b28c      	uxth	r4, r1
c2004e72:	ea4f 4111 	mov.w	r1, r1, lsr #16
c2004e76:	fb02 3304 	mla	r3, r2, r4, r3
c2004e7a:	ea4f 4c13 	mov.w	ip, r3, lsr #16
c2004e7e:	b29b      	uxth	r3, r3
c2004e80:	fb02 cc01 	mla	ip, r2, r1, ip
c2004e84:	eb03 440c 	add.w	r4, r3, ip, lsl #16
c2004e88:	ea4f 431c 	mov.w	r3, ip, lsr #16
c2004e8c:	f84e 4b04 	str.w	r4, [lr], #4
c2004e90:	dcea      	bgt.n	c2004e68 <__multadd+0x10>
c2004e92:	b13b      	cbz	r3, c2004ea4 <__multadd+0x4c>
c2004e94:	68b2      	ldr	r2, [r6, #8]
c2004e96:	42aa      	cmp	r2, r5
c2004e98:	dd07      	ble.n	c2004eaa <__multadd+0x52>
c2004e9a:	eb06 0285 	add.w	r2, r6, r5, lsl #2
c2004e9e:	3501      	adds	r5, #1
c2004ea0:	6153      	str	r3, [r2, #20]
c2004ea2:	6135      	str	r5, [r6, #16]
c2004ea4:	4630      	mov	r0, r6
c2004ea6:	b003      	add	sp, #12
c2004ea8:	bdf0      	pop	{r4, r5, r6, r7, pc}
c2004eaa:	6871      	ldr	r1, [r6, #4]
c2004eac:	4638      	mov	r0, r7
c2004eae:	9301      	str	r3, [sp, #4]
c2004eb0:	3101      	adds	r1, #1
c2004eb2:	f7ff ffa1 	bl	c2004df8 <_Balloc>
c2004eb6:	9b01      	ldr	r3, [sp, #4]
c2004eb8:	4604      	mov	r4, r0
c2004eba:	b1b8      	cbz	r0, c2004eec <__multadd+0x94>
c2004ebc:	6932      	ldr	r2, [r6, #16]
c2004ebe:	f106 010c 	add.w	r1, r6, #12
c2004ec2:	300c      	adds	r0, #12
c2004ec4:	9301      	str	r3, [sp, #4]
c2004ec6:	3202      	adds	r2, #2
c2004ec8:	0092      	lsls	r2, r2, #2
c2004eca:	f7ff ec9a 	blx	c2004800 <memcpy>
c2004ece:	6cfa      	ldr	r2, [r7, #76]	; 0x4c
c2004ed0:	6871      	ldr	r1, [r6, #4]
c2004ed2:	9b01      	ldr	r3, [sp, #4]
c2004ed4:	f852 0021 	ldr.w	r0, [r2, r1, lsl #2]
c2004ed8:	6030      	str	r0, [r6, #0]
c2004eda:	f842 6021 	str.w	r6, [r2, r1, lsl #2]
c2004ede:	4626      	mov	r6, r4
c2004ee0:	eb06 0285 	add.w	r2, r6, r5, lsl #2
c2004ee4:	3501      	adds	r5, #1
c2004ee6:	6153      	str	r3, [r2, #20]
c2004ee8:	6135      	str	r5, [r6, #16]
c2004eea:	e7db      	b.n	c2004ea4 <__multadd+0x4c>
c2004eec:	f647 5330 	movw	r3, #32048	; 0x7d30
c2004ef0:	f2cc 2300 	movt	r3, #49664	; 0xc200
c2004ef4:	f647 50c4 	movw	r0, #32196	; 0x7dc4
c2004ef8:	f2cc 2000 	movt	r0, #49664	; 0xc200
c2004efc:	4622      	mov	r2, r4
c2004efe:	21b5      	movs	r1, #181	; 0xb5
c2004f00:	f001 fbf2 	bl	c20066e8 <__assert_func>

c2004f04 <__hi0bits>:
c2004f04:	0c03      	lsrs	r3, r0, #16
c2004f06:	041b      	lsls	r3, r3, #16
c2004f08:	b9d3      	cbnz	r3, c2004f40 <__hi0bits+0x3c>
c2004f0a:	0400      	lsls	r0, r0, #16
c2004f0c:	2310      	movs	r3, #16
c2004f0e:	f010 4f7f 	tst.w	r0, #4278190080	; 0xff000000
c2004f12:	bf04      	itt	eq
c2004f14:	0200      	lsleq	r0, r0, #8
c2004f16:	3308      	addeq	r3, #8
c2004f18:	f010 4f70 	tst.w	r0, #4026531840	; 0xf0000000
c2004f1c:	bf04      	itt	eq
c2004f1e:	0100      	lsleq	r0, r0, #4
c2004f20:	3304      	addeq	r3, #4
c2004f22:	f010 4f40 	tst.w	r0, #3221225472	; 0xc0000000
c2004f26:	bf04      	itt	eq
c2004f28:	0080      	lsleq	r0, r0, #2
c2004f2a:	3302      	addeq	r3, #2
c2004f2c:	2800      	cmp	r0, #0
c2004f2e:	db05      	blt.n	c2004f3c <__hi0bits+0x38>
c2004f30:	f010 4f80 	tst.w	r0, #1073741824	; 0x40000000
c2004f34:	f103 0301 	add.w	r3, r3, #1
c2004f38:	bf08      	it	eq
c2004f3a:	2320      	moveq	r3, #32
c2004f3c:	4618      	mov	r0, r3
c2004f3e:	4770      	bx	lr
c2004f40:	2300      	movs	r3, #0
c2004f42:	e7e4      	b.n	c2004f0e <__hi0bits+0xa>

c2004f44 <__lo0bits>:
c2004f44:	6803      	ldr	r3, [r0, #0]
c2004f46:	4601      	mov	r1, r0
c2004f48:	f013 0207 	ands.w	r2, r3, #7
c2004f4c:	d009      	beq.n	c2004f62 <__lo0bits+0x1e>
c2004f4e:	07da      	lsls	r2, r3, #31
c2004f50:	d420      	bmi.n	c2004f94 <__lo0bits+0x50>
c2004f52:	0798      	lsls	r0, r3, #30
c2004f54:	bf47      	ittee	mi
c2004f56:	2001      	movmi	r0, #1
c2004f58:	085b      	lsrmi	r3, r3, #1
c2004f5a:	089b      	lsrpl	r3, r3, #2
c2004f5c:	2002      	movpl	r0, #2
c2004f5e:	600b      	str	r3, [r1, #0]
c2004f60:	4770      	bx	lr
c2004f62:	b298      	uxth	r0, r3
c2004f64:	b198      	cbz	r0, c2004f8e <__lo0bits+0x4a>
c2004f66:	4610      	mov	r0, r2
c2004f68:	b2da      	uxtb	r2, r3
c2004f6a:	b90a      	cbnz	r2, c2004f70 <__lo0bits+0x2c>
c2004f6c:	3008      	adds	r0, #8
c2004f6e:	0a1b      	lsrs	r3, r3, #8
c2004f70:	071a      	lsls	r2, r3, #28
c2004f72:	bf04      	itt	eq
c2004f74:	3004      	addeq	r0, #4
c2004f76:	091b      	lsreq	r3, r3, #4
c2004f78:	079a      	lsls	r2, r3, #30
c2004f7a:	bf04      	itt	eq
c2004f7c:	3002      	addeq	r0, #2
c2004f7e:	089b      	lsreq	r3, r3, #2
c2004f80:	07da      	lsls	r2, r3, #31
c2004f82:	d402      	bmi.n	c2004f8a <__lo0bits+0x46>
c2004f84:	3001      	adds	r0, #1
c2004f86:	085b      	lsrs	r3, r3, #1
c2004f88:	d006      	beq.n	c2004f98 <__lo0bits+0x54>
c2004f8a:	600b      	str	r3, [r1, #0]
c2004f8c:	4770      	bx	lr
c2004f8e:	0c1b      	lsrs	r3, r3, #16
c2004f90:	2010      	movs	r0, #16
c2004f92:	e7e9      	b.n	c2004f68 <__lo0bits+0x24>
c2004f94:	2000      	movs	r0, #0
c2004f96:	4770      	bx	lr
c2004f98:	2020      	movs	r0, #32
c2004f9a:	4770      	bx	lr

c2004f9c <__i2b>:
c2004f9c:	b538      	push	{r3, r4, r5, lr}
c2004f9e:	4604      	mov	r4, r0
c2004fa0:	6cc3      	ldr	r3, [r0, #76]	; 0x4c
c2004fa2:	460d      	mov	r5, r1
c2004fa4:	b14b      	cbz	r3, c2004fba <__i2b+0x1e>
c2004fa6:	6858      	ldr	r0, [r3, #4]
c2004fa8:	b1e0      	cbz	r0, c2004fe4 <__i2b+0x48>
c2004faa:	6802      	ldr	r2, [r0, #0]
c2004fac:	605a      	str	r2, [r3, #4]
c2004fae:	2200      	movs	r2, #0
c2004fb0:	2301      	movs	r3, #1
c2004fb2:	60c2      	str	r2, [r0, #12]
c2004fb4:	e9c0 3504 	strd	r3, r5, [r0, #16]
c2004fb8:	bd38      	pop	{r3, r4, r5, pc}
c2004fba:	2221      	movs	r2, #33	; 0x21
c2004fbc:	2104      	movs	r1, #4
c2004fbe:	f001 fbb5 	bl	c200672c <_calloc_r>
c2004fc2:	4603      	mov	r3, r0
c2004fc4:	64e0      	str	r0, [r4, #76]	; 0x4c
c2004fc6:	2800      	cmp	r0, #0
c2004fc8:	d1ed      	bne.n	c2004fa6 <__i2b+0xa>
c2004fca:	f647 5330 	movw	r3, #32048	; 0x7d30
c2004fce:	f2cc 2300 	movt	r3, #49664	; 0xc200
c2004fd2:	f647 50c4 	movw	r0, #32196	; 0x7dc4
c2004fd6:	f2cc 2000 	movt	r0, #49664	; 0xc200
c2004fda:	2200      	movs	r2, #0
c2004fdc:	f44f 71a0 	mov.w	r1, #320	; 0x140
c2004fe0:	f001 fb82 	bl	c20066e8 <__assert_func>
c2004fe4:	221c      	movs	r2, #28
c2004fe6:	2101      	movs	r1, #1
c2004fe8:	4620      	mov	r0, r4
c2004fea:	f001 fb9f 	bl	c200672c <_calloc_r>
c2004fee:	2800      	cmp	r0, #0
c2004ff0:	d0eb      	beq.n	c2004fca <__i2b+0x2e>
c2004ff2:	2201      	movs	r2, #1
c2004ff4:	2302      	movs	r3, #2
c2004ff6:	e9c0 2301 	strd	r2, r3, [r0, #4]
c2004ffa:	e7d8      	b.n	c2004fae <__i2b+0x12>

c2004ffc <__multiply>:
c2004ffc:	e92d 4ff0 	stmdb	sp!, {r4, r5, r6, r7, r8, r9, sl, fp, lr}
c2005000:	6913      	ldr	r3, [r2, #16]
c2005002:	690e      	ldr	r6, [r1, #16]
c2005004:	b085      	sub	sp, #20
c2005006:	429e      	cmp	r6, r3
c2005008:	bfb5      	itete	lt
c200500a:	4614      	movlt	r4, r2
c200500c:	460c      	movge	r4, r1
c200500e:	461d      	movlt	r5, r3
c2005010:	469b      	movge	fp, r3
c2005012:	bfb4      	ite	lt
c2005014:	4688      	movlt	r8, r1
c2005016:	4635      	movge	r5, r6
c2005018:	e9d4 1301 	ldrd	r1, r3, [r4, #4]
c200501c:	bfb8      	it	lt
c200501e:	46b3      	movlt	fp, r6
c2005020:	eb05 070b 	add.w	r7, r5, fp
c2005024:	bfa8      	it	ge
c2005026:	4690      	movge	r8, r2
c2005028:	42bb      	cmp	r3, r7
c200502a:	bfb8      	it	lt
c200502c:	3101      	addlt	r1, #1
c200502e:	f7ff fee3 	bl	c2004df8 <_Balloc>
c2005032:	9001      	str	r0, [sp, #4]
c2005034:	2800      	cmp	r0, #0
c2005036:	f000 808b 	beq.w	c2005150 <__multiply+0x154>
c200503a:	9b01      	ldr	r3, [sp, #4]
c200503c:	f103 0914 	add.w	r9, r3, #20
c2005040:	eb09 0a87 	add.w	sl, r9, r7, lsl #2
c2005044:	45d1      	cmp	r9, sl
c2005046:	bf3c      	itt	cc
c2005048:	464b      	movcc	r3, r9
c200504a:	2200      	movcc	r2, #0
c200504c:	d203      	bcs.n	c2005056 <__multiply+0x5a>
c200504e:	f843 2b04 	str.w	r2, [r3], #4
c2005052:	459a      	cmp	sl, r3
c2005054:	d8fb      	bhi.n	c200504e <__multiply+0x52>
c2005056:	f108 0814 	add.w	r8, r8, #20
c200505a:	f104 0314 	add.w	r3, r4, #20
c200505e:	eb08 0b8b 	add.w	fp, r8, fp, lsl #2
c2005062:	461a      	mov	r2, r3
c2005064:	eb03 0585 	add.w	r5, r3, r5, lsl #2
c2005068:	45d8      	cmp	r8, fp
c200506a:	d262      	bcs.n	c2005132 <__multiply+0x136>
c200506c:	1b2b      	subs	r3, r5, r4
c200506e:	3415      	adds	r4, #21
c2005070:	3b15      	subs	r3, #21
c2005072:	e9cd a702 	strd	sl, r7, [sp, #8]
c2005076:	f023 0303 	bic.w	r3, r3, #3
c200507a:	46ac      	mov	ip, r5
c200507c:	3304      	adds	r3, #4
c200507e:	4692      	mov	sl, r2
c2005080:	42a5      	cmp	r5, r4
c2005082:	bf38      	it	cc
c2005084:	2304      	movcc	r3, #4
c2005086:	461f      	mov	r7, r3
c2005088:	e005      	b.n	c2005096 <__multiply+0x9a>
c200508a:	0c00      	lsrs	r0, r0, #16
c200508c:	d12b      	bne.n	c20050e6 <__multiply+0xea>
c200508e:	f109 0904 	add.w	r9, r9, #4
c2005092:	45c3      	cmp	fp, r8
c2005094:	d94b      	bls.n	c200512e <__multiply+0x132>
c2005096:	f858 0b04 	ldr.w	r0, [r8], #4
c200509a:	b285      	uxth	r5, r0
c200509c:	2d00      	cmp	r5, #0
c200509e:	d0f4      	beq.n	c200508a <__multiply+0x8e>
c20050a0:	4656      	mov	r6, sl
c20050a2:	464c      	mov	r4, r9
c20050a4:	2300      	movs	r3, #0
c20050a6:	f856 0b04 	ldr.w	r0, [r6], #4
c20050aa:	6821      	ldr	r1, [r4, #0]
c20050ac:	45b4      	cmp	ip, r6
c20050ae:	b282      	uxth	r2, r0
c20050b0:	ea4f 4010 	mov.w	r0, r0, lsr #16
c20050b4:	fa1f fe81 	uxth.w	lr, r1
c20050b8:	fb05 ee02 	mla	lr, r5, r2, lr
c20050bc:	ea4f 4211 	mov.w	r2, r1, lsr #16
c20050c0:	4473      	add	r3, lr
c20050c2:	fb05 2200 	mla	r2, r5, r0, r2
c20050c6:	eb02 4213 	add.w	r2, r2, r3, lsr #16
c20050ca:	b29b      	uxth	r3, r3
c20050cc:	ea43 4302 	orr.w	r3, r3, r2, lsl #16
c20050d0:	f844 3b04 	str.w	r3, [r4], #4
c20050d4:	ea4f 4312 	mov.w	r3, r2, lsr #16
c20050d8:	d8e5      	bhi.n	c20050a6 <__multiply+0xaa>
c20050da:	f849 3007 	str.w	r3, [r9, r7]
c20050de:	f858 0c04 	ldr.w	r0, [r8, #-4]
c20050e2:	0c00      	lsrs	r0, r0, #16
c20050e4:	d0d3      	beq.n	c200508e <__multiply+0x92>
c20050e6:	f8d9 3000 	ldr.w	r3, [r9]
c20050ea:	4654      	mov	r4, sl
c20050ec:	464d      	mov	r5, r9
c20050ee:	2200      	movs	r2, #0
c20050f0:	4619      	mov	r1, r3
c20050f2:	8826      	ldrh	r6, [r4, #0]
c20050f4:	0c09      	lsrs	r1, r1, #16
c20050f6:	b29b      	uxth	r3, r3
c20050f8:	fb00 1106 	mla	r1, r0, r6, r1
c20050fc:	440a      	add	r2, r1
c20050fe:	ea43 4302 	orr.w	r3, r3, r2, lsl #16
c2005102:	f845 3b04 	str.w	r3, [r5], #4
c2005106:	f854 6b04 	ldr.w	r6, [r4], #4
c200510a:	6829      	ldr	r1, [r5, #0]
c200510c:	45a4      	cmp	ip, r4
c200510e:	ea4f 4616 	mov.w	r6, r6, lsr #16
c2005112:	b28b      	uxth	r3, r1
c2005114:	fb00 3306 	mla	r3, r0, r6, r3
c2005118:	eb03 4312 	add.w	r3, r3, r2, lsr #16
c200511c:	ea4f 4213 	mov.w	r2, r3, lsr #16
c2005120:	d8e7      	bhi.n	c20050f2 <__multiply+0xf6>
c2005122:	f849 3007 	str.w	r3, [r9, r7]
c2005126:	45c3      	cmp	fp, r8
c2005128:	f109 0904 	add.w	r9, r9, #4
c200512c:	d8b3      	bhi.n	c2005096 <__multiply+0x9a>
c200512e:	e9dd a702 	ldrd	sl, r7, [sp, #8]
c2005132:	2f00      	cmp	r7, #0
c2005134:	dc02      	bgt.n	c200513c <__multiply+0x140>
c2005136:	e005      	b.n	c2005144 <__multiply+0x148>
c2005138:	3f01      	subs	r7, #1
c200513a:	d003      	beq.n	c2005144 <__multiply+0x148>
c200513c:	f85a 3d04 	ldr.w	r3, [sl, #-4]!
c2005140:	2b00      	cmp	r3, #0
c2005142:	d0f9      	beq.n	c2005138 <__multiply+0x13c>
c2005144:	9b01      	ldr	r3, [sp, #4]
c2005146:	4618      	mov	r0, r3
c2005148:	611f      	str	r7, [r3, #16]
c200514a:	b005      	add	sp, #20
c200514c:	e8bd 8ff0 	ldmia.w	sp!, {r4, r5, r6, r7, r8, r9, sl, fp, pc}
c2005150:	f647 5330 	movw	r3, #32048	; 0x7d30
c2005154:	f2cc 2300 	movt	r3, #49664	; 0xc200
c2005158:	f647 50c4 	movw	r0, #32196	; 0x7dc4
c200515c:	f2cc 2000 	movt	r0, #49664	; 0xc200
c2005160:	9a01      	ldr	r2, [sp, #4]
c2005162:	f240 115d 	movw	r1, #349	; 0x15d
c2005166:	f001 fabf 	bl	c20066e8 <__assert_func>
c200516a:	bf00      	nop

c200516c <__pow5mult>:
c200516c:	f012 0303 	ands.w	r3, r2, #3
c2005170:	e92d 41f0 	stmdb	sp!, {r4, r5, r6, r7, r8, lr}
c2005174:	4614      	mov	r4, r2
c2005176:	4606      	mov	r6, r0
c2005178:	bf08      	it	eq
c200517a:	460d      	moveq	r5, r1
c200517c:	d130      	bne.n	c20051e0 <__pow5mult+0x74>
c200517e:	10a4      	asrs	r4, r4, #2
c2005180:	d01f      	beq.n	c20051c2 <__pow5mult+0x56>
c2005182:	f8d6 8048 	ldr.w	r8, [r6, #72]	; 0x48
c2005186:	f1b8 0f00 	cmp.w	r8, #0
c200518a:	d035      	beq.n	c20051f8 <__pow5mult+0x8c>
c200518c:	2700      	movs	r7, #0
c200518e:	07e3      	lsls	r3, r4, #31
c2005190:	d407      	bmi.n	c20051a2 <__pow5mult+0x36>
c2005192:	1064      	asrs	r4, r4, #1
c2005194:	d015      	beq.n	c20051c2 <__pow5mult+0x56>
c2005196:	f8d8 0000 	ldr.w	r0, [r8]
c200519a:	b1a8      	cbz	r0, c20051c8 <__pow5mult+0x5c>
c200519c:	4680      	mov	r8, r0
c200519e:	07e3      	lsls	r3, r4, #31
c20051a0:	d5f7      	bpl.n	c2005192 <__pow5mult+0x26>
c20051a2:	4642      	mov	r2, r8
c20051a4:	4629      	mov	r1, r5
c20051a6:	4630      	mov	r0, r6
c20051a8:	f7ff ff28 	bl	c2004ffc <__multiply>
c20051ac:	b1b5      	cbz	r5, c20051dc <__pow5mult+0x70>
c20051ae:	6869      	ldr	r1, [r5, #4]
c20051b0:	1064      	asrs	r4, r4, #1
c20051b2:	6cf3      	ldr	r3, [r6, #76]	; 0x4c
c20051b4:	f853 2021 	ldr.w	r2, [r3, r1, lsl #2]
c20051b8:	602a      	str	r2, [r5, #0]
c20051ba:	f843 5021 	str.w	r5, [r3, r1, lsl #2]
c20051be:	4605      	mov	r5, r0
c20051c0:	d1e9      	bne.n	c2005196 <__pow5mult+0x2a>
c20051c2:	4628      	mov	r0, r5
c20051c4:	e8bd 81f0 	ldmia.w	sp!, {r4, r5, r6, r7, r8, pc}
c20051c8:	4642      	mov	r2, r8
c20051ca:	4641      	mov	r1, r8
c20051cc:	4630      	mov	r0, r6
c20051ce:	f7ff ff15 	bl	c2004ffc <__multiply>
c20051d2:	f8c8 0000 	str.w	r0, [r8]
c20051d6:	4680      	mov	r8, r0
c20051d8:	6007      	str	r7, [r0, #0]
c20051da:	e7e0      	b.n	c200519e <__pow5mult+0x32>
c20051dc:	4605      	mov	r5, r0
c20051de:	e7d8      	b.n	c2005192 <__pow5mult+0x26>
c20051e0:	3b01      	subs	r3, #1
c20051e2:	f647 7238 	movw	r2, #32568	; 0x7f38
c20051e6:	f2cc 2200 	movt	r2, #49664	; 0xc200
c20051ea:	f852 2023 	ldr.w	r2, [r2, r3, lsl #2]
c20051ee:	2300      	movs	r3, #0
c20051f0:	f7ff fe32 	bl	c2004e58 <__multadd>
c20051f4:	4605      	mov	r5, r0
c20051f6:	e7c2      	b.n	c200517e <__pow5mult+0x12>
c20051f8:	2101      	movs	r1, #1
c20051fa:	4630      	mov	r0, r6
c20051fc:	f7ff fdfc 	bl	c2004df8 <_Balloc>
c2005200:	4680      	mov	r8, r0
c2005202:	b140      	cbz	r0, c2005216 <__pow5mult+0xaa>
c2005204:	2301      	movs	r3, #1
c2005206:	f240 2271 	movw	r2, #625	; 0x271
c200520a:	e9c0 3204 	strd	r3, r2, [r0, #16]
c200520e:	2300      	movs	r3, #0
c2005210:	64b0      	str	r0, [r6, #72]	; 0x48
c2005212:	6003      	str	r3, [r0, #0]
c2005214:	e7ba      	b.n	c200518c <__pow5mult+0x20>
c2005216:	f647 5330 	movw	r3, #32048	; 0x7d30
c200521a:	f2cc 2300 	movt	r3, #49664	; 0xc200
c200521e:	f647 50c4 	movw	r0, #32196	; 0x7dc4
c2005222:	f2cc 2000 	movt	r0, #49664	; 0xc200
c2005226:	4642      	mov	r2, r8
c2005228:	f44f 71a0 	mov.w	r1, #320	; 0x140
c200522c:	f001 fa5c 	bl	c20066e8 <__assert_func>

c2005230 <__lshift>:
c2005230:	e92d 47f0 	stmdb	sp!, {r4, r5, r6, r7, r8, r9, sl, lr}
c2005234:	460c      	mov	r4, r1
c2005236:	ea4f 1962 	mov.w	r9, r2, asr #5
c200523a:	6849      	ldr	r1, [r1, #4]
c200523c:	4690      	mov	r8, r2
c200523e:	6926      	ldr	r6, [r4, #16]
c2005240:	4607      	mov	r7, r0
c2005242:	68a3      	ldr	r3, [r4, #8]
c2005244:	444e      	add	r6, r9
c2005246:	1c75      	adds	r5, r6, #1
c2005248:	429d      	cmp	r5, r3
c200524a:	dd03      	ble.n	c2005254 <__lshift+0x24>
c200524c:	005b      	lsls	r3, r3, #1
c200524e:	3101      	adds	r1, #1
c2005250:	429d      	cmp	r5, r3
c2005252:	dcfb      	bgt.n	c200524c <__lshift+0x1c>
c2005254:	4638      	mov	r0, r7
c2005256:	f7ff fdcf 	bl	c2004df8 <_Balloc>
c200525a:	4684      	mov	ip, r0
c200525c:	2800      	cmp	r0, #0
c200525e:	d050      	beq.n	c2005302 <__lshift+0xd2>
c2005260:	3014      	adds	r0, #20
c2005262:	f1b9 0f00 	cmp.w	r9, #0
c2005266:	dd0e      	ble.n	c2005286 <__lshift+0x56>
c2005268:	f109 0905 	add.w	r9, r9, #5
c200526c:	4603      	mov	r3, r0
c200526e:	2200      	movs	r2, #0
c2005270:	ea4f 0989 	mov.w	r9, r9, lsl #2
c2005274:	eb0c 0109 	add.w	r1, ip, r9
c2005278:	f843 2b04 	str.w	r2, [r3], #4
c200527c:	428b      	cmp	r3, r1
c200527e:	d1fb      	bne.n	c2005278 <__lshift+0x48>
c2005280:	f1a9 0914 	sub.w	r9, r9, #20
c2005284:	4448      	add	r0, r9
c2005286:	6921      	ldr	r1, [r4, #16]
c2005288:	f104 0314 	add.w	r3, r4, #20
c200528c:	f018 081f 	ands.w	r8, r8, #31
c2005290:	eb03 0181 	add.w	r1, r3, r1, lsl #2
c2005294:	d02d      	beq.n	c20052f2 <__lshift+0xc2>
c2005296:	f1c8 0920 	rsb	r9, r8, #32
c200529a:	4686      	mov	lr, r0
c200529c:	f04f 0a00 	mov.w	sl, #0
c20052a0:	681a      	ldr	r2, [r3, #0]
c20052a2:	fa02 f208 	lsl.w	r2, r2, r8
c20052a6:	ea42 020a 	orr.w	r2, r2, sl
c20052aa:	f84e 2b04 	str.w	r2, [lr], #4
c20052ae:	f853 2b04 	ldr.w	r2, [r3], #4
c20052b2:	4299      	cmp	r1, r3
c20052b4:	fa22 fa09 	lsr.w	sl, r2, r9
c20052b8:	d8f2      	bhi.n	c20052a0 <__lshift+0x70>
c20052ba:	1b0b      	subs	r3, r1, r4
c20052bc:	f104 0215 	add.w	r2, r4, #21
c20052c0:	3b15      	subs	r3, #21
c20052c2:	f1ba 0f00 	cmp.w	sl, #0
c20052c6:	bf18      	it	ne
c20052c8:	462e      	movne	r6, r5
c20052ca:	f023 0303 	bic.w	r3, r3, #3
c20052ce:	3304      	adds	r3, #4
c20052d0:	4291      	cmp	r1, r2
c20052d2:	bf38      	it	cc
c20052d4:	2304      	movcc	r3, #4
c20052d6:	f840 a003 	str.w	sl, [r0, r3]
c20052da:	6cfb      	ldr	r3, [r7, #76]	; 0x4c
c20052dc:	4660      	mov	r0, ip
c20052de:	6862      	ldr	r2, [r4, #4]
c20052e0:	f8cc 6010 	str.w	r6, [ip, #16]
c20052e4:	f853 1022 	ldr.w	r1, [r3, r2, lsl #2]
c20052e8:	6021      	str	r1, [r4, #0]
c20052ea:	f843 4022 	str.w	r4, [r3, r2, lsl #2]
c20052ee:	e8bd 87f0 	ldmia.w	sp!, {r4, r5, r6, r7, r8, r9, sl, pc}
c20052f2:	3804      	subs	r0, #4
c20052f4:	f853 2b04 	ldr.w	r2, [r3], #4
c20052f8:	f840 2f04 	str.w	r2, [r0, #4]!
c20052fc:	4299      	cmp	r1, r3
c20052fe:	d8f9      	bhi.n	c20052f4 <__lshift+0xc4>
c2005300:	e7eb      	b.n	c20052da <__lshift+0xaa>
c2005302:	f647 5330 	movw	r3, #32048	; 0x7d30
c2005306:	f2cc 2300 	movt	r3, #49664	; 0xc200
c200530a:	f647 50c4 	movw	r0, #32196	; 0x7dc4
c200530e:	f2cc 2000 	movt	r0, #49664	; 0xc200
c2005312:	4662      	mov	r2, ip
c2005314:	f240 11d9 	movw	r1, #473	; 0x1d9
c2005318:	f001 f9e6 	bl	c20066e8 <__assert_func>

c200531c <__mcmp>:
c200531c:	690b      	ldr	r3, [r1, #16]
c200531e:	4684      	mov	ip, r0
c2005320:	6900      	ldr	r0, [r0, #16]
c2005322:	1ac0      	subs	r0, r0, r3
c2005324:	d116      	bne.n	c2005354 <__mcmp+0x38>
c2005326:	009b      	lsls	r3, r3, #2
c2005328:	f10c 0c14 	add.w	ip, ip, #20
c200532c:	3114      	adds	r1, #20
c200532e:	eb0c 0203 	add.w	r2, ip, r3
c2005332:	b410      	push	{r4}
c2005334:	440b      	add	r3, r1
c2005336:	e001      	b.n	c200533c <__mcmp+0x20>
c2005338:	4594      	cmp	ip, r2
c200533a:	d208      	bcs.n	c200534e <__mcmp+0x32>
c200533c:	f852 4d04 	ldr.w	r4, [r2, #-4]!
c2005340:	f853 1d04 	ldr.w	r1, [r3, #-4]!
c2005344:	428c      	cmp	r4, r1
c2005346:	d0f7      	beq.n	c2005338 <__mcmp+0x1c>
c2005348:	bf28      	it	cs
c200534a:	2001      	movcs	r0, #1
c200534c:	d303      	bcc.n	c2005356 <__mcmp+0x3a>
c200534e:	f85d 4b04 	ldr.w	r4, [sp], #4
c2005352:	4770      	bx	lr
c2005354:	4770      	bx	lr
c2005356:	f04f 30ff 	mov.w	r0, #4294967295	; 0xffffffff
c200535a:	f85d 4b04 	ldr.w	r4, [sp], #4
c200535e:	4770      	bx	lr

c2005360 <__mdiff>:
c2005360:	e92d 4ff8 	stmdb	sp!, {r3, r4, r5, r6, r7, r8, r9, sl, fp, lr}
c2005364:	460c      	mov	r4, r1
c2005366:	690e      	ldr	r6, [r1, #16]
c2005368:	6913      	ldr	r3, [r2, #16]
c200536a:	4690      	mov	r8, r2
c200536c:	1af6      	subs	r6, r6, r3
c200536e:	2e00      	cmp	r6, #0
c2005370:	d176      	bne.n	c2005460 <__mdiff+0x100>
c2005372:	009b      	lsls	r3, r3, #2
c2005374:	f101 0714 	add.w	r7, r1, #20
c2005378:	3214      	adds	r2, #20
c200537a:	441a      	add	r2, r3
c200537c:	443b      	add	r3, r7
c200537e:	e001      	b.n	c2005384 <__mdiff+0x24>
c2005380:	429f      	cmp	r7, r3
c2005382:	d275      	bcs.n	c2005470 <__mdiff+0x110>
c2005384:	f853 5d04 	ldr.w	r5, [r3, #-4]!
c2005388:	f852 1d04 	ldr.w	r1, [r2, #-4]!
c200538c:	428d      	cmp	r5, r1
c200538e:	d0f7      	beq.n	c2005380 <__mdiff+0x20>
c2005390:	d369      	bcc.n	c2005466 <__mdiff+0x106>
c2005392:	6861      	ldr	r1, [r4, #4]
c2005394:	f7ff fd30 	bl	c2004df8 <_Balloc>
c2005398:	4681      	mov	r9, r0
c200539a:	2800      	cmp	r0, #0
c200539c:	d074      	beq.n	c2005488 <__mdiff+0x128>
c200539e:	6925      	ldr	r5, [r4, #16]
c20053a0:	f108 0e14 	add.w	lr, r8, #20
c20053a4:	f8d8 2010 	ldr.w	r2, [r8, #16]
c20053a8:	f109 0a14 	add.w	sl, r9, #20
c20053ac:	60c6      	str	r6, [r0, #12]
c20053ae:	f104 0014 	add.w	r0, r4, #20
c20053b2:	f104 0c10 	add.w	ip, r4, #16
c20053b6:	eb00 0785 	add.w	r7, r0, r5, lsl #2
c20053ba:	eb0e 0282 	add.w	r2, lr, r2, lsl #2
c20053be:	4656      	mov	r6, sl
c20053c0:	2100      	movs	r1, #0
c20053c2:	f85e 4b04 	ldr.w	r4, [lr], #4
c20053c6:	f85c bf04 	ldr.w	fp, [ip, #4]!
c20053ca:	4572      	cmp	r2, lr
c20053cc:	b2a3      	uxth	r3, r4
c20053ce:	fa11 f18b 	uxtah	r1, r1, fp
c20053d2:	eba1 0303 	sub.w	r3, r1, r3
c20053d6:	ea4f 4114 	mov.w	r1, r4, lsr #16
c20053da:	ebc1 411b 	rsb	r1, r1, fp, lsr #16
c20053de:	eb01 4123 	add.w	r1, r1, r3, asr #16
c20053e2:	b29b      	uxth	r3, r3
c20053e4:	ea43 4301 	orr.w	r3, r3, r1, lsl #16
c20053e8:	ea4f 4121 	mov.w	r1, r1, asr #16
c20053ec:	f846 3b04 	str.w	r3, [r6], #4
c20053f0:	d8e7      	bhi.n	c20053c2 <__mdiff+0x62>
c20053f2:	eba2 0408 	sub.w	r4, r2, r8
c20053f6:	f108 0815 	add.w	r8, r8, #21
c20053fa:	4542      	cmp	r2, r8
c20053fc:	f1a4 0215 	sub.w	r2, r4, #21
c2005400:	f022 0403 	bic.w	r4, r2, #3
c2005404:	4622      	mov	r2, r4
c2005406:	f104 0404 	add.w	r4, r4, #4
c200540a:	bf3c      	itt	cc
c200540c:	2404      	movcc	r4, #4
c200540e:	2200      	movcc	r2, #0
c2005410:	4420      	add	r0, r4
c2005412:	4452      	add	r2, sl
c2005414:	4287      	cmp	r7, r0
c2005416:	44a2      	add	sl, r4
c2005418:	d917      	bls.n	c200544a <__mdiff+0xea>
c200541a:	4656      	mov	r6, sl
c200541c:	4602      	mov	r2, r0
c200541e:	f852 4b04 	ldr.w	r4, [r2], #4
c2005422:	4297      	cmp	r7, r2
c2005424:	fa11 f384 	uxtah	r3, r1, r4
c2005428:	ea4f 4123 	mov.w	r1, r3, asr #16
c200542c:	b29b      	uxth	r3, r3
c200542e:	eb01 4114 	add.w	r1, r1, r4, lsr #16
c2005432:	ea43 4301 	orr.w	r3, r3, r1, lsl #16
c2005436:	ea4f 4121 	mov.w	r1, r1, asr #16
c200543a:	f846 3b04 	str.w	r3, [r6], #4
c200543e:	d8ee      	bhi.n	c200541e <__mdiff+0xbe>
c2005440:	1e7a      	subs	r2, r7, #1
c2005442:	1a10      	subs	r0, r2, r0
c2005444:	f020 0203 	bic.w	r2, r0, #3
c2005448:	4452      	add	r2, sl
c200544a:	b923      	cbnz	r3, c2005456 <__mdiff+0xf6>
c200544c:	f852 3d04 	ldr.w	r3, [r2, #-4]!
c2005450:	3d01      	subs	r5, #1
c2005452:	2b00      	cmp	r3, #0
c2005454:	d0fa      	beq.n	c200544c <__mdiff+0xec>
c2005456:	4648      	mov	r0, r9
c2005458:	f8c9 5010 	str.w	r5, [r9, #16]
c200545c:	e8bd 8ff8 	ldmia.w	sp!, {r3, r4, r5, r6, r7, r8, r9, sl, fp, pc}
c2005460:	bfa8      	it	ge
c2005462:	2600      	movge	r6, #0
c2005464:	da95      	bge.n	c2005392 <__mdiff+0x32>
c2005466:	4623      	mov	r3, r4
c2005468:	2601      	movs	r6, #1
c200546a:	4644      	mov	r4, r8
c200546c:	4698      	mov	r8, r3
c200546e:	e790      	b.n	c2005392 <__mdiff+0x32>
c2005470:	2100      	movs	r1, #0
c2005472:	f7ff fcc1 	bl	c2004df8 <_Balloc>
c2005476:	4681      	mov	r9, r0
c2005478:	b198      	cbz	r0, c20054a2 <__mdiff+0x142>
c200547a:	2201      	movs	r2, #1
c200547c:	2300      	movs	r3, #0
c200547e:	4648      	mov	r0, r9
c2005480:	e9c9 2304 	strd	r2, r3, [r9, #16]
c2005484:	e8bd 8ff8 	ldmia.w	sp!, {r3, r4, r5, r6, r7, r8, r9, sl, fp, pc}
c2005488:	f647 5330 	movw	r3, #32048	; 0x7d30
c200548c:	f2cc 2300 	movt	r3, #49664	; 0xc200
c2005490:	f647 50c4 	movw	r0, #32196	; 0x7dc4
c2005494:	f2cc 2000 	movt	r0, #49664	; 0xc200
c2005498:	464a      	mov	r2, r9
c200549a:	f44f 7110 	mov.w	r1, #576	; 0x240
c200549e:	f001 f923 	bl	c20066e8 <__assert_func>
c20054a2:	f647 5330 	movw	r3, #32048	; 0x7d30
c20054a6:	f2cc 2300 	movt	r3, #49664	; 0xc200
c20054aa:	f647 50c4 	movw	r0, #32196	; 0x7dc4
c20054ae:	f2cc 2000 	movt	r0, #49664	; 0xc200
c20054b2:	464a      	mov	r2, r9
c20054b4:	f240 2132 	movw	r1, #562	; 0x232
c20054b8:	f001 f916 	bl	c20066e8 <__assert_func>

c20054bc <__d2b>:
c20054bc:	e92d 43f0 	stmdb	sp!, {r4, r5, r6, r7, r8, r9, lr}
c20054c0:	460f      	mov	r7, r1
c20054c2:	2101      	movs	r1, #1
c20054c4:	b083      	sub	sp, #12
c20054c6:	ec59 8b10 	vmov	r8, r9, d0
c20054ca:	4616      	mov	r6, r2
c20054cc:	f7ff fc94 	bl	c2004df8 <_Balloc>
c20054d0:	4605      	mov	r5, r0
c20054d2:	2800      	cmp	r0, #0
c20054d4:	d04a      	beq.n	c200556c <__d2b+0xb0>
c20054d6:	f3c9 0313 	ubfx	r3, r9, #0, #20
c20054da:	f3c9 540a 	ubfx	r4, r9, #20, #11
c20054de:	b10c      	cbz	r4, c20054e4 <__d2b+0x28>
c20054e0:	f443 1380 	orr.w	r3, r3, #1048576	; 0x100000
c20054e4:	9301      	str	r3, [sp, #4]
c20054e6:	f1b8 0300 	subs.w	r3, r8, #0
c20054ea:	d022      	beq.n	c2005532 <__d2b+0x76>
c20054ec:	4668      	mov	r0, sp
c20054ee:	9300      	str	r3, [sp, #0]
c20054f0:	f7ff fd28 	bl	c2004f44 <__lo0bits>
c20054f4:	9a01      	ldr	r2, [sp, #4]
c20054f6:	4603      	mov	r3, r0
c20054f8:	2800      	cmp	r0, #0
c20054fa:	d034      	beq.n	c2005566 <__d2b+0xaa>
c20054fc:	f1c0 0120 	rsb	r1, r0, #32
c2005500:	fa02 f101 	lsl.w	r1, r2, r1
c2005504:	40c2      	lsrs	r2, r0
c2005506:	9800      	ldr	r0, [sp, #0]
c2005508:	9201      	str	r2, [sp, #4]
c200550a:	4301      	orrs	r1, r0
c200550c:	6169      	str	r1, [r5, #20]
c200550e:	2a00      	cmp	r2, #0
c2005510:	61aa      	str	r2, [r5, #24]
c2005512:	bf14      	ite	ne
c2005514:	2202      	movne	r2, #2
c2005516:	2201      	moveq	r2, #1
c2005518:	612a      	str	r2, [r5, #16]
c200551a:	b1ac      	cbz	r4, c2005548 <__d2b+0x8c>
c200551c:	f2a4 4433 	subw	r4, r4, #1075	; 0x433
c2005520:	4628      	mov	r0, r5
c2005522:	441c      	add	r4, r3
c2005524:	f1c3 0335 	rsb	r3, r3, #53	; 0x35
c2005528:	603c      	str	r4, [r7, #0]
c200552a:	6033      	str	r3, [r6, #0]
c200552c:	b003      	add	sp, #12
c200552e:	e8bd 83f0 	ldmia.w	sp!, {r4, r5, r6, r7, r8, r9, pc}
c2005532:	a801      	add	r0, sp, #4
c2005534:	f7ff fd06 	bl	c2004f44 <__lo0bits>
c2005538:	9901      	ldr	r1, [sp, #4]
c200553a:	2201      	movs	r2, #1
c200553c:	f100 0320 	add.w	r3, r0, #32
c2005540:	612a      	str	r2, [r5, #16]
c2005542:	6169      	str	r1, [r5, #20]
c2005544:	2c00      	cmp	r4, #0
c2005546:	d1e9      	bne.n	c200551c <__d2b+0x60>
c2005548:	f2a3 4332 	subw	r3, r3, #1074	; 0x432
c200554c:	603b      	str	r3, [r7, #0]
c200554e:	eb05 0382 	add.w	r3, r5, r2, lsl #2
c2005552:	6918      	ldr	r0, [r3, #16]
c2005554:	f7ff fcd6 	bl	c2004f04 <__hi0bits>
c2005558:	ebc0 1042 	rsb	r0, r0, r2, lsl #5
c200555c:	6030      	str	r0, [r6, #0]
c200555e:	4628      	mov	r0, r5
c2005560:	b003      	add	sp, #12
c2005562:	e8bd 83f0 	ldmia.w	sp!, {r4, r5, r6, r7, r8, r9, pc}
c2005566:	9900      	ldr	r1, [sp, #0]
c2005568:	6169      	str	r1, [r5, #20]
c200556a:	e7d0      	b.n	c200550e <__d2b+0x52>
c200556c:	f647 5330 	movw	r3, #32048	; 0x7d30
c2005570:	f2cc 2300 	movt	r3, #49664	; 0xc200
c2005574:	f647 50c4 	movw	r0, #32196	; 0x7dc4
c2005578:	f2cc 2000 	movt	r0, #49664	; 0xc200
c200557c:	462a      	mov	r2, r5
c200557e:	f240 310a 	movw	r1, #778	; 0x30a
c2005582:	f001 f8b1 	bl	c20066e8 <__assert_func>
c2005586:	bf00      	nop

c2005588 <frexp>:
c2005588:	b430      	push	{r4, r5}
c200558a:	f64f 7cff 	movw	ip, #65535	; 0xffff
c200558e:	f6c7 7cef 	movt	ip, #32751	; 0x7fef
c2005592:	b082      	sub	sp, #8
c2005594:	2100      	movs	r1, #0
c2005596:	6001      	str	r1, [r0, #0]
c2005598:	ed8d 0b00 	vstr	d0, [sp]
c200559c:	9a01      	ldr	r2, [sp, #4]
c200559e:	f022 4300 	bic.w	r3, r2, #2147483648	; 0x80000000
c20055a2:	4563      	cmp	r3, ip
c20055a4:	dc23      	bgt.n	c20055ee <frexp+0x66>
c20055a6:	9c00      	ldr	r4, [sp, #0]
c20055a8:	431c      	orrs	r4, r3
c20055aa:	d020      	beq.n	c20055ee <frexp+0x66>
c20055ac:	460c      	mov	r4, r1
c20055ae:	f6c7 74f0 	movt	r4, #32752	; 0x7ff0
c20055b2:	4014      	ands	r4, r2
c20055b4:	b954      	cbnz	r4, c20055cc <frexp+0x44>
c20055b6:	ed9f 7b10 	vldr	d7, [pc, #64]	; c20055f8 <frexp+0x70>
c20055ba:	f06f 0135 	mvn.w	r1, #53	; 0x35
c20055be:	ee20 7b07 	vmul.f64	d7, d0, d7
c20055c2:	ed8d 7b00 	vstr	d7, [sp]
c20055c6:	9a01      	ldr	r2, [sp, #4]
c20055c8:	f022 4300 	bic.w	r3, r2, #2147483648	; 0x80000000
c20055cc:	f022 42ff 	bic.w	r2, r2, #2139095040	; 0x7f800000
c20055d0:	151b      	asrs	r3, r3, #20
c20055d2:	f422 02e0 	bic.w	r2, r2, #7340032	; 0x700000
c20055d6:	f2a3 33fe 	subw	r3, r3, #1022	; 0x3fe
c20055da:	e9dd 4500 	ldrd	r4, r5, [sp]
c20055de:	f042 557f 	orr.w	r5, r2, #1069547520	; 0x3fc00000
c20055e2:	440b      	add	r3, r1
c20055e4:	f445 1500 	orr.w	r5, r5, #2097152	; 0x200000
c20055e8:	6003      	str	r3, [r0, #0]
c20055ea:	e9cd 4500 	strd	r4, r5, [sp]
c20055ee:	ed9d 0b00 	vldr	d0, [sp]
c20055f2:	b002      	add	sp, #8
c20055f4:	bc30      	pop	{r4, r5}
c20055f6:	4770      	bx	lr
c20055f8:	00000000 	andeq	r0, r0, r0
c20055fc:	43500000 	cmpmi	r0, #0

c2005600 <_sbrk_r>:
c2005600:	b538      	push	{r3, r4, r5, lr}
c2005602:	f648 7448 	movw	r4, #36680	; 0x8f48
c2005606:	f2cc 2400 	movt	r4, #49664	; 0xc200
c200560a:	4605      	mov	r5, r0
c200560c:	4608      	mov	r0, r1
c200560e:	2300      	movs	r3, #0
c2005610:	6023      	str	r3, [r4, #0]
c2005612:	f002 faad 	bl	c2007b70 <_sbrk>
c2005616:	1c43      	adds	r3, r0, #1
c2005618:	d000      	beq.n	c200561c <_sbrk_r+0x1c>
c200561a:	bd38      	pop	{r3, r4, r5, pc}
c200561c:	6823      	ldr	r3, [r4, #0]
c200561e:	2b00      	cmp	r3, #0
c2005620:	d0fb      	beq.n	c200561a <_sbrk_r+0x1a>
c2005622:	602b      	str	r3, [r5, #0]
c2005624:	bd38      	pop	{r3, r4, r5, pc}
c2005626:	bf00      	nop

c2005628 <__sread>:
c2005628:	b510      	push	{r4, lr}
c200562a:	460c      	mov	r4, r1
c200562c:	f9b1 100e 	ldrsh.w	r1, [r1, #14]
c2005630:	f001 fc30 	bl	c2006e94 <_read_r>
c2005634:	2800      	cmp	r0, #0
c2005636:	bfa9      	itett	ge
c2005638:	6d23      	ldrge	r3, [r4, #80]	; 0x50
c200563a:	89a3      	ldrhlt	r3, [r4, #12]
c200563c:	181b      	addge	r3, r3, r0
c200563e:	6523      	strge	r3, [r4, #80]	; 0x50
c2005640:	bfbc      	itt	lt
c2005642:	f423 5380 	biclt.w	r3, r3, #4096	; 0x1000
c2005646:	81a3      	strhlt	r3, [r4, #12]
c2005648:	bd10      	pop	{r4, pc}
c200564a:	bf00      	nop

c200564c <__swrite>:
c200564c:	e92d 41f0 	stmdb	sp!, {r4, r5, r6, r7, r8, lr}
c2005650:	460c      	mov	r4, r1
c2005652:	f9b1 100c 	ldrsh.w	r1, [r1, #12]
c2005656:	461f      	mov	r7, r3
c2005658:	4605      	mov	r5, r0
c200565a:	4616      	mov	r6, r2
c200565c:	05cb      	lsls	r3, r1, #23
c200565e:	d40b      	bmi.n	c2005678 <__swrite+0x2c>
c2005660:	f421 5180 	bic.w	r1, r1, #4096	; 0x1000
c2005664:	463b      	mov	r3, r7
c2005666:	81a1      	strh	r1, [r4, #12]
c2005668:	4632      	mov	r2, r6
c200566a:	f9b4 100e 	ldrsh.w	r1, [r4, #14]
c200566e:	4628      	mov	r0, r5
c2005670:	e8bd 41f0 	ldmia.w	sp!, {r4, r5, r6, r7, r8, lr}
c2005674:	f001 b820 	b.w	c20066b8 <_write_r>
c2005678:	f9b4 100e 	ldrsh.w	r1, [r4, #14]
c200567c:	2302      	movs	r3, #2
c200567e:	2200      	movs	r2, #0
c2005680:	f001 fb62 	bl	c2006d48 <_lseek_r>
c2005684:	f9b4 100c 	ldrsh.w	r1, [r4, #12]
c2005688:	e7ea      	b.n	c2005660 <__swrite+0x14>
c200568a:	bf00      	nop

c200568c <__sseek>:
c200568c:	b510      	push	{r4, lr}
c200568e:	460c      	mov	r4, r1
c2005690:	f9b1 100e 	ldrsh.w	r1, [r1, #14]
c2005694:	f001 fb58 	bl	c2006d48 <_lseek_r>
c2005698:	1c42      	adds	r2, r0, #1
c200569a:	89a3      	ldrh	r3, [r4, #12]
c200569c:	bf16      	itet	ne
c200569e:	6520      	strne	r0, [r4, #80]	; 0x50
c20056a0:	f423 5380 	biceq.w	r3, r3, #4096	; 0x1000
c20056a4:	f443 5380 	orrne.w	r3, r3, #4096	; 0x1000
c20056a8:	81a3      	strh	r3, [r4, #12]
c20056aa:	bd10      	pop	{r4, pc}

c20056ac <__sclose>:
c20056ac:	f9b1 100e 	ldrsh.w	r1, [r1, #14]
c20056b0:	f001 b878 	b.w	c20067a4 <_close_r>
	...

c20056c0 <strlen>:
c20056c0:	f890 f000 	pld	[r0]
c20056c4:	e96d 4502 	strd	r4, r5, [sp, #-8]!
c20056c8:	f020 0107 	bic.w	r1, r0, #7
c20056cc:	f06f 0c00 	mvn.w	ip, #0
c20056d0:	f010 0407 	ands.w	r4, r0, #7
c20056d4:	f891 f020 	pld	[r1, #32]
c20056d8:	f040 8049 	bne.w	c200576e <strlen+0xae>
c20056dc:	f04f 0400 	mov.w	r4, #0
c20056e0:	f06f 0007 	mvn.w	r0, #7
c20056e4:	e9d1 2300 	ldrd	r2, r3, [r1]
c20056e8:	f891 f040 	pld	[r1, #64]	; 0x40
c20056ec:	f100 0008 	add.w	r0, r0, #8
c20056f0:	fa82 f24c 	uadd8	r2, r2, ip
c20056f4:	faa4 f28c 	sel	r2, r4, ip
c20056f8:	fa83 f34c 	uadd8	r3, r3, ip
c20056fc:	faa2 f38c 	sel	r3, r2, ip
c2005700:	bb4b      	cbnz	r3, c2005756 <strlen+0x96>
c2005702:	e9d1 2302 	ldrd	r2, r3, [r1, #8]
c2005706:	fa82 f24c 	uadd8	r2, r2, ip
c200570a:	f100 0008 	add.w	r0, r0, #8
c200570e:	faa4 f28c 	sel	r2, r4, ip
c2005712:	fa83 f34c 	uadd8	r3, r3, ip
c2005716:	faa2 f38c 	sel	r3, r2, ip
c200571a:	b9e3      	cbnz	r3, c2005756 <strlen+0x96>
c200571c:	e9d1 2304 	ldrd	r2, r3, [r1, #16]
c2005720:	fa82 f24c 	uadd8	r2, r2, ip
c2005724:	f100 0008 	add.w	r0, r0, #8
c2005728:	faa4 f28c 	sel	r2, r4, ip
c200572c:	fa83 f34c 	uadd8	r3, r3, ip
c2005730:	faa2 f38c 	sel	r3, r2, ip
c2005734:	b97b      	cbnz	r3, c2005756 <strlen+0x96>
c2005736:	e9d1 2306 	ldrd	r2, r3, [r1, #24]
c200573a:	f101 0120 	add.w	r1, r1, #32
c200573e:	fa82 f24c 	uadd8	r2, r2, ip
c2005742:	f100 0008 	add.w	r0, r0, #8
c2005746:	faa4 f28c 	sel	r2, r4, ip
c200574a:	fa83 f34c 	uadd8	r3, r3, ip
c200574e:	faa2 f38c 	sel	r3, r2, ip
c2005752:	2b00      	cmp	r3, #0
c2005754:	d0c6      	beq.n	c20056e4 <strlen+0x24>
c2005756:	2a00      	cmp	r2, #0
c2005758:	bf04      	itt	eq
c200575a:	3004      	addeq	r0, #4
c200575c:	461a      	moveq	r2, r3
c200575e:	ba12      	rev	r2, r2
c2005760:	fab2 f282 	clz	r2, r2
c2005764:	e8fd 4502 	ldrd	r4, r5, [sp], #8
c2005768:	eb00 00d2 	add.w	r0, r0, r2, lsr #3
c200576c:	4770      	bx	lr
c200576e:	e9d1 2300 	ldrd	r2, r3, [r1]
c2005772:	f004 0503 	and.w	r5, r4, #3
c2005776:	f1c4 0000 	rsb	r0, r4, #0
c200577a:	ea4f 05c5 	mov.w	r5, r5, lsl #3
c200577e:	f014 0f04 	tst.w	r4, #4
c2005782:	f891 f040 	pld	[r1, #64]	; 0x40
c2005786:	fa0c f505 	lsl.w	r5, ip, r5
c200578a:	ea62 0205 	orn	r2, r2, r5
c200578e:	bf1c      	itt	ne
c2005790:	ea63 0305 	ornne	r3, r3, r5
c2005794:	4662      	movne	r2, ip
c2005796:	f04f 0400 	mov.w	r4, #0
c200579a:	e7a9      	b.n	c20056f0 <strlen+0x30>

c200579c <strncpy>:
c200579c:	b530      	push	{r4, r5, lr}
c200579e:	ea40 0401 	orr.w	r4, r0, r1
c20057a2:	2a03      	cmp	r2, #3
c20057a4:	f3c4 0401 	ubfx	r4, r4, #0, #2
c20057a8:	bf94      	ite	ls
c20057aa:	2500      	movls	r5, #0
c20057ac:	2501      	movhi	r5, #1
c20057ae:	2c00      	cmp	r4, #0
c20057b0:	bf18      	it	ne
c20057b2:	2500      	movne	r5, #0
c20057b4:	4684      	mov	ip, r0
c20057b6:	b9b5      	cbnz	r5, c20057e6 <strncpy+0x4a>
c20057b8:	f101 3eff 	add.w	lr, r1, #4294967295	; 0xffffffff
c20057bc:	e007      	b.n	c20057ce <strncpy+0x32>
c20057be:	f81e 1f01 	ldrb.w	r1, [lr, #1]!
c20057c2:	1e54      	subs	r4, r2, #1
c20057c4:	f803 1b01 	strb.w	r1, [r3], #1
c20057c8:	b129      	cbz	r1, c20057d6 <strncpy+0x3a>
c20057ca:	469c      	mov	ip, r3
c20057cc:	4622      	mov	r2, r4
c20057ce:	4663      	mov	r3, ip
c20057d0:	2a00      	cmp	r2, #0
c20057d2:	d1f4      	bne.n	c20057be <strncpy+0x22>
c20057d4:	bd30      	pop	{r4, r5, pc}
c20057d6:	4462      	add	r2, ip
c20057d8:	2c00      	cmp	r4, #0
c20057da:	d0fb      	beq.n	c20057d4 <strncpy+0x38>
c20057dc:	f803 1b01 	strb.w	r1, [r3], #1
c20057e0:	4293      	cmp	r3, r2
c20057e2:	d1fb      	bne.n	c20057dc <strncpy+0x40>
c20057e4:	bd30      	pop	{r4, r5, pc}
c20057e6:	460b      	mov	r3, r1
c20057e8:	4619      	mov	r1, r3
c20057ea:	f853 5b04 	ldr.w	r5, [r3], #4
c20057ee:	f1a5 3401 	sub.w	r4, r5, #16843009	; 0x1010101
c20057f2:	ea24 0405 	bic.w	r4, r4, r5
c20057f6:	f014 3f80 	tst.w	r4, #2155905152	; 0x80808080
c20057fa:	d1dd      	bne.n	c20057b8 <strncpy+0x1c>
c20057fc:	3a04      	subs	r2, #4
c20057fe:	4619      	mov	r1, r3
c2005800:	2a03      	cmp	r2, #3
c2005802:	f84c 5b04 	str.w	r5, [ip], #4
c2005806:	d8ef      	bhi.n	c20057e8 <strncpy+0x4c>
c2005808:	e7d6      	b.n	c20057b8 <strncpy+0x1c>
c200580a:	bf00      	nop

c200580c <__sprint_r.part.0>:
c200580c:	e92d 4ff8 	stmdb	sp!, {r3, r4, r5, r6, r7, r8, r9, sl, fp, lr}
c2005810:	4690      	mov	r8, r2
c2005812:	6e4b      	ldr	r3, [r1, #100]	; 0x64
c2005814:	049c      	lsls	r4, r3, #18
c2005816:	d52c      	bpl.n	c2005872 <__sprint_r.part.0+0x66>
c2005818:	6893      	ldr	r3, [r2, #8]
c200581a:	468b      	mov	fp, r1
c200581c:	6812      	ldr	r2, [r2, #0]
c200581e:	4606      	mov	r6, r0
c2005820:	f102 0908 	add.w	r9, r2, #8
c2005824:	b31b      	cbz	r3, c200586e <__sprint_r.part.0+0x62>
c2005826:	e959 5a02 	ldrd	r5, sl, [r9, #-8]
c200582a:	ea5f 079a 	movs.w	r7, sl, lsr #2
c200582e:	d014      	beq.n	c200585a <__sprint_r.part.0+0x4e>
c2005830:	3d04      	subs	r5, #4
c2005832:	2400      	movs	r4, #0
c2005834:	e001      	b.n	c200583a <__sprint_r.part.0+0x2e>
c2005836:	42a7      	cmp	r7, r4
c2005838:	d00d      	beq.n	c2005856 <__sprint_r.part.0+0x4a>
c200583a:	f855 1f04 	ldr.w	r1, [r5, #4]!
c200583e:	465a      	mov	r2, fp
c2005840:	4630      	mov	r0, r6
c2005842:	3401      	adds	r4, #1
c2005844:	f001 f89a 	bl	c200697c <_fputwc_r>
c2005848:	1c43      	adds	r3, r0, #1
c200584a:	d1f4      	bne.n	c2005836 <__sprint_r.part.0+0x2a>
c200584c:	2300      	movs	r3, #0
c200584e:	e9c8 3301 	strd	r3, r3, [r8, #4]
c2005852:	e8bd 8ff8 	ldmia.w	sp!, {r3, r4, r5, r6, r7, r8, r9, sl, fp, pc}
c2005856:	f8d8 3008 	ldr.w	r3, [r8, #8]
c200585a:	f02a 0a03 	bic.w	sl, sl, #3
c200585e:	f109 0908 	add.w	r9, r9, #8
c2005862:	eba3 030a 	sub.w	r3, r3, sl
c2005866:	f8c8 3008 	str.w	r3, [r8, #8]
c200586a:	2b00      	cmp	r3, #0
c200586c:	d1db      	bne.n	c2005826 <__sprint_r.part.0+0x1a>
c200586e:	2000      	movs	r0, #0
c2005870:	e7ec      	b.n	c200584c <__sprint_r.part.0+0x40>
c2005872:	f001 f8cf 	bl	c2006a14 <__sfvwrite_r>
c2005876:	2300      	movs	r3, #0
c2005878:	e9c8 3301 	strd	r3, r3, [r8, #4]
c200587c:	e8bd 8ff8 	ldmia.w	sp!, {r3, r4, r5, r6, r7, r8, r9, sl, fp, pc}

c2005880 <__sprint_r>:
c2005880:	b410      	push	{r4}
c2005882:	6894      	ldr	r4, [r2, #8]
c2005884:	b11c      	cbz	r4, c200588e <__sprint_r+0xe>
c2005886:	f85d 4b04 	ldr.w	r4, [sp], #4
c200588a:	f7ff bfbf 	b.w	c200580c <__sprint_r.part.0>
c200588e:	4620      	mov	r0, r4
c2005890:	6054      	str	r4, [r2, #4]
c2005892:	f85d 4b04 	ldr.w	r4, [sp], #4
c2005896:	4770      	bx	lr

c2005898 <_vfiprintf_r>:
c2005898:	e92d 4ff0 	stmdb	sp!, {r4, r5, r6, r7, r8, r9, sl, fp, lr}
c200589c:	461c      	mov	r4, r3
c200589e:	468b      	mov	fp, r1
c20058a0:	ed2d 8b02 	vpush	{d8}
c20058a4:	b0bb      	sub	sp, #236	; 0xec
c20058a6:	4616      	mov	r6, r2
c20058a8:	4681      	mov	r9, r0
c20058aa:	9305      	str	r3, [sp, #20]
c20058ac:	b118      	cbz	r0, c20058b6 <_vfiprintf_r+0x1e>
c20058ae:	6b83      	ldr	r3, [r0, #56]	; 0x38
c20058b0:	2b00      	cmp	r3, #0
c20058b2:	f000 8287 	beq.w	c2005dc4 <_vfiprintf_r+0x52c>
c20058b6:	f8db 3064 	ldr.w	r3, [fp, #100]	; 0x64
c20058ba:	07dd      	lsls	r5, r3, #31
c20058bc:	f100 819c 	bmi.w	c2005bf8 <_vfiprintf_r+0x360>
c20058c0:	f8bb 200c 	ldrh.w	r2, [fp, #12]
c20058c4:	f9bb 300c 	ldrsh.w	r3, [fp, #12]
c20058c8:	0590      	lsls	r0, r2, #22
c20058ca:	f140 8191 	bpl.w	c2005bf0 <_vfiprintf_r+0x358>
c20058ce:	0491      	lsls	r1, r2, #18
c20058d0:	d40a      	bmi.n	c20058e8 <_vfiprintf_r+0x50>
c20058d2:	f443 5300 	orr.w	r3, r3, #8192	; 0x2000
c20058d6:	f8ab 300c 	strh.w	r3, [fp, #12]
c20058da:	b29a      	uxth	r2, r3
c20058dc:	f8db 3064 	ldr.w	r3, [fp, #100]	; 0x64
c20058e0:	f423 5300 	bic.w	r3, r3, #8192	; 0x2000
c20058e4:	f8cb 3064 	str.w	r3, [fp, #100]	; 0x64
c20058e8:	0717      	lsls	r7, r2, #28
c20058ea:	f140 8103 	bpl.w	c2005af4 <_vfiprintf_r+0x25c>
c20058ee:	f8db 3010 	ldr.w	r3, [fp, #16]
c20058f2:	2b00      	cmp	r3, #0
c20058f4:	f000 80fe 	beq.w	c2005af4 <_vfiprintf_r+0x25c>
c20058f8:	f002 031a 	and.w	r3, r2, #26
c20058fc:	2b0a      	cmp	r3, #10
c20058fe:	f000 8107 	beq.w	c2005b10 <_vfiprintf_r+0x278>
c2005902:	af11      	add	r7, sp, #68	; 0x44
c2005904:	46ca      	mov	sl, r9
c2005906:	ab11      	add	r3, sp, #68	; 0x44
c2005908:	930e      	str	r3, [sp, #56]	; 0x38
c200590a:	2300      	movs	r3, #0
c200590c:	e9cd 330f 	strd	r3, r3, [sp, #60]	; 0x3c
c2005910:	9308      	str	r3, [sp, #32]
c2005912:	9309      	str	r3, [sp, #36]	; 0x24
c2005914:	e9cd 330a 	strd	r3, r3, [sp, #40]	; 0x28
c2005918:	9304      	str	r3, [sp, #16]
c200591a:	7833      	ldrb	r3, [r6, #0]
c200591c:	4634      	mov	r4, r6
c200591e:	2b25      	cmp	r3, #37	; 0x25
c2005920:	bf18      	it	ne
c2005922:	2b00      	cmpne	r3, #0
c2005924:	d025      	beq.n	c2005972 <_vfiprintf_r+0xda>
c2005926:	4625      	mov	r5, r4
c2005928:	f814 3f01 	ldrb.w	r3, [r4, #1]!
c200592c:	2b00      	cmp	r3, #0
c200592e:	bf18      	it	ne
c2005930:	2b25      	cmpne	r3, #37	; 0x25
c2005932:	d1f8      	bne.n	c2005926 <_vfiprintf_r+0x8e>
c2005934:	ebb4 0806 	subs.w	r8, r4, r6
c2005938:	d01b      	beq.n	c2005972 <_vfiprintf_r+0xda>
c200593a:	9b0f      	ldr	r3, [sp, #60]	; 0x3c
c200593c:	9a10      	ldr	r2, [sp, #64]	; 0x40
c200593e:	3301      	adds	r3, #1
c2005940:	e9c7 6800 	strd	r6, r8, [r7]
c2005944:	2b07      	cmp	r3, #7
c2005946:	4442      	add	r2, r8
c2005948:	bfd8      	it	le
c200594a:	3708      	addle	r7, #8
c200594c:	930f      	str	r3, [sp, #60]	; 0x3c
c200594e:	9210      	str	r2, [sp, #64]	; 0x40
c2005950:	dd0b      	ble.n	c200596a <_vfiprintf_r+0xd2>
c2005952:	2a00      	cmp	r2, #0
c2005954:	f000 84a8 	beq.w	c20062a8 <_vfiprintf_r+0xa10>
c2005958:	aa0e      	add	r2, sp, #56	; 0x38
c200595a:	4659      	mov	r1, fp
c200595c:	4650      	mov	r0, sl
c200595e:	f7ff ff55 	bl	c200580c <__sprint_r.part.0>
c2005962:	2800      	cmp	r0, #0
c2005964:	f040 8133 	bne.w	c2005bce <_vfiprintf_r+0x336>
c2005968:	af11      	add	r7, sp, #68	; 0x44
c200596a:	9b04      	ldr	r3, [sp, #16]
c200596c:	4443      	add	r3, r8
c200596e:	9304      	str	r3, [sp, #16]
c2005970:	786b      	ldrb	r3, [r5, #1]
c2005972:	2b00      	cmp	r3, #0
c2005974:	f000 8125 	beq.w	c2005bc2 <_vfiprintf_r+0x32a>
c2005978:	2300      	movs	r3, #0
c200597a:	7862      	ldrb	r2, [r4, #1]
c200597c:	1c66      	adds	r6, r4, #1
c200597e:	4699      	mov	r9, r3
c2005980:	f04f 31ff 	mov.w	r1, #4294967295	; 0xffffffff
c2005984:	f88d 3033 	strb.w	r3, [sp, #51]	; 0x33
c2005988:	9303      	str	r3, [sp, #12]
c200598a:	9101      	str	r1, [sp, #4]
c200598c:	3601      	adds	r6, #1
c200598e:	f1a2 0320 	sub.w	r3, r2, #32
c2005992:	2b5a      	cmp	r3, #90	; 0x5a
c2005994:	f200 8135 	bhi.w	c2005c02 <_vfiprintf_r+0x36a>
c2005998:	e8df f013 	tbh	[pc, r3, lsl #1]
c200599c:	01330275 	teqeq	r3, r5, ror r2
c20059a0:	02710133 	rsbseq	r0, r1, #-1073741812	; 0xc000000c
c20059a4:	01330133 	teqeq	r3, r3, lsr r1
c20059a8:	00690133 	rsbeq	r0, r9, r3, lsr r1
c20059ac:	01330133 	teqeq	r3, r3, lsr r1
c20059b0:	02260217 	eoreq	r0, r6, #1879048193	; 0x70000001
c20059b4:	02220133 	eoreq	r0, r2, #-1073741812	; 0xc000000c
c20059b8:	0133022f 	teqeq	r3, pc, lsr #4
c20059bc:	005b022b 	subseq	r0, fp, fp, lsr #4
c20059c0:	005b005b 	subseq	r0, fp, fp, asr r0
c20059c4:	005b005b 	subseq	r0, fp, fp, asr r0
c20059c8:	005b005b 	subseq	r0, fp, fp, asr r0
c20059cc:	005b005b 	subseq	r0, fp, fp, asr r0
c20059d0:	01330133 	teqeq	r3, r3, lsr r1
c20059d4:	01330133 	teqeq	r3, r3, lsr r1
c20059d8:	01330133 	teqeq	r3, r3, lsr r1
c20059dc:	01330133 	teqeq	r3, r3, lsr r1
c20059e0:	02050133 	andeq	r0, r5, #-1073741812	; 0xc000000c
c20059e4:	01330083 	teqeq	r3, r3, lsl #1
c20059e8:	01330133 	teqeq	r3, r3, lsr r1
c20059ec:	01330133 	teqeq	r3, r3, lsr r1
c20059f0:	01330133 	teqeq	r3, r3, lsr r1
c20059f4:	01330133 	teqeq	r3, r3, lsr r1
c20059f8:	00d10133 	sbcseq	r0, r1, r3, lsr r1
c20059fc:	01330133 	teqeq	r3, r3, lsr r1
c2005a00:	01e90133 	mvneq	r0, r3, lsr r1
c2005a04:	025e0133 	subseq	r0, lr, #-1073741812	; 0xc000000c
c2005a08:	01330133 	teqeq	r3, r3, lsr r1
c2005a0c:	013304ea 	teqeq	r3, sl, ror #9
c2005a10:	01330133 	teqeq	r3, r3, lsr r1
c2005a14:	01330133 	teqeq	r3, r3, lsr r1
c2005a18:	01330133 	teqeq	r3, r3, lsr r1
c2005a1c:	01330133 	teqeq	r3, r3, lsr r1
c2005a20:	02050133 	andeq	r0, r5, #-1073741812	; 0xc000000c
c2005a24:	01330085 	teqeq	r3, r5, lsl #1
c2005a28:	01330133 	teqeq	r3, r3, lsr r1
c2005a2c:	00850254 	addeq	r0, r5, r4, asr r2
c2005a30:	0133007f 	teqeq	r3, pc, ror r0
c2005a34:	0133024a 	teqeq	r3, sl, asr #4
c2005a38:	00d30294 	smullseq	r0, r3, r4, r2
c2005a3c:	007f027f 	rsbseq	r0, pc, pc, ror r2	; <UNPREDICTABLE>
c2005a40:	01e90133 	mvneq	r0, r3, lsr r1
c2005a44:	0509007d 	streq	r0, [r9, #-125]	; 0xffffff83
c2005a48:	01330133 	teqeq	r3, r3, lsr r1
c2005a4c:	0133050c 	teqeq	r3, ip, lsl #10
c2005a50:	f1a2007d 			; <UNDEFINED> instruction: 0xf1a2007d
c2005a54:	0330      	lsls	r0, r6, #12
c2005a56:	2100      	movs	r1, #0
c2005a58:	220a      	movs	r2, #10
c2005a5a:	fb02 3101 	mla	r1, r2, r1, r3
c2005a5e:	f816 2b01 	ldrb.w	r2, [r6], #1
c2005a62:	f1a2 0330 	sub.w	r3, r2, #48	; 0x30
c2005a66:	2b09      	cmp	r3, #9
c2005a68:	d9f6      	bls.n	c2005a58 <_vfiprintf_r+0x1c0>
c2005a6a:	9103      	str	r1, [sp, #12]
c2005a6c:	e78f      	b.n	c200598e <_vfiprintf_r+0xf6>
c2005a6e:	4650      	mov	r0, sl
c2005a70:	f7fe fb48 	bl	c2004104 <_localeconv_r>
c2005a74:	6843      	ldr	r3, [r0, #4]
c2005a76:	930a      	str	r3, [sp, #40]	; 0x28
c2005a78:	4618      	mov	r0, r3
c2005a7a:	f7ff fe21 	bl	c20056c0 <strlen>
c2005a7e:	4604      	mov	r4, r0
c2005a80:	900b      	str	r0, [sp, #44]	; 0x2c
c2005a82:	4650      	mov	r0, sl
c2005a84:	f7fe fb3e 	bl	c2004104 <_localeconv_r>
c2005a88:	6883      	ldr	r3, [r0, #8]
c2005a8a:	9309      	str	r3, [sp, #36]	; 0x24
c2005a8c:	2c00      	cmp	r4, #0
c2005a8e:	bf18      	it	ne
c2005a90:	2b00      	cmpne	r3, #0
c2005a92:	f040 845d 	bne.w	c2006350 <_vfiprintf_r+0xab8>
c2005a96:	7832      	ldrb	r2, [r6, #0]
c2005a98:	e778      	b.n	c200598c <_vfiprintf_r+0xf4>
c2005a9a:	7832      	ldrb	r2, [r6, #0]
c2005a9c:	f049 0920 	orr.w	r9, r9, #32
c2005aa0:	e774      	b.n	c200598c <_vfiprintf_r+0xf4>
c2005aa2:	f049 0910 	orr.w	r9, r9, #16
c2005aa6:	f019 0f20 	tst.w	r9, #32
c2005aaa:	f000 8141 	beq.w	c2005d30 <_vfiprintf_r+0x498>
c2005aae:	9c05      	ldr	r4, [sp, #20]
c2005ab0:	3407      	adds	r4, #7
c2005ab2:	f024 0407 	bic.w	r4, r4, #7
c2005ab6:	4623      	mov	r3, r4
c2005ab8:	6862      	ldr	r2, [r4, #4]
c2005aba:	f853 4b08 	ldr.w	r4, [r3], #8
c2005abe:	4615      	mov	r5, r2
c2005ac0:	9305      	str	r3, [sp, #20]
c2005ac2:	2a00      	cmp	r2, #0
c2005ac4:	f2c0 8404 	blt.w	c20062d0 <_vfiprintf_r+0xa38>
c2005ac8:	9b01      	ldr	r3, [sp, #4]
c2005aca:	3301      	adds	r3, #1
c2005acc:	f000 83d3 	beq.w	c2006276 <_vfiprintf_r+0x9de>
c2005ad0:	9b01      	ldr	r3, [sp, #4]
c2005ad2:	ea44 0205 	orr.w	r2, r4, r5
c2005ad6:	f029 0980 	bic.w	r9, r9, #128	; 0x80
c2005ada:	2a00      	cmp	r2, #0
c2005adc:	bf08      	it	eq
c2005ade:	2b00      	cmpeq	r3, #0
c2005ae0:	bf14      	ite	ne
c2005ae2:	2201      	movne	r2, #1
c2005ae4:	2200      	moveq	r2, #0
c2005ae6:	f040 83c6 	bne.w	c2006276 <_vfiprintf_r+0x9de>
c2005aea:	f10d 08e8 	add.w	r8, sp, #232	; 0xe8
c2005aee:	9201      	str	r2, [sp, #4]
c2005af0:	9202      	str	r2, [sp, #8]
c2005af2:	e05a      	b.n	c2005baa <_vfiprintf_r+0x312>
c2005af4:	4659      	mov	r1, fp
c2005af6:	4648      	mov	r0, r9
c2005af8:	f7fd f87c 	bl	c2002bf4 <__swsetup_r>
c2005afc:	2800      	cmp	r0, #0
c2005afe:	f040 858a 	bne.w	c2006616 <_vfiprintf_r+0xd7e>
c2005b02:	f8bb 200c 	ldrh.w	r2, [fp, #12]
c2005b06:	f002 031a 	and.w	r3, r2, #26
c2005b0a:	2b0a      	cmp	r3, #10
c2005b0c:	f47f aef9 	bne.w	c2005902 <_vfiprintf_r+0x6a>
c2005b10:	f9bb 300e 	ldrsh.w	r3, [fp, #14]
c2005b14:	2b00      	cmp	r3, #0
c2005b16:	f6ff aef4 	blt.w	c2005902 <_vfiprintf_r+0x6a>
c2005b1a:	f8db 3064 	ldr.w	r3, [fp, #100]	; 0x64
c2005b1e:	07d8      	lsls	r0, r3, #31
c2005b20:	d402      	bmi.n	c2005b28 <_vfiprintf_r+0x290>
c2005b22:	0591      	lsls	r1, r2, #22
c2005b24:	f140 8526 	bpl.w	c2006574 <_vfiprintf_r+0xcdc>
c2005b28:	4623      	mov	r3, r4
c2005b2a:	4632      	mov	r2, r6
c2005b2c:	4659      	mov	r1, fp
c2005b2e:	4648      	mov	r0, r9
c2005b30:	b03b      	add	sp, #236	; 0xec
c2005b32:	ecbd 8b02 	vpop	{d8}
c2005b36:	e8bd 4ff0 	ldmia.w	sp!, {r4, r5, r6, r7, r8, r9, sl, fp, lr}
c2005b3a:	f000 bd7d 	b.w	c2006638 <__sbprintf>
c2005b3e:	f049 0910 	orr.w	r9, r9, #16
c2005b42:	f019 0520 	ands.w	r5, r9, #32
c2005b46:	f000 8103 	beq.w	c2005d50 <_vfiprintf_r+0x4b8>
c2005b4a:	9c05      	ldr	r4, [sp, #20]
c2005b4c:	3407      	adds	r4, #7
c2005b4e:	f024 0407 	bic.w	r4, r4, #7
c2005b52:	4623      	mov	r3, r4
c2005b54:	6865      	ldr	r5, [r4, #4]
c2005b56:	f853 4b08 	ldr.w	r4, [r3], #8
c2005b5a:	9305      	str	r3, [sp, #20]
c2005b5c:	2100      	movs	r1, #0
c2005b5e:	f429 6380 	bic.w	r3, r9, #1024	; 0x400
c2005b62:	9300      	str	r3, [sp, #0]
c2005b64:	2300      	movs	r3, #0
c2005b66:	f88d 3033 	strb.w	r3, [sp, #51]	; 0x33
c2005b6a:	9b01      	ldr	r3, [sp, #4]
c2005b6c:	1c58      	adds	r0, r3, #1
c2005b6e:	f000 81cd 	beq.w	c2005f0c <_vfiprintf_r+0x674>
c2005b72:	ea44 0205 	orr.w	r2, r4, r5
c2005b76:	9800      	ldr	r0, [sp, #0]
c2005b78:	2a00      	cmp	r2, #0
c2005b7a:	bf08      	it	eq
c2005b7c:	2b00      	cmpeq	r3, #0
c2005b7e:	f020 0980 	bic.w	r9, r0, #128	; 0x80
c2005b82:	bf14      	ite	ne
c2005b84:	2201      	movne	r2, #1
c2005b86:	2200      	moveq	r2, #0
c2005b88:	f040 81be 	bne.w	c2005f08 <_vfiprintf_r+0x670>
c2005b8c:	2900      	cmp	r1, #0
c2005b8e:	d1ac      	bne.n	c2005aea <_vfiprintf_r+0x252>
c2005b90:	9b00      	ldr	r3, [sp, #0]
c2005b92:	f013 0301 	ands.w	r3, r3, #1
c2005b96:	e9cd 1301 	strd	r1, r3, [sp, #4]
c2005b9a:	bf17      	itett	ne
c2005b9c:	f10d 08e7 	addne.w	r8, sp, #231	; 0xe7
c2005ba0:	f10d 08e8 	addeq.w	r8, sp, #232	; 0xe8
c2005ba4:	2230      	movne	r2, #48	; 0x30
c2005ba6:	f88d 20e7 	strbne.w	r2, [sp, #231]	; 0xe7
c2005baa:	e9dd 3101 	ldrd	r3, r1, [sp, #4]
c2005bae:	f89d 2033 	ldrb.w	r2, [sp, #51]	; 0x33
c2005bb2:	428b      	cmp	r3, r1
c2005bb4:	bfb8      	it	lt
c2005bb6:	460b      	movlt	r3, r1
c2005bb8:	9300      	str	r3, [sp, #0]
c2005bba:	b382      	cbz	r2, c2005c1e <_vfiprintf_r+0x386>
c2005bbc:	3301      	adds	r3, #1
c2005bbe:	9300      	str	r3, [sp, #0]
c2005bc0:	e02d      	b.n	c2005c1e <_vfiprintf_r+0x386>
c2005bc2:	9b10      	ldr	r3, [sp, #64]	; 0x40
c2005bc4:	2b00      	cmp	r3, #0
c2005bc6:	f040 8506 	bne.w	c20065d6 <_vfiprintf_r+0xd3e>
c2005bca:	2300      	movs	r3, #0
c2005bcc:	930f      	str	r3, [sp, #60]	; 0x3c
c2005bce:	f8db 3064 	ldr.w	r3, [fp, #100]	; 0x64
c2005bd2:	f013 0f01 	tst.w	r3, #1
c2005bd6:	f8bb 300c 	ldrh.w	r3, [fp, #12]
c2005bda:	f000 809f 	beq.w	c2005d1c <_vfiprintf_r+0x484>
c2005bde:	065b      	lsls	r3, r3, #25
c2005be0:	f100 8503 	bmi.w	c20065ea <_vfiprintf_r+0xd52>
c2005be4:	9804      	ldr	r0, [sp, #16]
c2005be6:	b03b      	add	sp, #236	; 0xec
c2005be8:	ecbd 8b02 	vpop	{d8}
c2005bec:	e8bd 8ff0 	ldmia.w	sp!, {r4, r5, r6, r7, r8, r9, sl, fp, pc}
c2005bf0:	f8db 0058 	ldr.w	r0, [fp, #88]	; 0x58
c2005bf4:	f7fe fa8e 	bl	c2004114 <__retarget_lock_acquire_recursive>
c2005bf8:	f9bb 300c 	ldrsh.w	r3, [fp, #12]
c2005bfc:	f8bb 200c 	ldrh.w	r2, [fp, #12]
c2005c00:	e665      	b.n	c20058ce <_vfiprintf_r+0x36>
c2005c02:	2a00      	cmp	r2, #0
c2005c04:	d0dd      	beq.n	c2005bc2 <_vfiprintf_r+0x32a>
c2005c06:	f10d 0884 	add.w	r8, sp, #132	; 0x84
c2005c0a:	2301      	movs	r3, #1
c2005c0c:	f88d 2084 	strb.w	r2, [sp, #132]	; 0x84
c2005c10:	2200      	movs	r2, #0
c2005c12:	9300      	str	r3, [sp, #0]
c2005c14:	f88d 2033 	strb.w	r2, [sp, #51]	; 0x33
c2005c18:	9302      	str	r3, [sp, #8]
c2005c1a:	2300      	movs	r3, #0
c2005c1c:	9301      	str	r3, [sp, #4]
c2005c1e:	f019 0302 	ands.w	r3, r9, #2
c2005c22:	9306      	str	r3, [sp, #24]
c2005c24:	bf1e      	ittt	ne
c2005c26:	9b00      	ldrne	r3, [sp, #0]
c2005c28:	3302      	addne	r3, #2
c2005c2a:	9300      	strne	r3, [sp, #0]
c2005c2c:	f019 0384 	ands.w	r3, r9, #132	; 0x84
c2005c30:	9307      	str	r3, [sp, #28]
c2005c32:	d105      	bne.n	c2005c40 <_vfiprintf_r+0x3a8>
c2005c34:	9b03      	ldr	r3, [sp, #12]
c2005c36:	9a00      	ldr	r2, [sp, #0]
c2005c38:	1a9c      	subs	r4, r3, r2
c2005c3a:	2c00      	cmp	r4, #0
c2005c3c:	f300 826c 	bgt.w	c2006118 <_vfiprintf_r+0x880>
c2005c40:	e9dd 010f 	ldrd	r0, r1, [sp, #60]	; 0x3c
c2005c44:	f100 0c01 	add.w	ip, r0, #1
c2005c48:	f89d 2033 	ldrb.w	r2, [sp, #51]	; 0x33
c2005c4c:	b17a      	cbz	r2, c2005c6e <_vfiprintf_r+0x3d6>
c2005c4e:	3101      	adds	r1, #1
c2005c50:	f10d 0233 	add.w	r2, sp, #51	; 0x33
c2005c54:	2001      	movs	r0, #1
c2005c56:	f1bc 0f07 	cmp.w	ip, #7
c2005c5a:	e9cd c10f 	strd	ip, r1, [sp, #60]	; 0x3c
c2005c5e:	603a      	str	r2, [r7, #0]
c2005c60:	6078      	str	r0, [r7, #4]
c2005c62:	f300 823c 	bgt.w	c20060de <_vfiprintf_r+0x846>
c2005c66:	4660      	mov	r0, ip
c2005c68:	3708      	adds	r7, #8
c2005c6a:	f10c 0c01 	add.w	ip, ip, #1
c2005c6e:	9b06      	ldr	r3, [sp, #24]
c2005c70:	b1d3      	cbz	r3, c2005ca8 <_vfiprintf_r+0x410>
c2005c72:	aa0d      	add	r2, sp, #52	; 0x34
c2005c74:	3102      	adds	r1, #2
c2005c76:	603a      	str	r2, [r7, #0]
c2005c78:	f1bc 0f07 	cmp.w	ip, #7
c2005c7c:	f04f 0202 	mov.w	r2, #2
c2005c80:	e9cd c10f 	strd	ip, r1, [sp, #60]	; 0x3c
c2005c84:	607a      	str	r2, [r7, #4]
c2005c86:	f340 8242 	ble.w	c200610e <_vfiprintf_r+0x876>
c2005c8a:	2900      	cmp	r1, #0
c2005c8c:	f000 8307 	beq.w	c200629e <_vfiprintf_r+0xa06>
c2005c90:	aa0e      	add	r2, sp, #56	; 0x38
c2005c92:	4659      	mov	r1, fp
c2005c94:	4650      	mov	r0, sl
c2005c96:	f7ff fdb9 	bl	c200580c <__sprint_r.part.0>
c2005c9a:	2800      	cmp	r0, #0
c2005c9c:	d197      	bne.n	c2005bce <_vfiprintf_r+0x336>
c2005c9e:	e9dd 010f 	ldrd	r0, r1, [sp, #60]	; 0x3c
c2005ca2:	af11      	add	r7, sp, #68	; 0x44
c2005ca4:	f100 0c01 	add.w	ip, r0, #1
c2005ca8:	9b07      	ldr	r3, [sp, #28]
c2005caa:	2b80      	cmp	r3, #128	; 0x80
c2005cac:	f000 8166 	beq.w	c2005f7c <_vfiprintf_r+0x6e4>
c2005cb0:	e9dd 3201 	ldrd	r3, r2, [sp, #4]
c2005cb4:	1a9c      	subs	r4, r3, r2
c2005cb6:	2c00      	cmp	r4, #0
c2005cb8:	f300 81b7 	bgt.w	c200602a <_vfiprintf_r+0x792>
c2005cbc:	9b02      	ldr	r3, [sp, #8]
c2005cbe:	f1bc 0f07 	cmp.w	ip, #7
c2005cc2:	f8c7 8000 	str.w	r8, [r7]
c2005cc6:	4419      	add	r1, r3
c2005cc8:	607b      	str	r3, [r7, #4]
c2005cca:	e9cd c10f 	strd	ip, r1, [sp, #60]	; 0x3c
c2005cce:	f340 8118 	ble.w	c2005f02 <_vfiprintf_r+0x66a>
c2005cd2:	2900      	cmp	r1, #0
c2005cd4:	f000 8272 	beq.w	c20061bc <_vfiprintf_r+0x924>
c2005cd8:	aa0e      	add	r2, sp, #56	; 0x38
c2005cda:	4659      	mov	r1, fp
c2005cdc:	4650      	mov	r0, sl
c2005cde:	f7ff fd95 	bl	c200580c <__sprint_r.part.0>
c2005ce2:	2800      	cmp	r0, #0
c2005ce4:	f47f af73 	bne.w	c2005bce <_vfiprintf_r+0x336>
c2005ce8:	9910      	ldr	r1, [sp, #64]	; 0x40
c2005cea:	a811      	add	r0, sp, #68	; 0x44
c2005cec:	f019 0f04 	tst.w	r9, #4
c2005cf0:	d005      	beq.n	c2005cfe <_vfiprintf_r+0x466>
c2005cf2:	9b03      	ldr	r3, [sp, #12]
c2005cf4:	9a00      	ldr	r2, [sp, #0]
c2005cf6:	1a9c      	subs	r4, r3, r2
c2005cf8:	2c00      	cmp	r4, #0
c2005cfa:	f300 8269 	bgt.w	c20061d0 <_vfiprintf_r+0x938>
c2005cfe:	e9dd 2303 	ldrd	r2, r3, [sp, #12]
c2005d02:	9800      	ldr	r0, [sp, #0]
c2005d04:	4282      	cmp	r2, r0
c2005d06:	bfac      	ite	ge
c2005d08:	189b      	addge	r3, r3, r2
c2005d0a:	181b      	addlt	r3, r3, r0
c2005d0c:	9304      	str	r3, [sp, #16]
c2005d0e:	2900      	cmp	r1, #0
c2005d10:	f040 81dc 	bne.w	c20060cc <_vfiprintf_r+0x834>
c2005d14:	2300      	movs	r3, #0
c2005d16:	af11      	add	r7, sp, #68	; 0x44
c2005d18:	930f      	str	r3, [sp, #60]	; 0x3c
c2005d1a:	e5fe      	b.n	c200591a <_vfiprintf_r+0x82>
c2005d1c:	059a      	lsls	r2, r3, #22
c2005d1e:	f53f af5e 	bmi.w	c2005bde <_vfiprintf_r+0x346>
c2005d22:	f8db 0058 	ldr.w	r0, [fp, #88]	; 0x58
c2005d26:	f7fe f9f7 	bl	c2004118 <__retarget_lock_release_recursive>
c2005d2a:	f8bb 300c 	ldrh.w	r3, [fp, #12]
c2005d2e:	e756      	b.n	c2005bde <_vfiprintf_r+0x346>
c2005d30:	f019 0f10 	tst.w	r9, #16
c2005d34:	f040 82f9 	bne.w	c200632a <_vfiprintf_r+0xa92>
c2005d38:	f019 0f40 	tst.w	r9, #64	; 0x40
c2005d3c:	f000 82f1 	beq.w	c2006322 <_vfiprintf_r+0xa8a>
c2005d40:	9c05      	ldr	r4, [sp, #20]
c2005d42:	f854 2b04 	ldr.w	r2, [r4], #4
c2005d46:	9405      	str	r4, [sp, #20]
c2005d48:	b214      	sxth	r4, r2
c2005d4a:	17e5      	asrs	r5, r4, #31
c2005d4c:	462a      	mov	r2, r5
c2005d4e:	e6b8      	b.n	c2005ac2 <_vfiprintf_r+0x22a>
c2005d50:	f019 0210 	ands.w	r2, r9, #16
c2005d54:	f040 82e0 	bne.w	c2006318 <_vfiprintf_r+0xa80>
c2005d58:	f019 0140 	ands.w	r1, r9, #64	; 0x40
c2005d5c:	f000 82d8 	beq.w	c2006310 <_vfiprintf_r+0xa78>
c2005d60:	9c05      	ldr	r4, [sp, #20]
c2005d62:	4615      	mov	r5, r2
c2005d64:	f854 2b04 	ldr.w	r2, [r4], #4
c2005d68:	9405      	str	r4, [sp, #20]
c2005d6a:	b294      	uxth	r4, r2
c2005d6c:	e6f6      	b.n	c2005b5c <_vfiprintf_r+0x2c4>
c2005d6e:	9c05      	ldr	r4, [sp, #20]
c2005d70:	2500      	movs	r5, #0
c2005d72:	9b01      	ldr	r3, [sp, #4]
c2005d74:	f88d 5033 	strb.w	r5, [sp, #51]	; 0x33
c2005d78:	f854 8b04 	ldr.w	r8, [r4], #4
c2005d7c:	f1b8 0f00 	cmp.w	r8, #0
c2005d80:	f000 83b9 	beq.w	c20064f6 <_vfiprintf_r+0xc5e>
c2005d84:	1c5a      	adds	r2, r3, #1
c2005d86:	f000 831b 	beq.w	c20063c0 <_vfiprintf_r+0xb28>
c2005d8a:	461a      	mov	r2, r3
c2005d8c:	4629      	mov	r1, r5
c2005d8e:	4640      	mov	r0, r8
c2005d90:	f7fe fce6 	bl	c2004760 <memchr>
c2005d94:	2800      	cmp	r0, #0
c2005d96:	f000 8408 	beq.w	c20065aa <_vfiprintf_r+0xd12>
c2005d9a:	eba0 0308 	sub.w	r3, r0, r8
c2005d9e:	9405      	str	r4, [sp, #20]
c2005da0:	9302      	str	r3, [sp, #8]
c2005da2:	9501      	str	r5, [sp, #4]
c2005da4:	e701      	b.n	c2005baa <_vfiprintf_r+0x312>
c2005da6:	9c05      	ldr	r4, [sp, #20]
c2005da8:	2200      	movs	r2, #0
c2005daa:	f88d 2033 	strb.w	r2, [sp, #51]	; 0x33
c2005dae:	2301      	movs	r3, #1
c2005db0:	f10d 0884 	add.w	r8, sp, #132	; 0x84
c2005db4:	9300      	str	r3, [sp, #0]
c2005db6:	f854 2b04 	ldr.w	r2, [r4], #4
c2005dba:	9302      	str	r3, [sp, #8]
c2005dbc:	f88d 2084 	strb.w	r2, [sp, #132]	; 0x84
c2005dc0:	9405      	str	r4, [sp, #20]
c2005dc2:	e72a      	b.n	c2005c1a <_vfiprintf_r+0x382>
c2005dc4:	f7fd ff80 	bl	c2003cc8 <__sinit>
c2005dc8:	e575      	b.n	c20058b6 <_vfiprintf_r+0x1e>
c2005dca:	9b05      	ldr	r3, [sp, #20]
c2005dcc:	f853 2b04 	ldr.w	r2, [r3], #4
c2005dd0:	9203      	str	r2, [sp, #12]
c2005dd2:	2a00      	cmp	r2, #0
c2005dd4:	f280 8288 	bge.w	c20062e8 <_vfiprintf_r+0xa50>
c2005dd8:	9a03      	ldr	r2, [sp, #12]
c2005dda:	9305      	str	r3, [sp, #20]
c2005ddc:	4252      	negs	r2, r2
c2005dde:	9203      	str	r2, [sp, #12]
c2005de0:	7832      	ldrb	r2, [r6, #0]
c2005de2:	f049 0904 	orr.w	r9, r9, #4
c2005de6:	e5d1      	b.n	c200598c <_vfiprintf_r+0xf4>
c2005de8:	232b      	movs	r3, #43	; 0x2b
c2005dea:	7832      	ldrb	r2, [r6, #0]
c2005dec:	f88d 3033 	strb.w	r3, [sp, #51]	; 0x33
c2005df0:	e5cc      	b.n	c200598c <_vfiprintf_r+0xf4>
c2005df2:	7832      	ldrb	r2, [r6, #0]
c2005df4:	f049 0980 	orr.w	r9, r9, #128	; 0x80
c2005df8:	e5c8      	b.n	c200598c <_vfiprintf_r+0xf4>
c2005dfa:	4631      	mov	r1, r6
c2005dfc:	f811 2b01 	ldrb.w	r2, [r1], #1
c2005e00:	2a2a      	cmp	r2, #42	; 0x2a
c2005e02:	f000 83fd 	beq.w	c2006600 <_vfiprintf_r+0xd68>
c2005e06:	f1a2 0330 	sub.w	r3, r2, #48	; 0x30
c2005e0a:	460e      	mov	r6, r1
c2005e0c:	2b09      	cmp	r3, #9
c2005e0e:	bf84      	itt	hi
c2005e10:	2300      	movhi	r3, #0
c2005e12:	9301      	strhi	r3, [sp, #4]
c2005e14:	f63f adbb 	bhi.w	c200598e <_vfiprintf_r+0xf6>
c2005e18:	2100      	movs	r1, #0
c2005e1a:	220a      	movs	r2, #10
c2005e1c:	fb02 3101 	mla	r1, r2, r1, r3
c2005e20:	f816 2b01 	ldrb.w	r2, [r6], #1
c2005e24:	f1a2 0330 	sub.w	r3, r2, #48	; 0x30
c2005e28:	2b09      	cmp	r3, #9
c2005e2a:	d9f6      	bls.n	c2005e1a <_vfiprintf_r+0x582>
c2005e2c:	9101      	str	r1, [sp, #4]
c2005e2e:	e5ae      	b.n	c200598e <_vfiprintf_r+0xf6>
c2005e30:	7832      	ldrb	r2, [r6, #0]
c2005e32:	2a6c      	cmp	r2, #108	; 0x6c
c2005e34:	bf09      	itett	eq
c2005e36:	f049 0920 	orreq.w	r9, r9, #32
c2005e3a:	f049 0910 	orrne.w	r9, r9, #16
c2005e3e:	7872      	ldrbeq	r2, [r6, #1]
c2005e40:	3601      	addeq	r6, #1
c2005e42:	e5a3      	b.n	c200598c <_vfiprintf_r+0xf4>
c2005e44:	7832      	ldrb	r2, [r6, #0]
c2005e46:	2a68      	cmp	r2, #104	; 0x68
c2005e48:	bf09      	itett	eq
c2005e4a:	f449 7900 	orreq.w	r9, r9, #512	; 0x200
c2005e4e:	f049 0940 	orrne.w	r9, r9, #64	; 0x40
c2005e52:	7872      	ldrbeq	r2, [r6, #1]
c2005e54:	3601      	addeq	r6, #1
c2005e56:	e599      	b.n	c200598c <_vfiprintf_r+0xf4>
c2005e58:	f049 0310 	orr.w	r3, r9, #16
c2005e5c:	9300      	str	r3, [sp, #0]
c2005e5e:	9b00      	ldr	r3, [sp, #0]
c2005e60:	f013 0520 	ands.w	r5, r3, #32
c2005e64:	f000 8224 	beq.w	c20062b0 <_vfiprintf_r+0xa18>
c2005e68:	9c05      	ldr	r4, [sp, #20]
c2005e6a:	2101      	movs	r1, #1
c2005e6c:	3407      	adds	r4, #7
c2005e6e:	f024 0407 	bic.w	r4, r4, #7
c2005e72:	4623      	mov	r3, r4
c2005e74:	6865      	ldr	r5, [r4, #4]
c2005e76:	f853 4b08 	ldr.w	r4, [r3], #8
c2005e7a:	9305      	str	r3, [sp, #20]
c2005e7c:	e672      	b.n	c2005b64 <_vfiprintf_r+0x2cc>
c2005e7e:	7832      	ldrb	r2, [r6, #0]
c2005e80:	f049 0901 	orr.w	r9, r9, #1
c2005e84:	e582      	b.n	c200598c <_vfiprintf_r+0xf4>
c2005e86:	f89d 3033 	ldrb.w	r3, [sp, #51]	; 0x33
c2005e8a:	2b00      	cmp	r3, #0
c2005e8c:	f47f ae03 	bne.w	c2005a96 <_vfiprintf_r+0x1fe>
c2005e90:	2320      	movs	r3, #32
c2005e92:	7832      	ldrb	r2, [r6, #0]
c2005e94:	f88d 3033 	strb.w	r3, [sp, #51]	; 0x33
c2005e98:	e578      	b.n	c200598c <_vfiprintf_r+0xf4>
c2005e9a:	9a05      	ldr	r2, [sp, #20]
c2005e9c:	f049 0302 	orr.w	r3, r9, #2
c2005ea0:	2500      	movs	r5, #0
c2005ea2:	9300      	str	r3, [sp, #0]
c2005ea4:	2102      	movs	r1, #2
c2005ea6:	2330      	movs	r3, #48	; 0x30
c2005ea8:	f852 4b04 	ldr.w	r4, [r2], #4
c2005eac:	f88d 3034 	strb.w	r3, [sp, #52]	; 0x34
c2005eb0:	2378      	movs	r3, #120	; 0x78
c2005eb2:	9205      	str	r2, [sp, #20]
c2005eb4:	f88d 3035 	strb.w	r3, [sp, #53]	; 0x35
c2005eb8:	f647 43cc 	movw	r3, #31948	; 0x7ccc
c2005ebc:	f2cc 2300 	movt	r3, #49664	; 0xc200
c2005ec0:	9308      	str	r3, [sp, #32]
c2005ec2:	e64f      	b.n	c2005b64 <_vfiprintf_r+0x2cc>
c2005ec4:	f019 0f20 	tst.w	r9, #32
c2005ec8:	f040 8238 	bne.w	c200633c <_vfiprintf_r+0xaa4>
c2005ecc:	f019 0f10 	tst.w	r9, #16
c2005ed0:	f040 8309 	bne.w	c20064e6 <_vfiprintf_r+0xc4e>
c2005ed4:	f019 0f40 	tst.w	r9, #64	; 0x40
c2005ed8:	f040 8323 	bne.w	c2006522 <_vfiprintf_r+0xc8a>
c2005edc:	f419 7f00 	tst.w	r9, #512	; 0x200
c2005ee0:	f000 8301 	beq.w	c20064e6 <_vfiprintf_r+0xc4e>
c2005ee4:	9c05      	ldr	r4, [sp, #20]
c2005ee6:	9a04      	ldr	r2, [sp, #16]
c2005ee8:	f854 3b04 	ldr.w	r3, [r4], #4
c2005eec:	9405      	str	r4, [sp, #20]
c2005eee:	701a      	strb	r2, [r3, #0]
c2005ef0:	e513      	b.n	c200591a <_vfiprintf_r+0x82>
c2005ef2:	9902      	ldr	r1, [sp, #8]
c2005ef4:	af11      	add	r7, sp, #68	; 0x44
c2005ef6:	2201      	movs	r2, #1
c2005ef8:	f8cd 8044 	str.w	r8, [sp, #68]	; 0x44
c2005efc:	9112      	str	r1, [sp, #72]	; 0x48
c2005efe:	9110      	str	r1, [sp, #64]	; 0x40
c2005f00:	920f      	str	r2, [sp, #60]	; 0x3c
c2005f02:	f107 0008 	add.w	r0, r7, #8
c2005f06:	e6f1      	b.n	c2005cec <_vfiprintf_r+0x454>
c2005f08:	f8cd 9000 	str.w	r9, [sp]
c2005f0c:	2901      	cmp	r1, #1
c2005f0e:	f000 81b4 	beq.w	c200627a <_vfiprintf_r+0x9e2>
c2005f12:	f10d 08e8 	add.w	r8, sp, #232	; 0xe8
c2005f16:	2902      	cmp	r1, #2
c2005f18:	d113      	bne.n	c2005f42 <_vfiprintf_r+0x6aa>
c2005f1a:	9a08      	ldr	r2, [sp, #32]
c2005f1c:	f004 030f 	and.w	r3, r4, #15
c2005f20:	0924      	lsrs	r4, r4, #4
c2005f22:	ea44 7405 	orr.w	r4, r4, r5, lsl #28
c2005f26:	092d      	lsrs	r5, r5, #4
c2005f28:	5cd3      	ldrb	r3, [r2, r3]
c2005f2a:	f808 3d01 	strb.w	r3, [r8, #-1]!
c2005f2e:	ea54 0305 	orrs.w	r3, r4, r5
c2005f32:	d1f3      	bne.n	c2005f1c <_vfiprintf_r+0x684>
c2005f34:	ab3a      	add	r3, sp, #232	; 0xe8
c2005f36:	f8dd 9000 	ldr.w	r9, [sp]
c2005f3a:	eba3 0308 	sub.w	r3, r3, r8
c2005f3e:	9302      	str	r3, [sp, #8]
c2005f40:	e633      	b.n	c2005baa <_vfiprintf_r+0x312>
c2005f42:	08e2      	lsrs	r2, r4, #3
c2005f44:	f004 0307 	and.w	r3, r4, #7
c2005f48:	ea42 7445 	orr.w	r4, r2, r5, lsl #29
c2005f4c:	08ed      	lsrs	r5, r5, #3
c2005f4e:	3330      	adds	r3, #48	; 0x30
c2005f50:	4642      	mov	r2, r8
c2005f52:	ea54 0105 	orrs.w	r1, r4, r5
c2005f56:	f808 3d01 	strb.w	r3, [r8, #-1]!
c2005f5a:	d1f2      	bne.n	c2005f42 <_vfiprintf_r+0x6aa>
c2005f5c:	9800      	ldr	r0, [sp, #0]
c2005f5e:	4601      	mov	r1, r0
c2005f60:	2b30      	cmp	r3, #48	; 0x30
c2005f62:	bf0c      	ite	eq
c2005f64:	2100      	moveq	r1, #0
c2005f66:	f001 0101 	andne.w	r1, r1, #1
c2005f6a:	2900      	cmp	r1, #0
c2005f6c:	f040 8263 	bne.w	c2006436 <_vfiprintf_r+0xb9e>
c2005f70:	ab3a      	add	r3, sp, #232	; 0xe8
c2005f72:	4681      	mov	r9, r0
c2005f74:	eba3 0308 	sub.w	r3, r3, r8
c2005f78:	9302      	str	r3, [sp, #8]
c2005f7a:	e616      	b.n	c2005baa <_vfiprintf_r+0x312>
c2005f7c:	9b03      	ldr	r3, [sp, #12]
c2005f7e:	9a00      	ldr	r2, [sp, #0]
c2005f80:	1a9c      	subs	r4, r3, r2
c2005f82:	2c00      	cmp	r4, #0
c2005f84:	f77f ae94 	ble.w	c2005cb0 <_vfiprintf_r+0x418>
c2005f88:	2c10      	cmp	r4, #16
c2005f8a:	f340 8333 	ble.w	c20065f4 <_vfiprintf_r+0xd5c>
c2005f8e:	f647 7554 	movw	r5, #32596	; 0x7f54
c2005f92:	f2cc 2500 	movt	r5, #49664	; 0xc200
c2005f96:	460b      	mov	r3, r1
c2005f98:	e005      	b.n	c2005fa6 <_vfiprintf_r+0x70e>
c2005f9a:	1c81      	adds	r1, r0, #2
c2005f9c:	3708      	adds	r7, #8
c2005f9e:	4610      	mov	r0, r2
c2005fa0:	3c10      	subs	r4, #16
c2005fa2:	2c10      	cmp	r4, #16
c2005fa4:	dd1c      	ble.n	c2005fe0 <_vfiprintf_r+0x748>
c2005fa6:	1c42      	adds	r2, r0, #1
c2005fa8:	2110      	movs	r1, #16
c2005faa:	440b      	add	r3, r1
c2005fac:	2a07      	cmp	r2, #7
c2005fae:	603d      	str	r5, [r7, #0]
c2005fb0:	6079      	str	r1, [r7, #4]
c2005fb2:	e9cd 230f 	strd	r2, r3, [sp, #60]	; 0x3c
c2005fb6:	ddf0      	ble.n	c2005f9a <_vfiprintf_r+0x702>
c2005fb8:	af11      	add	r7, sp, #68	; 0x44
c2005fba:	aa0e      	add	r2, sp, #56	; 0x38
c2005fbc:	2101      	movs	r1, #1
c2005fbe:	4618      	mov	r0, r3
c2005fc0:	2b00      	cmp	r3, #0
c2005fc2:	d0ed      	beq.n	c2005fa0 <_vfiprintf_r+0x708>
c2005fc4:	4659      	mov	r1, fp
c2005fc6:	4650      	mov	r0, sl
c2005fc8:	f7ff fc20 	bl	c200580c <__sprint_r.part.0>
c2005fcc:	2800      	cmp	r0, #0
c2005fce:	f47f adfe 	bne.w	c2005bce <_vfiprintf_r+0x336>
c2005fd2:	e9dd 030f 	ldrd	r0, r3, [sp, #60]	; 0x3c
c2005fd6:	3c10      	subs	r4, #16
c2005fd8:	2c10      	cmp	r4, #16
c2005fda:	f100 0101 	add.w	r1, r0, #1
c2005fde:	dce2      	bgt.n	c2005fa6 <_vfiprintf_r+0x70e>
c2005fe0:	461a      	mov	r2, r3
c2005fe2:	460b      	mov	r3, r1
c2005fe4:	4611      	mov	r1, r2
c2005fe6:	4421      	add	r1, r4
c2005fe8:	2b07      	cmp	r3, #7
c2005fea:	603d      	str	r5, [r7, #0]
c2005fec:	607c      	str	r4, [r7, #4]
c2005fee:	e9cd 310f 	strd	r3, r1, [sp, #60]	; 0x3c
c2005ff2:	f340 817d 	ble.w	c20062f0 <_vfiprintf_r+0xa58>
c2005ff6:	f04f 0c01 	mov.w	ip, #1
c2005ffa:	4608      	mov	r0, r1
c2005ffc:	af11      	add	r7, sp, #68	; 0x44
c2005ffe:	2900      	cmp	r1, #0
c2006000:	f43f ae56 	beq.w	c2005cb0 <_vfiprintf_r+0x418>
c2006004:	aa0e      	add	r2, sp, #56	; 0x38
c2006006:	4659      	mov	r1, fp
c2006008:	4650      	mov	r0, sl
c200600a:	f7ff fbff 	bl	c200580c <__sprint_r.part.0>
c200600e:	2800      	cmp	r0, #0
c2006010:	f47f addd 	bne.w	c2005bce <_vfiprintf_r+0x336>
c2006014:	e9dd 3201 	ldrd	r3, r2, [sp, #4]
c2006018:	af11      	add	r7, sp, #68	; 0x44
c200601a:	e9dd 010f 	ldrd	r0, r1, [sp, #60]	; 0x3c
c200601e:	1a9c      	subs	r4, r3, r2
c2006020:	2c00      	cmp	r4, #0
c2006022:	f100 0c01 	add.w	ip, r0, #1
c2006026:	f77f ae49 	ble.w	c2005cbc <_vfiprintf_r+0x424>
c200602a:	2c10      	cmp	r4, #16
c200602c:	f647 7554 	movw	r5, #32596	; 0x7f54
c2006030:	f2cc 2500 	movt	r5, #49664	; 0xc200
c2006034:	bfc1      	itttt	gt
c2006036:	4602      	movgt	r2, r0
c2006038:	2310      	movgt	r3, #16
c200603a:	4608      	movgt	r0, r1
c200603c:	4611      	movgt	r1, r2
c200603e:	dc07      	bgt.n	c2006050 <_vfiprintf_r+0x7b8>
c2006040:	e025      	b.n	c200608e <_vfiprintf_r+0x7f6>
c2006042:	f101 0c02 	add.w	ip, r1, #2
c2006046:	3708      	adds	r7, #8
c2006048:	4611      	mov	r1, r2
c200604a:	3c10      	subs	r4, #16
c200604c:	2c10      	cmp	r4, #16
c200604e:	dd1d      	ble.n	c200608c <_vfiprintf_r+0x7f4>
c2006050:	1c4a      	adds	r2, r1, #1
c2006052:	3010      	adds	r0, #16
c2006054:	2a07      	cmp	r2, #7
c2006056:	e9c7 5300 	strd	r5, r3, [r7]
c200605a:	e9cd 200f 	strd	r2, r0, [sp, #60]	; 0x3c
c200605e:	ddf0      	ble.n	c2006042 <_vfiprintf_r+0x7aa>
c2006060:	af11      	add	r7, sp, #68	; 0x44
c2006062:	aa0e      	add	r2, sp, #56	; 0x38
c2006064:	f04f 0c01 	mov.w	ip, #1
c2006068:	4601      	mov	r1, r0
c200606a:	2800      	cmp	r0, #0
c200606c:	d0ed      	beq.n	c200604a <_vfiprintf_r+0x7b2>
c200606e:	4659      	mov	r1, fp
c2006070:	4650      	mov	r0, sl
c2006072:	f7ff fbcb 	bl	c200580c <__sprint_r.part.0>
c2006076:	2800      	cmp	r0, #0
c2006078:	f47f ada9 	bne.w	c2005bce <_vfiprintf_r+0x336>
c200607c:	e9dd 100f 	ldrd	r1, r0, [sp, #60]	; 0x3c
c2006080:	3c10      	subs	r4, #16
c2006082:	2310      	movs	r3, #16
c2006084:	2c10      	cmp	r4, #16
c2006086:	f101 0c01 	add.w	ip, r1, #1
c200608a:	dce1      	bgt.n	c2006050 <_vfiprintf_r+0x7b8>
c200608c:	4601      	mov	r1, r0
c200608e:	f1bc 0f07 	cmp.w	ip, #7
c2006092:	4421      	add	r1, r4
c2006094:	603d      	str	r5, [r7, #0]
c2006096:	607c      	str	r4, [r7, #4]
c2006098:	bfd8      	it	le
c200609a:	3708      	addle	r7, #8
c200609c:	e9cd c10f 	strd	ip, r1, [sp, #60]	; 0x3c
c20060a0:	bfd8      	it	le
c20060a2:	f10c 0c01 	addle.w	ip, ip, #1
c20060a6:	f77f ae09 	ble.w	c2005cbc <_vfiprintf_r+0x424>
c20060aa:	2900      	cmp	r1, #0
c20060ac:	f43f af21 	beq.w	c2005ef2 <_vfiprintf_r+0x65a>
c20060b0:	aa0e      	add	r2, sp, #56	; 0x38
c20060b2:	4659      	mov	r1, fp
c20060b4:	4650      	mov	r0, sl
c20060b6:	f7ff fba9 	bl	c200580c <__sprint_r.part.0>
c20060ba:	2800      	cmp	r0, #0
c20060bc:	f47f ad87 	bne.w	c2005bce <_vfiprintf_r+0x336>
c20060c0:	9a0f      	ldr	r2, [sp, #60]	; 0x3c
c20060c2:	af11      	add	r7, sp, #68	; 0x44
c20060c4:	9910      	ldr	r1, [sp, #64]	; 0x40
c20060c6:	f102 0c01 	add.w	ip, r2, #1
c20060ca:	e5f7      	b.n	c2005cbc <_vfiprintf_r+0x424>
c20060cc:	aa0e      	add	r2, sp, #56	; 0x38
c20060ce:	4659      	mov	r1, fp
c20060d0:	4650      	mov	r0, sl
c20060d2:	f7ff fb9b 	bl	c200580c <__sprint_r.part.0>
c20060d6:	2800      	cmp	r0, #0
c20060d8:	f43f ae1c 	beq.w	c2005d14 <_vfiprintf_r+0x47c>
c20060dc:	e577      	b.n	c2005bce <_vfiprintf_r+0x336>
c20060de:	2900      	cmp	r1, #0
c20060e0:	f000 80da 	beq.w	c2006298 <_vfiprintf_r+0xa00>
c20060e4:	aa0e      	add	r2, sp, #56	; 0x38
c20060e6:	4659      	mov	r1, fp
c20060e8:	4650      	mov	r0, sl
c20060ea:	f7ff fb8f 	bl	c200580c <__sprint_r.part.0>
c20060ee:	2800      	cmp	r0, #0
c20060f0:	f47f ad6d 	bne.w	c2005bce <_vfiprintf_r+0x336>
c20060f4:	e9dd 010f 	ldrd	r0, r1, [sp, #60]	; 0x3c
c20060f8:	af11      	add	r7, sp, #68	; 0x44
c20060fa:	f100 0c01 	add.w	ip, r0, #1
c20060fe:	e5b6      	b.n	c2005c6e <_vfiprintf_r+0x3d6>
c2006100:	f04f 0c01 	mov.w	ip, #1
c2006104:	af11      	add	r7, sp, #68	; 0x44
c2006106:	2102      	movs	r1, #2
c2006108:	aa0d      	add	r2, sp, #52	; 0x34
c200610a:	9112      	str	r1, [sp, #72]	; 0x48
c200610c:	9211      	str	r2, [sp, #68]	; 0x44
c200610e:	4660      	mov	r0, ip
c2006110:	3708      	adds	r7, #8
c2006112:	f100 0c01 	add.w	ip, r0, #1
c2006116:	e5c7      	b.n	c2005ca8 <_vfiprintf_r+0x410>
c2006118:	2c10      	cmp	r4, #16
c200611a:	f340 824c 	ble.w	c20065b6 <_vfiprintf_r+0xd1e>
c200611e:	e9dd c10f 	ldrd	ip, r1, [sp, #60]	; 0x3c
c2006122:	f647 7544 	movw	r5, #32580	; 0x7f44
c2006126:	f2cc 2500 	movt	r5, #49664	; 0xc200
c200612a:	2310      	movs	r3, #16
c200612c:	4608      	mov	r0, r1
c200612e:	4661      	mov	r1, ip
c2006130:	e006      	b.n	c2006140 <_vfiprintf_r+0x8a8>
c2006132:	f101 0c02 	add.w	ip, r1, #2
c2006136:	3708      	adds	r7, #8
c2006138:	4611      	mov	r1, r2
c200613a:	3c10      	subs	r4, #16
c200613c:	2c10      	cmp	r4, #16
c200613e:	dd1d      	ble.n	c200617c <_vfiprintf_r+0x8e4>
c2006140:	1c4a      	adds	r2, r1, #1
c2006142:	3010      	adds	r0, #16
c2006144:	2a07      	cmp	r2, #7
c2006146:	e9c7 5300 	strd	r5, r3, [r7]
c200614a:	e9cd 200f 	strd	r2, r0, [sp, #60]	; 0x3c
c200614e:	ddf0      	ble.n	c2006132 <_vfiprintf_r+0x89a>
c2006150:	af11      	add	r7, sp, #68	; 0x44
c2006152:	aa0e      	add	r2, sp, #56	; 0x38
c2006154:	4601      	mov	r1, r0
c2006156:	f04f 0c01 	mov.w	ip, #1
c200615a:	2800      	cmp	r0, #0
c200615c:	d0ed      	beq.n	c200613a <_vfiprintf_r+0x8a2>
c200615e:	4659      	mov	r1, fp
c2006160:	4650      	mov	r0, sl
c2006162:	f7ff fb53 	bl	c200580c <__sprint_r.part.0>
c2006166:	2800      	cmp	r0, #0
c2006168:	f47f ad31 	bne.w	c2005bce <_vfiprintf_r+0x336>
c200616c:	e9dd 100f 	ldrd	r1, r0, [sp, #60]	; 0x3c
c2006170:	3c10      	subs	r4, #16
c2006172:	2310      	movs	r3, #16
c2006174:	2c10      	cmp	r4, #16
c2006176:	f101 0c01 	add.w	ip, r1, #1
c200617a:	dce1      	bgt.n	c2006140 <_vfiprintf_r+0x8a8>
c200617c:	4601      	mov	r1, r0
c200617e:	4660      	mov	r0, ip
c2006180:	2807      	cmp	r0, #7
c2006182:	4421      	add	r1, r4
c2006184:	603d      	str	r5, [r7, #0]
c2006186:	bfd8      	it	le
c2006188:	f100 0c01 	addle.w	ip, r0, #1
c200618c:	607c      	str	r4, [r7, #4]
c200618e:	bfd8      	it	le
c2006190:	3708      	addle	r7, #8
c2006192:	e9cd 010f 	strd	r0, r1, [sp, #60]	; 0x3c
c2006196:	f77f ad57 	ble.w	c2005c48 <_vfiprintf_r+0x3b0>
c200619a:	2900      	cmp	r1, #0
c200619c:	f000 8118 	beq.w	c20063d0 <_vfiprintf_r+0xb38>
c20061a0:	aa0e      	add	r2, sp, #56	; 0x38
c20061a2:	4659      	mov	r1, fp
c20061a4:	4650      	mov	r0, sl
c20061a6:	f7ff fb31 	bl	c200580c <__sprint_r.part.0>
c20061aa:	2800      	cmp	r0, #0
c20061ac:	f47f ad0f 	bne.w	c2005bce <_vfiprintf_r+0x336>
c20061b0:	e9dd 010f 	ldrd	r0, r1, [sp, #60]	; 0x3c
c20061b4:	af11      	add	r7, sp, #68	; 0x44
c20061b6:	f100 0c01 	add.w	ip, r0, #1
c20061ba:	e545      	b.n	c2005c48 <_vfiprintf_r+0x3b0>
c20061bc:	f019 0f04 	tst.w	r9, #4
c20061c0:	910f      	str	r1, [sp, #60]	; 0x3c
c20061c2:	d04f      	beq.n	c2006264 <_vfiprintf_r+0x9cc>
c20061c4:	9b03      	ldr	r3, [sp, #12]
c20061c6:	9a00      	ldr	r2, [sp, #0]
c20061c8:	1a9c      	subs	r4, r3, r2
c20061ca:	2c00      	cmp	r4, #0
c20061cc:	dd4a      	ble.n	c2006264 <_vfiprintf_r+0x9cc>
c20061ce:	a811      	add	r0, sp, #68	; 0x44
c20061d0:	2c10      	cmp	r4, #16
c20061d2:	f340 81f8 	ble.w	c20065c6 <_vfiprintf_r+0xd2e>
c20061d6:	9a0f      	ldr	r2, [sp, #60]	; 0x3c
c20061d8:	f647 7544 	movw	r5, #32580	; 0x7f44
c20061dc:	f2cc 2500 	movt	r5, #49664	; 0xc200
c20061e0:	46b0      	mov	r8, r6
c20061e2:	2710      	movs	r7, #16
c20061e4:	462e      	mov	r6, r5
c20061e6:	460b      	mov	r3, r1
c20061e8:	4615      	mov	r5, r2
c20061ea:	e006      	b.n	c20061fa <_vfiprintf_r+0x962>
c20061ec:	f105 0c02 	add.w	ip, r5, #2
c20061f0:	3008      	adds	r0, #8
c20061f2:	4615      	mov	r5, r2
c20061f4:	3c10      	subs	r4, #16
c20061f6:	2c10      	cmp	r4, #16
c20061f8:	dd1d      	ble.n	c2006236 <_vfiprintf_r+0x99e>
c20061fa:	1c6a      	adds	r2, r5, #1
c20061fc:	3310      	adds	r3, #16
c20061fe:	2a07      	cmp	r2, #7
c2006200:	e9c0 6700 	strd	r6, r7, [r0]
c2006204:	e9cd 230f 	strd	r2, r3, [sp, #60]	; 0x3c
c2006208:	ddf0      	ble.n	c20061ec <_vfiprintf_r+0x954>
c200620a:	aa0e      	add	r2, sp, #56	; 0x38
c200620c:	f04f 0c01 	mov.w	ip, #1
c2006210:	461d      	mov	r5, r3
c2006212:	a811      	add	r0, sp, #68	; 0x44
c2006214:	2b00      	cmp	r3, #0
c2006216:	d0ed      	beq.n	c20061f4 <_vfiprintf_r+0x95c>
c2006218:	4659      	mov	r1, fp
c200621a:	4650      	mov	r0, sl
c200621c:	f7ff faf6 	bl	c200580c <__sprint_r.part.0>
c2006220:	2800      	cmp	r0, #0
c2006222:	f47f acd4 	bne.w	c2005bce <_vfiprintf_r+0x336>
c2006226:	e9dd 530f 	ldrd	r5, r3, [sp, #60]	; 0x3c
c200622a:	3c10      	subs	r4, #16
c200622c:	a811      	add	r0, sp, #68	; 0x44
c200622e:	2c10      	cmp	r4, #16
c2006230:	f105 0c01 	add.w	ip, r5, #1
c2006234:	dce1      	bgt.n	c20061fa <_vfiprintf_r+0x962>
c2006236:	4635      	mov	r5, r6
c2006238:	4619      	mov	r1, r3
c200623a:	4646      	mov	r6, r8
c200623c:	4421      	add	r1, r4
c200623e:	f1bc 0f07 	cmp.w	ip, #7
c2006242:	e9c0 5400 	strd	r5, r4, [r0]
c2006246:	e9cd c10f 	strd	ip, r1, [sp, #60]	; 0x3c
c200624a:	f77f ad58 	ble.w	c2005cfe <_vfiprintf_r+0x466>
c200624e:	b149      	cbz	r1, c2006264 <_vfiprintf_r+0x9cc>
c2006250:	aa0e      	add	r2, sp, #56	; 0x38
c2006252:	4659      	mov	r1, fp
c2006254:	4650      	mov	r0, sl
c2006256:	f7ff fad9 	bl	c200580c <__sprint_r.part.0>
c200625a:	2800      	cmp	r0, #0
c200625c:	f47f acb7 	bne.w	c2005bce <_vfiprintf_r+0x336>
c2006260:	9910      	ldr	r1, [sp, #64]	; 0x40
c2006262:	e54c      	b.n	c2005cfe <_vfiprintf_r+0x466>
c2006264:	e9dd 2303 	ldrd	r2, r3, [sp, #12]
c2006268:	9900      	ldr	r1, [sp, #0]
c200626a:	428a      	cmp	r2, r1
c200626c:	bfac      	ite	ge
c200626e:	189b      	addge	r3, r3, r2
c2006270:	185b      	addlt	r3, r3, r1
c2006272:	9304      	str	r3, [sp, #16]
c2006274:	e54e      	b.n	c2005d14 <_vfiprintf_r+0x47c>
c2006276:	f8cd 9000 	str.w	r9, [sp]
c200627a:	2c0a      	cmp	r4, #10
c200627c:	f175 0300 	sbcs.w	r3, r5, #0
c2006280:	f080 80e5 	bcs.w	c200644e <_vfiprintf_r+0xbb6>
c2006284:	3430      	adds	r4, #48	; 0x30
c2006286:	2301      	movs	r3, #1
c2006288:	f8dd 9000 	ldr.w	r9, [sp]
c200628c:	f10d 08e7 	add.w	r8, sp, #231	; 0xe7
c2006290:	f88d 40e7 	strb.w	r4, [sp, #231]	; 0xe7
c2006294:	9302      	str	r3, [sp, #8]
c2006296:	e488      	b.n	c2005baa <_vfiprintf_r+0x312>
c2006298:	9b06      	ldr	r3, [sp, #24]
c200629a:	2b00      	cmp	r3, #0
c200629c:	d162      	bne.n	c2006364 <_vfiprintf_r+0xacc>
c200629e:	f04f 0c01 	mov.w	ip, #1
c20062a2:	4608      	mov	r0, r1
c20062a4:	af11      	add	r7, sp, #68	; 0x44
c20062a6:	e4ff      	b.n	c2005ca8 <_vfiprintf_r+0x410>
c20062a8:	af11      	add	r7, sp, #68	; 0x44
c20062aa:	920f      	str	r2, [sp, #60]	; 0x3c
c20062ac:	f7ff bb5d 	b.w	c200596a <_vfiprintf_r+0xd2>
c20062b0:	9b00      	ldr	r3, [sp, #0]
c20062b2:	f013 0310 	ands.w	r3, r3, #16
c20062b6:	d125      	bne.n	c2006304 <_vfiprintf_r+0xa6c>
c20062b8:	9a00      	ldr	r2, [sp, #0]
c20062ba:	f012 0240 	ands.w	r2, r2, #64	; 0x40
c20062be:	d01c      	beq.n	c20062fa <_vfiprintf_r+0xa62>
c20062c0:	9c05      	ldr	r4, [sp, #20]
c20062c2:	461d      	mov	r5, r3
c20062c4:	2101      	movs	r1, #1
c20062c6:	f854 3b04 	ldr.w	r3, [r4], #4
c20062ca:	9405      	str	r4, [sp, #20]
c20062cc:	b29c      	uxth	r4, r3
c20062ce:	e449      	b.n	c2005b64 <_vfiprintf_r+0x2cc>
c20062d0:	4264      	negs	r4, r4
c20062d2:	f04f 032d 	mov.w	r3, #45	; 0x2d
c20062d6:	f04f 0101 	mov.w	r1, #1
c20062da:	f8cd 9000 	str.w	r9, [sp]
c20062de:	eb65 0545 	sbc.w	r5, r5, r5, lsl #1
c20062e2:	f88d 3033 	strb.w	r3, [sp, #51]	; 0x33
c20062e6:	e440      	b.n	c2005b6a <_vfiprintf_r+0x2d2>
c20062e8:	7832      	ldrb	r2, [r6, #0]
c20062ea:	9305      	str	r3, [sp, #20]
c20062ec:	f7ff bb4e 	b.w	c200598c <_vfiprintf_r+0xf4>
c20062f0:	3708      	adds	r7, #8
c20062f2:	f103 0c01 	add.w	ip, r3, #1
c20062f6:	4618      	mov	r0, r3
c20062f8:	e4da      	b.n	c2005cb0 <_vfiprintf_r+0x418>
c20062fa:	9b00      	ldr	r3, [sp, #0]
c20062fc:	f413 7500 	ands.w	r5, r3, #512	; 0x200
c2006300:	f040 812f 	bne.w	c2006562 <_vfiprintf_r+0xcca>
c2006304:	9b05      	ldr	r3, [sp, #20]
c2006306:	2101      	movs	r1, #1
c2006308:	f853 4b04 	ldr.w	r4, [r3], #4
c200630c:	9305      	str	r3, [sp, #20]
c200630e:	e429      	b.n	c2005b64 <_vfiprintf_r+0x2cc>
c2006310:	f419 7500 	ands.w	r5, r9, #512	; 0x200
c2006314:	f040 810d 	bne.w	c2006532 <_vfiprintf_r+0xc9a>
c2006318:	9a05      	ldr	r2, [sp, #20]
c200631a:	f852 4b04 	ldr.w	r4, [r2], #4
c200631e:	9205      	str	r2, [sp, #20]
c2006320:	e41c      	b.n	c2005b5c <_vfiprintf_r+0x2c4>
c2006322:	f419 7f00 	tst.w	r9, #512	; 0x200
c2006326:	f040 810c 	bne.w	c2006542 <_vfiprintf_r+0xcaa>
c200632a:	9c05      	ldr	r4, [sp, #20]
c200632c:	f854 2b04 	ldr.w	r2, [r4], #4
c2006330:	9405      	str	r4, [sp, #20]
c2006332:	4614      	mov	r4, r2
c2006334:	17d5      	asrs	r5, r2, #31
c2006336:	462a      	mov	r2, r5
c2006338:	f7ff bbc3 	b.w	c2005ac2 <_vfiprintf_r+0x22a>
c200633c:	e9dd 1404 	ldrd	r1, r4, [sp, #16]
c2006340:	f854 2b04 	ldr.w	r2, [r4], #4
c2006344:	17cb      	asrs	r3, r1, #31
c2006346:	9405      	str	r4, [sp, #20]
c2006348:	e9c2 1300 	strd	r1, r3, [r2]
c200634c:	f7ff bae5 	b.w	c200591a <_vfiprintf_r+0x82>
c2006350:	9b09      	ldr	r3, [sp, #36]	; 0x24
c2006352:	781b      	ldrb	r3, [r3, #0]
c2006354:	2b00      	cmp	r3, #0
c2006356:	f43f ab9e 	beq.w	c2005a96 <_vfiprintf_r+0x1fe>
c200635a:	7832      	ldrb	r2, [r6, #0]
c200635c:	f449 6980 	orr.w	r9, r9, #1024	; 0x400
c2006360:	f7ff bb14 	b.w	c200598c <_vfiprintf_r+0xf4>
c2006364:	2102      	movs	r1, #2
c2006366:	aa0d      	add	r2, sp, #52	; 0x34
c2006368:	af11      	add	r7, sp, #68	; 0x44
c200636a:	9112      	str	r1, [sp, #72]	; 0x48
c200636c:	9211      	str	r2, [sp, #68]	; 0x44
c200636e:	e6cf      	b.n	c2006110 <_vfiprintf_r+0x878>
c2006370:	f647 43e0 	movw	r3, #31968	; 0x7ce0
c2006374:	f2cc 2300 	movt	r3, #49664	; 0xc200
c2006378:	9308      	str	r3, [sp, #32]
c200637a:	f019 0520 	ands.w	r5, r9, #32
c200637e:	d035      	beq.n	c20063ec <_vfiprintf_r+0xb54>
c2006380:	9c05      	ldr	r4, [sp, #20]
c2006382:	3407      	adds	r4, #7
c2006384:	f024 0407 	bic.w	r4, r4, #7
c2006388:	4623      	mov	r3, r4
c200638a:	6865      	ldr	r5, [r4, #4]
c200638c:	f853 4b08 	ldr.w	r4, [r3], #8
c2006390:	9305      	str	r3, [sp, #20]
c2006392:	ea54 0305 	orrs.w	r3, r4, r5
c2006396:	f009 0101 	and.w	r1, r9, #1
c200639a:	bf08      	it	eq
c200639c:	2100      	moveq	r1, #0
c200639e:	2900      	cmp	r1, #0
c20063a0:	d141      	bne.n	c2006426 <_vfiprintf_r+0xb8e>
c20063a2:	f429 6380 	bic.w	r3, r9, #1024	; 0x400
c20063a6:	2102      	movs	r1, #2
c20063a8:	9300      	str	r3, [sp, #0]
c20063aa:	f7ff bbdb 	b.w	c2005b64 <_vfiprintf_r+0x2cc>
c20063ae:	f8cd 9000 	str.w	r9, [sp]
c20063b2:	e554      	b.n	c2005e5e <_vfiprintf_r+0x5c6>
c20063b4:	f647 43cc 	movw	r3, #31948	; 0x7ccc
c20063b8:	f2cc 2300 	movt	r3, #49664	; 0xc200
c20063bc:	9308      	str	r3, [sp, #32]
c20063be:	e7dc      	b.n	c200637a <_vfiprintf_r+0xae2>
c20063c0:	4640      	mov	r0, r8
c20063c2:	9405      	str	r4, [sp, #20]
c20063c4:	9501      	str	r5, [sp, #4]
c20063c6:	f7ff f97b 	bl	c20056c0 <strlen>
c20063ca:	9002      	str	r0, [sp, #8]
c20063cc:	f7ff bbed 	b.w	c2005baa <_vfiprintf_r+0x312>
c20063d0:	f89d 2033 	ldrb.w	r2, [sp, #51]	; 0x33
c20063d4:	2a00      	cmp	r2, #0
c20063d6:	f040 809a 	bne.w	c200650e <_vfiprintf_r+0xc76>
c20063da:	9b06      	ldr	r3, [sp, #24]
c20063dc:	2b00      	cmp	r3, #0
c20063de:	f47f ae8f 	bne.w	c2006100 <_vfiprintf_r+0x868>
c20063e2:	4608      	mov	r0, r1
c20063e4:	f04f 0c01 	mov.w	ip, #1
c20063e8:	af11      	add	r7, sp, #68	; 0x44
c20063ea:	e461      	b.n	c2005cb0 <_vfiprintf_r+0x418>
c20063ec:	f019 0110 	ands.w	r1, r9, #16
c20063f0:	d10d      	bne.n	c200640e <_vfiprintf_r+0xb76>
c20063f2:	f019 0040 	ands.w	r0, r9, #64	; 0x40
c20063f6:	d006      	beq.n	c2006406 <_vfiprintf_r+0xb6e>
c20063f8:	9c05      	ldr	r4, [sp, #20]
c20063fa:	460d      	mov	r5, r1
c20063fc:	f854 1b04 	ldr.w	r1, [r4], #4
c2006400:	9405      	str	r4, [sp, #20]
c2006402:	b28c      	uxth	r4, r1
c2006404:	e7c5      	b.n	c2006392 <_vfiprintf_r+0xafa>
c2006406:	f419 7500 	ands.w	r5, r9, #512	; 0x200
c200640a:	f040 80a3 	bne.w	c2006554 <_vfiprintf_r+0xcbc>
c200640e:	9905      	ldr	r1, [sp, #20]
c2006410:	f851 4b04 	ldr.w	r4, [r1], #4
c2006414:	9105      	str	r1, [sp, #20]
c2006416:	f009 0101 	and.w	r1, r9, #1
c200641a:	ea54 0305 	orrs.w	r3, r4, r5
c200641e:	bf08      	it	eq
c2006420:	2100      	moveq	r1, #0
c2006422:	2900      	cmp	r1, #0
c2006424:	d0bd      	beq.n	c20063a2 <_vfiprintf_r+0xb0a>
c2006426:	f88d 2035 	strb.w	r2, [sp, #53]	; 0x35
c200642a:	f049 0902 	orr.w	r9, r9, #2
c200642e:	2230      	movs	r2, #48	; 0x30
c2006430:	f88d 2034 	strb.w	r2, [sp, #52]	; 0x34
c2006434:	e7b5      	b.n	c20063a2 <_vfiprintf_r+0xb0a>
c2006436:	3a02      	subs	r2, #2
c2006438:	ab3a      	add	r3, sp, #232	; 0xe8
c200643a:	2130      	movs	r1, #48	; 0x30
c200643c:	1a9b      	subs	r3, r3, r2
c200643e:	f808 1c01 	strb.w	r1, [r8, #-1]
c2006442:	4690      	mov	r8, r2
c2006444:	f8dd 9000 	ldr.w	r9, [sp]
c2006448:	9302      	str	r3, [sp, #8]
c200644a:	f7ff bbae 	b.w	c2005baa <_vfiprintf_r+0x312>
c200644e:	9b00      	ldr	r3, [sp, #0]
c2006450:	2200      	movs	r2, #0
c2006452:	9702      	str	r7, [sp, #8]
c2006454:	ee08 aa10 	vmov	s16, sl
c2006458:	f403 6380 	and.w	r3, r3, #1024	; 0x400
c200645c:	f8dd a024 	ldr.w	sl, [sp, #36]	; 0x24
c2006460:	f10d 09e8 	add.w	r9, sp, #232	; 0xe8
c2006464:	4690      	mov	r8, r2
c2006466:	461f      	mov	r7, r3
c2006468:	9606      	str	r6, [sp, #24]
c200646a:	e00a      	b.n	c2006482 <_vfiprintf_r+0xbea>
c200646c:	4620      	mov	r0, r4
c200646e:	4629      	mov	r1, r5
c2006470:	f001 fa98 	bl	c20079a4 <__aeabi_uldivmod>
c2006474:	2c0a      	cmp	r4, #10
c2006476:	f175 0300 	sbcs.w	r3, r5, #0
c200647a:	d325      	bcc.n	c20064c8 <_vfiprintf_r+0xc30>
c200647c:	4604      	mov	r4, r0
c200647e:	460d      	mov	r5, r1
c2006480:	46b1      	mov	r9, r6
c2006482:	220a      	movs	r2, #10
c2006484:	2300      	movs	r3, #0
c2006486:	4620      	mov	r0, r4
c2006488:	4629      	mov	r1, r5
c200648a:	f001 fa8b 	bl	c20079a4 <__aeabi_uldivmod>
c200648e:	4611      	mov	r1, r2
c2006490:	3130      	adds	r1, #48	; 0x30
c2006492:	f109 36ff 	add.w	r6, r9, #4294967295	; 0xffffffff
c2006496:	f108 0801 	add.w	r8, r8, #1
c200649a:	220a      	movs	r2, #10
c200649c:	2300      	movs	r3, #0
c200649e:	f809 1c01 	strb.w	r1, [r9, #-1]
c20064a2:	2f00      	cmp	r7, #0
c20064a4:	d0e2      	beq.n	c200646c <_vfiprintf_r+0xbd4>
c20064a6:	f89a 1000 	ldrb.w	r1, [sl]
c20064aa:	eba1 0008 	sub.w	r0, r1, r8
c20064ae:	29ff      	cmp	r1, #255	; 0xff
c20064b0:	fab0 f080 	clz	r0, r0
c20064b4:	ea4f 1050 	mov.w	r0, r0, lsr #5
c20064b8:	bf08      	it	eq
c20064ba:	2000      	moveq	r0, #0
c20064bc:	2800      	cmp	r0, #0
c20064be:	d0d5      	beq.n	c200646c <_vfiprintf_r+0xbd4>
c20064c0:	2c0a      	cmp	r4, #10
c20064c2:	f175 0300 	sbcs.w	r3, r5, #0
c20064c6:	d25b      	bcs.n	c2006580 <_vfiprintf_r+0xce8>
c20064c8:	46b0      	mov	r8, r6
c20064ca:	ab3a      	add	r3, sp, #232	; 0xe8
c20064cc:	9f02      	ldr	r7, [sp, #8]
c20064ce:	eba3 0308 	sub.w	r3, r3, r8
c20064d2:	f8cd a024 	str.w	sl, [sp, #36]	; 0x24
c20064d6:	ee18 aa10 	vmov	sl, s16
c20064da:	9e06      	ldr	r6, [sp, #24]
c20064dc:	f8dd 9000 	ldr.w	r9, [sp]
c20064e0:	9302      	str	r3, [sp, #8]
c20064e2:	f7ff bb62 	b.w	c2005baa <_vfiprintf_r+0x312>
c20064e6:	9c05      	ldr	r4, [sp, #20]
c20064e8:	9a04      	ldr	r2, [sp, #16]
c20064ea:	f854 3b04 	ldr.w	r3, [r4], #4
c20064ee:	601a      	str	r2, [r3, #0]
c20064f0:	9405      	str	r4, [sp, #20]
c20064f2:	f7ff ba12 	b.w	c200591a <_vfiprintf_r+0x82>
c20064f6:	2b06      	cmp	r3, #6
c20064f8:	f647 48f4 	movw	r8, #31988	; 0x7cf4
c20064fc:	f2cc 2800 	movt	r8, #49664	; 0xc200
c2006500:	bf28      	it	cs
c2006502:	2306      	movcs	r3, #6
c2006504:	9405      	str	r4, [sp, #20]
c2006506:	9302      	str	r3, [sp, #8]
c2006508:	9300      	str	r3, [sp, #0]
c200650a:	f7ff bb86 	b.w	c2005c1a <_vfiprintf_r+0x382>
c200650e:	2201      	movs	r2, #1
c2006510:	af11      	add	r7, sp, #68	; 0x44
c2006512:	4694      	mov	ip, r2
c2006514:	9212      	str	r2, [sp, #72]	; 0x48
c2006516:	4661      	mov	r1, ip
c2006518:	f10d 0233 	add.w	r2, sp, #51	; 0x33
c200651c:	9211      	str	r2, [sp, #68]	; 0x44
c200651e:	f7ff bba2 	b.w	c2005c66 <_vfiprintf_r+0x3ce>
c2006522:	9c05      	ldr	r4, [sp, #20]
c2006524:	9a04      	ldr	r2, [sp, #16]
c2006526:	f854 3b04 	ldr.w	r3, [r4], #4
c200652a:	9405      	str	r4, [sp, #20]
c200652c:	801a      	strh	r2, [r3, #0]
c200652e:	f7ff b9f4 	b.w	c200591a <_vfiprintf_r+0x82>
c2006532:	9c05      	ldr	r4, [sp, #20]
c2006534:	460d      	mov	r5, r1
c2006536:	f854 2b04 	ldr.w	r2, [r4], #4
c200653a:	9405      	str	r4, [sp, #20]
c200653c:	b2d4      	uxtb	r4, r2
c200653e:	f7ff bb0d 	b.w	c2005b5c <_vfiprintf_r+0x2c4>
c2006542:	9a05      	ldr	r2, [sp, #20]
c2006544:	f852 4b04 	ldr.w	r4, [r2], #4
c2006548:	9205      	str	r2, [sp, #20]
c200654a:	b264      	sxtb	r4, r4
c200654c:	17e5      	asrs	r5, r4, #31
c200654e:	462a      	mov	r2, r5
c2006550:	f7ff bab7 	b.w	c2005ac2 <_vfiprintf_r+0x22a>
c2006554:	9c05      	ldr	r4, [sp, #20]
c2006556:	4605      	mov	r5, r0
c2006558:	f854 1b04 	ldr.w	r1, [r4], #4
c200655c:	9405      	str	r4, [sp, #20]
c200655e:	b2cc      	uxtb	r4, r1
c2006560:	e717      	b.n	c2006392 <_vfiprintf_r+0xafa>
c2006562:	9c05      	ldr	r4, [sp, #20]
c2006564:	4615      	mov	r5, r2
c2006566:	2101      	movs	r1, #1
c2006568:	f854 3b04 	ldr.w	r3, [r4], #4
c200656c:	9405      	str	r4, [sp, #20]
c200656e:	b2dc      	uxtb	r4, r3
c2006570:	f7ff baf8 	b.w	c2005b64 <_vfiprintf_r+0x2cc>
c2006574:	f8db 0058 	ldr.w	r0, [fp, #88]	; 0x58
c2006578:	f7fd fdce 	bl	c2004118 <__retarget_lock_release_recursive>
c200657c:	f7ff bad4 	b.w	c2005b28 <_vfiprintf_r+0x290>
c2006580:	9b0b      	ldr	r3, [sp, #44]	; 0x2c
c2006582:	990a      	ldr	r1, [sp, #40]	; 0x28
c2006584:	1af6      	subs	r6, r6, r3
c2006586:	461a      	mov	r2, r3
c2006588:	4630      	mov	r0, r6
c200658a:	f7ff f907 	bl	c200579c <strncpy>
c200658e:	f89a 3001 	ldrb.w	r3, [sl, #1]
c2006592:	b10b      	cbz	r3, c2006598 <_vfiprintf_r+0xd00>
c2006594:	f10a 0a01 	add.w	sl, sl, #1
c2006598:	4620      	mov	r0, r4
c200659a:	4629      	mov	r1, r5
c200659c:	220a      	movs	r2, #10
c200659e:	2300      	movs	r3, #0
c20065a0:	f04f 0800 	mov.w	r8, #0
c20065a4:	f001 f9fe 	bl	c20079a4 <__aeabi_uldivmod>
c20065a8:	e768      	b.n	c200647c <_vfiprintf_r+0xbe4>
c20065aa:	9b01      	ldr	r3, [sp, #4]
c20065ac:	9302      	str	r3, [sp, #8]
c20065ae:	9405      	str	r4, [sp, #20]
c20065b0:	9001      	str	r0, [sp, #4]
c20065b2:	f7ff bafa 	b.w	c2005baa <_vfiprintf_r+0x312>
c20065b6:	980f      	ldr	r0, [sp, #60]	; 0x3c
c20065b8:	f647 7544 	movw	r5, #32580	; 0x7f44
c20065bc:	f2cc 2500 	movt	r5, #49664	; 0xc200
c20065c0:	9910      	ldr	r1, [sp, #64]	; 0x40
c20065c2:	3001      	adds	r0, #1
c20065c4:	e5dc      	b.n	c2006180 <_vfiprintf_r+0x8e8>
c20065c6:	9b0f      	ldr	r3, [sp, #60]	; 0x3c
c20065c8:	f647 7544 	movw	r5, #32580	; 0x7f44
c20065cc:	f2cc 2500 	movt	r5, #49664	; 0xc200
c20065d0:	f103 0c01 	add.w	ip, r3, #1
c20065d4:	e632      	b.n	c200623c <_vfiprintf_r+0x9a4>
c20065d6:	aa0e      	add	r2, sp, #56	; 0x38
c20065d8:	4659      	mov	r1, fp
c20065da:	4650      	mov	r0, sl
c20065dc:	f7ff f916 	bl	c200580c <__sprint_r.part.0>
c20065e0:	2800      	cmp	r0, #0
c20065e2:	f43f aaf2 	beq.w	c2005bca <_vfiprintf_r+0x332>
c20065e6:	f7ff baf2 	b.w	c2005bce <_vfiprintf_r+0x336>
c20065ea:	f04f 33ff 	mov.w	r3, #4294967295	; 0xffffffff
c20065ee:	9304      	str	r3, [sp, #16]
c20065f0:	f7ff baf8 	b.w	c2005be4 <_vfiprintf_r+0x34c>
c20065f4:	f647 7554 	movw	r5, #32596	; 0x7f54
c20065f8:	f2cc 2500 	movt	r5, #49664	; 0xc200
c20065fc:	4663      	mov	r3, ip
c20065fe:	e4f2      	b.n	c2005fe6 <_vfiprintf_r+0x74e>
c2006600:	9b05      	ldr	r3, [sp, #20]
c2006602:	7872      	ldrb	r2, [r6, #1]
c2006604:	460e      	mov	r6, r1
c2006606:	f853 1b04 	ldr.w	r1, [r3], #4
c200660a:	9305      	str	r3, [sp, #20]
c200660c:	ea41 73e1 	orr.w	r3, r1, r1, asr #31
c2006610:	9301      	str	r3, [sp, #4]
c2006612:	f7ff b9bb 	b.w	c200598c <_vfiprintf_r+0xf4>
c2006616:	f8db 3064 	ldr.w	r3, [fp, #100]	; 0x64
c200661a:	07dd      	lsls	r5, r3, #31
c200661c:	d4e5      	bmi.n	c20065ea <_vfiprintf_r+0xd52>
c200661e:	f8bb 300c 	ldrh.w	r3, [fp, #12]
c2006622:	059c      	lsls	r4, r3, #22
c2006624:	d4e1      	bmi.n	c20065ea <_vfiprintf_r+0xd52>
c2006626:	f8db 0058 	ldr.w	r0, [fp, #88]	; 0x58
c200662a:	f04f 33ff 	mov.w	r3, #4294967295	; 0xffffffff
c200662e:	9304      	str	r3, [sp, #16]
c2006630:	f7fd fd72 	bl	c2004118 <__retarget_lock_release_recursive>
c2006634:	f7ff bad6 	b.w	c2005be4 <_vfiprintf_r+0x34c>

c2006638 <__sbprintf>:
c2006638:	b570      	push	{r4, r5, r6, lr}
c200663a:	460c      	mov	r4, r1
c200663c:	8989      	ldrh	r1, [r1, #12]
c200663e:	f5ad 6d8e 	sub.w	sp, sp, #1136	; 0x470
c2006642:	4606      	mov	r6, r0
c2006644:	f021 0102 	bic.w	r1, r1, #2
c2006648:	a818      	add	r0, sp, #96	; 0x60
c200664a:	f8ad 1014 	strh.w	r1, [sp, #20]
c200664e:	6e61      	ldr	r1, [r4, #100]	; 0x64
c2006650:	911b      	str	r1, [sp, #108]	; 0x6c
c2006652:	89e1      	ldrh	r1, [r4, #14]
c2006654:	f8ad 1016 	strh.w	r1, [sp, #22]
c2006658:	69e1      	ldr	r1, [r4, #28]
c200665a:	9109      	str	r1, [sp, #36]	; 0x24
c200665c:	6a61      	ldr	r1, [r4, #36]	; 0x24
c200665e:	e9cd 3200 	strd	r3, r2, [sp]
c2006662:	910b      	str	r1, [sp, #44]	; 0x2c
c2006664:	a91c      	add	r1, sp, #112	; 0x70
c2006666:	9102      	str	r1, [sp, #8]
c2006668:	9106      	str	r1, [sp, #24]
c200666a:	f44f 6180 	mov.w	r1, #1024	; 0x400
c200666e:	9104      	str	r1, [sp, #16]
c2006670:	9107      	str	r1, [sp, #28]
c2006672:	2100      	movs	r1, #0
c2006674:	9108      	str	r1, [sp, #32]
c2006676:	f7fd fd49 	bl	c200410c <__retarget_lock_init_recursive>
c200667a:	e9dd 3200 	ldrd	r3, r2, [sp]
c200667e:	a902      	add	r1, sp, #8
c2006680:	4630      	mov	r0, r6
c2006682:	f7ff f909 	bl	c2005898 <_vfiprintf_r>
c2006686:	1e05      	subs	r5, r0, #0
c2006688:	db07      	blt.n	c200669a <__sbprintf+0x62>
c200668a:	a902      	add	r1, sp, #8
c200668c:	4630      	mov	r0, r6
c200668e:	f7fd fae7 	bl	c2003c60 <_fflush_r>
c2006692:	2800      	cmp	r0, #0
c2006694:	bf18      	it	ne
c2006696:	f04f 35ff 	movne.w	r5, #4294967295	; 0xffffffff
c200669a:	f8bd 3014 	ldrh.w	r3, [sp, #20]
c200669e:	9818      	ldr	r0, [sp, #96]	; 0x60
c20066a0:	065b      	lsls	r3, r3, #25
c20066a2:	bf42      	ittt	mi
c20066a4:	89a3      	ldrhmi	r3, [r4, #12]
c20066a6:	f043 0340 	orrmi.w	r3, r3, #64	; 0x40
c20066aa:	81a3      	strhmi	r3, [r4, #12]
c20066ac:	f7fd fd30 	bl	c2004110 <__retarget_lock_close_recursive>
c20066b0:	4628      	mov	r0, r5
c20066b2:	f50d 6d8e 	add.w	sp, sp, #1136	; 0x470
c20066b6:	bd70      	pop	{r4, r5, r6, pc}

c20066b8 <_write_r>:
c20066b8:	b538      	push	{r3, r4, r5, lr}
c20066ba:	f648 7448 	movw	r4, #36680	; 0x8f48
c20066be:	f2cc 2400 	movt	r4, #49664	; 0xc200
c20066c2:	460d      	mov	r5, r1
c20066c4:	4684      	mov	ip, r0
c20066c6:	4611      	mov	r1, r2
c20066c8:	4628      	mov	r0, r5
c20066ca:	461a      	mov	r2, r3
c20066cc:	4665      	mov	r5, ip
c20066ce:	2300      	movs	r3, #0
c20066d0:	6023      	str	r3, [r4, #0]
c20066d2:	f7fa ec4c 	blx	c2000f6c <_write>
c20066d6:	1c43      	adds	r3, r0, #1
c20066d8:	d000      	beq.n	c20066dc <_write_r+0x24>
c20066da:	bd38      	pop	{r3, r4, r5, pc}
c20066dc:	6823      	ldr	r3, [r4, #0]
c20066de:	2b00      	cmp	r3, #0
c20066e0:	d0fb      	beq.n	c20066da <_write_r+0x22>
c20066e2:	602b      	str	r3, [r5, #0]
c20066e4:	bd38      	pop	{r3, r4, r5, pc}
c20066e6:	bf00      	nop

c20066e8 <__assert_func>:
c20066e8:	f248 1500 	movw	r5, #33024	; 0x8100
c20066ec:	f2cc 2500 	movt	r5, #49664	; 0xc200
c20066f0:	b500      	push	{lr}
c20066f2:	4614      	mov	r4, r2
c20066f4:	460e      	mov	r6, r1
c20066f6:	682d      	ldr	r5, [r5, #0]
c20066f8:	461a      	mov	r2, r3
c20066fa:	b085      	sub	sp, #20
c20066fc:	4603      	mov	r3, r0
c20066fe:	68e8      	ldr	r0, [r5, #12]
c2006700:	b174      	cbz	r4, c2006720 <__assert_func+0x38>
c2006702:	f647 7564 	movw	r5, #32612	; 0x7f64
c2006706:	f2cc 2500 	movt	r5, #49664	; 0xc200
c200670a:	f647 7174 	movw	r1, #32628	; 0x7f74
c200670e:	f2cc 2100 	movt	r1, #49664	; 0xc200
c2006712:	e9cd 5401 	strd	r5, r4, [sp, #4]
c2006716:	9600      	str	r6, [sp, #0]
c2006718:	f000 f8c4 	bl	c20068a4 <fiprintf>
c200671c:	f000 fe5c 	bl	c20073d8 <abort>
c2006720:	f647 7570 	movw	r5, #32624	; 0x7f70
c2006724:	f2cc 2500 	movt	r5, #49664	; 0xc200
c2006728:	462c      	mov	r4, r5
c200672a:	e7ee      	b.n	c200670a <__assert_func+0x22>

c200672c <_calloc_r>:
c200672c:	b538      	push	{r3, r4, r5, lr}
c200672e:	fba1 1402 	umull	r1, r4, r1, r2
c2006732:	bb8c      	cbnz	r4, c2006798 <_calloc_r+0x6c>
c2006734:	f7fd fd64 	bl	c2004200 <_malloc_r>
c2006738:	4605      	mov	r5, r0
c200673a:	b1a8      	cbz	r0, c2006768 <_calloc_r+0x3c>
c200673c:	f850 2c04 	ldr.w	r2, [r0, #-4]
c2006740:	f022 0203 	bic.w	r2, r2, #3
c2006744:	3a04      	subs	r2, #4
c2006746:	2a24      	cmp	r2, #36	; 0x24
c2006748:	d810      	bhi.n	c200676c <_calloc_r+0x40>
c200674a:	2a13      	cmp	r2, #19
c200674c:	bf98      	it	ls
c200674e:	4602      	movls	r2, r0
c2006750:	d906      	bls.n	c2006760 <_calloc_r+0x34>
c2006752:	2a1b      	cmp	r2, #27
c2006754:	e9c0 4400 	strd	r4, r4, [r0]
c2006758:	bf98      	it	ls
c200675a:	f100 0208 	addls.w	r2, r0, #8
c200675e:	d80a      	bhi.n	c2006776 <_calloc_r+0x4a>
c2006760:	2300      	movs	r3, #0
c2006762:	e9c2 3300 	strd	r3, r3, [r2]
c2006766:	6093      	str	r3, [r2, #8]
c2006768:	4628      	mov	r0, r5
c200676a:	bd38      	pop	{r3, r4, r5, pc}
c200676c:	4621      	mov	r1, r4
c200676e:	f7fa fc35 	bl	c2000fdc <memset>
c2006772:	4628      	mov	r0, r5
c2006774:	bd38      	pop	{r3, r4, r5, pc}
c2006776:	2a24      	cmp	r2, #36	; 0x24
c2006778:	f04f 0300 	mov.w	r3, #0
c200677c:	bf14      	ite	ne
c200677e:	f100 0210 	addne.w	r2, r0, #16
c2006782:	f100 0218 	addeq.w	r2, r0, #24
c2006786:	e9c0 4402 	strd	r4, r4, [r0, #8]
c200678a:	bf08      	it	eq
c200678c:	e9c0 4404 	strdeq	r4, r4, [r0, #16]
c2006790:	e9c2 3300 	strd	r3, r3, [r2]
c2006794:	6093      	str	r3, [r2, #8]
c2006796:	e7e7      	b.n	c2006768 <_calloc_r+0x3c>
c2006798:	f000 f818 	bl	c20067cc <__errno>
c200679c:	2500      	movs	r5, #0
c200679e:	230c      	movs	r3, #12
c20067a0:	6003      	str	r3, [r0, #0]
c20067a2:	e7e1      	b.n	c2006768 <_calloc_r+0x3c>

c20067a4 <_close_r>:
c20067a4:	b538      	push	{r3, r4, r5, lr}
c20067a6:	f648 7448 	movw	r4, #36680	; 0x8f48
c20067aa:	f2cc 2400 	movt	r4, #49664	; 0xc200
c20067ae:	4605      	mov	r5, r0
c20067b0:	4608      	mov	r0, r1
c20067b2:	2300      	movs	r3, #0
c20067b4:	6023      	str	r3, [r4, #0]
c20067b6:	f001 f997 	bl	c2007ae8 <_close>
c20067ba:	1c43      	adds	r3, r0, #1
c20067bc:	d000      	beq.n	c20067c0 <_close_r+0x1c>
c20067be:	bd38      	pop	{r3, r4, r5, pc}
c20067c0:	6823      	ldr	r3, [r4, #0]
c20067c2:	2b00      	cmp	r3, #0
c20067c4:	d0fb      	beq.n	c20067be <_close_r+0x1a>
c20067c6:	602b      	str	r3, [r5, #0]
c20067c8:	bd38      	pop	{r3, r4, r5, pc}
c20067ca:	bf00      	nop

c20067cc <__errno>:
c20067cc:	f248 1300 	movw	r3, #33024	; 0x8100
c20067d0:	f2cc 2300 	movt	r3, #49664	; 0xc200
c20067d4:	6818      	ldr	r0, [r3, #0]
c20067d6:	4770      	bx	lr

c20067d8 <_fclose_r>:
c20067d8:	b570      	push	{r4, r5, r6, lr}
c20067da:	2900      	cmp	r1, #0
c20067dc:	d04b      	beq.n	c2006876 <_fclose_r+0x9e>
c20067de:	4606      	mov	r6, r0
c20067e0:	460c      	mov	r4, r1
c20067e2:	b110      	cbz	r0, c20067ea <_fclose_r+0x12>
c20067e4:	6b83      	ldr	r3, [r0, #56]	; 0x38
c20067e6:	2b00      	cmp	r3, #0
c20067e8:	d048      	beq.n	c200687c <_fclose_r+0xa4>
c20067ea:	6e63      	ldr	r3, [r4, #100]	; 0x64
c20067ec:	07d8      	lsls	r0, r3, #31
c20067ee:	d534      	bpl.n	c200685a <_fclose_r+0x82>
c20067f0:	f9b4 300c 	ldrsh.w	r3, [r4, #12]
c20067f4:	2b00      	cmp	r3, #0
c20067f6:	d03e      	beq.n	c2006876 <_fclose_r+0x9e>
c20067f8:	4621      	mov	r1, r4
c20067fa:	4630      	mov	r0, r6
c20067fc:	f7fd f988 	bl	c2003b10 <__sflush_r>
c2006800:	6ae3      	ldr	r3, [r4, #44]	; 0x2c
c2006802:	4605      	mov	r5, r0
c2006804:	b133      	cbz	r3, c2006814 <_fclose_r+0x3c>
c2006806:	69e1      	ldr	r1, [r4, #28]
c2006808:	4630      	mov	r0, r6
c200680a:	4798      	blx	r3
c200680c:	2800      	cmp	r0, #0
c200680e:	bfb8      	it	lt
c2006810:	f04f 35ff 	movlt.w	r5, #4294967295	; 0xffffffff
c2006814:	89a3      	ldrh	r3, [r4, #12]
c2006816:	061a      	lsls	r2, r3, #24
c2006818:	d43b      	bmi.n	c2006892 <_fclose_r+0xba>
c200681a:	6b21      	ldr	r1, [r4, #48]	; 0x30
c200681c:	b141      	cbz	r1, c2006830 <_fclose_r+0x58>
c200681e:	f104 0340 	add.w	r3, r4, #64	; 0x40
c2006822:	4299      	cmp	r1, r3
c2006824:	d002      	beq.n	c200682c <_fclose_r+0x54>
c2006826:	4630      	mov	r0, r6
c2006828:	f7fd fb3e 	bl	c2003ea8 <_free_r>
c200682c:	2300      	movs	r3, #0
c200682e:	6323      	str	r3, [r4, #48]	; 0x30
c2006830:	6c61      	ldr	r1, [r4, #68]	; 0x44
c2006832:	b121      	cbz	r1, c200683e <_fclose_r+0x66>
c2006834:	4630      	mov	r0, r6
c2006836:	f7fd fb37 	bl	c2003ea8 <_free_r>
c200683a:	2300      	movs	r3, #0
c200683c:	6463      	str	r3, [r4, #68]	; 0x44
c200683e:	f7fd fad1 	bl	c2003de4 <__sfp_lock_acquire>
c2006842:	6e63      	ldr	r3, [r4, #100]	; 0x64
c2006844:	2200      	movs	r2, #0
c2006846:	81a2      	strh	r2, [r4, #12]
c2006848:	07db      	lsls	r3, r3, #31
c200684a:	d527      	bpl.n	c200689c <_fclose_r+0xc4>
c200684c:	6da0      	ldr	r0, [r4, #88]	; 0x58
c200684e:	f7fd fc5f 	bl	c2004110 <__retarget_lock_close_recursive>
c2006852:	f7fd facd 	bl	c2003df0 <__sfp_lock_release>
c2006856:	4628      	mov	r0, r5
c2006858:	bd70      	pop	{r4, r5, r6, pc}
c200685a:	89a3      	ldrh	r3, [r4, #12]
c200685c:	0599      	lsls	r1, r3, #22
c200685e:	d4cb      	bmi.n	c20067f8 <_fclose_r+0x20>
c2006860:	6da0      	ldr	r0, [r4, #88]	; 0x58
c2006862:	f7fd fc57 	bl	c2004114 <__retarget_lock_acquire_recursive>
c2006866:	f9b4 300c 	ldrsh.w	r3, [r4, #12]
c200686a:	2b00      	cmp	r3, #0
c200686c:	d1c4      	bne.n	c20067f8 <_fclose_r+0x20>
c200686e:	6e65      	ldr	r5, [r4, #100]	; 0x64
c2006870:	f015 0501 	ands.w	r5, r5, #1
c2006874:	d008      	beq.n	c2006888 <_fclose_r+0xb0>
c2006876:	2500      	movs	r5, #0
c2006878:	4628      	mov	r0, r5
c200687a:	bd70      	pop	{r4, r5, r6, pc}
c200687c:	f7fd fa24 	bl	c2003cc8 <__sinit>
c2006880:	6e63      	ldr	r3, [r4, #100]	; 0x64
c2006882:	07d8      	lsls	r0, r3, #31
c2006884:	d4b4      	bmi.n	c20067f0 <_fclose_r+0x18>
c2006886:	e7e8      	b.n	c200685a <_fclose_r+0x82>
c2006888:	6da0      	ldr	r0, [r4, #88]	; 0x58
c200688a:	f7fd fc45 	bl	c2004118 <__retarget_lock_release_recursive>
c200688e:	4628      	mov	r0, r5
c2006890:	bd70      	pop	{r4, r5, r6, pc}
c2006892:	6921      	ldr	r1, [r4, #16]
c2006894:	4630      	mov	r0, r6
c2006896:	f7fd fb07 	bl	c2003ea8 <_free_r>
c200689a:	e7be      	b.n	c200681a <_fclose_r+0x42>
c200689c:	6da0      	ldr	r0, [r4, #88]	; 0x58
c200689e:	f7fd fc3b 	bl	c2004118 <__retarget_lock_release_recursive>
c20068a2:	e7d3      	b.n	c200684c <_fclose_r+0x74>

c20068a4 <fiprintf>:
c20068a4:	b40e      	push	{r1, r2, r3}
c20068a6:	f248 1c00 	movw	ip, #33024	; 0x8100
c20068aa:	f2cc 2c00 	movt	ip, #49664	; 0xc200
c20068ae:	b500      	push	{lr}
c20068b0:	4601      	mov	r1, r0
c20068b2:	b082      	sub	sp, #8
c20068b4:	f8dc 0000 	ldr.w	r0, [ip]
c20068b8:	ab03      	add	r3, sp, #12
c20068ba:	f853 2b04 	ldr.w	r2, [r3], #4
c20068be:	9301      	str	r3, [sp, #4]
c20068c0:	f7fe ffea 	bl	c2005898 <_vfiprintf_r>
c20068c4:	b002      	add	sp, #8
c20068c6:	f85d eb04 	ldr.w	lr, [sp], #4
c20068ca:	b003      	add	sp, #12
c20068cc:	4770      	bx	lr
c20068ce:	bf00      	nop

c20068d0 <__fputwc>:
c20068d0:	e92d 47f0 	stmdb	sp!, {r4, r5, r6, r7, r8, r9, sl, lr}
c20068d4:	4682      	mov	sl, r0
c20068d6:	4688      	mov	r8, r1
c20068d8:	b082      	sub	sp, #8
c20068da:	4614      	mov	r4, r2
c20068dc:	f000 fa2c 	bl	c2006d38 <__locale_mb_cur_max>
c20068e0:	2801      	cmp	r0, #1
c20068e2:	d103      	bne.n	c20068ec <__fputwc+0x1c>
c20068e4:	f108 33ff 	add.w	r3, r8, #4294967295	; 0xffffffff
c20068e8:	2bfe      	cmp	r3, #254	; 0xfe
c20068ea:	d936      	bls.n	c200695a <__fputwc+0x8a>
c20068ec:	4642      	mov	r2, r8
c20068ee:	f104 035c 	add.w	r3, r4, #92	; 0x5c
c20068f2:	a901      	add	r1, sp, #4
c20068f4:	4650      	mov	r0, sl
c20068f6:	f000 fd43 	bl	c2007380 <_wcrtomb_r>
c20068fa:	4606      	mov	r6, r0
c20068fc:	1c42      	adds	r2, r0, #1
c20068fe:	d037      	beq.n	c2006970 <__fputwc+0xa0>
c2006900:	b388      	cbz	r0, c2006966 <__fputwc+0x96>
c2006902:	f89d c004 	ldrb.w	ip, [sp, #4]
c2006906:	f10d 0905 	add.w	r9, sp, #5
c200690a:	2500      	movs	r5, #0
c200690c:	e009      	b.n	c2006922 <__fputwc+0x52>
c200690e:	6823      	ldr	r3, [r4, #0]
c2006910:	1c5a      	adds	r2, r3, #1
c2006912:	6022      	str	r2, [r4, #0]
c2006914:	f883 c000 	strb.w	ip, [r3]
c2006918:	3501      	adds	r5, #1
c200691a:	42b5      	cmp	r5, r6
c200691c:	d223      	bcs.n	c2006966 <__fputwc+0x96>
c200691e:	f819 cb01 	ldrb.w	ip, [r9], #1
c2006922:	68a3      	ldr	r3, [r4, #8]
c2006924:	3b01      	subs	r3, #1
c2006926:	60a3      	str	r3, [r4, #8]
c2006928:	2b00      	cmp	r3, #0
c200692a:	daf0      	bge.n	c200690e <__fputwc+0x3e>
c200692c:	69a7      	ldr	r7, [r4, #24]
c200692e:	4661      	mov	r1, ip
c2006930:	4622      	mov	r2, r4
c2006932:	4650      	mov	r0, sl
c2006934:	42bb      	cmp	r3, r7
c2006936:	bfb4      	ite	lt
c2006938:	2700      	movlt	r7, #0
c200693a:	2701      	movge	r7, #1
c200693c:	f1bc 0f0a 	cmp.w	ip, #10
c2006940:	bf08      	it	eq
c2006942:	2700      	moveq	r7, #0
c2006944:	2f00      	cmp	r7, #0
c2006946:	d1e2      	bne.n	c200690e <__fputwc+0x3e>
c2006948:	f000 fcc2 	bl	c20072d0 <__swbuf_r>
c200694c:	1c43      	adds	r3, r0, #1
c200694e:	d1e3      	bne.n	c2006918 <__fputwc+0x48>
c2006950:	4606      	mov	r6, r0
c2006952:	4630      	mov	r0, r6
c2006954:	b002      	add	sp, #8
c2006956:	e8bd 87f0 	ldmia.w	sp!, {r4, r5, r6, r7, r8, r9, sl, pc}
c200695a:	fa5f fc88 	uxtb.w	ip, r8
c200695e:	4606      	mov	r6, r0
c2006960:	f88d c004 	strb.w	ip, [sp, #4]
c2006964:	e7cf      	b.n	c2006906 <__fputwc+0x36>
c2006966:	4646      	mov	r6, r8
c2006968:	4630      	mov	r0, r6
c200696a:	b002      	add	sp, #8
c200696c:	e8bd 87f0 	ldmia.w	sp!, {r4, r5, r6, r7, r8, r9, sl, pc}
c2006970:	89a3      	ldrh	r3, [r4, #12]
c2006972:	f043 0340 	orr.w	r3, r3, #64	; 0x40
c2006976:	81a3      	strh	r3, [r4, #12]
c2006978:	e7eb      	b.n	c2006952 <__fputwc+0x82>
c200697a:	bf00      	nop

c200697c <_fputwc_r>:
c200697c:	6e53      	ldr	r3, [r2, #100]	; 0x64
c200697e:	b530      	push	{r4, r5, lr}
c2006980:	4614      	mov	r4, r2
c2006982:	4605      	mov	r5, r0
c2006984:	b083      	sub	sp, #12
c2006986:	07db      	lsls	r3, r3, #31
c2006988:	d519      	bpl.n	c20069be <_fputwc_r+0x42>
c200698a:	f9b2 300c 	ldrsh.w	r3, [r2, #12]
c200698e:	8992      	ldrh	r2, [r2, #12]
c2006990:	0490      	lsls	r0, r2, #18
c2006992:	d406      	bmi.n	c20069a2 <_fputwc_r+0x26>
c2006994:	6e62      	ldr	r2, [r4, #100]	; 0x64
c2006996:	f443 5300 	orr.w	r3, r3, #8192	; 0x2000
c200699a:	81a3      	strh	r3, [r4, #12]
c200699c:	f442 5200 	orr.w	r2, r2, #8192	; 0x2000
c20069a0:	6662      	str	r2, [r4, #100]	; 0x64
c20069a2:	4622      	mov	r2, r4
c20069a4:	4628      	mov	r0, r5
c20069a6:	f7ff ff93 	bl	c20068d0 <__fputwc>
c20069aa:	6e63      	ldr	r3, [r4, #100]	; 0x64
c20069ac:	4605      	mov	r5, r0
c20069ae:	07da      	lsls	r2, r3, #31
c20069b0:	d402      	bmi.n	c20069b8 <_fputwc_r+0x3c>
c20069b2:	89a3      	ldrh	r3, [r4, #12]
c20069b4:	059b      	lsls	r3, r3, #22
c20069b6:	d510      	bpl.n	c20069da <_fputwc_r+0x5e>
c20069b8:	4628      	mov	r0, r5
c20069ba:	b003      	add	sp, #12
c20069bc:	bd30      	pop	{r4, r5, pc}
c20069be:	8992      	ldrh	r2, [r2, #12]
c20069c0:	f9b4 300c 	ldrsh.w	r3, [r4, #12]
c20069c4:	0590      	lsls	r0, r2, #22
c20069c6:	d4e3      	bmi.n	c2006990 <_fputwc_r+0x14>
c20069c8:	6da0      	ldr	r0, [r4, #88]	; 0x58
c20069ca:	9101      	str	r1, [sp, #4]
c20069cc:	f7fd fba2 	bl	c2004114 <__retarget_lock_acquire_recursive>
c20069d0:	f9b4 300c 	ldrsh.w	r3, [r4, #12]
c20069d4:	89a2      	ldrh	r2, [r4, #12]
c20069d6:	9901      	ldr	r1, [sp, #4]
c20069d8:	e7da      	b.n	c2006990 <_fputwc_r+0x14>
c20069da:	6da0      	ldr	r0, [r4, #88]	; 0x58
c20069dc:	f7fd fb9c 	bl	c2004118 <__retarget_lock_release_recursive>
c20069e0:	4628      	mov	r0, r5
c20069e2:	b003      	add	sp, #12
c20069e4:	bd30      	pop	{r4, r5, pc}
c20069e6:	bf00      	nop

c20069e8 <_fstat_r>:
c20069e8:	b538      	push	{r3, r4, r5, lr}
c20069ea:	f648 7448 	movw	r4, #36680	; 0x8f48
c20069ee:	f2cc 2400 	movt	r4, #49664	; 0xc200
c20069f2:	460d      	mov	r5, r1
c20069f4:	4603      	mov	r3, r0
c20069f6:	4611      	mov	r1, r2
c20069f8:	4628      	mov	r0, r5
c20069fa:	461d      	mov	r5, r3
c20069fc:	2300      	movs	r3, #0
c20069fe:	6023      	str	r3, [r4, #0]
c2006a00:	f001 f87c 	bl	c2007afc <_fstat>
c2006a04:	1c43      	adds	r3, r0, #1
c2006a06:	d000      	beq.n	c2006a0a <_fstat_r+0x22>
c2006a08:	bd38      	pop	{r3, r4, r5, pc}
c2006a0a:	6823      	ldr	r3, [r4, #0]
c2006a0c:	2b00      	cmp	r3, #0
c2006a0e:	d0fb      	beq.n	c2006a08 <_fstat_r+0x20>
c2006a10:	602b      	str	r3, [r5, #0]
c2006a12:	bd38      	pop	{r3, r4, r5, pc}

c2006a14 <__sfvwrite_r>:
c2006a14:	6893      	ldr	r3, [r2, #8]
c2006a16:	2b00      	cmp	r3, #0
c2006a18:	f000 80b8 	beq.w	c2006b8c <__sfvwrite_r+0x178>
c2006a1c:	e92d 4ff0 	stmdb	sp!, {r4, r5, r6, r7, r8, r9, sl, fp, lr}
c2006a20:	4680      	mov	r8, r0
c2006a22:	8988      	ldrh	r0, [r1, #12]
c2006a24:	460c      	mov	r4, r1
c2006a26:	b083      	sub	sp, #12
c2006a28:	4617      	mov	r7, r2
c2006a2a:	0701      	lsls	r1, r0, #28
c2006a2c:	d529      	bpl.n	c2006a82 <__sfvwrite_r+0x6e>
c2006a2e:	6923      	ldr	r3, [r4, #16]
c2006a30:	b33b      	cbz	r3, c2006a82 <__sfvwrite_r+0x6e>
c2006a32:	683d      	ldr	r5, [r7, #0]
c2006a34:	f010 0302 	ands.w	r3, r0, #2
c2006a38:	d02f      	beq.n	c2006a9a <__sfvwrite_r+0x86>
c2006a3a:	f04f 0a00 	mov.w	sl, #0
c2006a3e:	f44f 4b7c 	mov.w	fp, #64512	; 0xfc00
c2006a42:	f6c7 7bff 	movt	fp, #32767	; 0x7fff
c2006a46:	4656      	mov	r6, sl
c2006a48:	46b9      	mov	r9, r7
c2006a4a:	455e      	cmp	r6, fp
c2006a4c:	4633      	mov	r3, r6
c2006a4e:	4652      	mov	r2, sl
c2006a50:	bf28      	it	cs
c2006a52:	465b      	movcs	r3, fp
c2006a54:	4640      	mov	r0, r8
c2006a56:	2e00      	cmp	r6, #0
c2006a58:	f000 8084 	beq.w	c2006b64 <__sfvwrite_r+0x150>
c2006a5c:	69e1      	ldr	r1, [r4, #28]
c2006a5e:	6a67      	ldr	r7, [r4, #36]	; 0x24
c2006a60:	47b8      	blx	r7
c2006a62:	2800      	cmp	r0, #0
c2006a64:	f340 8088 	ble.w	c2006b78 <__sfvwrite_r+0x164>
c2006a68:	f8d9 3008 	ldr.w	r3, [r9, #8]
c2006a6c:	4482      	add	sl, r0
c2006a6e:	1a36      	subs	r6, r6, r0
c2006a70:	1a18      	subs	r0, r3, r0
c2006a72:	f8c9 0008 	str.w	r0, [r9, #8]
c2006a76:	2800      	cmp	r0, #0
c2006a78:	d1e7      	bne.n	c2006a4a <__sfvwrite_r+0x36>
c2006a7a:	2000      	movs	r0, #0
c2006a7c:	b003      	add	sp, #12
c2006a7e:	e8bd 8ff0 	ldmia.w	sp!, {r4, r5, r6, r7, r8, r9, sl, fp, pc}
c2006a82:	4621      	mov	r1, r4
c2006a84:	4640      	mov	r0, r8
c2006a86:	f7fc f8b5 	bl	c2002bf4 <__swsetup_r>
c2006a8a:	2800      	cmp	r0, #0
c2006a8c:	f040 813c 	bne.w	c2006d08 <__sfvwrite_r+0x2f4>
c2006a90:	89a0      	ldrh	r0, [r4, #12]
c2006a92:	683d      	ldr	r5, [r7, #0]
c2006a94:	f010 0302 	ands.w	r3, r0, #2
c2006a98:	d1cf      	bne.n	c2006a3a <__sfvwrite_r+0x26>
c2006a9a:	f010 0901 	ands.w	r9, r0, #1
c2006a9e:	d177      	bne.n	c2006b90 <__sfvwrite_r+0x17c>
c2006aa0:	464e      	mov	r6, r9
c2006aa2:	9700      	str	r7, [sp, #0]
c2006aa4:	2e00      	cmp	r6, #0
c2006aa6:	d059      	beq.n	c2006b5c <__sfvwrite_r+0x148>
c2006aa8:	f8d4 b008 	ldr.w	fp, [r4, #8]
c2006aac:	0582      	lsls	r2, r0, #22
c2006aae:	f140 80bb 	bpl.w	c2006c28 <__sfvwrite_r+0x214>
c2006ab2:	465a      	mov	r2, fp
c2006ab4:	45b3      	cmp	fp, r6
c2006ab6:	f200 80ec 	bhi.w	c2006c92 <__sfvwrite_r+0x27e>
c2006aba:	f410 6f90 	tst.w	r0, #1152	; 0x480
c2006abe:	bf08      	it	eq
c2006ac0:	6820      	ldreq	r0, [r4, #0]
c2006ac2:	d032      	beq.n	c2006b2a <__sfvwrite_r+0x116>
c2006ac4:	6962      	ldr	r2, [r4, #20]
c2006ac6:	6823      	ldr	r3, [r4, #0]
c2006ac8:	6921      	ldr	r1, [r4, #16]
c2006aca:	eb02 0242 	add.w	r2, r2, r2, lsl #1
c2006ace:	eba3 0a01 	sub.w	sl, r3, r1
c2006ad2:	eb02 72d2 	add.w	r2, r2, r2, lsr #31
c2006ad6:	f10a 0301 	add.w	r3, sl, #1
c2006ada:	4433      	add	r3, r6
c2006adc:	1052      	asrs	r2, r2, #1
c2006ade:	4293      	cmp	r3, r2
c2006ae0:	bf92      	itee	ls
c2006ae2:	4693      	movls	fp, r2
c2006ae4:	469b      	movhi	fp, r3
c2006ae6:	461a      	movhi	r2, r3
c2006ae8:	0543      	lsls	r3, r0, #21
c2006aea:	f140 80f1 	bpl.w	c2006cd0 <__sfvwrite_r+0x2bc>
c2006aee:	4611      	mov	r1, r2
c2006af0:	4640      	mov	r0, r8
c2006af2:	f7fd fb85 	bl	c2004200 <_malloc_r>
c2006af6:	2800      	cmp	r0, #0
c2006af8:	f000 8100 	beq.w	c2006cfc <__sfvwrite_r+0x2e8>
c2006afc:	4652      	mov	r2, sl
c2006afe:	6921      	ldr	r1, [r4, #16]
c2006b00:	9001      	str	r0, [sp, #4]
c2006b02:	f7fd ee7e 	blx	c2004800 <memcpy>
c2006b06:	89a2      	ldrh	r2, [r4, #12]
c2006b08:	9b01      	ldr	r3, [sp, #4]
c2006b0a:	f422 6290 	bic.w	r2, r2, #1152	; 0x480
c2006b0e:	f042 0280 	orr.w	r2, r2, #128	; 0x80
c2006b12:	81a2      	strh	r2, [r4, #12]
c2006b14:	eb03 000a 	add.w	r0, r3, sl
c2006b18:	6123      	str	r3, [r4, #16]
c2006b1a:	f8c4 b014 	str.w	fp, [r4, #20]
c2006b1e:	ebab 030a 	sub.w	r3, fp, sl
c2006b22:	4632      	mov	r2, r6
c2006b24:	46b3      	mov	fp, r6
c2006b26:	60a3      	str	r3, [r4, #8]
c2006b28:	6020      	str	r0, [r4, #0]
c2006b2a:	4649      	mov	r1, r9
c2006b2c:	9201      	str	r2, [sp, #4]
c2006b2e:	f000 f935 	bl	c2006d9c <memmove>
c2006b32:	68a3      	ldr	r3, [r4, #8]
c2006b34:	9a01      	ldr	r2, [sp, #4]
c2006b36:	46b2      	mov	sl, r6
c2006b38:	eba3 010b 	sub.w	r1, r3, fp
c2006b3c:	6823      	ldr	r3, [r4, #0]
c2006b3e:	2600      	movs	r6, #0
c2006b40:	60a1      	str	r1, [r4, #8]
c2006b42:	4413      	add	r3, r2
c2006b44:	6023      	str	r3, [r4, #0]
c2006b46:	9b00      	ldr	r3, [sp, #0]
c2006b48:	44d1      	add	r9, sl
c2006b4a:	6898      	ldr	r0, [r3, #8]
c2006b4c:	eba0 000a 	sub.w	r0, r0, sl
c2006b50:	6098      	str	r0, [r3, #8]
c2006b52:	2800      	cmp	r0, #0
c2006b54:	d091      	beq.n	c2006a7a <__sfvwrite_r+0x66>
c2006b56:	89a0      	ldrh	r0, [r4, #12]
c2006b58:	2e00      	cmp	r6, #0
c2006b5a:	d1a5      	bne.n	c2006aa8 <__sfvwrite_r+0x94>
c2006b5c:	e9d5 9600 	ldrd	r9, r6, [r5]
c2006b60:	3508      	adds	r5, #8
c2006b62:	e79f      	b.n	c2006aa4 <__sfvwrite_r+0x90>
c2006b64:	e9d5 a600 	ldrd	sl, r6, [r5]
c2006b68:	3508      	adds	r5, #8
c2006b6a:	e76e      	b.n	c2006a4a <__sfvwrite_r+0x36>
c2006b6c:	4621      	mov	r1, r4
c2006b6e:	4640      	mov	r0, r8
c2006b70:	f7fd f876 	bl	c2003c60 <_fflush_r>
c2006b74:	2800      	cmp	r0, #0
c2006b76:	d037      	beq.n	c2006be8 <__sfvwrite_r+0x1d4>
c2006b78:	f9b4 300c 	ldrsh.w	r3, [r4, #12]
c2006b7c:	f043 0340 	orr.w	r3, r3, #64	; 0x40
c2006b80:	f04f 30ff 	mov.w	r0, #4294967295	; 0xffffffff
c2006b84:	81a3      	strh	r3, [r4, #12]
c2006b86:	b003      	add	sp, #12
c2006b88:	e8bd 8ff0 	ldmia.w	sp!, {r4, r5, r6, r7, r8, r9, sl, fp, pc}
c2006b8c:	2000      	movs	r0, #0
c2006b8e:	4770      	bx	lr
c2006b90:	46aa      	mov	sl, r5
c2006b92:	4699      	mov	r9, r3
c2006b94:	4618      	mov	r0, r3
c2006b96:	461e      	mov	r6, r3
c2006b98:	461d      	mov	r5, r3
c2006b9a:	9700      	str	r7, [sp, #0]
c2006b9c:	2e00      	cmp	r6, #0
c2006b9e:	d030      	beq.n	c2006c02 <__sfvwrite_r+0x1ee>
c2006ba0:	2800      	cmp	r0, #0
c2006ba2:	d036      	beq.n	c2006c12 <__sfvwrite_r+0x1fe>
c2006ba4:	464a      	mov	r2, r9
c2006ba6:	68a1      	ldr	r1, [r4, #8]
c2006ba8:	42b2      	cmp	r2, r6
c2006baa:	6963      	ldr	r3, [r4, #20]
c2006bac:	bf28      	it	cs
c2006bae:	4632      	movcs	r2, r6
c2006bb0:	6820      	ldr	r0, [r4, #0]
c2006bb2:	eb03 0b01 	add.w	fp, r3, r1
c2006bb6:	6921      	ldr	r1, [r4, #16]
c2006bb8:	4288      	cmp	r0, r1
c2006bba:	bf94      	ite	ls
c2006bbc:	2100      	movls	r1, #0
c2006bbe:	2101      	movhi	r1, #1
c2006bc0:	455a      	cmp	r2, fp
c2006bc2:	bfd8      	it	le
c2006bc4:	2100      	movle	r1, #0
c2006bc6:	2900      	cmp	r1, #0
c2006bc8:	d174      	bne.n	c2006cb4 <__sfvwrite_r+0x2a0>
c2006bca:	4293      	cmp	r3, r2
c2006bcc:	dc65      	bgt.n	c2006c9a <__sfvwrite_r+0x286>
c2006bce:	69e1      	ldr	r1, [r4, #28]
c2006bd0:	462a      	mov	r2, r5
c2006bd2:	6a67      	ldr	r7, [r4, #36]	; 0x24
c2006bd4:	4640      	mov	r0, r8
c2006bd6:	47b8      	blx	r7
c2006bd8:	f1b0 0b00 	subs.w	fp, r0, #0
c2006bdc:	ddcc      	ble.n	c2006b78 <__sfvwrite_r+0x164>
c2006bde:	ebb9 090b 	subs.w	r9, r9, fp
c2006be2:	bf18      	it	ne
c2006be4:	2001      	movne	r0, #1
c2006be6:	d0c1      	beq.n	c2006b6c <__sfvwrite_r+0x158>
c2006be8:	9b00      	ldr	r3, [sp, #0]
c2006bea:	445d      	add	r5, fp
c2006bec:	eba6 060b 	sub.w	r6, r6, fp
c2006bf0:	689a      	ldr	r2, [r3, #8]
c2006bf2:	eba2 020b 	sub.w	r2, r2, fp
c2006bf6:	609a      	str	r2, [r3, #8]
c2006bf8:	2a00      	cmp	r2, #0
c2006bfa:	f43f af3e 	beq.w	c2006a7a <__sfvwrite_r+0x66>
c2006bfe:	2e00      	cmp	r6, #0
c2006c00:	d1ce      	bne.n	c2006ba0 <__sfvwrite_r+0x18c>
c2006c02:	f10a 0308 	add.w	r3, sl, #8
c2006c06:	e953 5602 	ldrd	r5, r6, [r3, #-8]
c2006c0a:	469a      	mov	sl, r3
c2006c0c:	3308      	adds	r3, #8
c2006c0e:	2e00      	cmp	r6, #0
c2006c10:	d0f9      	beq.n	c2006c06 <__sfvwrite_r+0x1f2>
c2006c12:	4632      	mov	r2, r6
c2006c14:	210a      	movs	r1, #10
c2006c16:	4628      	mov	r0, r5
c2006c18:	f7fd fda2 	bl	c2004760 <memchr>
c2006c1c:	2800      	cmp	r0, #0
c2006c1e:	d06a      	beq.n	c2006cf6 <__sfvwrite_r+0x2e2>
c2006c20:	3001      	adds	r0, #1
c2006c22:	eba0 0905 	sub.w	r9, r0, r5
c2006c26:	e7bd      	b.n	c2006ba4 <__sfvwrite_r+0x190>
c2006c28:	6820      	ldr	r0, [r4, #0]
c2006c2a:	6923      	ldr	r3, [r4, #16]
c2006c2c:	4298      	cmp	r0, r3
c2006c2e:	d818      	bhi.n	c2006c62 <__sfvwrite_r+0x24e>
c2006c30:	f8d4 a014 	ldr.w	sl, [r4, #20]
c2006c34:	45b2      	cmp	sl, r6
c2006c36:	d814      	bhi.n	c2006c62 <__sfvwrite_r+0x24e>
c2006c38:	f06f 4000 	mvn.w	r0, #2147483648	; 0x80000000
c2006c3c:	4651      	mov	r1, sl
c2006c3e:	42b0      	cmp	r0, r6
c2006c40:	bf28      	it	cs
c2006c42:	4630      	movcs	r0, r6
c2006c44:	f000 fd54 	bl	c20076f0 <__divsi3>
c2006c48:	69e1      	ldr	r1, [r4, #28]
c2006c4a:	fb0a f300 	mul.w	r3, sl, r0
c2006c4e:	6a67      	ldr	r7, [r4, #36]	; 0x24
c2006c50:	464a      	mov	r2, r9
c2006c52:	4640      	mov	r0, r8
c2006c54:	47b8      	blx	r7
c2006c56:	f1b0 0a00 	subs.w	sl, r0, #0
c2006c5a:	dd8d      	ble.n	c2006b78 <__sfvwrite_r+0x164>
c2006c5c:	eba6 060a 	sub.w	r6, r6, sl
c2006c60:	e771      	b.n	c2006b46 <__sfvwrite_r+0x132>
c2006c62:	45b3      	cmp	fp, r6
c2006c64:	46da      	mov	sl, fp
c2006c66:	bf28      	it	cs
c2006c68:	46b2      	movcs	sl, r6
c2006c6a:	4649      	mov	r1, r9
c2006c6c:	4652      	mov	r2, sl
c2006c6e:	f000 f895 	bl	c2006d9c <memmove>
c2006c72:	68a3      	ldr	r3, [r4, #8]
c2006c74:	6822      	ldr	r2, [r4, #0]
c2006c76:	eba3 030a 	sub.w	r3, r3, sl
c2006c7a:	60a3      	str	r3, [r4, #8]
c2006c7c:	4452      	add	r2, sl
c2006c7e:	6022      	str	r2, [r4, #0]
c2006c80:	2b00      	cmp	r3, #0
c2006c82:	d1eb      	bne.n	c2006c5c <__sfvwrite_r+0x248>
c2006c84:	4621      	mov	r1, r4
c2006c86:	4640      	mov	r0, r8
c2006c88:	f7fc ffea 	bl	c2003c60 <_fflush_r>
c2006c8c:	2800      	cmp	r0, #0
c2006c8e:	d0e5      	beq.n	c2006c5c <__sfvwrite_r+0x248>
c2006c90:	e772      	b.n	c2006b78 <__sfvwrite_r+0x164>
c2006c92:	6820      	ldr	r0, [r4, #0]
c2006c94:	46b3      	mov	fp, r6
c2006c96:	4632      	mov	r2, r6
c2006c98:	e747      	b.n	c2006b2a <__sfvwrite_r+0x116>
c2006c9a:	4629      	mov	r1, r5
c2006c9c:	9201      	str	r2, [sp, #4]
c2006c9e:	f000 f87d 	bl	c2006d9c <memmove>
c2006ca2:	9a01      	ldr	r2, [sp, #4]
c2006ca4:	68a3      	ldr	r3, [r4, #8]
c2006ca6:	4693      	mov	fp, r2
c2006ca8:	1a9b      	subs	r3, r3, r2
c2006caa:	60a3      	str	r3, [r4, #8]
c2006cac:	6823      	ldr	r3, [r4, #0]
c2006cae:	4413      	add	r3, r2
c2006cb0:	6023      	str	r3, [r4, #0]
c2006cb2:	e794      	b.n	c2006bde <__sfvwrite_r+0x1ca>
c2006cb4:	4629      	mov	r1, r5
c2006cb6:	465a      	mov	r2, fp
c2006cb8:	f000 f870 	bl	c2006d9c <memmove>
c2006cbc:	6823      	ldr	r3, [r4, #0]
c2006cbe:	4621      	mov	r1, r4
c2006cc0:	4640      	mov	r0, r8
c2006cc2:	445b      	add	r3, fp
c2006cc4:	6023      	str	r3, [r4, #0]
c2006cc6:	f7fc ffcb 	bl	c2003c60 <_fflush_r>
c2006cca:	2800      	cmp	r0, #0
c2006ccc:	d087      	beq.n	c2006bde <__sfvwrite_r+0x1ca>
c2006cce:	e753      	b.n	c2006b78 <__sfvwrite_r+0x164>
c2006cd0:	4640      	mov	r0, r8
c2006cd2:	f000 f8f7 	bl	c2006ec4 <_realloc_r>
c2006cd6:	4603      	mov	r3, r0
c2006cd8:	2800      	cmp	r0, #0
c2006cda:	f47f af1b 	bne.w	c2006b14 <__sfvwrite_r+0x100>
c2006cde:	6921      	ldr	r1, [r4, #16]
c2006ce0:	4640      	mov	r0, r8
c2006ce2:	f7fd f8e1 	bl	c2003ea8 <_free_r>
c2006ce6:	f9b4 300c 	ldrsh.w	r3, [r4, #12]
c2006cea:	220c      	movs	r2, #12
c2006cec:	f8c8 2000 	str.w	r2, [r8]
c2006cf0:	f023 0380 	bic.w	r3, r3, #128	; 0x80
c2006cf4:	e742      	b.n	c2006b7c <__sfvwrite_r+0x168>
c2006cf6:	1c72      	adds	r2, r6, #1
c2006cf8:	4691      	mov	r9, r2
c2006cfa:	e754      	b.n	c2006ba6 <__sfvwrite_r+0x192>
c2006cfc:	f9b4 300c 	ldrsh.w	r3, [r4, #12]
c2006d00:	220c      	movs	r2, #12
c2006d02:	f8c8 2000 	str.w	r2, [r8]
c2006d06:	e739      	b.n	c2006b7c <__sfvwrite_r+0x168>
c2006d08:	f04f 30ff 	mov.w	r0, #4294967295	; 0xffffffff
c2006d0c:	e6b6      	b.n	c2006a7c <__sfvwrite_r+0x68>
c2006d0e:	bf00      	nop

c2006d10 <_isatty_r>:
c2006d10:	b538      	push	{r3, r4, r5, lr}
c2006d12:	f648 7448 	movw	r4, #36680	; 0x8f48
c2006d16:	f2cc 2400 	movt	r4, #49664	; 0xc200
c2006d1a:	4605      	mov	r5, r0
c2006d1c:	4608      	mov	r0, r1
c2006d1e:	2300      	movs	r3, #0
c2006d20:	6023      	str	r3, [r4, #0]
c2006d22:	f000 feff 	bl	c2007b24 <_isatty>
c2006d26:	1c43      	adds	r3, r0, #1
c2006d28:	d000      	beq.n	c2006d2c <_isatty_r+0x1c>
c2006d2a:	bd38      	pop	{r3, r4, r5, pc}
c2006d2c:	6823      	ldr	r3, [r4, #0]
c2006d2e:	2b00      	cmp	r3, #0
c2006d30:	d0fb      	beq.n	c2006d2a <_isatty_r+0x1a>
c2006d32:	602b      	str	r3, [r5, #0]
c2006d34:	bd38      	pop	{r3, r4, r5, pc}
c2006d36:	bf00      	nop

c2006d38 <__locale_mb_cur_max>:
c2006d38:	f648 1340 	movw	r3, #35136	; 0x8940
c2006d3c:	f2cc 2300 	movt	r3, #49664	; 0xc200
c2006d40:	f893 0128 	ldrb.w	r0, [r3, #296]	; 0x128
c2006d44:	4770      	bx	lr
c2006d46:	bf00      	nop

c2006d48 <_lseek_r>:
c2006d48:	b538      	push	{r3, r4, r5, lr}
c2006d4a:	f648 7448 	movw	r4, #36680	; 0x8f48
c2006d4e:	f2cc 2400 	movt	r4, #49664	; 0xc200
c2006d52:	460d      	mov	r5, r1
c2006d54:	4684      	mov	ip, r0
c2006d56:	4611      	mov	r1, r2
c2006d58:	4628      	mov	r0, r5
c2006d5a:	461a      	mov	r2, r3
c2006d5c:	4665      	mov	r5, ip
c2006d5e:	2300      	movs	r3, #0
c2006d60:	6023      	str	r3, [r4, #0]
c2006d62:	f000 fef1 	bl	c2007b48 <_lseek>
c2006d66:	1c43      	adds	r3, r0, #1
c2006d68:	d000      	beq.n	c2006d6c <_lseek_r+0x24>
c2006d6a:	bd38      	pop	{r3, r4, r5, pc}
c2006d6c:	6823      	ldr	r3, [r4, #0]
c2006d6e:	2b00      	cmp	r3, #0
c2006d70:	d0fb      	beq.n	c2006d6a <_lseek_r+0x22>
c2006d72:	602b      	str	r3, [r5, #0]
c2006d74:	bd38      	pop	{r3, r4, r5, pc}
c2006d76:	bf00      	nop

c2006d78 <__ascii_mbtowc>:
c2006d78:	b082      	sub	sp, #8
c2006d7a:	b151      	cbz	r1, c2006d92 <__ascii_mbtowc+0x1a>
c2006d7c:	4610      	mov	r0, r2
c2006d7e:	b132      	cbz	r2, c2006d8e <__ascii_mbtowc+0x16>
c2006d80:	b14b      	cbz	r3, c2006d96 <__ascii_mbtowc+0x1e>
c2006d82:	7813      	ldrb	r3, [r2, #0]
c2006d84:	600b      	str	r3, [r1, #0]
c2006d86:	7812      	ldrb	r2, [r2, #0]
c2006d88:	1e10      	subs	r0, r2, #0
c2006d8a:	bf18      	it	ne
c2006d8c:	2001      	movne	r0, #1
c2006d8e:	b002      	add	sp, #8
c2006d90:	4770      	bx	lr
c2006d92:	a901      	add	r1, sp, #4
c2006d94:	e7f2      	b.n	c2006d7c <__ascii_mbtowc+0x4>
c2006d96:	f06f 0001 	mvn.w	r0, #1
c2006d9a:	e7f8      	b.n	c2006d8e <__ascii_mbtowc+0x16>

c2006d9c <memmove>:
c2006d9c:	4288      	cmp	r0, r1
c2006d9e:	d90d      	bls.n	c2006dbc <memmove+0x20>
c2006da0:	188b      	adds	r3, r1, r2
c2006da2:	4283      	cmp	r3, r0
c2006da4:	d90a      	bls.n	c2006dbc <memmove+0x20>
c2006da6:	eb00 0c02 	add.w	ip, r0, r2
c2006daa:	b1ba      	cbz	r2, c2006ddc <memmove+0x40>
c2006dac:	4662      	mov	r2, ip
c2006dae:	f813 cd01 	ldrb.w	ip, [r3, #-1]!
c2006db2:	f802 cd01 	strb.w	ip, [r2, #-1]!
c2006db6:	4299      	cmp	r1, r3
c2006db8:	d1f9      	bne.n	c2006dae <memmove+0x12>
c2006dba:	4770      	bx	lr
c2006dbc:	2a0f      	cmp	r2, #15
c2006dbe:	d80e      	bhi.n	c2006dde <memmove+0x42>
c2006dc0:	4603      	mov	r3, r0
c2006dc2:	f102 3cff 	add.w	ip, r2, #4294967295	; 0xffffffff
c2006dc6:	b14a      	cbz	r2, c2006ddc <memmove+0x40>
c2006dc8:	f10c 0c01 	add.w	ip, ip, #1
c2006dcc:	3b01      	subs	r3, #1
c2006dce:	448c      	add	ip, r1
c2006dd0:	f811 2b01 	ldrb.w	r2, [r1], #1
c2006dd4:	f803 2f01 	strb.w	r2, [r3, #1]!
c2006dd8:	4561      	cmp	r1, ip
c2006dda:	d1f9      	bne.n	c2006dd0 <memmove+0x34>
c2006ddc:	4770      	bx	lr
c2006dde:	ea40 0301 	orr.w	r3, r0, r1
c2006de2:	079b      	lsls	r3, r3, #30
c2006de4:	d151      	bne.n	c2006e8a <memmove+0xee>
c2006de6:	f1a2 0310 	sub.w	r3, r2, #16
c2006dea:	b570      	push	{r4, r5, r6, lr}
c2006dec:	f101 0c20 	add.w	ip, r1, #32
c2006df0:	f023 060f 	bic.w	r6, r3, #15
c2006df4:	f101 0410 	add.w	r4, r1, #16
c2006df8:	f100 0510 	add.w	r5, r0, #16
c2006dfc:	44b4      	add	ip, r6
c2006dfe:	ea4f 1e13 	mov.w	lr, r3, lsr #4
c2006e02:	f854 3c10 	ldr.w	r3, [r4, #-16]
c2006e06:	3410      	adds	r4, #16
c2006e08:	f845 3c10 	str.w	r3, [r5, #-16]
c2006e0c:	3510      	adds	r5, #16
c2006e0e:	f854 3c1c 	ldr.w	r3, [r4, #-28]
c2006e12:	f845 3c1c 	str.w	r3, [r5, #-28]
c2006e16:	f854 3c18 	ldr.w	r3, [r4, #-24]
c2006e1a:	f845 3c18 	str.w	r3, [r5, #-24]
c2006e1e:	f854 3c14 	ldr.w	r3, [r4, #-20]
c2006e22:	4564      	cmp	r4, ip
c2006e24:	f845 3c14 	str.w	r3, [r5, #-20]
c2006e28:	d1eb      	bne.n	c2006e02 <memmove+0x66>
c2006e2a:	f10e 0301 	add.w	r3, lr, #1
c2006e2e:	f002 040f 	and.w	r4, r2, #15
c2006e32:	f012 0f0c 	tst.w	r2, #12
c2006e36:	ea4f 1303 	mov.w	r3, r3, lsl #4
c2006e3a:	bf08      	it	eq
c2006e3c:	4622      	moveq	r2, r4
c2006e3e:	4419      	add	r1, r3
c2006e40:	4403      	add	r3, r0
c2006e42:	d014      	beq.n	c2006e6e <memmove+0xd2>
c2006e44:	f1a3 0e04 	sub.w	lr, r3, #4
c2006e48:	460d      	mov	r5, r1
c2006e4a:	f855 6b04 	ldr.w	r6, [r5], #4
c2006e4e:	f84e 6f04 	str.w	r6, [lr, #4]!
c2006e52:	eba4 0c05 	sub.w	ip, r4, r5
c2006e56:	448c      	add	ip, r1
c2006e58:	f1bc 0f03 	cmp.w	ip, #3
c2006e5c:	d8f5      	bhi.n	c2006e4a <memmove+0xae>
c2006e5e:	3c04      	subs	r4, #4
c2006e60:	f002 0203 	and.w	r2, r2, #3
c2006e64:	f024 0403 	bic.w	r4, r4, #3
c2006e68:	3404      	adds	r4, #4
c2006e6a:	4423      	add	r3, r4
c2006e6c:	4421      	add	r1, r4
c2006e6e:	f102 3cff 	add.w	ip, r2, #4294967295	; 0xffffffff
c2006e72:	3b01      	subs	r3, #1
c2006e74:	f10c 0c01 	add.w	ip, ip, #1
c2006e78:	448c      	add	ip, r1
c2006e7a:	b12a      	cbz	r2, c2006e88 <memmove+0xec>
c2006e7c:	f811 2b01 	ldrb.w	r2, [r1], #1
c2006e80:	f803 2f01 	strb.w	r2, [r3, #1]!
c2006e84:	4561      	cmp	r1, ip
c2006e86:	d1f9      	bne.n	c2006e7c <memmove+0xe0>
c2006e88:	bd70      	pop	{r4, r5, r6, pc}
c2006e8a:	f102 3cff 	add.w	ip, r2, #4294967295	; 0xffffffff
c2006e8e:	4603      	mov	r3, r0
c2006e90:	e79a      	b.n	c2006dc8 <memmove+0x2c>
c2006e92:	bf00      	nop

c2006e94 <_read_r>:
c2006e94:	b538      	push	{r3, r4, r5, lr}
c2006e96:	f648 7448 	movw	r4, #36680	; 0x8f48
c2006e9a:	f2cc 2400 	movt	r4, #49664	; 0xc200
c2006e9e:	460d      	mov	r5, r1
c2006ea0:	4684      	mov	ip, r0
c2006ea2:	4611      	mov	r1, r2
c2006ea4:	4628      	mov	r0, r5
c2006ea6:	461a      	mov	r2, r3
c2006ea8:	4665      	mov	r5, ip
c2006eaa:	2300      	movs	r3, #0
c2006eac:	6023      	str	r3, [r4, #0]
c2006eae:	f000 fe55 	bl	c2007b5c <_read>
c2006eb2:	1c43      	adds	r3, r0, #1
c2006eb4:	d000      	beq.n	c2006eb8 <_read_r+0x24>
c2006eb6:	bd38      	pop	{r3, r4, r5, pc}
c2006eb8:	6823      	ldr	r3, [r4, #0]
c2006eba:	2b00      	cmp	r3, #0
c2006ebc:	d0fb      	beq.n	c2006eb6 <_read_r+0x22>
c2006ebe:	602b      	str	r3, [r5, #0]
c2006ec0:	bd38      	pop	{r3, r4, r5, pc}
c2006ec2:	bf00      	nop

c2006ec4 <_realloc_r>:
c2006ec4:	e92d 4ff0 	stmdb	sp!, {r4, r5, r6, r7, r8, r9, sl, fp, lr}
c2006ec8:	4617      	mov	r7, r2
c2006eca:	b083      	sub	sp, #12
c2006ecc:	2900      	cmp	r1, #0
c2006ece:	f000 80b4 	beq.w	c200703a <_realloc_r+0x176>
c2006ed2:	f107 060b 	add.w	r6, r7, #11
c2006ed6:	460c      	mov	r4, r1
c2006ed8:	4680      	mov	r8, r0
c2006eda:	f7fd ff81 	bl	c2004de0 <__malloc_lock>
c2006ede:	2e16      	cmp	r6, #22
c2006ee0:	f1a4 0908 	sub.w	r9, r4, #8
c2006ee4:	bf8c      	ite	hi
c2006ee6:	f026 0607 	bichi.w	r6, r6, #7
c2006eea:	2210      	movls	r2, #16
c2006eec:	f854 1c04 	ldr.w	r1, [r4, #-4]
c2006ef0:	bf95      	itete	ls
c2006ef2:	2300      	movls	r3, #0
c2006ef4:	0ff3      	lsrhi	r3, r6, #31
c2006ef6:	4616      	movls	r6, r2
c2006ef8:	4632      	movhi	r2, r6
c2006efa:	f021 0503 	bic.w	r5, r1, #3
c2006efe:	42be      	cmp	r6, r7
c2006f00:	bf38      	it	cc
c2006f02:	f043 0301 	orrcc.w	r3, r3, #1
c2006f06:	2b00      	cmp	r3, #0
c2006f08:	f040 809d 	bne.w	c2007046 <_realloc_r+0x182>
c2006f0c:	4295      	cmp	r5, r2
c2006f0e:	da5b      	bge.n	c2006fc8 <_realloc_r+0x104>
c2006f10:	f248 5a30 	movw	sl, #34096	; 0x8530
c2006f14:	f2cc 2a00 	movt	sl, #49664	; 0xc200
c2006f18:	eb09 0005 	add.w	r0, r9, r5
c2006f1c:	f8da 3008 	ldr.w	r3, [sl, #8]
c2006f20:	4283      	cmp	r3, r0
c2006f22:	f000 8098 	beq.w	c2007056 <_realloc_r+0x192>
c2006f26:	f8d0 c004 	ldr.w	ip, [r0, #4]
c2006f2a:	f02c 0301 	bic.w	r3, ip, #1
c2006f2e:	4403      	add	r3, r0
c2006f30:	685b      	ldr	r3, [r3, #4]
c2006f32:	07db      	lsls	r3, r3, #31
c2006f34:	d476      	bmi.n	c2007024 <_realloc_r+0x160>
c2006f36:	f02c 0c03 	bic.w	ip, ip, #3
c2006f3a:	eb05 030c 	add.w	r3, r5, ip
c2006f3e:	4293      	cmp	r3, r2
c2006f40:	da3d      	bge.n	c2006fbe <_realloc_r+0xfa>
c2006f42:	07c9      	lsls	r1, r1, #31
c2006f44:	d410      	bmi.n	c2006f68 <_realloc_r+0xa4>
c2006f46:	f854 3c08 	ldr.w	r3, [r4, #-8]
c2006f4a:	eba9 0b03 	sub.w	fp, r9, r3
c2006f4e:	f8db 3004 	ldr.w	r3, [fp, #4]
c2006f52:	f023 0103 	bic.w	r1, r3, #3
c2006f56:	448c      	add	ip, r1
c2006f58:	44ac      	add	ip, r5
c2006f5a:	4594      	cmp	ip, r2
c2006f5c:	f280 814c 	bge.w	c20071f8 <_realloc_r+0x334>
c2006f60:	186b      	adds	r3, r5, r1
c2006f62:	4293      	cmp	r3, r2
c2006f64:	f280 8107 	bge.w	c2007176 <_realloc_r+0x2b2>
c2006f68:	4639      	mov	r1, r7
c2006f6a:	4640      	mov	r0, r8
c2006f6c:	f7fd f948 	bl	c2004200 <_malloc_r>
c2006f70:	4607      	mov	r7, r0
c2006f72:	b1e8      	cbz	r0, c2006fb0 <_realloc_r+0xec>
c2006f74:	f854 3c04 	ldr.w	r3, [r4, #-4]
c2006f78:	f1a0 0208 	sub.w	r2, r0, #8
c2006f7c:	f023 0301 	bic.w	r3, r3, #1
c2006f80:	444b      	add	r3, r9
c2006f82:	4293      	cmp	r3, r2
c2006f84:	f000 80cf 	beq.w	c2007126 <_realloc_r+0x262>
c2006f88:	1f2a      	subs	r2, r5, #4
c2006f8a:	2a24      	cmp	r2, #36	; 0x24
c2006f8c:	f200 8130 	bhi.w	c20071f0 <_realloc_r+0x32c>
c2006f90:	2a13      	cmp	r2, #19
c2006f92:	bf9c      	itt	ls
c2006f94:	4603      	movls	r3, r0
c2006f96:	4622      	movls	r2, r4
c2006f98:	f200 80cb 	bhi.w	c2007132 <_realloc_r+0x26e>
c2006f9c:	6811      	ldr	r1, [r2, #0]
c2006f9e:	6019      	str	r1, [r3, #0]
c2006fa0:	6851      	ldr	r1, [r2, #4]
c2006fa2:	6059      	str	r1, [r3, #4]
c2006fa4:	6892      	ldr	r2, [r2, #8]
c2006fa6:	609a      	str	r2, [r3, #8]
c2006fa8:	4621      	mov	r1, r4
c2006faa:	4640      	mov	r0, r8
c2006fac:	f7fc ff7c 	bl	c2003ea8 <_free_r>
c2006fb0:	4640      	mov	r0, r8
c2006fb2:	f7fd ff1b 	bl	c2004dec <__malloc_unlock>
c2006fb6:	4638      	mov	r0, r7
c2006fb8:	b003      	add	sp, #12
c2006fba:	e8bd 8ff0 	ldmia.w	sp!, {r4, r5, r6, r7, r8, r9, sl, fp, pc}
c2006fbe:	461d      	mov	r5, r3
c2006fc0:	e9d0 2302 	ldrd	r2, r3, [r0, #8]
c2006fc4:	60d3      	str	r3, [r2, #12]
c2006fc6:	609a      	str	r2, [r3, #8]
c2006fc8:	1bab      	subs	r3, r5, r6
c2006fca:	2b0f      	cmp	r3, #15
c2006fcc:	d813      	bhi.n	c2006ff6 <_realloc_r+0x132>
c2006fce:	f8d9 3004 	ldr.w	r3, [r9, #4]
c2006fd2:	f003 0301 	and.w	r3, r3, #1
c2006fd6:	432b      	orrs	r3, r5
c2006fd8:	444d      	add	r5, r9
c2006fda:	f8c9 3004 	str.w	r3, [r9, #4]
c2006fde:	686b      	ldr	r3, [r5, #4]
c2006fe0:	f043 0301 	orr.w	r3, r3, #1
c2006fe4:	606b      	str	r3, [r5, #4]
c2006fe6:	4640      	mov	r0, r8
c2006fe8:	4627      	mov	r7, r4
c2006fea:	f7fd feff 	bl	c2004dec <__malloc_unlock>
c2006fee:	4638      	mov	r0, r7
c2006ff0:	b003      	add	sp, #12
c2006ff2:	e8bd 8ff0 	ldmia.w	sp!, {r4, r5, r6, r7, r8, r9, sl, fp, pc}
c2006ff6:	f8d9 1004 	ldr.w	r1, [r9, #4]
c2006ffa:	444d      	add	r5, r9
c2006ffc:	f043 0301 	orr.w	r3, r3, #1
c2007000:	4640      	mov	r0, r8
c2007002:	f001 0101 	and.w	r1, r1, #1
c2007006:	4331      	orrs	r1, r6
c2007008:	f8c9 1004 	str.w	r1, [r9, #4]
c200700c:	eb09 0106 	add.w	r1, r9, r6
c2007010:	3108      	adds	r1, #8
c2007012:	f841 3c04 	str.w	r3, [r1, #-4]
c2007016:	686b      	ldr	r3, [r5, #4]
c2007018:	f043 0301 	orr.w	r3, r3, #1
c200701c:	606b      	str	r3, [r5, #4]
c200701e:	f7fc ff43 	bl	c2003ea8 <_free_r>
c2007022:	e7e0      	b.n	c2006fe6 <_realloc_r+0x122>
c2007024:	07c8      	lsls	r0, r1, #31
c2007026:	d49f      	bmi.n	c2006f68 <_realloc_r+0xa4>
c2007028:	f854 3c08 	ldr.w	r3, [r4, #-8]
c200702c:	eba9 0b03 	sub.w	fp, r9, r3
c2007030:	f8db 3004 	ldr.w	r3, [fp, #4]
c2007034:	f023 0103 	bic.w	r1, r3, #3
c2007038:	e792      	b.n	c2006f60 <_realloc_r+0x9c>
c200703a:	4611      	mov	r1, r2
c200703c:	b003      	add	sp, #12
c200703e:	e8bd 4ff0 	ldmia.w	sp!, {r4, r5, r6, r7, r8, r9, sl, fp, lr}
c2007042:	f7fd b8dd 	b.w	c2004200 <_malloc_r>
c2007046:	2700      	movs	r7, #0
c2007048:	230c      	movs	r3, #12
c200704a:	4638      	mov	r0, r7
c200704c:	f8c8 3000 	str.w	r3, [r8]
c2007050:	b003      	add	sp, #12
c2007052:	e8bd 8ff0 	ldmia.w	sp!, {r4, r5, r6, r7, r8, r9, sl, fp, pc}
c2007056:	685b      	ldr	r3, [r3, #4]
c2007058:	f106 0010 	add.w	r0, r6, #16
c200705c:	f023 0c03 	bic.w	ip, r3, #3
c2007060:	eb05 030c 	add.w	r3, r5, ip
c2007064:	4283      	cmp	r3, r0
c2007066:	f280 810f 	bge.w	c2007288 <_realloc_r+0x3c4>
c200706a:	07cb      	lsls	r3, r1, #31
c200706c:	f53f af7c 	bmi.w	c2006f68 <_realloc_r+0xa4>
c2007070:	f854 1c08 	ldr.w	r1, [r4, #-8]
c2007074:	eba9 0b01 	sub.w	fp, r9, r1
c2007078:	f8db 3004 	ldr.w	r3, [fp, #4]
c200707c:	f023 0103 	bic.w	r1, r3, #3
c2007080:	eb01 030c 	add.w	r3, r1, ip
c2007084:	442b      	add	r3, r5
c2007086:	4298      	cmp	r0, r3
c2007088:	f73f af6a 	bgt.w	c2006f60 <_realloc_r+0x9c>
c200708c:	465f      	mov	r7, fp
c200708e:	f8db 100c 	ldr.w	r1, [fp, #12]
c2007092:	1f2a      	subs	r2, r5, #4
c2007094:	2a24      	cmp	r2, #36	; 0x24
c2007096:	f857 0f08 	ldr.w	r0, [r7, #8]!
c200709a:	60c1      	str	r1, [r0, #12]
c200709c:	6088      	str	r0, [r1, #8]
c200709e:	f200 810f 	bhi.w	c20072c0 <_realloc_r+0x3fc>
c20070a2:	2a13      	cmp	r2, #19
c20070a4:	bf98      	it	ls
c20070a6:	463a      	movls	r2, r7
c20070a8:	d924      	bls.n	c20070f4 <_realloc_r+0x230>
c20070aa:	6821      	ldr	r1, [r4, #0]
c20070ac:	2a1b      	cmp	r2, #27
c20070ae:	f8cb 1008 	str.w	r1, [fp, #8]
c20070b2:	bf98      	it	ls
c20070b4:	f10b 0210 	addls.w	r2, fp, #16
c20070b8:	6861      	ldr	r1, [r4, #4]
c20070ba:	bf98      	it	ls
c20070bc:	3408      	addls	r4, #8
c20070be:	f8cb 100c 	str.w	r1, [fp, #12]
c20070c2:	d917      	bls.n	c20070f4 <_realloc_r+0x230>
c20070c4:	68a1      	ldr	r1, [r4, #8]
c20070c6:	2a24      	cmp	r2, #36	; 0x24
c20070c8:	f8cb 1010 	str.w	r1, [fp, #16]
c20070cc:	bf18      	it	ne
c20070ce:	f10b 0218 	addne.w	r2, fp, #24
c20070d2:	68e1      	ldr	r1, [r4, #12]
c20070d4:	bf18      	it	ne
c20070d6:	3410      	addne	r4, #16
c20070d8:	f8cb 1014 	str.w	r1, [fp, #20]
c20070dc:	bf01      	itttt	eq
c20070de:	6922      	ldreq	r2, [r4, #16]
c20070e0:	3418      	addeq	r4, #24
c20070e2:	f8cb 2018 	streq.w	r2, [fp, #24]
c20070e6:	f10b 0220 	addeq.w	r2, fp, #32
c20070ea:	bf04      	itt	eq
c20070ec:	f854 1c04 	ldreq.w	r1, [r4, #-4]
c20070f0:	f8cb 101c 	streq.w	r1, [fp, #28]
c20070f4:	6821      	ldr	r1, [r4, #0]
c20070f6:	6011      	str	r1, [r2, #0]
c20070f8:	6861      	ldr	r1, [r4, #4]
c20070fa:	6051      	str	r1, [r2, #4]
c20070fc:	68a1      	ldr	r1, [r4, #8]
c20070fe:	6091      	str	r1, [r2, #8]
c2007100:	eb0b 0206 	add.w	r2, fp, r6
c2007104:	1b9b      	subs	r3, r3, r6
c2007106:	f8ca 2008 	str.w	r2, [sl, #8]
c200710a:	f043 0301 	orr.w	r3, r3, #1
c200710e:	4640      	mov	r0, r8
c2007110:	6053      	str	r3, [r2, #4]
c2007112:	f8db 3004 	ldr.w	r3, [fp, #4]
c2007116:	f003 0301 	and.w	r3, r3, #1
c200711a:	431e      	orrs	r6, r3
c200711c:	f8cb 6004 	str.w	r6, [fp, #4]
c2007120:	f7fd fe64 	bl	c2004dec <__malloc_unlock>
c2007124:	e763      	b.n	c2006fee <_realloc_r+0x12a>
c2007126:	f850 3c04 	ldr.w	r3, [r0, #-4]
c200712a:	f023 0303 	bic.w	r3, r3, #3
c200712e:	441d      	add	r5, r3
c2007130:	e74a      	b.n	c2006fc8 <_realloc_r+0x104>
c2007132:	6823      	ldr	r3, [r4, #0]
c2007134:	2a1b      	cmp	r2, #27
c2007136:	6003      	str	r3, [r0, #0]
c2007138:	bf98      	it	ls
c200713a:	f104 0208 	addls.w	r2, r4, #8
c200713e:	6863      	ldr	r3, [r4, #4]
c2007140:	6043      	str	r3, [r0, #4]
c2007142:	bf98      	it	ls
c2007144:	f100 0308 	addls.w	r3, r0, #8
c2007148:	f67f af28 	bls.w	c2006f9c <_realloc_r+0xd8>
c200714c:	68a3      	ldr	r3, [r4, #8]
c200714e:	2a24      	cmp	r2, #36	; 0x24
c2007150:	6083      	str	r3, [r0, #8]
c2007152:	bf14      	ite	ne
c2007154:	f104 0210 	addne.w	r2, r4, #16
c2007158:	f104 0218 	addeq.w	r2, r4, #24
c200715c:	68e3      	ldr	r3, [r4, #12]
c200715e:	60c3      	str	r3, [r0, #12]
c2007160:	bf11      	iteee	ne
c2007162:	f100 0310 	addne.w	r3, r0, #16
c2007166:	6923      	ldreq	r3, [r4, #16]
c2007168:	6103      	streq	r3, [r0, #16]
c200716a:	f100 0318 	addeq.w	r3, r0, #24
c200716e:	bf04      	itt	eq
c2007170:	6961      	ldreq	r1, [r4, #20]
c2007172:	6141      	streq	r1, [r0, #20]
c2007174:	e712      	b.n	c2006f9c <_realloc_r+0xd8>
c2007176:	465f      	mov	r7, fp
c2007178:	f8db 100c 	ldr.w	r1, [fp, #12]
c200717c:	1f2a      	subs	r2, r5, #4
c200717e:	2a24      	cmp	r2, #36	; 0x24
c2007180:	f857 0f08 	ldr.w	r0, [r7, #8]!
c2007184:	60c1      	str	r1, [r0, #12]
c2007186:	6088      	str	r0, [r1, #8]
c2007188:	d876      	bhi.n	c2007278 <_realloc_r+0x3b4>
c200718a:	2a13      	cmp	r2, #19
c200718c:	bf98      	it	ls
c200718e:	463a      	movls	r2, r7
c2007190:	d924      	bls.n	c20071dc <_realloc_r+0x318>
c2007192:	6821      	ldr	r1, [r4, #0]
c2007194:	2a1b      	cmp	r2, #27
c2007196:	f8cb 1008 	str.w	r1, [fp, #8]
c200719a:	bf98      	it	ls
c200719c:	f10b 0210 	addls.w	r2, fp, #16
c20071a0:	6861      	ldr	r1, [r4, #4]
c20071a2:	bf98      	it	ls
c20071a4:	3408      	addls	r4, #8
c20071a6:	f8cb 100c 	str.w	r1, [fp, #12]
c20071aa:	d917      	bls.n	c20071dc <_realloc_r+0x318>
c20071ac:	68a1      	ldr	r1, [r4, #8]
c20071ae:	2a24      	cmp	r2, #36	; 0x24
c20071b0:	f8cb 1010 	str.w	r1, [fp, #16]
c20071b4:	bf18      	it	ne
c20071b6:	f10b 0218 	addne.w	r2, fp, #24
c20071ba:	68e1      	ldr	r1, [r4, #12]
c20071bc:	bf18      	it	ne
c20071be:	3410      	addne	r4, #16
c20071c0:	f8cb 1014 	str.w	r1, [fp, #20]
c20071c4:	bf01      	itttt	eq
c20071c6:	6922      	ldreq	r2, [r4, #16]
c20071c8:	3418      	addeq	r4, #24
c20071ca:	f8cb 2018 	streq.w	r2, [fp, #24]
c20071ce:	f10b 0220 	addeq.w	r2, fp, #32
c20071d2:	bf04      	itt	eq
c20071d4:	f854 1c04 	ldreq.w	r1, [r4, #-4]
c20071d8:	f8cb 101c 	streq.w	r1, [fp, #28]
c20071dc:	461d      	mov	r5, r3
c20071de:	6823      	ldr	r3, [r4, #0]
c20071e0:	6013      	str	r3, [r2, #0]
c20071e2:	46d9      	mov	r9, fp
c20071e4:	6863      	ldr	r3, [r4, #4]
c20071e6:	6053      	str	r3, [r2, #4]
c20071e8:	68a3      	ldr	r3, [r4, #8]
c20071ea:	463c      	mov	r4, r7
c20071ec:	6093      	str	r3, [r2, #8]
c20071ee:	e6eb      	b.n	c2006fc8 <_realloc_r+0x104>
c20071f0:	4621      	mov	r1, r4
c20071f2:	f7ff fdd3 	bl	c2006d9c <memmove>
c20071f6:	e6d7      	b.n	c2006fa8 <_realloc_r+0xe4>
c20071f8:	e9d0 1302 	ldrd	r1, r3, [r0, #8]
c20071fc:	465f      	mov	r7, fp
c20071fe:	60cb      	str	r3, [r1, #12]
c2007200:	1f2a      	subs	r2, r5, #4
c2007202:	2a24      	cmp	r2, #36	; 0x24
c2007204:	6099      	str	r1, [r3, #8]
c2007206:	f857 1f08 	ldr.w	r1, [r7, #8]!
c200720a:	f8db 300c 	ldr.w	r3, [fp, #12]
c200720e:	60cb      	str	r3, [r1, #12]
c2007210:	6099      	str	r1, [r3, #8]
c2007212:	d84d      	bhi.n	c20072b0 <_realloc_r+0x3ec>
c2007214:	2a13      	cmp	r2, #19
c2007216:	bf98      	it	ls
c2007218:	463b      	movls	r3, r7
c200721a:	d923      	bls.n	c2007264 <_realloc_r+0x3a0>
c200721c:	6823      	ldr	r3, [r4, #0]
c200721e:	2a1b      	cmp	r2, #27
c2007220:	f8cb 3008 	str.w	r3, [fp, #8]
c2007224:	6863      	ldr	r3, [r4, #4]
c2007226:	bf98      	it	ls
c2007228:	3408      	addls	r4, #8
c200722a:	f8cb 300c 	str.w	r3, [fp, #12]
c200722e:	bf98      	it	ls
c2007230:	f10b 0310 	addls.w	r3, fp, #16
c2007234:	d916      	bls.n	c2007264 <_realloc_r+0x3a0>
c2007236:	68a3      	ldr	r3, [r4, #8]
c2007238:	2a24      	cmp	r2, #36	; 0x24
c200723a:	f8cb 3010 	str.w	r3, [fp, #16]
c200723e:	68e3      	ldr	r3, [r4, #12]
c2007240:	bf18      	it	ne
c2007242:	3410      	addne	r4, #16
c2007244:	f8cb 3014 	str.w	r3, [fp, #20]
c2007248:	bf11      	iteee	ne
c200724a:	f10b 0318 	addne.w	r3, fp, #24
c200724e:	6923      	ldreq	r3, [r4, #16]
c2007250:	3418      	addeq	r4, #24
c2007252:	f8cb 3018 	streq.w	r3, [fp, #24]
c2007256:	bf02      	ittt	eq
c2007258:	f10b 0320 	addeq.w	r3, fp, #32
c200725c:	f854 2c04 	ldreq.w	r2, [r4, #-4]
c2007260:	f8cb 201c 	streq.w	r2, [fp, #28]
c2007264:	6822      	ldr	r2, [r4, #0]
c2007266:	4665      	mov	r5, ip
c2007268:	601a      	str	r2, [r3, #0]
c200726a:	46d9      	mov	r9, fp
c200726c:	6862      	ldr	r2, [r4, #4]
c200726e:	605a      	str	r2, [r3, #4]
c2007270:	68a2      	ldr	r2, [r4, #8]
c2007272:	463c      	mov	r4, r7
c2007274:	609a      	str	r2, [r3, #8]
c2007276:	e6a7      	b.n	c2006fc8 <_realloc_r+0x104>
c2007278:	4621      	mov	r1, r4
c200727a:	4638      	mov	r0, r7
c200727c:	461d      	mov	r5, r3
c200727e:	46d9      	mov	r9, fp
c2007280:	463c      	mov	r4, r7
c2007282:	f7ff fd8b 	bl	c2006d9c <memmove>
c2007286:	e69f      	b.n	c2006fc8 <_realloc_r+0x104>
c2007288:	eb09 0206 	add.w	r2, r9, r6
c200728c:	1b9b      	subs	r3, r3, r6
c200728e:	f8ca 2008 	str.w	r2, [sl, #8]
c2007292:	f043 0301 	orr.w	r3, r3, #1
c2007296:	4640      	mov	r0, r8
c2007298:	4627      	mov	r7, r4
c200729a:	6053      	str	r3, [r2, #4]
c200729c:	f854 3c04 	ldr.w	r3, [r4, #-4]
c20072a0:	f003 0301 	and.w	r3, r3, #1
c20072a4:	431e      	orrs	r6, r3
c20072a6:	f844 6c04 	str.w	r6, [r4, #-4]
c20072aa:	f7fd fd9f 	bl	c2004dec <__malloc_unlock>
c20072ae:	e69e      	b.n	c2006fee <_realloc_r+0x12a>
c20072b0:	4621      	mov	r1, r4
c20072b2:	4638      	mov	r0, r7
c20072b4:	4665      	mov	r5, ip
c20072b6:	46d9      	mov	r9, fp
c20072b8:	463c      	mov	r4, r7
c20072ba:	f7ff fd6f 	bl	c2006d9c <memmove>
c20072be:	e683      	b.n	c2006fc8 <_realloc_r+0x104>
c20072c0:	4621      	mov	r1, r4
c20072c2:	4638      	mov	r0, r7
c20072c4:	9301      	str	r3, [sp, #4]
c20072c6:	f7ff fd69 	bl	c2006d9c <memmove>
c20072ca:	9b01      	ldr	r3, [sp, #4]
c20072cc:	e718      	b.n	c2007100 <_realloc_r+0x23c>
c20072ce:	bf00      	nop

c20072d0 <__swbuf_r>:
c20072d0:	b5f8      	push	{r3, r4, r5, r6, r7, lr}
c20072d2:	460d      	mov	r5, r1
c20072d4:	4614      	mov	r4, r2
c20072d6:	4606      	mov	r6, r0
c20072d8:	b110      	cbz	r0, c20072e0 <__swbuf_r+0x10>
c20072da:	6b83      	ldr	r3, [r0, #56]	; 0x38
c20072dc:	2b00      	cmp	r3, #0
c20072de:	d03a      	beq.n	c2007356 <__swbuf_r+0x86>
c20072e0:	89a2      	ldrh	r2, [r4, #12]
c20072e2:	69a3      	ldr	r3, [r4, #24]
c20072e4:	f9b4 000c 	ldrsh.w	r0, [r4, #12]
c20072e8:	60a3      	str	r3, [r4, #8]
c20072ea:	0711      	lsls	r1, r2, #28
c20072ec:	d51e      	bpl.n	c200732c <__swbuf_r+0x5c>
c20072ee:	6923      	ldr	r3, [r4, #16]
c20072f0:	b1e3      	cbz	r3, c200732c <__swbuf_r+0x5c>
c20072f2:	b2ed      	uxtb	r5, r5
c20072f4:	0492      	lsls	r2, r2, #18
c20072f6:	462f      	mov	r7, r5
c20072f8:	d525      	bpl.n	c2007346 <__swbuf_r+0x76>
c20072fa:	6822      	ldr	r2, [r4, #0]
c20072fc:	6961      	ldr	r1, [r4, #20]
c20072fe:	1ad3      	subs	r3, r2, r3
c2007300:	4299      	cmp	r1, r3
c2007302:	bfc8      	it	gt
c2007304:	3301      	addgt	r3, #1
c2007306:	dd32      	ble.n	c200736e <__swbuf_r+0x9e>
c2007308:	68a1      	ldr	r1, [r4, #8]
c200730a:	3901      	subs	r1, #1
c200730c:	60a1      	str	r1, [r4, #8]
c200730e:	1c51      	adds	r1, r2, #1
c2007310:	6021      	str	r1, [r4, #0]
c2007312:	7015      	strb	r5, [r2, #0]
c2007314:	6962      	ldr	r2, [r4, #20]
c2007316:	429a      	cmp	r2, r3
c2007318:	d020      	beq.n	c200735c <__swbuf_r+0x8c>
c200731a:	89a3      	ldrh	r3, [r4, #12]
c200731c:	2d0a      	cmp	r5, #10
c200731e:	bf14      	ite	ne
c2007320:	2300      	movne	r3, #0
c2007322:	f003 0301 	andeq.w	r3, r3, #1
c2007326:	b9cb      	cbnz	r3, c200735c <__swbuf_r+0x8c>
c2007328:	4638      	mov	r0, r7
c200732a:	bdf8      	pop	{r3, r4, r5, r6, r7, pc}
c200732c:	4621      	mov	r1, r4
c200732e:	4630      	mov	r0, r6
c2007330:	f7fb fc60 	bl	c2002bf4 <__swsetup_r>
c2007334:	b9c0      	cbnz	r0, c2007368 <__swbuf_r+0x98>
c2007336:	89a2      	ldrh	r2, [r4, #12]
c2007338:	b2ed      	uxtb	r5, r5
c200733a:	f9b4 000c 	ldrsh.w	r0, [r4, #12]
c200733e:	462f      	mov	r7, r5
c2007340:	6923      	ldr	r3, [r4, #16]
c2007342:	0492      	lsls	r2, r2, #18
c2007344:	d4d9      	bmi.n	c20072fa <__swbuf_r+0x2a>
c2007346:	6e62      	ldr	r2, [r4, #100]	; 0x64
c2007348:	f440 5000 	orr.w	r0, r0, #8192	; 0x2000
c200734c:	81a0      	strh	r0, [r4, #12]
c200734e:	f422 5200 	bic.w	r2, r2, #8192	; 0x2000
c2007352:	6662      	str	r2, [r4, #100]	; 0x64
c2007354:	e7d1      	b.n	c20072fa <__swbuf_r+0x2a>
c2007356:	f7fc fcb7 	bl	c2003cc8 <__sinit>
c200735a:	e7c1      	b.n	c20072e0 <__swbuf_r+0x10>
c200735c:	4621      	mov	r1, r4
c200735e:	4630      	mov	r0, r6
c2007360:	f7fc fc7e 	bl	c2003c60 <_fflush_r>
c2007364:	2800      	cmp	r0, #0
c2007366:	d0df      	beq.n	c2007328 <__swbuf_r+0x58>
c2007368:	f04f 37ff 	mov.w	r7, #4294967295	; 0xffffffff
c200736c:	e7dc      	b.n	c2007328 <__swbuf_r+0x58>
c200736e:	4621      	mov	r1, r4
c2007370:	4630      	mov	r0, r6
c2007372:	f7fc fc75 	bl	c2003c60 <_fflush_r>
c2007376:	2800      	cmp	r0, #0
c2007378:	d1f6      	bne.n	c2007368 <__swbuf_r+0x98>
c200737a:	6822      	ldr	r2, [r4, #0]
c200737c:	2301      	movs	r3, #1
c200737e:	e7c3      	b.n	c2007308 <__swbuf_r+0x38>

c2007380 <_wcrtomb_r>:
c2007380:	b570      	push	{r4, r5, r6, lr}
c2007382:	4604      	mov	r4, r0
c2007384:	461d      	mov	r5, r3
c2007386:	b084      	sub	sp, #16
c2007388:	b171      	cbz	r1, c20073a8 <_wcrtomb_r+0x28>
c200738a:	f648 1c40 	movw	ip, #35136	; 0x8940
c200738e:	f2cc 2c00 	movt	ip, #49664	; 0xc200
c2007392:	f8dc 60e0 	ldr.w	r6, [ip, #224]	; 0xe0
c2007396:	47b0      	blx	r6
c2007398:	1c43      	adds	r3, r0, #1
c200739a:	bf01      	itttt	eq
c200739c:	2200      	moveq	r2, #0
c200739e:	238a      	moveq	r3, #138	; 0x8a
c20073a0:	602a      	streq	r2, [r5, #0]
c20073a2:	6023      	streq	r3, [r4, #0]
c20073a4:	b004      	add	sp, #16
c20073a6:	bd70      	pop	{r4, r5, r6, pc}
c20073a8:	460a      	mov	r2, r1
c20073aa:	f648 1140 	movw	r1, #35136	; 0x8940
c20073ae:	f2cc 2100 	movt	r1, #49664	; 0xc200
c20073b2:	f8d1 60e0 	ldr.w	r6, [r1, #224]	; 0xe0
c20073b6:	a901      	add	r1, sp, #4
c20073b8:	47b0      	blx	r6
c20073ba:	e7ed      	b.n	c2007398 <_wcrtomb_r+0x18>

c20073bc <__ascii_wctomb>:
c20073bc:	4603      	mov	r3, r0
c20073be:	b149      	cbz	r1, c20073d4 <__ascii_wctomb+0x18>
c20073c0:	2aff      	cmp	r2, #255	; 0xff
c20073c2:	bf93      	iteet	ls
c20073c4:	700a      	strbls	r2, [r1, #0]
c20073c6:	228a      	movhi	r2, #138	; 0x8a
c20073c8:	f04f 30ff 	movhi.w	r0, #4294967295	; 0xffffffff
c20073cc:	2001      	movls	r0, #1
c20073ce:	bf88      	it	hi
c20073d0:	601a      	strhi	r2, [r3, #0]
c20073d2:	4770      	bx	lr
c20073d4:	4608      	mov	r0, r1
c20073d6:	4770      	bx	lr

c20073d8 <abort>:
c20073d8:	2006      	movs	r0, #6
c20073da:	b508      	push	{r3, lr}
c20073dc:	f000 f804 	bl	c20073e8 <raise>
c20073e0:	2001      	movs	r0, #1
c20073e2:	f000 fbd5 	bl	c2007b90 <_exit>
c20073e6:	bf00      	nop

c20073e8 <raise>:
c20073e8:	b538      	push	{r3, r4, r5, lr}
c20073ea:	f248 1300 	movw	r3, #33024	; 0x8100
c20073ee:	f2cc 2300 	movt	r3, #49664	; 0xc200
c20073f2:	281f      	cmp	r0, #31
c20073f4:	bf88      	it	hi
c20073f6:	f04f 30ff 	movhi.w	r0, #4294967295	; 0xffffffff
c20073fa:	681d      	ldr	r5, [r3, #0]
c20073fc:	bf84      	itt	hi
c20073fe:	2316      	movhi	r3, #22
c2007400:	602b      	strhi	r3, [r5, #0]
c2007402:	d815      	bhi.n	c2007430 <raise+0x48>
c2007404:	f8d5 22dc 	ldr.w	r2, [r5, #732]	; 0x2dc
c2007408:	4604      	mov	r4, r0
c200740a:	b192      	cbz	r2, c2007432 <raise+0x4a>
c200740c:	f852 3020 	ldr.w	r3, [r2, r0, lsl #2]
c2007410:	b17b      	cbz	r3, c2007432 <raise+0x4a>
c2007412:	2b01      	cmp	r3, #1
c2007414:	bf08      	it	eq
c2007416:	2000      	moveq	r0, #0
c2007418:	d00a      	beq.n	c2007430 <raise+0x48>
c200741a:	1c59      	adds	r1, r3, #1
c200741c:	bf02      	ittt	eq
c200741e:	2316      	moveq	r3, #22
c2007420:	2001      	moveq	r0, #1
c2007422:	602b      	streq	r3, [r5, #0]
c2007424:	d004      	beq.n	c2007430 <raise+0x48>
c2007426:	2500      	movs	r5, #0
c2007428:	f842 5024 	str.w	r5, [r2, r4, lsl #2]
c200742c:	4798      	blx	r3
c200742e:	4628      	mov	r0, r5
c2007430:	bd38      	pop	{r3, r4, r5, pc}
c2007432:	4628      	mov	r0, r5
c2007434:	f000 f81e 	bl	c2007474 <_getpid_r>
c2007438:	4622      	mov	r2, r4
c200743a:	4601      	mov	r1, r0
c200743c:	4628      	mov	r0, r5
c200743e:	e8bd 4038 	ldmia.w	sp!, {r3, r4, r5, lr}
c2007442:	f000 b801 	b.w	c2007448 <_kill_r>
c2007446:	bf00      	nop

c2007448 <_kill_r>:
c2007448:	b538      	push	{r3, r4, r5, lr}
c200744a:	f648 7448 	movw	r4, #36680	; 0x8f48
c200744e:	f2cc 2400 	movt	r4, #49664	; 0xc200
c2007452:	460d      	mov	r5, r1
c2007454:	4603      	mov	r3, r0
c2007456:	4611      	mov	r1, r2
c2007458:	4628      	mov	r0, r5
c200745a:	461d      	mov	r5, r3
c200745c:	2300      	movs	r3, #0
c200745e:	6023      	str	r3, [r4, #0]
c2007460:	f000 fb68 	bl	c2007b34 <_kill>
c2007464:	1c43      	adds	r3, r0, #1
c2007466:	d000      	beq.n	c200746a <_kill_r+0x22>
c2007468:	bd38      	pop	{r3, r4, r5, pc}
c200746a:	6823      	ldr	r3, [r4, #0]
c200746c:	2b00      	cmp	r3, #0
c200746e:	d0fb      	beq.n	c2007468 <_kill_r+0x20>
c2007470:	602b      	str	r3, [r5, #0]
c2007472:	bd38      	pop	{r3, r4, r5, pc}

c2007474 <_getpid_r>:
c2007474:	f000 bb4c 	b.w	c2007b10 <_getpid>

c2007478 <__udivsi3>:
c2007478:	1e4a      	subs	r2, r1, #1
c200747a:	bf08      	it	eq
c200747c:	4770      	bxeq	lr
c200747e:	f0c0 8124 	bcc.w	c20076ca <__udivsi3+0x252>
c2007482:	4288      	cmp	r0, r1
c2007484:	f240 8116 	bls.w	c20076b4 <__udivsi3+0x23c>
c2007488:	4211      	tst	r1, r2
c200748a:	f000 8117 	beq.w	c20076bc <__udivsi3+0x244>
c200748e:	fab0 f380 	clz	r3, r0
c2007492:	fab1 f281 	clz	r2, r1
c2007496:	eba2 0303 	sub.w	r3, r2, r3
c200749a:	f1c3 031f 	rsb	r3, r3, #31
c200749e:	a204      	add	r2, pc, #16	; (adr r2, c20074b0 <__udivsi3+0x38>)
c20074a0:	eb02 1303 	add.w	r3, r2, r3, lsl #4
c20074a4:	f04f 0200 	mov.w	r2, #0
c20074a8:	469f      	mov	pc, r3
c20074aa:	bf00      	nop
c20074ac:	f3af 8000 	nop.w
c20074b0:	ebb0 7fc1 	cmp.w	r0, r1, lsl #31
c20074b4:	bf00      	nop
c20074b6:	eb42 0202 	adc.w	r2, r2, r2
c20074ba:	bf28      	it	cs
c20074bc:	eba0 70c1 	subcs.w	r0, r0, r1, lsl #31
c20074c0:	ebb0 7f81 	cmp.w	r0, r1, lsl #30
c20074c4:	bf00      	nop
c20074c6:	eb42 0202 	adc.w	r2, r2, r2
c20074ca:	bf28      	it	cs
c20074cc:	eba0 7081 	subcs.w	r0, r0, r1, lsl #30
c20074d0:	ebb0 7f41 	cmp.w	r0, r1, lsl #29
c20074d4:	bf00      	nop
c20074d6:	eb42 0202 	adc.w	r2, r2, r2
c20074da:	bf28      	it	cs
c20074dc:	eba0 7041 	subcs.w	r0, r0, r1, lsl #29
c20074e0:	ebb0 7f01 	cmp.w	r0, r1, lsl #28
c20074e4:	bf00      	nop
c20074e6:	eb42 0202 	adc.w	r2, r2, r2
c20074ea:	bf28      	it	cs
c20074ec:	eba0 7001 	subcs.w	r0, r0, r1, lsl #28
c20074f0:	ebb0 6fc1 	cmp.w	r0, r1, lsl #27
c20074f4:	bf00      	nop
c20074f6:	eb42 0202 	adc.w	r2, r2, r2
c20074fa:	bf28      	it	cs
c20074fc:	eba0 60c1 	subcs.w	r0, r0, r1, lsl #27
c2007500:	ebb0 6f81 	cmp.w	r0, r1, lsl #26
c2007504:	bf00      	nop
c2007506:	eb42 0202 	adc.w	r2, r2, r2
c200750a:	bf28      	it	cs
c200750c:	eba0 6081 	subcs.w	r0, r0, r1, lsl #26
c2007510:	ebb0 6f41 	cmp.w	r0, r1, lsl #25
c2007514:	bf00      	nop
c2007516:	eb42 0202 	adc.w	r2, r2, r2
c200751a:	bf28      	it	cs
c200751c:	eba0 6041 	subcs.w	r0, r0, r1, lsl #25
c2007520:	ebb0 6f01 	cmp.w	r0, r1, lsl #24
c2007524:	bf00      	nop
c2007526:	eb42 0202 	adc.w	r2, r2, r2
c200752a:	bf28      	it	cs
c200752c:	eba0 6001 	subcs.w	r0, r0, r1, lsl #24
c2007530:	ebb0 5fc1 	cmp.w	r0, r1, lsl #23
c2007534:	bf00      	nop
c2007536:	eb42 0202 	adc.w	r2, r2, r2
c200753a:	bf28      	it	cs
c200753c:	eba0 50c1 	subcs.w	r0, r0, r1, lsl #23
c2007540:	ebb0 5f81 	cmp.w	r0, r1, lsl #22
c2007544:	bf00      	nop
c2007546:	eb42 0202 	adc.w	r2, r2, r2
c200754a:	bf28      	it	cs
c200754c:	eba0 5081 	subcs.w	r0, r0, r1, lsl #22
c2007550:	ebb0 5f41 	cmp.w	r0, r1, lsl #21
c2007554:	bf00      	nop
c2007556:	eb42 0202 	adc.w	r2, r2, r2
c200755a:	bf28      	it	cs
c200755c:	eba0 5041 	subcs.w	r0, r0, r1, lsl #21
c2007560:	ebb0 5f01 	cmp.w	r0, r1, lsl #20
c2007564:	bf00      	nop
c2007566:	eb42 0202 	adc.w	r2, r2, r2
c200756a:	bf28      	it	cs
c200756c:	eba0 5001 	subcs.w	r0, r0, r1, lsl #20
c2007570:	ebb0 4fc1 	cmp.w	r0, r1, lsl #19
c2007574:	bf00      	nop
c2007576:	eb42 0202 	adc.w	r2, r2, r2
c200757a:	bf28      	it	cs
c200757c:	eba0 40c1 	subcs.w	r0, r0, r1, lsl #19
c2007580:	ebb0 4f81 	cmp.w	r0, r1, lsl #18
c2007584:	bf00      	nop
c2007586:	eb42 0202 	adc.w	r2, r2, r2
c200758a:	bf28      	it	cs
c200758c:	eba0 4081 	subcs.w	r0, r0, r1, lsl #18
c2007590:	ebb0 4f41 	cmp.w	r0, r1, lsl #17
c2007594:	bf00      	nop
c2007596:	eb42 0202 	adc.w	r2, r2, r2
c200759a:	bf28      	it	cs
c200759c:	eba0 4041 	subcs.w	r0, r0, r1, lsl #17
c20075a0:	ebb0 4f01 	cmp.w	r0, r1, lsl #16
c20075a4:	bf00      	nop
c20075a6:	eb42 0202 	adc.w	r2, r2, r2
c20075aa:	bf28      	it	cs
c20075ac:	eba0 4001 	subcs.w	r0, r0, r1, lsl #16
c20075b0:	ebb0 3fc1 	cmp.w	r0, r1, lsl #15
c20075b4:	bf00      	nop
c20075b6:	eb42 0202 	adc.w	r2, r2, r2
c20075ba:	bf28      	it	cs
c20075bc:	eba0 30c1 	subcs.w	r0, r0, r1, lsl #15
c20075c0:	ebb0 3f81 	cmp.w	r0, r1, lsl #14
c20075c4:	bf00      	nop
c20075c6:	eb42 0202 	adc.w	r2, r2, r2
c20075ca:	bf28      	it	cs
c20075cc:	eba0 3081 	subcs.w	r0, r0, r1, lsl #14
c20075d0:	ebb0 3f41 	cmp.w	r0, r1, lsl #13
c20075d4:	bf00      	nop
c20075d6:	eb42 0202 	adc.w	r2, r2, r2
c20075da:	bf28      	it	cs
c20075dc:	eba0 3041 	subcs.w	r0, r0, r1, lsl #13
c20075e0:	ebb0 3f01 	cmp.w	r0, r1, lsl #12
c20075e4:	bf00      	nop
c20075e6:	eb42 0202 	adc.w	r2, r2, r2
c20075ea:	bf28      	it	cs
c20075ec:	eba0 3001 	subcs.w	r0, r0, r1, lsl #12
c20075f0:	ebb0 2fc1 	cmp.w	r0, r1, lsl #11
c20075f4:	bf00      	nop
c20075f6:	eb42 0202 	adc.w	r2, r2, r2
c20075fa:	bf28      	it	cs
c20075fc:	eba0 20c1 	subcs.w	r0, r0, r1, lsl #11
c2007600:	ebb0 2f81 	cmp.w	r0, r1, lsl #10
c2007604:	bf00      	nop
c2007606:	eb42 0202 	adc.w	r2, r2, r2
c200760a:	bf28      	it	cs
c200760c:	eba0 2081 	subcs.w	r0, r0, r1, lsl #10
c2007610:	ebb0 2f41 	cmp.w	r0, r1, lsl #9
c2007614:	bf00      	nop
c2007616:	eb42 0202 	adc.w	r2, r2, r2
c200761a:	bf28      	it	cs
c200761c:	eba0 2041 	subcs.w	r0, r0, r1, lsl #9
c2007620:	ebb0 2f01 	cmp.w	r0, r1, lsl #8
c2007624:	bf00      	nop
c2007626:	eb42 0202 	adc.w	r2, r2, r2
c200762a:	bf28      	it	cs
c200762c:	eba0 2001 	subcs.w	r0, r0, r1, lsl #8
c2007630:	ebb0 1fc1 	cmp.w	r0, r1, lsl #7
c2007634:	bf00      	nop
c2007636:	eb42 0202 	adc.w	r2, r2, r2
c200763a:	bf28      	it	cs
c200763c:	eba0 10c1 	subcs.w	r0, r0, r1, lsl #7
c2007640:	ebb0 1f81 	cmp.w	r0, r1, lsl #6
c2007644:	bf00      	nop
c2007646:	eb42 0202 	adc.w	r2, r2, r2
c200764a:	bf28      	it	cs
c200764c:	eba0 1081 	subcs.w	r0, r0, r1, lsl #6
c2007650:	ebb0 1f41 	cmp.w	r0, r1, lsl #5
c2007654:	bf00      	nop
c2007656:	eb42 0202 	adc.w	r2, r2, r2
c200765a:	bf28      	it	cs
c200765c:	eba0 1041 	subcs.w	r0, r0, r1, lsl #5
c2007660:	ebb0 1f01 	cmp.w	r0, r1, lsl #4
c2007664:	bf00      	nop
c2007666:	eb42 0202 	adc.w	r2, r2, r2
c200766a:	bf28      	it	cs
c200766c:	eba0 1001 	subcs.w	r0, r0, r1, lsl #4
c2007670:	ebb0 0fc1 	cmp.w	r0, r1, lsl #3
c2007674:	bf00      	nop
c2007676:	eb42 0202 	adc.w	r2, r2, r2
c200767a:	bf28      	it	cs
c200767c:	eba0 00c1 	subcs.w	r0, r0, r1, lsl #3
c2007680:	ebb0 0f81 	cmp.w	r0, r1, lsl #2
c2007684:	bf00      	nop
c2007686:	eb42 0202 	adc.w	r2, r2, r2
c200768a:	bf28      	it	cs
c200768c:	eba0 0081 	subcs.w	r0, r0, r1, lsl #2
c2007690:	ebb0 0f41 	cmp.w	r0, r1, lsl #1
c2007694:	bf00      	nop
c2007696:	eb42 0202 	adc.w	r2, r2, r2
c200769a:	bf28      	it	cs
c200769c:	eba0 0041 	subcs.w	r0, r0, r1, lsl #1
c20076a0:	ebb0 0f01 	cmp.w	r0, r1
c20076a4:	bf00      	nop
c20076a6:	eb42 0202 	adc.w	r2, r2, r2
c20076aa:	bf28      	it	cs
c20076ac:	eba0 0001 	subcs.w	r0, r0, r1
c20076b0:	4610      	mov	r0, r2
c20076b2:	4770      	bx	lr
c20076b4:	bf0c      	ite	eq
c20076b6:	2001      	moveq	r0, #1
c20076b8:	2000      	movne	r0, #0
c20076ba:	4770      	bx	lr
c20076bc:	fab1 f281 	clz	r2, r1
c20076c0:	f1c2 021f 	rsb	r2, r2, #31
c20076c4:	fa20 f002 	lsr.w	r0, r0, r2
c20076c8:	4770      	bx	lr
c20076ca:	b108      	cbz	r0, c20076d0 <__udivsi3+0x258>
c20076cc:	f04f 30ff 	mov.w	r0, #4294967295	; 0xffffffff
c20076d0:	f000 b966 	b.w	c20079a0 <__aeabi_idiv0>

c20076d4 <__aeabi_uidivmod>:
c20076d4:	2900      	cmp	r1, #0
c20076d6:	d0f8      	beq.n	c20076ca <__udivsi3+0x252>
c20076d8:	e92d 4003 	stmdb	sp!, {r0, r1, lr}
c20076dc:	f7ff fecc 	bl	c2007478 <__udivsi3>
c20076e0:	e8bd 4006 	ldmia.w	sp!, {r1, r2, lr}
c20076e4:	fb02 f300 	mul.w	r3, r2, r0
c20076e8:	eba1 0103 	sub.w	r1, r1, r3
c20076ec:	4770      	bx	lr
c20076ee:	bf00      	nop

c20076f0 <__divsi3>:
c20076f0:	2900      	cmp	r1, #0
c20076f2:	f000 813e 	beq.w	c2007972 <.divsi3_skip_div0_test+0x27c>

c20076f6 <.divsi3_skip_div0_test>:
c20076f6:	ea80 0c01 	eor.w	ip, r0, r1
c20076fa:	bf48      	it	mi
c20076fc:	4249      	negmi	r1, r1
c20076fe:	1e4a      	subs	r2, r1, #1
c2007700:	f000 811f 	beq.w	c2007942 <.divsi3_skip_div0_test+0x24c>
c2007704:	0003      	movs	r3, r0
c2007706:	bf48      	it	mi
c2007708:	4243      	negmi	r3, r0
c200770a:	428b      	cmp	r3, r1
c200770c:	f240 811e 	bls.w	c200794c <.divsi3_skip_div0_test+0x256>
c2007710:	4211      	tst	r1, r2
c2007712:	f000 8123 	beq.w	c200795c <.divsi3_skip_div0_test+0x266>
c2007716:	fab3 f283 	clz	r2, r3
c200771a:	fab1 f081 	clz	r0, r1
c200771e:	eba0 0202 	sub.w	r2, r0, r2
c2007722:	f1c2 021f 	rsb	r2, r2, #31
c2007726:	a004      	add	r0, pc, #16	; (adr r0, c2007738 <.divsi3_skip_div0_test+0x42>)
c2007728:	eb00 1202 	add.w	r2, r0, r2, lsl #4
c200772c:	f04f 0000 	mov.w	r0, #0
c2007730:	4697      	mov	pc, r2
c2007732:	bf00      	nop
c2007734:	f3af 8000 	nop.w
c2007738:	ebb3 7fc1 	cmp.w	r3, r1, lsl #31
c200773c:	bf00      	nop
c200773e:	eb40 0000 	adc.w	r0, r0, r0
c2007742:	bf28      	it	cs
c2007744:	eba3 73c1 	subcs.w	r3, r3, r1, lsl #31
c2007748:	ebb3 7f81 	cmp.w	r3, r1, lsl #30
c200774c:	bf00      	nop
c200774e:	eb40 0000 	adc.w	r0, r0, r0
c2007752:	bf28      	it	cs
c2007754:	eba3 7381 	subcs.w	r3, r3, r1, lsl #30
c2007758:	ebb3 7f41 	cmp.w	r3, r1, lsl #29
c200775c:	bf00      	nop
c200775e:	eb40 0000 	adc.w	r0, r0, r0
c2007762:	bf28      	it	cs
c2007764:	eba3 7341 	subcs.w	r3, r3, r1, lsl #29
c2007768:	ebb3 7f01 	cmp.w	r3, r1, lsl #28
c200776c:	bf00      	nop
c200776e:	eb40 0000 	adc.w	r0, r0, r0
c2007772:	bf28      	it	cs
c2007774:	eba3 7301 	subcs.w	r3, r3, r1, lsl #28
c2007778:	ebb3 6fc1 	cmp.w	r3, r1, lsl #27
c200777c:	bf00      	nop
c200777e:	eb40 0000 	adc.w	r0, r0, r0
c2007782:	bf28      	it	cs
c2007784:	eba3 63c1 	subcs.w	r3, r3, r1, lsl #27
c2007788:	ebb3 6f81 	cmp.w	r3, r1, lsl #26
c200778c:	bf00      	nop
c200778e:	eb40 0000 	adc.w	r0, r0, r0
c2007792:	bf28      	it	cs
c2007794:	eba3 6381 	subcs.w	r3, r3, r1, lsl #26
c2007798:	ebb3 6f41 	cmp.w	r3, r1, lsl #25
c200779c:	bf00      	nop
c200779e:	eb40 0000 	adc.w	r0, r0, r0
c20077a2:	bf28      	it	cs
c20077a4:	eba3 6341 	subcs.w	r3, r3, r1, lsl #25
c20077a8:	ebb3 6f01 	cmp.w	r3, r1, lsl #24
c20077ac:	bf00      	nop
c20077ae:	eb40 0000 	adc.w	r0, r0, r0
c20077b2:	bf28      	it	cs
c20077b4:	eba3 6301 	subcs.w	r3, r3, r1, lsl #24
c20077b8:	ebb3 5fc1 	cmp.w	r3, r1, lsl #23
c20077bc:	bf00      	nop
c20077be:	eb40 0000 	adc.w	r0, r0, r0
c20077c2:	bf28      	it	cs
c20077c4:	eba3 53c1 	subcs.w	r3, r3, r1, lsl #23
c20077c8:	ebb3 5f81 	cmp.w	r3, r1, lsl #22
c20077cc:	bf00      	nop
c20077ce:	eb40 0000 	adc.w	r0, r0, r0
c20077d2:	bf28      	it	cs
c20077d4:	eba3 5381 	subcs.w	r3, r3, r1, lsl #22
c20077d8:	ebb3 5f41 	cmp.w	r3, r1, lsl #21
c20077dc:	bf00      	nop
c20077de:	eb40 0000 	adc.w	r0, r0, r0
c20077e2:	bf28      	it	cs
c20077e4:	eba3 5341 	subcs.w	r3, r3, r1, lsl #21
c20077e8:	ebb3 5f01 	cmp.w	r3, r1, lsl #20
c20077ec:	bf00      	nop
c20077ee:	eb40 0000 	adc.w	r0, r0, r0
c20077f2:	bf28      	it	cs
c20077f4:	eba3 5301 	subcs.w	r3, r3, r1, lsl #20
c20077f8:	ebb3 4fc1 	cmp.w	r3, r1, lsl #19
c20077fc:	bf00      	nop
c20077fe:	eb40 0000 	adc.w	r0, r0, r0
c2007802:	bf28      	it	cs
c2007804:	eba3 43c1 	subcs.w	r3, r3, r1, lsl #19
c2007808:	ebb3 4f81 	cmp.w	r3, r1, lsl #18
c200780c:	bf00      	nop
c200780e:	eb40 0000 	adc.w	r0, r0, r0
c2007812:	bf28      	it	cs
c2007814:	eba3 4381 	subcs.w	r3, r3, r1, lsl #18
c2007818:	ebb3 4f41 	cmp.w	r3, r1, lsl #17
c200781c:	bf00      	nop
c200781e:	eb40 0000 	adc.w	r0, r0, r0
c2007822:	bf28      	it	cs
c2007824:	eba3 4341 	subcs.w	r3, r3, r1, lsl #17
c2007828:	ebb3 4f01 	cmp.w	r3, r1, lsl #16
c200782c:	bf00      	nop
c200782e:	eb40 0000 	adc.w	r0, r0, r0
c2007832:	bf28      	it	cs
c2007834:	eba3 4301 	subcs.w	r3, r3, r1, lsl #16
c2007838:	ebb3 3fc1 	cmp.w	r3, r1, lsl #15
c200783c:	bf00      	nop
c200783e:	eb40 0000 	adc.w	r0, r0, r0
c2007842:	bf28      	it	cs
c2007844:	eba3 33c1 	subcs.w	r3, r3, r1, lsl #15
c2007848:	ebb3 3f81 	cmp.w	r3, r1, lsl #14
c200784c:	bf00      	nop
c200784e:	eb40 0000 	adc.w	r0, r0, r0
c2007852:	bf28      	it	cs
c2007854:	eba3 3381 	subcs.w	r3, r3, r1, lsl #14
c2007858:	ebb3 3f41 	cmp.w	r3, r1, lsl #13
c200785c:	bf00      	nop
c200785e:	eb40 0000 	adc.w	r0, r0, r0
c2007862:	bf28      	it	cs
c2007864:	eba3 3341 	subcs.w	r3, r3, r1, lsl #13
c2007868:	ebb3 3f01 	cmp.w	r3, r1, lsl #12
c200786c:	bf00      	nop
c200786e:	eb40 0000 	adc.w	r0, r0, r0
c2007872:	bf28      	it	cs
c2007874:	eba3 3301 	subcs.w	r3, r3, r1, lsl #12
c2007878:	ebb3 2fc1 	cmp.w	r3, r1, lsl #11
c200787c:	bf00      	nop
c200787e:	eb40 0000 	adc.w	r0, r0, r0
c2007882:	bf28      	it	cs
c2007884:	eba3 23c1 	subcs.w	r3, r3, r1, lsl #11
c2007888:	ebb3 2f81 	cmp.w	r3, r1, lsl #10
c200788c:	bf00      	nop
c200788e:	eb40 0000 	adc.w	r0, r0, r0
c2007892:	bf28      	it	cs
c2007894:	eba3 2381 	subcs.w	r3, r3, r1, lsl #10
c2007898:	ebb3 2f41 	cmp.w	r3, r1, lsl #9
c200789c:	bf00      	nop
c200789e:	eb40 0000 	adc.w	r0, r0, r0
c20078a2:	bf28      	it	cs
c20078a4:	eba3 2341 	subcs.w	r3, r3, r1, lsl #9
c20078a8:	ebb3 2f01 	cmp.w	r3, r1, lsl #8
c20078ac:	bf00      	nop
c20078ae:	eb40 0000 	adc.w	r0, r0, r0
c20078b2:	bf28      	it	cs
c20078b4:	eba3 2301 	subcs.w	r3, r3, r1, lsl #8
c20078b8:	ebb3 1fc1 	cmp.w	r3, r1, lsl #7
c20078bc:	bf00      	nop
c20078be:	eb40 0000 	adc.w	r0, r0, r0
c20078c2:	bf28      	it	cs
c20078c4:	eba3 13c1 	subcs.w	r3, r3, r1, lsl #7
c20078c8:	ebb3 1f81 	cmp.w	r3, r1, lsl #6
c20078cc:	bf00      	nop
c20078ce:	eb40 0000 	adc.w	r0, r0, r0
c20078d2:	bf28      	it	cs
c20078d4:	eba3 1381 	subcs.w	r3, r3, r1, lsl #6
c20078d8:	ebb3 1f41 	cmp.w	r3, r1, lsl #5
c20078dc:	bf00      	nop
c20078de:	eb40 0000 	adc.w	r0, r0, r0
c20078e2:	bf28      	it	cs
c20078e4:	eba3 1341 	subcs.w	r3, r3, r1, lsl #5
c20078e8:	ebb3 1f01 	cmp.w	r3, r1, lsl #4
c20078ec:	bf00      	nop
c20078ee:	eb40 0000 	adc.w	r0, r0, r0
c20078f2:	bf28      	it	cs
c20078f4:	eba3 1301 	subcs.w	r3, r3, r1, lsl #4
c20078f8:	ebb3 0fc1 	cmp.w	r3, r1, lsl #3
c20078fc:	bf00      	nop
c20078fe:	eb40 0000 	adc.w	r0, r0, r0
c2007902:	bf28      	it	cs
c2007904:	eba3 03c1 	subcs.w	r3, r3, r1, lsl #3
c2007908:	ebb3 0f81 	cmp.w	r3, r1, lsl #2
c200790c:	bf00      	nop
c200790e:	eb40 0000 	adc.w	r0, r0, r0
c2007912:	bf28      	it	cs
c2007914:	eba3 0381 	subcs.w	r3, r3, r1, lsl #2
c2007918:	ebb3 0f41 	cmp.w	r3, r1, lsl #1
c200791c:	bf00      	nop
c200791e:	eb40 0000 	adc.w	r0, r0, r0
c2007922:	bf28      	it	cs
c2007924:	eba3 0341 	subcs.w	r3, r3, r1, lsl #1
c2007928:	ebb3 0f01 	cmp.w	r3, r1
c200792c:	bf00      	nop
c200792e:	eb40 0000 	adc.w	r0, r0, r0
c2007932:	bf28      	it	cs
c2007934:	eba3 0301 	subcs.w	r3, r3, r1
c2007938:	f1bc 0f00 	cmp.w	ip, #0
c200793c:	bf48      	it	mi
c200793e:	4240      	negmi	r0, r0
c2007940:	4770      	bx	lr
c2007942:	ea9c 0f00 	teq	ip, r0
c2007946:	bf48      	it	mi
c2007948:	4240      	negmi	r0, r0
c200794a:	4770      	bx	lr
c200794c:	bf38      	it	cc
c200794e:	2000      	movcc	r0, #0
c2007950:	bf04      	itt	eq
c2007952:	ea4f 70ec 	moveq.w	r0, ip, asr #31
c2007956:	f040 0001 	orreq.w	r0, r0, #1
c200795a:	4770      	bx	lr
c200795c:	fab1 f281 	clz	r2, r1
c2007960:	f1c2 021f 	rsb	r2, r2, #31
c2007964:	f1bc 0f00 	cmp.w	ip, #0
c2007968:	fa23 f002 	lsr.w	r0, r3, r2
c200796c:	bf48      	it	mi
c200796e:	4240      	negmi	r0, r0
c2007970:	4770      	bx	lr
c2007972:	2800      	cmp	r0, #0
c2007974:	bfc8      	it	gt
c2007976:	f06f 4000 	mvngt.w	r0, #2147483648	; 0x80000000
c200797a:	bfb8      	it	lt
c200797c:	f04f 4000 	movlt.w	r0, #2147483648	; 0x80000000
c2007980:	f000 b80e 	b.w	c20079a0 <__aeabi_idiv0>

c2007984 <__aeabi_idivmod>:
c2007984:	2900      	cmp	r1, #0
c2007986:	d0f4      	beq.n	c2007972 <.divsi3_skip_div0_test+0x27c>
c2007988:	e92d 4003 	stmdb	sp!, {r0, r1, lr}
c200798c:	f7ff feb3 	bl	c20076f6 <.divsi3_skip_div0_test>
c2007990:	e8bd 4006 	ldmia.w	sp!, {r1, r2, lr}
c2007994:	fb02 f300 	mul.w	r3, r2, r0
c2007998:	eba1 0103 	sub.w	r1, r1, r3
c200799c:	4770      	bx	lr
c200799e:	bf00      	nop

c20079a0 <__aeabi_idiv0>:
c20079a0:	4770      	bx	lr
c20079a2:	bf00      	nop

c20079a4 <__aeabi_uldivmod>:
c20079a4:	b953      	cbnz	r3, c20079bc <__aeabi_uldivmod+0x18>
c20079a6:	b94a      	cbnz	r2, c20079bc <__aeabi_uldivmod+0x18>
c20079a8:	2900      	cmp	r1, #0
c20079aa:	bf08      	it	eq
c20079ac:	2800      	cmpeq	r0, #0
c20079ae:	bf1c      	itt	ne
c20079b0:	f04f 31ff 	movne.w	r1, #4294967295	; 0xffffffff
c20079b4:	f04f 30ff 	movne.w	r0, #4294967295	; 0xffffffff
c20079b8:	f7ff bff2 	b.w	c20079a0 <__aeabi_idiv0>
c20079bc:	f1ad 0c08 	sub.w	ip, sp, #8
c20079c0:	e96d ce04 	strd	ip, lr, [sp, #-16]!
c20079c4:	f000 f806 	bl	c20079d4 <__udivmoddi4>
c20079c8:	f8dd e004 	ldr.w	lr, [sp, #4]
c20079cc:	e9dd 2302 	ldrd	r2, r3, [sp, #8]
c20079d0:	b004      	add	sp, #16
c20079d2:	4770      	bx	lr

c20079d4 <__udivmoddi4>:
c20079d4:	4290      	cmp	r0, r2
c20079d6:	e92d 47f0 	stmdb	sp!, {r4, r5, r6, r7, r8, r9, sl, lr}
c20079da:	eb71 0403 	sbcs.w	r4, r1, r3
c20079de:	bf38      	it	cc
c20079e0:	2500      	movcc	r5, #0
c20079e2:	9f08      	ldr	r7, [sp, #32]
c20079e4:	bf38      	it	cc
c20079e6:	462e      	movcc	r6, r5
c20079e8:	d369      	bcc.n	c2007abe <__udivmoddi4+0xea>
c20079ea:	fab3 f583 	clz	r5, r3
c20079ee:	2b00      	cmp	r3, #0
c20079f0:	d070      	beq.n	c2007ad4 <__udivmoddi4+0x100>
c20079f2:	fab1 f481 	clz	r4, r1
c20079f6:	2900      	cmp	r1, #0
c20079f8:	d068      	beq.n	c2007acc <__udivmoddi4+0xf8>
c20079fa:	1b2c      	subs	r4, r5, r4
c20079fc:	f1a4 0820 	sub.w	r8, r4, #32
c2007a00:	f1c4 0920 	rsb	r9, r4, #32
c2007a04:	40a3      	lsls	r3, r4
c2007a06:	fa02 f508 	lsl.w	r5, r2, r8
c2007a0a:	fa02 fe04 	lsl.w	lr, r2, r4
c2007a0e:	432b      	orrs	r3, r5
c2007a10:	fa22 f209 	lsr.w	r2, r2, r9
c2007a14:	4570      	cmp	r0, lr
c2007a16:	ea43 0302 	orr.w	r3, r3, r2
c2007a1a:	eb71 0203 	sbcs.w	r2, r1, r3
c2007a1e:	bf3c      	itt	cc
c2007a20:	2500      	movcc	r5, #0
c2007a22:	462e      	movcc	r6, r5
c2007a24:	d30a      	bcc.n	c2007a3c <__udivmoddi4+0x68>
c2007a26:	2501      	movs	r5, #1
c2007a28:	ebb0 000e 	subs.w	r0, r0, lr
c2007a2c:	eb61 0103 	sbc.w	r1, r1, r3
c2007a30:	fa05 f608 	lsl.w	r6, r5, r8
c2007a34:	fa25 f209 	lsr.w	r2, r5, r9
c2007a38:	4316      	orrs	r6, r2
c2007a3a:	40a5      	lsls	r5, r4
c2007a3c:	2c00      	cmp	r4, #0
c2007a3e:	d03e      	beq.n	c2007abe <__udivmoddi4+0xea>
c2007a40:	ea4f 0e5e 	mov.w	lr, lr, lsr #1
c2007a44:	ea4f 0c53 	mov.w	ip, r3, lsr #1
c2007a48:	ea4e 7ec3 	orr.w	lr, lr, r3, lsl #31
c2007a4c:	46a2      	mov	sl, r4
c2007a4e:	e00c      	b.n	c2007a6a <__udivmoddi4+0x96>
c2007a50:	ebb0 030e 	subs.w	r3, r0, lr
c2007a54:	eb61 020c 	sbc.w	r2, r1, ip
c2007a58:	18db      	adds	r3, r3, r3
c2007a5a:	eb42 0102 	adc.w	r1, r2, r2
c2007a5e:	1c58      	adds	r0, r3, #1
c2007a60:	f141 0100 	adc.w	r1, r1, #0
c2007a64:	f1ba 0a01 	subs.w	sl, sl, #1
c2007a68:	d008      	beq.n	c2007a7c <__udivmoddi4+0xa8>
c2007a6a:	4570      	cmp	r0, lr
c2007a6c:	eb71 030c 	sbcs.w	r3, r1, ip
c2007a70:	d2ee      	bcs.n	c2007a50 <__udivmoddi4+0x7c>
c2007a72:	1800      	adds	r0, r0, r0
c2007a74:	4149      	adcs	r1, r1
c2007a76:	f1ba 0a01 	subs.w	sl, sl, #1
c2007a7a:	d1f6      	bne.n	c2007a6a <__udivmoddi4+0x96>
c2007a7c:	182d      	adds	r5, r5, r0
c2007a7e:	fa01 f909 	lsl.w	r9, r1, r9
c2007a82:	fa20 f004 	lsr.w	r0, r0, r4
c2007a86:	eb46 0601 	adc.w	r6, r6, r1
c2007a8a:	fa21 f808 	lsr.w	r8, r1, r8
c2007a8e:	ea40 0009 	orr.w	r0, r0, r9
c2007a92:	ea40 0008 	orr.w	r0, r0, r8
c2007a96:	40e1      	lsrs	r1, r4
c2007a98:	f1a4 0e20 	sub.w	lr, r4, #32
c2007a9c:	f1c4 0c20 	rsb	ip, r4, #32
c2007aa0:	fa01 f204 	lsl.w	r2, r1, r4
c2007aa4:	fa00 fe0e 	lsl.w	lr, r0, lr
c2007aa8:	fa20 fc0c 	lsr.w	ip, r0, ip
c2007aac:	ea42 020e 	orr.w	r2, r2, lr
c2007ab0:	fa00 f304 	lsl.w	r3, r0, r4
c2007ab4:	ea42 020c 	orr.w	r2, r2, ip
c2007ab8:	1aed      	subs	r5, r5, r3
c2007aba:	eb66 0602 	sbc.w	r6, r6, r2
c2007abe:	b10f      	cbz	r7, c2007ac4 <__udivmoddi4+0xf0>
c2007ac0:	e9c7 0100 	strd	r0, r1, [r7]
c2007ac4:	4628      	mov	r0, r5
c2007ac6:	4631      	mov	r1, r6
c2007ac8:	e8bd 87f0 	ldmia.w	sp!, {r4, r5, r6, r7, r8, r9, sl, pc}
c2007acc:	fab0 f480 	clz	r4, r0
c2007ad0:	3420      	adds	r4, #32
c2007ad2:	e792      	b.n	c20079fa <__udivmoddi4+0x26>
c2007ad4:	fab2 f482 	clz	r4, r2
c2007ad8:	f104 0520 	add.w	r5, r4, #32
c2007adc:	fab1 f481 	clz	r4, r1
c2007ae0:	2900      	cmp	r1, #0
c2007ae2:	d18a      	bne.n	c20079fa <__udivmoddi4+0x26>
c2007ae4:	e7f2      	b.n	c2007acc <__udivmoddi4+0xf8>
c2007ae6:	bf00      	nop

c2007ae8 <_close>:
c2007ae8:	f648 7348 	movw	r3, #36680	; 0x8f48
c2007aec:	f2cc 2300 	movt	r3, #49664	; 0xc200
c2007af0:	2258      	movs	r2, #88	; 0x58
c2007af2:	f04f 30ff 	mov.w	r0, #4294967295	; 0xffffffff
c2007af6:	601a      	str	r2, [r3, #0]
c2007af8:	4770      	bx	lr
c2007afa:	bf00      	nop

c2007afc <_fstat>:
c2007afc:	f648 7348 	movw	r3, #36680	; 0x8f48
c2007b00:	f2cc 2300 	movt	r3, #49664	; 0xc200
c2007b04:	2258      	movs	r2, #88	; 0x58
c2007b06:	f04f 30ff 	mov.w	r0, #4294967295	; 0xffffffff
c2007b0a:	601a      	str	r2, [r3, #0]
c2007b0c:	4770      	bx	lr
c2007b0e:	bf00      	nop

c2007b10 <_getpid>:
c2007b10:	f648 7348 	movw	r3, #36680	; 0x8f48
c2007b14:	f2cc 2300 	movt	r3, #49664	; 0xc200
c2007b18:	2258      	movs	r2, #88	; 0x58
c2007b1a:	f04f 30ff 	mov.w	r0, #4294967295	; 0xffffffff
c2007b1e:	601a      	str	r2, [r3, #0]
c2007b20:	4770      	bx	lr
c2007b22:	bf00      	nop

c2007b24 <_isatty>:
c2007b24:	f648 7348 	movw	r3, #36680	; 0x8f48
c2007b28:	f2cc 2300 	movt	r3, #49664	; 0xc200
c2007b2c:	2258      	movs	r2, #88	; 0x58
c2007b2e:	2000      	movs	r0, #0
c2007b30:	601a      	str	r2, [r3, #0]
c2007b32:	4770      	bx	lr

c2007b34 <_kill>:
c2007b34:	f648 7348 	movw	r3, #36680	; 0x8f48
c2007b38:	f2cc 2300 	movt	r3, #49664	; 0xc200
c2007b3c:	2258      	movs	r2, #88	; 0x58
c2007b3e:	f04f 30ff 	mov.w	r0, #4294967295	; 0xffffffff
c2007b42:	601a      	str	r2, [r3, #0]
c2007b44:	4770      	bx	lr
c2007b46:	bf00      	nop

c2007b48 <_lseek>:
c2007b48:	f648 7348 	movw	r3, #36680	; 0x8f48
c2007b4c:	f2cc 2300 	movt	r3, #49664	; 0xc200
c2007b50:	2258      	movs	r2, #88	; 0x58
c2007b52:	f04f 30ff 	mov.w	r0, #4294967295	; 0xffffffff
c2007b56:	601a      	str	r2, [r3, #0]
c2007b58:	4770      	bx	lr
c2007b5a:	bf00      	nop

c2007b5c <_read>:
c2007b5c:	f648 7348 	movw	r3, #36680	; 0x8f48
c2007b60:	f2cc 2300 	movt	r3, #49664	; 0xc200
c2007b64:	2258      	movs	r2, #88	; 0x58
c2007b66:	f04f 30ff 	mov.w	r0, #4294967295	; 0xffffffff
c2007b6a:	601a      	str	r2, [r3, #0]
c2007b6c:	4770      	bx	lr
c2007b6e:	bf00      	nop

c2007b70 <_sbrk>:
c2007b70:	f648 724c 	movw	r2, #36684	; 0x8f4c
c2007b74:	f2cc 2200 	movt	r2, #49664	; 0xc200
c2007b78:	f24d 0100 	movw	r1, #53248	; 0xd000
c2007b7c:	f2cc 2100 	movt	r1, #49664	; 0xc200
c2007b80:	6813      	ldr	r3, [r2, #0]
c2007b82:	2b00      	cmp	r3, #0
c2007b84:	bf08      	it	eq
c2007b86:	460b      	moveq	r3, r1
c2007b88:	1819      	adds	r1, r3, r0
c2007b8a:	4618      	mov	r0, r3
c2007b8c:	6011      	str	r1, [r2, #0]
c2007b8e:	4770      	bx	lr

c2007b90 <_exit>:
c2007b90:	e7fe      	b.n	c2007b90 <_exit>
c2007b92:	bf00      	nop

Disassembly of section .rodata:

c2007b98 <uart_baudrate_array-0x68>:
	...

c2007c00 <uart_baudrate_array>:
c2007c00:	0000012c 	andeq	r0, r0, ip, lsr #2
c2007c04:	00000027 	andeq	r0, r0, r7, lsr #32
c2007c08:	00000010 	andeq	r0, r0, r0, lsl r0
c2007c0c:	00000258 	andeq	r0, r0, r8, asr r2
c2007c10:	00000013 	andeq	r0, r0, r3, lsl r0
c2007c14:	00000088 	andeq	r0, r0, r8, lsl #1
c2007c18:	000004b0 			; <UNDEFINED> instruction: 0x000004b0
c2007c1c:	00000009 	andeq	r0, r0, r9
c2007c20:	000000c4 	andeq	r0, r0, r4, asr #1
c2007c24:	00000960 	andeq	r0, r0, r0, ror #18
c2007c28:	00000004 	andeq	r0, r0, r4
c2007c2c:	000000e2 	andeq	r0, r0, r2, ror #1
c2007c30:	000012c0 	andeq	r1, r0, r0, asr #5
c2007c34:	00000002 	andeq	r0, r0, r2
c2007c38:	00000071 	andeq	r0, r0, r1, ror r0
c2007c3c:	00002580 	andeq	r2, r0, r0, lsl #11
c2007c40:	00000001 	andeq	r0, r0, r1
c2007c44:	00000038 	andeq	r0, r0, r8, lsr r0
c2007c48:	00003840 	andeq	r3, r0, r0, asr #16
c2007c4c:	00000000 	andeq	r0, r0, r0
c2007c50:	000000d0 	ldrdeq	r0, [r0], -r0	; <UNPREDICTABLE>
c2007c54:	00004b00 	andeq	r4, r0, r0, lsl #22
c2007c58:	00000000 	andeq	r0, r0, r0
c2007c5c:	0000009c 	muleq	r0, ip, r0
c2007c60:	00007080 	andeq	r7, r0, r0, lsl #1
c2007c64:	00000000 	andeq	r0, r0, r0
c2007c68:	00000068 	andeq	r0, r0, r8, rrx
c2007c6c:	00009600 	andeq	r9, r0, r0, lsl #12
c2007c70:	00000000 	andeq	r0, r0, r0
c2007c74:	0000004e 	andeq	r0, r0, lr, asr #32
c2007c78:	0000e100 	andeq	lr, r0, r0, lsl #2
c2007c7c:	00000000 	andeq	r0, r0, r0
c2007c80:	00000034 	andeq	r0, r0, r4, lsr r0
c2007c84:	0001c200 	andeq	ip, r1, r0, lsl #4
c2007c88:	00000000 	andeq	r0, r0, r0
c2007c8c:	0000001a 	andeq	r0, r0, sl, lsl r0
c2007c90:	6f620a0d 	svcvs	0x00620a0d
c2007c94:	20647261 	rsbcs	r7, r4, r1, ror #4
c2007c98:	74696e69 	strbtvc	r6, [r9], #-3689	; 0xfffff197
c2007c9c:	63757320 	cmnvs	r5, #32, 6	; 0x80000000
c2007ca0:	73736563 	cmnvc	r3, #415236096	; 0x18c00000
c2007ca4:	0d212121 	stfeqs	f2, [r1, #-132]!	; 0xffffff7c
c2007ca8:	0000000a 	andeq	r0, r0, sl

c2007cac <default_uart>:
c2007cac:	00000100 	andeq	r0, r0, r0, lsl #2
c2007cb0:	0001c200 	andeq	ip, r1, r0, lsl #4
c2007cb4:	00000300 	andeq	r0, r0, r0, lsl #6
c2007cb8:	00000003 	andeq	r0, r0, r3
c2007cbc:	00464e49 	subeq	r4, r6, r9, asr #28
c2007cc0:	00666e69 	rsbeq	r6, r6, r9, ror #28
c2007cc4:	004e414e 	subeq	r4, lr, lr, asr #2
c2007cc8:	006e616e 	rsbeq	r6, lr, lr, ror #2
c2007ccc:	33323130 	teqcc	r2, #48, 2
c2007cd0:	37363534 			; <UNDEFINED> instruction: 0x37363534
c2007cd4:	62613938 	rsbvs	r3, r1, #56, 18	; 0xe0000
c2007cd8:	66656463 	strbtvs	r6, [r5], -r3, ror #8
c2007cdc:	00000000 	andeq	r0, r0, r0
c2007ce0:	33323130 	teqcc	r2, #48, 2
c2007ce4:	37363534 			; <UNDEFINED> instruction: 0x37363534
c2007ce8:	42413938 	submi	r3, r1, #56, 18	; 0xe0000
c2007cec:	46454443 	strbmi	r4, [r5], -r3, asr #8
c2007cf0:	00000000 	andeq	r0, r0, r0
c2007cf4:	6c756e28 	ldclvs	14, cr6, [r5], #-160	; 0xffffff60
c2007cf8:	0000296c 	andeq	r2, r0, ip, ror #18
c2007cfc:	00000030 	andeq	r0, r0, r0, lsr r0

c2007d00 <blanks.1>:
c2007d00:	20202020 	eorcs	r2, r0, r0, lsr #32
c2007d04:	20202020 	eorcs	r2, r0, r0, lsr #32
c2007d08:	20202020 	eorcs	r2, r0, r0, lsr #32
c2007d0c:	20202020 	eorcs	r2, r0, r0, lsr #32

c2007d10 <zeroes.0>:
c2007d10:	30303030 	eorscc	r3, r0, r0, lsr r0
c2007d14:	30303030 	eorscc	r3, r0, r0, lsr r0
c2007d18:	30303030 	eorscc	r3, r0, r0, lsr r0
c2007d1c:	30303030 	eorscc	r3, r0, r0, lsr r0
c2007d20:	004e614e 	subeq	r6, lr, lr, asr #2
c2007d24:	69666e49 	stmdbvs	r6!, {r0, r3, r6, r9, sl, fp, sp, lr}^
c2007d28:	7974696e 	ldmdbvc	r4!, {r1, r2, r3, r5, r6, r8, fp, sp, lr}^
c2007d2c:	00000000 	andeq	r0, r0, r0
c2007d30:	6c6c6142 	stfvse	f6, [ip], #-264	; 0xfffffef8
c2007d34:	7320636f 			; <UNDEFINED> instruction: 0x7320636f
c2007d38:	65636375 	strbvs	r6, [r3, #-885]!	; 0xfffffc8b
c2007d3c:	64656465 	strbtvs	r6, [r5], #-1125	; 0xfffffb9b
c2007d40:	00000000 	andeq	r0, r0, r0
c2007d44:	746e6d2f 	strbtvc	r6, [lr], #-3375	; 0xfffff2d1
c2007d48:	726f772f 	rsbvc	r7, pc, #12320768	; 0xbc0000
c2007d4c:	6170736b 	cmnvs	r0, fp, ror #6
c2007d50:	772f6563 	strvc	r6, [pc, -r3, ror #10]!
c2007d54:	736b726f 	cmnvc	fp, #-268435450	; 0xf0000006
c2007d58:	65636170 	strbvs	r6, [r3, #-368]!	; 0xfffffe90
c2007d5c:	4343472f 	movtmi	r4, #14127	; 0x372f
c2007d60:	2d30312d 	ldfcss	f3, [r0, #-180]!	; 0xffffff4c
c2007d64:	65706970 	ldrbvs	r6, [r0, #-2416]!	; 0xfffff690
c2007d68:	656e696c 	strbvs	r6, [lr, #-2412]!	; 0xfffff694
c2007d6c:	6e656a2f 	vmulvs.f32	s13, s10, s31
c2007d70:	736e696b 	cmnvc	lr, #1753088	; 0x1ac000
c2007d74:	4343472d 	movtmi	r4, #14125	; 0x372d
c2007d78:	2d30312d 	ldfcss	f3, [r0, #-180]!	; 0xffffff4c
c2007d7c:	65706970 	ldrbvs	r6, [r0, #-2416]!	; 0xfffff690
c2007d80:	656e696c 	strbvs	r6, [lr, #-2412]!	; 0xfffff694
c2007d84:	3036322d 	eorscc	r3, r6, sp, lsr #4
c2007d88:	3230325f 	eorscc	r3, r0, #-268435451	; 0xf0000005
c2007d8c:	32373031 	eorscc	r3, r7, #49	; 0x31
c2007d90:	36315f37 	shasxcc	r5, r1, r7
c2007d94:	37333732 			; <UNDEFINED> instruction: 0x37333732
c2007d98:	36383331 			; <UNDEFINED> instruction: 0x36383331
c2007d9c:	6372732f 	cmnvs	r2, #-1140850688	; 0xbc000000
c2007da0:	77656e2f 	strbvc	r6, [r5, -pc, lsr #28]!
c2007da4:	2f62696c 	svccs	0x0062696c
c2007da8:	6c77656e 	cfldr64vs	mvdx6, [r7], #-440	; 0xfffffe48
c2007dac:	6c2f6269 	sfmvs	f6, 4, [pc], #-420	; c2007c10 <uart_baudrate_array+0x10>
c2007db0:	2f636269 	svccs	0x00636269
c2007db4:	6c647473 	cfstrdvs	mvd7, [r4], #-460	; 0xfffffe34
c2007db8:	642f6269 	strtvs	r6, [pc], #-617	; c2007dc0 <zeroes.0+0xb0>
c2007dbc:	2e616f74 	mcrcs	15, 3, r6, cr1, cr4, {3}
c2007dc0:	00000063 	andeq	r0, r0, r3, rrx
c2007dc4:	746e6d2f 	strbtvc	r6, [lr], #-3375	; 0xfffff2d1
c2007dc8:	726f772f 	rsbvc	r7, pc, #12320768	; 0xbc0000
c2007dcc:	6170736b 	cmnvs	r0, fp, ror #6
c2007dd0:	772f6563 	strvc	r6, [pc, -r3, ror #10]!
c2007dd4:	736b726f 	cmnvc	fp, #-268435450	; 0xf0000006
c2007dd8:	65636170 	strbvs	r6, [r3, #-368]!	; 0xfffffe90
c2007ddc:	4343472f 	movtmi	r4, #14127	; 0x372f
c2007de0:	2d30312d 	ldfcss	f3, [r0, #-180]!	; 0xffffff4c
c2007de4:	65706970 	ldrbvs	r6, [r0, #-2416]!	; 0xfffff690
c2007de8:	656e696c 	strbvs	r6, [lr, #-2412]!	; 0xfffff694
c2007dec:	6e656a2f 	vmulvs.f32	s13, s10, s31
c2007df0:	736e696b 	cmnvc	lr, #1753088	; 0x1ac000
c2007df4:	4343472d 	movtmi	r4, #14125	; 0x372d
c2007df8:	2d30312d 	ldfcss	f3, [r0, #-180]!	; 0xffffff4c
c2007dfc:	65706970 	ldrbvs	r6, [r0, #-2416]!	; 0xfffff690
c2007e00:	656e696c 	strbvs	r6, [lr, #-2412]!	; 0xfffff694
c2007e04:	3036322d 	eorscc	r3, r6, sp, lsr #4
c2007e08:	3230325f 	eorscc	r3, r0, #-268435451	; 0xf0000005
c2007e0c:	32373031 	eorscc	r3, r7, #49	; 0x31
c2007e10:	36315f37 	shasxcc	r5, r1, r7
c2007e14:	37333732 			; <UNDEFINED> instruction: 0x37333732
c2007e18:	36383331 			; <UNDEFINED> instruction: 0x36383331
c2007e1c:	6372732f 	cmnvs	r2, #-1140850688	; 0xbc000000
c2007e20:	77656e2f 	strbvc	r6, [r5, -pc, lsr #28]!
c2007e24:	2f62696c 	svccs	0x0062696c
c2007e28:	6c77656e 	cfldr64vs	mvdx6, [r7], #-440	; 0xfffffe48
c2007e2c:	6c2f6269 	sfmvs	f6, 4, [pc], #-420	; c2007c90 <uart_baudrate_array+0x90>
c2007e30:	2f636269 	svccs	0x00636269
c2007e34:	6c647473 	cfstrdvs	mvd7, [r4], #-460	; 0xfffffe34
c2007e38:	6d2f6269 	sfmvs	f6, 4, [pc, #-420]!	; c2007c9c <uart_baudrate_array+0x9c>
c2007e3c:	63657270 	cmnvs	r5, #112, 4
c2007e40:	0000632e 	andeq	r6, r0, lr, lsr #6
c2007e44:	00000000 	andeq	r0, r0, r0

c2007e48 <__mprec_bigtens>:
c2007e48:	37e08000 	strbcc	r8, [r0, r0]!
c2007e4c:	4341c379 	movtmi	ip, #4985	; 0x1379
c2007e50:	b5056e17 	strlt	r6, [r5, #-3607]	; 0xfffff1e9
c2007e54:	4693b8b5 			; <UNDEFINED> instruction: 0x4693b8b5
c2007e58:	e93ff9f5 	ldmdb	pc!, {r0, r2, r4, r5, r6, r7, r8, fp, ip, sp, lr, pc}	; <UNPREDICTABLE>
c2007e5c:	4d384f03 	ldcmi	15, cr4, [r8, #-12]!
c2007e60:	f9301d32 			; <UNDEFINED> instruction: 0xf9301d32
c2007e64:	5a827748 	bpl	c00a5b8c <SYS_MODE+0xc00a5b6d>
c2007e68:	7f73bf3c 	svcvc	0x0073bf3c
c2007e6c:	75154fdd 	ldrvc	r4, [r5, #-4061]	; 0xfffff023

c2007e70 <__mprec_tens>:
c2007e70:	00000000 	andeq	r0, r0, r0
c2007e74:	3ff00000 	svccc	0x00f00000	; IMB
c2007e78:	00000000 	andeq	r0, r0, r0
c2007e7c:	40240000 	eormi	r0, r4, r0
c2007e80:	00000000 	andeq	r0, r0, r0
c2007e84:	40590000 	subsmi	r0, r9, r0
c2007e88:	00000000 	andeq	r0, r0, r0
c2007e8c:	408f4000 	addmi	r4, pc, r0
c2007e90:	00000000 	andeq	r0, r0, r0
c2007e94:	40c38800 	sbcmi	r8, r3, r0, lsl #16
c2007e98:	00000000 	andeq	r0, r0, r0
c2007e9c:	40f86a00 	rscsmi	r6, r8, r0, lsl #20
c2007ea0:	00000000 	andeq	r0, r0, r0
c2007ea4:	412e8480 	smlawbmi	lr, r0, r4, r8
c2007ea8:	00000000 	andeq	r0, r0, r0
c2007eac:	416312d0 	ldrdmi	r1, [r3, #-32]!	; 0xffffffe0
c2007eb0:	00000000 	andeq	r0, r0, r0
c2007eb4:	4197d784 	orrsmi	sp, r7, r4, lsl #15
c2007eb8:	00000000 	andeq	r0, r0, r0
c2007ebc:	41cdcd65 	bicmi	ip, sp, r5, ror #26
c2007ec0:	20000000 	andcs	r0, r0, r0
c2007ec4:	4202a05f 	andmi	sl, r2, #95	; 0x5f
c2007ec8:	e8000000 	stmda	r0, {}	; <UNPREDICTABLE>
c2007ecc:	42374876 	eorsmi	r4, r7, #7733248	; 0x760000
c2007ed0:	a2000000 	andge	r0, r0, #0
c2007ed4:	426d1a94 	rsbmi	r1, sp, #148, 20	; 0x94000
c2007ed8:	e5400000 	strb	r0, [r0, #-0]
c2007edc:	42a2309c 	adcmi	r3, r2, #156	; 0x9c
c2007ee0:	1e900000 	cdpne	0, 9, cr0, cr0, cr0, {0}
c2007ee4:	42d6bcc4 	sbcsmi	fp, r6, #196, 24	; 0xc400
c2007ee8:	26340000 	ldrtcs	r0, [r4], -r0
c2007eec:	430c6bf5 	movwmi	r6, #52213	; 0xcbf5
c2007ef0:	37e08000 	strbcc	r8, [r0, r0]!
c2007ef4:	4341c379 	movtmi	ip, #4985	; 0x1379
c2007ef8:	85d8a000 	ldrbhi	sl, [r8]
c2007efc:	43763457 	cmnmi	r6, #1459617792	; 0x57000000
c2007f00:	674ec800 	strbvs	ip, [lr, -r0, lsl #16]
c2007f04:	43abc16d 			; <UNDEFINED> instruction: 0x43abc16d
c2007f08:	60913d00 	addsvs	r3, r1, r0, lsl #26
c2007f0c:	43e158e4 	mvnmi	r5, #228, 16	; 0xe40000
c2007f10:	78b58c40 	ldmvc	r5!, {r6, sl, fp, pc}
c2007f14:	4415af1d 	ldrmi	sl, [r5], #-3869	; 0xfffff0e3
c2007f18:	d6e2ef50 	usatle	lr, #2, r0, asr #30
c2007f1c:	444b1ae4 	strbmi	r1, [fp], #-2788	; 0xfffff51c
c2007f20:	064dd592 			; <UNDEFINED> instruction: 0x064dd592
c2007f24:	4480f0cf 	strmi	pc, [r0], #207	; 0xcf
c2007f28:	c7e14af6 			; <UNDEFINED> instruction: 0xc7e14af6
c2007f2c:	44b52d02 	ldrtmi	r2, [r5], #3330	; 0xd02
c2007f30:	79d99db4 	ldmibvc	r9, {r2, r4, r5, r7, r8, sl, fp, ip, pc}^
c2007f34:	44ea7843 	strbtmi	r7, [sl], #2115	; 0x843

c2007f38 <p05.0>:
c2007f38:	00000005 	andeq	r0, r0, r5
c2007f3c:	00000019 	andeq	r0, r0, r9, lsl r0
c2007f40:	0000007d 	andeq	r0, r0, sp, ror r0

c2007f44 <blanks.1>:
c2007f44:	20202020 	eorcs	r2, r0, r0, lsr #32
c2007f48:	20202020 	eorcs	r2, r0, r0, lsr #32
c2007f4c:	20202020 	eorcs	r2, r0, r0, lsr #32
c2007f50:	20202020 	eorcs	r2, r0, r0, lsr #32

c2007f54 <zeroes.0>:
c2007f54:	30303030 	eorscc	r3, r0, r0, lsr r0
c2007f58:	30303030 	eorscc	r3, r0, r0, lsr r0
c2007f5c:	30303030 	eorscc	r3, r0, r0, lsr r0
c2007f60:	30303030 	eorscc	r3, r0, r0, lsr r0
c2007f64:	7566202c 	strbvc	r2, [r6, #-44]!	; 0xffffffd4
c2007f68:	6974636e 	ldmdbvs	r4!, {r1, r2, r3, r5, r6, r8, r9, sp, lr}^
c2007f6c:	203a6e6f 	eorscs	r6, sl, pc, ror #28
c2007f70:	00000000 	andeq	r0, r0, r0
c2007f74:	65737361 	ldrbvs	r7, [r3, #-865]!	; 0xfffffc9f
c2007f78:	6f697472 	svcvs	0x00697472
c2007f7c:	2522206e 	strcs	r2, [r2, #-110]!	; 0xffffff92
c2007f80:	66202273 			; <UNDEFINED> instruction: 0x66202273
c2007f84:	656c6961 	strbvs	r6, [ip, #-2401]!	; 0xfffff69f
c2007f88:	66203a64 	strtvs	r3, [r0], -r4, ror #20
c2007f8c:	20656c69 	rsbcs	r6, r5, r9, ror #24
c2007f90:	22732522 	rsbscs	r2, r3, #142606336	; 0x8800000
c2007f94:	696c202c 	stmdbvs	ip!, {r2, r3, r5, sp}^
c2007f98:	2520656e 	strcs	r6, [r0, #-1390]!	; 0xfffffa92
c2007f9c:	25732564 	ldrbcs	r2, [r3, #-1380]!	; 0xfffffa9c
c2007fa0:	00000a73 	andeq	r0, r0, r3, ror sl
c2007fa4:	00000043 	andeq	r0, r0, r3, asr #32
c2007fa8:	49534f50 	ldmdbmi	r3, {r4, r6, r8, r9, sl, fp, lr}^
c2007fac:	00000058 	andeq	r0, r0, r8, asr r0
c2007fb0:	0000002e 	andeq	r0, r0, lr, lsr #32

c2007fb4 <_ctype_>:
c2007fb4:	20202000 	eorcs	r2, r0, r0
c2007fb8:	20202020 	eorcs	r2, r0, r0, lsr #32
c2007fbc:	28282020 	stmdacs	r8!, {r5, sp}
c2007fc0:	20282828 	eorcs	r2, r8, r8, lsr #16
c2007fc4:	20202020 	eorcs	r2, r0, r0, lsr #32
c2007fc8:	20202020 	eorcs	r2, r0, r0, lsr #32
c2007fcc:	20202020 	eorcs	r2, r0, r0, lsr #32
c2007fd0:	20202020 	eorcs	r2, r0, r0, lsr #32
c2007fd4:	10108820 	andsne	r8, r0, r0, lsr #16
c2007fd8:	10101010 	andsne	r1, r0, r0, lsl r0
c2007fdc:	10101010 	andsne	r1, r0, r0, lsl r0
c2007fe0:	10101010 	andsne	r1, r0, r0, lsl r0
c2007fe4:	04040410 	streq	r0, [r4], #-1040	; 0xfffffbf0
c2007fe8:	04040404 	streq	r0, [r4], #-1028	; 0xfffffbfc
c2007fec:	10040404 	andne	r0, r4, r4, lsl #8
c2007ff0:	10101010 	andsne	r1, r0, r0, lsl r0
c2007ff4:	41411010 	cmpmi	r1, r0, lsl r0
c2007ff8:	41414141 	cmpmi	r1, r1, asr #2
c2007ffc:	01010101 	tsteq	r1, r1, lsl #2
c2008000:	01010101 	tsteq	r1, r1, lsl #2
c2008004:	01010101 	tsteq	r1, r1, lsl #2
c2008008:	01010101 	tsteq	r1, r1, lsl #2
c200800c:	01010101 	tsteq	r1, r1, lsl #2
c2008010:	10101010 	andsne	r1, r0, r0, lsl r0
c2008014:	42421010 	submi	r1, r2, #16
c2008018:	42424242 	submi	r4, r2, #536870916	; 0x20000004
c200801c:	02020202 	andeq	r0, r2, #536870912	; 0x20000000
c2008020:	02020202 	andeq	r0, r2, #536870912	; 0x20000000
c2008024:	02020202 	andeq	r0, r2, #536870912	; 0x20000000
c2008028:	02020202 	andeq	r0, r2, #536870912	; 0x20000000
c200802c:	02020202 	andeq	r0, r2, #536870912	; 0x20000000
c2008030:	10101010 	andsne	r1, r0, r0, lsl r0
c2008034:	00000020 	andeq	r0, r0, r0, lsr #32
	...

Disassembly of section .ARM.exidx:

c20080b8 <.ARM.exidx>:
c20080b8:	7ffff91c 	svcvc	0x00fff91c
c20080bc:	00000001 	andeq	r0, r0, r1

Disassembly of section .data:

c20080c0 <_impure_ptr-0x40>:
	...

c2008100 <_impure_ptr>:
c2008100:	c2008108 	andgt	r8, r0, #8, 2
c2008104:	00000000 	andeq	r0, r0, r0

c2008108 <impure_data>:
c2008108:	00000000 	andeq	r0, r0, r0
c200810c:	c20083f4 	andgt	r8, r0, #244, 6	; 0xd0000003
c2008110:	c200845c 	andgt	r8, r0, #92, 8	; 0x5c000000
c2008114:	c20084c4 	andgt	r8, r0, #196, 8	; 0xc4000000
	...
c20081b0:	00000001 	andeq	r0, r0, r1
c20081b4:	00000000 	andeq	r0, r0, r0
c20081b8:	abcd330e 	blge	c1354df8 <SYS_MODE+0xc1354dd9>
c20081bc:	e66d1234 			; <UNDEFINED> instruction: 0xe66d1234
c20081c0:	0005deec 	andeq	sp, r5, ip, ror #29
c20081c4:	0000000b 	andeq	r0, r0, fp
	...

c2008530 <__malloc_av_>:
	...
c2008538:	c2008530 	andgt	r8, r0, #48, 10	; 0xc000000
c200853c:	c2008530 	andgt	r8, r0, #48, 10	; 0xc000000
c2008540:	c2008538 	andgt	r8, r0, #56, 10	; 0xe000000
c2008544:	c2008538 	andgt	r8, r0, #56, 10	; 0xe000000
c2008548:	c2008540 	andgt	r8, r0, #64, 10	; 0x10000000
c200854c:	c2008540 	andgt	r8, r0, #64, 10	; 0x10000000
c2008550:	c2008548 	andgt	r8, r0, #72, 10	; 0x12000000
c2008554:	c2008548 	andgt	r8, r0, #72, 10	; 0x12000000
c2008558:	c2008550 	andgt	r8, r0, #80, 10	; 0x14000000
c200855c:	c2008550 	andgt	r8, r0, #80, 10	; 0x14000000
c2008560:	c2008558 	andgt	r8, r0, #88, 10	; 0x16000000
c2008564:	c2008558 	andgt	r8, r0, #88, 10	; 0x16000000
c2008568:	c2008560 	andgt	r8, r0, #96, 10	; 0x18000000
c200856c:	c2008560 	andgt	r8, r0, #96, 10	; 0x18000000
c2008570:	c2008568 	andgt	r8, r0, #104, 10	; 0x1a000000
c2008574:	c2008568 	andgt	r8, r0, #104, 10	; 0x1a000000
c2008578:	c2008570 	andgt	r8, r0, #112, 10	; 0x1c000000
c200857c:	c2008570 	andgt	r8, r0, #112, 10	; 0x1c000000
c2008580:	c2008578 	andgt	r8, r0, #120, 10	; 0x1e000000
c2008584:	c2008578 	andgt	r8, r0, #120, 10	; 0x1e000000
c2008588:	c2008580 	andgt	r8, r0, #128, 10	; 0x20000000
c200858c:	c2008580 	andgt	r8, r0, #128, 10	; 0x20000000
c2008590:	c2008588 	andgt	r8, r0, #136, 10	; 0x22000000
c2008594:	c2008588 	andgt	r8, r0, #136, 10	; 0x22000000
c2008598:	c2008590 	andgt	r8, r0, #144, 10	; 0x24000000
c200859c:	c2008590 	andgt	r8, r0, #144, 10	; 0x24000000
c20085a0:	c2008598 	andgt	r8, r0, #152, 10	; 0x26000000
c20085a4:	c2008598 	andgt	r8, r0, #152, 10	; 0x26000000
c20085a8:	c20085a0 	andgt	r8, r0, #160, 10	; 0x28000000
c20085ac:	c20085a0 	andgt	r8, r0, #160, 10	; 0x28000000
c20085b0:	c20085a8 	andgt	r8, r0, #168, 10	; 0x2a000000
c20085b4:	c20085a8 	andgt	r8, r0, #168, 10	; 0x2a000000
c20085b8:	c20085b0 	andgt	r8, r0, #176, 10	; 0x2c000000
c20085bc:	c20085b0 	andgt	r8, r0, #176, 10	; 0x2c000000
c20085c0:	c20085b8 	andgt	r8, r0, #184, 10	; 0x2e000000
c20085c4:	c20085b8 	andgt	r8, r0, #184, 10	; 0x2e000000
c20085c8:	c20085c0 	andgt	r8, r0, #192, 10	; 0x30000000
c20085cc:	c20085c0 	andgt	r8, r0, #192, 10	; 0x30000000
c20085d0:	c20085c8 	andgt	r8, r0, #200, 10	; 0x32000000
c20085d4:	c20085c8 	andgt	r8, r0, #200, 10	; 0x32000000
c20085d8:	c20085d0 	andgt	r8, r0, #208, 10	; 0x34000000
c20085dc:	c20085d0 	andgt	r8, r0, #208, 10	; 0x34000000
c20085e0:	c20085d8 	andgt	r8, r0, #216, 10	; 0x36000000
c20085e4:	c20085d8 	andgt	r8, r0, #216, 10	; 0x36000000
c20085e8:	c20085e0 	andgt	r8, r0, #224, 10	; 0x38000000
c20085ec:	c20085e0 	andgt	r8, r0, #224, 10	; 0x38000000
c20085f0:	c20085e8 	andgt	r8, r0, #232, 10	; 0x3a000000
c20085f4:	c20085e8 	andgt	r8, r0, #232, 10	; 0x3a000000
c20085f8:	c20085f0 	andgt	r8, r0, #240, 10	; 0x3c000000
c20085fc:	c20085f0 	andgt	r8, r0, #240, 10	; 0x3c000000
c2008600:	c20085f8 	andgt	r8, r0, #248, 10	; 0x3e000000
c2008604:	c20085f8 	andgt	r8, r0, #248, 10	; 0x3e000000
c2008608:	c2008600 	andgt	r8, r0, #0, 12
c200860c:	c2008600 	andgt	r8, r0, #0, 12
c2008610:	c2008608 	andgt	r8, r0, #8, 12	; 0x800000
c2008614:	c2008608 	andgt	r8, r0, #8, 12	; 0x800000
c2008618:	c2008610 	andgt	r8, r0, #16, 12	; 0x1000000
c200861c:	c2008610 	andgt	r8, r0, #16, 12	; 0x1000000
c2008620:	c2008618 	andgt	r8, r0, #24, 12	; 0x1800000
c2008624:	c2008618 	andgt	r8, r0, #24, 12	; 0x1800000
c2008628:	c2008620 	andgt	r8, r0, #32, 12	; 0x2000000
c200862c:	c2008620 	andgt	r8, r0, #32, 12	; 0x2000000
c2008630:	c2008628 	andgt	r8, r0, #40, 12	; 0x2800000
c2008634:	c2008628 	andgt	r8, r0, #40, 12	; 0x2800000
c2008638:	c2008630 	andgt	r8, r0, #48, 12	; 0x3000000
c200863c:	c2008630 	andgt	r8, r0, #48, 12	; 0x3000000
c2008640:	c2008638 	andgt	r8, r0, #56, 12	; 0x3800000
c2008644:	c2008638 	andgt	r8, r0, #56, 12	; 0x3800000
c2008648:	c2008640 	andgt	r8, r0, #64, 12	; 0x4000000
c200864c:	c2008640 	andgt	r8, r0, #64, 12	; 0x4000000
c2008650:	c2008648 	andgt	r8, r0, #72, 12	; 0x4800000
c2008654:	c2008648 	andgt	r8, r0, #72, 12	; 0x4800000
c2008658:	c2008650 	andgt	r8, r0, #80, 12	; 0x5000000
c200865c:	c2008650 	andgt	r8, r0, #80, 12	; 0x5000000
c2008660:	c2008658 	andgt	r8, r0, #88, 12	; 0x5800000
c2008664:	c2008658 	andgt	r8, r0, #88, 12	; 0x5800000
c2008668:	c2008660 	andgt	r8, r0, #96, 12	; 0x6000000
c200866c:	c2008660 	andgt	r8, r0, #96, 12	; 0x6000000
c2008670:	c2008668 	andgt	r8, r0, #104, 12	; 0x6800000
c2008674:	c2008668 	andgt	r8, r0, #104, 12	; 0x6800000
c2008678:	c2008670 	andgt	r8, r0, #112, 12	; 0x7000000
c200867c:	c2008670 	andgt	r8, r0, #112, 12	; 0x7000000
c2008680:	c2008678 	andgt	r8, r0, #120, 12	; 0x7800000
c2008684:	c2008678 	andgt	r8, r0, #120, 12	; 0x7800000
c2008688:	c2008680 	andgt	r8, r0, #128, 12	; 0x8000000
c200868c:	c2008680 	andgt	r8, r0, #128, 12	; 0x8000000
c2008690:	c2008688 	andgt	r8, r0, #136, 12	; 0x8800000
c2008694:	c2008688 	andgt	r8, r0, #136, 12	; 0x8800000
c2008698:	c2008690 	andgt	r8, r0, #144, 12	; 0x9000000
c200869c:	c2008690 	andgt	r8, r0, #144, 12	; 0x9000000
c20086a0:	c2008698 	andgt	r8, r0, #152, 12	; 0x9800000
c20086a4:	c2008698 	andgt	r8, r0, #152, 12	; 0x9800000
c20086a8:	c20086a0 	andgt	r8, r0, #160, 12	; 0xa000000
c20086ac:	c20086a0 	andgt	r8, r0, #160, 12	; 0xa000000
c20086b0:	c20086a8 	andgt	r8, r0, #168, 12	; 0xa800000
c20086b4:	c20086a8 	andgt	r8, r0, #168, 12	; 0xa800000
c20086b8:	c20086b0 	andgt	r8, r0, #176, 12	; 0xb000000
c20086bc:	c20086b0 	andgt	r8, r0, #176, 12	; 0xb000000
c20086c0:	c20086b8 	andgt	r8, r0, #184, 12	; 0xb800000
c20086c4:	c20086b8 	andgt	r8, r0, #184, 12	; 0xb800000
c20086c8:	c20086c0 	andgt	r8, r0, #192, 12	; 0xc000000
c20086cc:	c20086c0 	andgt	r8, r0, #192, 12	; 0xc000000
c20086d0:	c20086c8 	andgt	r8, r0, #200, 12	; 0xc800000
c20086d4:	c20086c8 	andgt	r8, r0, #200, 12	; 0xc800000
c20086d8:	c20086d0 	andgt	r8, r0, #208, 12	; 0xd000000
c20086dc:	c20086d0 	andgt	r8, r0, #208, 12	; 0xd000000
c20086e0:	c20086d8 	andgt	r8, r0, #216, 12	; 0xd800000
c20086e4:	c20086d8 	andgt	r8, r0, #216, 12	; 0xd800000
c20086e8:	c20086e0 	andgt	r8, r0, #224, 12	; 0xe000000
c20086ec:	c20086e0 	andgt	r8, r0, #224, 12	; 0xe000000
c20086f0:	c20086e8 	andgt	r8, r0, #232, 12	; 0xe800000
c20086f4:	c20086e8 	andgt	r8, r0, #232, 12	; 0xe800000
c20086f8:	c20086f0 	andgt	r8, r0, #240, 12	; 0xf000000
c20086fc:	c20086f0 	andgt	r8, r0, #240, 12	; 0xf000000
c2008700:	c20086f8 	andgt	r8, r0, #248, 12	; 0xf800000
c2008704:	c20086f8 	andgt	r8, r0, #248, 12	; 0xf800000
c2008708:	c2008700 	andgt	r8, r0, #0, 14
c200870c:	c2008700 	andgt	r8, r0, #0, 14
c2008710:	c2008708 	andgt	r8, r0, #8, 14	; 0x200000
c2008714:	c2008708 	andgt	r8, r0, #8, 14	; 0x200000
c2008718:	c2008710 	andgt	r8, r0, #16, 14	; 0x400000
c200871c:	c2008710 	andgt	r8, r0, #16, 14	; 0x400000
c2008720:	c2008718 	andgt	r8, r0, #24, 14	; 0x600000
c2008724:	c2008718 	andgt	r8, r0, #24, 14	; 0x600000
c2008728:	c2008720 	andgt	r8, r0, #32, 14	; 0x800000
c200872c:	c2008720 	andgt	r8, r0, #32, 14	; 0x800000
c2008730:	c2008728 	andgt	r8, r0, #40, 14	; 0xa00000
c2008734:	c2008728 	andgt	r8, r0, #40, 14	; 0xa00000
c2008738:	c2008730 	andgt	r8, r0, #48, 14	; 0xc00000
c200873c:	c2008730 	andgt	r8, r0, #48, 14	; 0xc00000
c2008740:	c2008738 	andgt	r8, r0, #56, 14	; 0xe00000
c2008744:	c2008738 	andgt	r8, r0, #56, 14	; 0xe00000
c2008748:	c2008740 	andgt	r8, r0, #64, 14	; 0x1000000
c200874c:	c2008740 	andgt	r8, r0, #64, 14	; 0x1000000
c2008750:	c2008748 	andgt	r8, r0, #72, 14	; 0x1200000
c2008754:	c2008748 	andgt	r8, r0, #72, 14	; 0x1200000
c2008758:	c2008750 	andgt	r8, r0, #80, 14	; 0x1400000
c200875c:	c2008750 	andgt	r8, r0, #80, 14	; 0x1400000
c2008760:	c2008758 	andgt	r8, r0, #88, 14	; 0x1600000
c2008764:	c2008758 	andgt	r8, r0, #88, 14	; 0x1600000
c2008768:	c2008760 	andgt	r8, r0, #96, 14	; 0x1800000
c200876c:	c2008760 	andgt	r8, r0, #96, 14	; 0x1800000
c2008770:	c2008768 	andgt	r8, r0, #104, 14	; 0x1a00000
c2008774:	c2008768 	andgt	r8, r0, #104, 14	; 0x1a00000
c2008778:	c2008770 	andgt	r8, r0, #112, 14	; 0x1c00000
c200877c:	c2008770 	andgt	r8, r0, #112, 14	; 0x1c00000
c2008780:	c2008778 	andgt	r8, r0, #120, 14	; 0x1e00000
c2008784:	c2008778 	andgt	r8, r0, #120, 14	; 0x1e00000
c2008788:	c2008780 	andgt	r8, r0, #128, 14	; 0x2000000
c200878c:	c2008780 	andgt	r8, r0, #128, 14	; 0x2000000
c2008790:	c2008788 	andgt	r8, r0, #136, 14	; 0x2200000
c2008794:	c2008788 	andgt	r8, r0, #136, 14	; 0x2200000
c2008798:	c2008790 	andgt	r8, r0, #144, 14	; 0x2400000
c200879c:	c2008790 	andgt	r8, r0, #144, 14	; 0x2400000
c20087a0:	c2008798 	andgt	r8, r0, #152, 14	; 0x2600000
c20087a4:	c2008798 	andgt	r8, r0, #152, 14	; 0x2600000
c20087a8:	c20087a0 	andgt	r8, r0, #160, 14	; 0x2800000
c20087ac:	c20087a0 	andgt	r8, r0, #160, 14	; 0x2800000
c20087b0:	c20087a8 	andgt	r8, r0, #168, 14	; 0x2a00000
c20087b4:	c20087a8 	andgt	r8, r0, #168, 14	; 0x2a00000
c20087b8:	c20087b0 	andgt	r8, r0, #176, 14	; 0x2c00000
c20087bc:	c20087b0 	andgt	r8, r0, #176, 14	; 0x2c00000
c20087c0:	c20087b8 	andgt	r8, r0, #184, 14	; 0x2e00000
c20087c4:	c20087b8 	andgt	r8, r0, #184, 14	; 0x2e00000
c20087c8:	c20087c0 	andgt	r8, r0, #192, 14	; 0x3000000
c20087cc:	c20087c0 	andgt	r8, r0, #192, 14	; 0x3000000
c20087d0:	c20087c8 	andgt	r8, r0, #200, 14	; 0x3200000
c20087d4:	c20087c8 	andgt	r8, r0, #200, 14	; 0x3200000
c20087d8:	c20087d0 	andgt	r8, r0, #208, 14	; 0x3400000
c20087dc:	c20087d0 	andgt	r8, r0, #208, 14	; 0x3400000
c20087e0:	c20087d8 	andgt	r8, r0, #216, 14	; 0x3600000
c20087e4:	c20087d8 	andgt	r8, r0, #216, 14	; 0x3600000
c20087e8:	c20087e0 	andgt	r8, r0, #224, 14	; 0x3800000
c20087ec:	c20087e0 	andgt	r8, r0, #224, 14	; 0x3800000
c20087f0:	c20087e8 	andgt	r8, r0, #232, 14	; 0x3a00000
c20087f4:	c20087e8 	andgt	r8, r0, #232, 14	; 0x3a00000
c20087f8:	c20087f0 	andgt	r8, r0, #240, 14	; 0x3c00000
c20087fc:	c20087f0 	andgt	r8, r0, #240, 14	; 0x3c00000
c2008800:	c20087f8 	andgt	r8, r0, #248, 14	; 0x3e00000
c2008804:	c20087f8 	andgt	r8, r0, #248, 14	; 0x3e00000
c2008808:	c2008800 	andgt	r8, r0, #0, 16
c200880c:	c2008800 	andgt	r8, r0, #0, 16
c2008810:	c2008808 	andgt	r8, r0, #8, 16	; 0x80000
c2008814:	c2008808 	andgt	r8, r0, #8, 16	; 0x80000
c2008818:	c2008810 	andgt	r8, r0, #16, 16	; 0x100000
c200881c:	c2008810 	andgt	r8, r0, #16, 16	; 0x100000
c2008820:	c2008818 	andgt	r8, r0, #24, 16	; 0x180000
c2008824:	c2008818 	andgt	r8, r0, #24, 16	; 0x180000
c2008828:	c2008820 	andgt	r8, r0, #32, 16	; 0x200000
c200882c:	c2008820 	andgt	r8, r0, #32, 16	; 0x200000
c2008830:	c2008828 	andgt	r8, r0, #40, 16	; 0x280000
c2008834:	c2008828 	andgt	r8, r0, #40, 16	; 0x280000
c2008838:	c2008830 	andgt	r8, r0, #48, 16	; 0x300000
c200883c:	c2008830 	andgt	r8, r0, #48, 16	; 0x300000
c2008840:	c2008838 	andgt	r8, r0, #56, 16	; 0x380000
c2008844:	c2008838 	andgt	r8, r0, #56, 16	; 0x380000
c2008848:	c2008840 	andgt	r8, r0, #64, 16	; 0x400000
c200884c:	c2008840 	andgt	r8, r0, #64, 16	; 0x400000
c2008850:	c2008848 	andgt	r8, r0, #72, 16	; 0x480000
c2008854:	c2008848 	andgt	r8, r0, #72, 16	; 0x480000
c2008858:	c2008850 	andgt	r8, r0, #80, 16	; 0x500000
c200885c:	c2008850 	andgt	r8, r0, #80, 16	; 0x500000
c2008860:	c2008858 	andgt	r8, r0, #88, 16	; 0x580000
c2008864:	c2008858 	andgt	r8, r0, #88, 16	; 0x580000
c2008868:	c2008860 	andgt	r8, r0, #96, 16	; 0x600000
c200886c:	c2008860 	andgt	r8, r0, #96, 16	; 0x600000
c2008870:	c2008868 	andgt	r8, r0, #104, 16	; 0x680000
c2008874:	c2008868 	andgt	r8, r0, #104, 16	; 0x680000
c2008878:	c2008870 	andgt	r8, r0, #112, 16	; 0x700000
c200887c:	c2008870 	andgt	r8, r0, #112, 16	; 0x700000
c2008880:	c2008878 	andgt	r8, r0, #120, 16	; 0x780000
c2008884:	c2008878 	andgt	r8, r0, #120, 16	; 0x780000
c2008888:	c2008880 	andgt	r8, r0, #128, 16	; 0x800000
c200888c:	c2008880 	andgt	r8, r0, #128, 16	; 0x800000
c2008890:	c2008888 	andgt	r8, r0, #136, 16	; 0x880000
c2008894:	c2008888 	andgt	r8, r0, #136, 16	; 0x880000
c2008898:	c2008890 	andgt	r8, r0, #144, 16	; 0x900000
c200889c:	c2008890 	andgt	r8, r0, #144, 16	; 0x900000
c20088a0:	c2008898 	andgt	r8, r0, #152, 16	; 0x980000
c20088a4:	c2008898 	andgt	r8, r0, #152, 16	; 0x980000
c20088a8:	c20088a0 	andgt	r8, r0, #160, 16	; 0xa00000
c20088ac:	c20088a0 	andgt	r8, r0, #160, 16	; 0xa00000
c20088b0:	c20088a8 	andgt	r8, r0, #168, 16	; 0xa80000
c20088b4:	c20088a8 	andgt	r8, r0, #168, 16	; 0xa80000
c20088b8:	c20088b0 	andgt	r8, r0, #176, 16	; 0xb00000
c20088bc:	c20088b0 	andgt	r8, r0, #176, 16	; 0xb00000
c20088c0:	c20088b8 	andgt	r8, r0, #184, 16	; 0xb80000
c20088c4:	c20088b8 	andgt	r8, r0, #184, 16	; 0xb80000
c20088c8:	c20088c0 	andgt	r8, r0, #192, 16	; 0xc00000
c20088cc:	c20088c0 	andgt	r8, r0, #192, 16	; 0xc00000
c20088d0:	c20088c8 	andgt	r8, r0, #200, 16	; 0xc80000
c20088d4:	c20088c8 	andgt	r8, r0, #200, 16	; 0xc80000
c20088d8:	c20088d0 	andgt	r8, r0, #208, 16	; 0xd00000
c20088dc:	c20088d0 	andgt	r8, r0, #208, 16	; 0xd00000
c20088e0:	c20088d8 	andgt	r8, r0, #216, 16	; 0xd80000
c20088e4:	c20088d8 	andgt	r8, r0, #216, 16	; 0xd80000
c20088e8:	c20088e0 	andgt	r8, r0, #224, 16	; 0xe00000
c20088ec:	c20088e0 	andgt	r8, r0, #224, 16	; 0xe00000
c20088f0:	c20088e8 	andgt	r8, r0, #232, 16	; 0xe80000
c20088f4:	c20088e8 	andgt	r8, r0, #232, 16	; 0xe80000
c20088f8:	c20088f0 	andgt	r8, r0, #240, 16	; 0xf00000
c20088fc:	c20088f0 	andgt	r8, r0, #240, 16	; 0xf00000
c2008900:	c20088f8 	andgt	r8, r0, #248, 16	; 0xf80000
c2008904:	c20088f8 	andgt	r8, r0, #248, 16	; 0xf80000
c2008908:	c2008900 	andgt	r8, r0, #0, 18
c200890c:	c2008900 	andgt	r8, r0, #0, 18
c2008910:	c2008908 	andgt	r8, r0, #8, 18	; 0x20000
c2008914:	c2008908 	andgt	r8, r0, #8, 18	; 0x20000
c2008918:	c2008910 	andgt	r8, r0, #16, 18	; 0x40000
c200891c:	c2008910 	andgt	r8, r0, #16, 18	; 0x40000
c2008920:	c2008918 	andgt	r8, r0, #24, 18	; 0x60000
c2008924:	c2008918 	andgt	r8, r0, #24, 18	; 0x60000
c2008928:	c2008920 	andgt	r8, r0, #32, 18	; 0x80000
c200892c:	c2008920 	andgt	r8, r0, #32, 18	; 0x80000
c2008930:	c2008928 	andgt	r8, r0, #40, 18	; 0xa0000
c2008934:	c2008928 	andgt	r8, r0, #40, 18	; 0xa0000

c2008938 <__malloc_sbrk_base>:
c2008938:	ffffffff 			; <UNDEFINED> instruction: 0xffffffff

c200893c <__malloc_trim_threshold>:
c200893c:	00020000 	andeq	r0, r2, r0

c2008940 <__global_locale>:
c2008940:	00000043 	andeq	r0, r0, r3, asr #32
	...
c2008960:	00000043 	andeq	r0, r0, r3, asr #32
	...
c2008980:	00000043 	andeq	r0, r0, r3, asr #32
	...
c20089a0:	00000043 	andeq	r0, r0, r3, asr #32
	...
c20089c0:	00000043 	andeq	r0, r0, r3, asr #32
	...
c20089e0:	00000043 	andeq	r0, r0, r3, asr #32
	...
c2008a00:	00000043 	andeq	r0, r0, r3, asr #32
	...
c2008a20:	c20073bd 	andgt	r7, r0, #-201326590	; 0xf4000002
c2008a24:	c2006d79 	andgt	r6, r0, #7744	; 0x1e40
c2008a28:	00000000 	andeq	r0, r0, r0
c2008a2c:	c2007fb4 	andgt	r7, r0, #180, 30	; 0x2d0
c2008a30:	c2007fb0 	andgt	r7, r0, #176, 30	; 0x2c0
c2008a34:	c2007f70 	andgt	r7, r0, #112, 30	; 0x1c0
c2008a38:	c2007f70 	andgt	r7, r0, #112, 30	; 0x1c0
c2008a3c:	c2007f70 	andgt	r7, r0, #112, 30	; 0x1c0
c2008a40:	c2007f70 	andgt	r7, r0, #112, 30	; 0x1c0
c2008a44:	c2007f70 	andgt	r7, r0, #112, 30	; 0x1c0
c2008a48:	c2007f70 	andgt	r7, r0, #112, 30	; 0x1c0
c2008a4c:	c2007f70 	andgt	r7, r0, #112, 30	; 0x1c0
c2008a50:	c2007f70 	andgt	r7, r0, #112, 30	; 0x1c0
c2008a54:	c2007f70 	andgt	r7, r0, #112, 30	; 0x1c0
c2008a58:	ffffffff 			; <UNDEFINED> instruction: 0xffffffff
c2008a5c:	ffffffff 			; <UNDEFINED> instruction: 0xffffffff
c2008a60:	ffffffff 			; <UNDEFINED> instruction: 0xffffffff
c2008a64:	0000ffff 	strdeq	pc, [r0], -pc	; <UNPREDICTABLE>
c2008a68:	53410001 	movtpl	r0, #4097	; 0x1001
c2008a6c:	00494943 	subeq	r4, r9, r3, asr #18
	...
c2008a88:	53410000 	movtpl	r0, #4096	; 0x1000
c2008a8c:	00494943 	subeq	r4, r9, r3, asr #18
	...

Disassembly of section .bss:

c2008ab0 <arch_cur_tick-0x50>:
	...

c2008b00 <arch_cur_tick>:
	...

c2008b08 <arch_irq_handler_array>:
	...

c2008f08 <__lock___malloc_recursive_mutex>:
c2008f08:	00000000 	andeq	r0, r0, r0

c2008f0c <__lock___sfp_recursive_mutex>:
c2008f0c:	00000000 	andeq	r0, r0, r0

c2008f10 <__lock___sinit_recursive_mutex>:
c2008f10:	00000000 	andeq	r0, r0, r0

c2008f14 <__malloc_current_mallinfo>:
	...

c2008f3c <__malloc_max_sbrked_mem>:
c2008f3c:	00000000 	andeq	r0, r0, r0

c2008f40 <__malloc_max_total_mem>:
c2008f40:	00000000 	andeq	r0, r0, r0

c2008f44 <__malloc_top_pad>:
c2008f44:	00000000 	andeq	r0, r0, r0

c2008f48 <errno>:
c2008f48:	00000000 	andeq	r0, r0, r0

c2008f4c <heap_end.0>:
	...

Disassembly of section .stack:

c2009000 <_stack_end-0x4000>:
	...

Disassembly of section .ARM.attributes:

00000000 <.ARM.attributes>:
   0:	00002e41 	andeq	r2, r0, r1, asr #28
   4:	61656100 	cmnvs	r5, r0, lsl #2
   8:	01006962 	tsteq	r0, r2, ror #18
   c:	00000024 	andeq	r0, r0, r4, lsr #32
  10:	412d3705 			; <UNDEFINED> instruction: 0x412d3705
  14:	070a0600 	streq	r0, [sl, -r0, lsl #12]
  18:	09010841 	stmdbeq	r1, {r0, r6, fp}
  1c:	12040a02 	andne	r0, r4, #8192	; 0x2000
  20:	15011404 	strne	r1, [r1, #-1028]	; 0xfffffbfc
  24:	18031701 	stmdane	r3, {r0, r8, r9, sl, ip}
  28:	1c011a01 			; <UNDEFINED> instruction: 0x1c011a01
  2c:	Address 0x000000000000002c is out of bounds.


Disassembly of section .comment:

00000000 <.comment>:
   0:	3a434347 	bcc	10d0d24 <SYS_MODE+0x10d0d05>
   4:	4e472820 	cdpmi	8, 4, cr2, cr7, cr0, {1}
   8:	72412055 	subvc	r2, r1, #85	; 0x55
   c:	6d45206d 	stclvs	0, cr2, [r5, #-436]	; 0xfffffe4c
  10:	64646562 	strbtvs	r6, [r4], #-1378	; 0xfffffa9e
  14:	54206465 	strtpl	r6, [r0], #-1125	; 0xfffffb9b
  18:	636c6f6f 	cmnvs	ip, #444	; 0x1bc
  1c:	6e696168 	powvsez	f6, f1, #0.0
  20:	2e303120 	rsfcssp	f3, f0, f0
  24:	30322d33 	eorscc	r2, r2, r3, lsr sp
  28:	302e3132 	eorcc	r3, lr, r2, lsr r1
  2c:	31202937 			; <UNDEFINED> instruction: 0x31202937
  30:	2e332e30 	mrccs	14, 1, r2, cr3, cr0, {1}
  34:	30322031 	eorscc	r2, r2, r1, lsr r0
  38:	36303132 			; <UNDEFINED> instruction: 0x36303132
  3c:	28203132 	stmdacs	r0!, {r1, r4, r5, r8, ip, sp}
  40:	656c6572 	strbvs	r6, [ip, #-1394]!	; 0xfffffa8e
  44:	29657361 	stmdbcs	r5!, {r0, r5, r6, r8, r9, ip, sp, lr}^
	...

Disassembly of section .debug_line:

00000000 <.debug_line>:
       0:	00000098 	muleq	r0, r8, r0
       4:	00660003 	rsbeq	r0, r6, r3
       8:	01020000 	mrseq	r0, (UNDEF: 2)
       c:	000d0efb 	strdeq	r0, [sp], -fp
      10:	01010101 	tsteq	r1, r1, lsl #2
      14:	01000000 	mrseq	r0, (UNDEF: 0)
      18:	2f010000 	svccs	0x00010000
      1c:	656d6f68 	strbvs	r6, [sp, #-3944]!	; 0xfffff098
      20:	6c7a632f 	ldclvs	3, cr6, [sl], #-188	; 0xffffff44
      24:	2f786d69 	svccs	0x00786d69
      28:	65646f63 	strbvs	r6, [r4, #-3939]!	; 0xfffff09d
      2c:	63617073 	cmnvs	r1, #115	; 0x73
      30:	61622f65 	cmnvs	r2, r5, ror #30
      34:	656d6572 	strbvs	r6, [sp, #-1394]!	; 0xfffffa8e
      38:	5f6c6174 	svcpl	0x006c6174
      3c:	5f726f66 	svcpl	0x00726f66
      40:	72612f63 	rsbvc	r2, r1, #396	; 0x18c
      44:	612f6863 			; <UNDEFINED> instruction: 0x612f6863
      48:	37766d72 			; <UNDEFINED> instruction: 0x37766d72
      4c:	732f612d 			; <UNDEFINED> instruction: 0x732f612d
      50:	00006372 	andeq	r6, r0, r2, ror r3
      54:	68637261 	stmdavs	r3!, {r0, r5, r6, r9, ip, sp, lr}^
      58:	6172625f 	cmnvs	r2, pc, asr r2
      5c:	5f68636e 	svcpl	0x0068636e
      60:	64657270 	strbtvs	r7, [r5], #-624	; 0xfffffd90
      64:	6f746369 	svcvs	0x00746369
      68:	00732e72 	rsbseq	r2, r3, r2, ror lr
      6c:	00000001 	andeq	r0, r0, r1
      70:	f4020500 	vst3.8	{d0,d2,d4}, [r2], r0
      74:	03c20000 	biceq	r0, r2, #0
      78:	2f2f010d 	svccs	0x002f010d
      7c:	2f2f342f 	svccs	0x002f342f
      80:	2f2f342f 	svccs	0x002f342f
      84:	2f2f3036 	svccs	0x002f3036
      88:	2f2f2f2f 	svccs	0x002f2f2f
      8c:	2f2f302f 	svccs	0x002f302f
      90:	2f2f2f30 	svccs	0x002f2f30
      94:	022f2f30 	eoreq	r2, pc, #48, 30	; 0xc0
      98:	01010002 	tsteq	r1, r2
      9c:	0000013f 	andeq	r0, r0, pc, lsr r1
      a0:	005b0003 	subseq	r0, fp, r3
      a4:	01020000 	mrseq	r0, (UNDEF: 2)
      a8:	000d0efb 	strdeq	r0, [sp], -fp
      ac:	01010101 	tsteq	r1, r1, lsl #2
      b0:	01000000 	mrseq	r0, (UNDEF: 0)
      b4:	2f010000 	svccs	0x00010000
      b8:	656d6f68 	strbvs	r6, [sp, #-3944]!	; 0xfffff098
      bc:	6c7a632f 	ldclvs	3, cr6, [sl], #-188	; 0xffffff44
      c0:	2f786d69 	svccs	0x00786d69
      c4:	65646f63 	strbvs	r6, [r4, #-3939]!	; 0xfffff09d
      c8:	63617073 	cmnvs	r1, #115	; 0x73
      cc:	61622f65 	cmnvs	r2, r5, ror #30
      d0:	656d6572 	strbvs	r6, [sp, #-1394]!	; 0xfffffa8e
      d4:	5f6c6174 	svcpl	0x006c6174
      d8:	5f726f66 	svcpl	0x00726f66
      dc:	72612f63 	rsbvc	r2, r1, #396	; 0x18c
      e0:	612f6863 			; <UNDEFINED> instruction: 0x612f6863
      e4:	37766d72 			; <UNDEFINED> instruction: 0x37766d72
      e8:	732f612d 			; <UNDEFINED> instruction: 0x732f612d
      ec:	00006372 	andeq	r6, r0, r2, ror r3
      f0:	68637261 	stmdavs	r3!, {r0, r5, r6, r9, ip, sp, lr}^
      f4:	6361635f 	cmnvs	r1, #2080374785	; 0x7c000001
      f8:	732e6568 			; <UNDEFINED> instruction: 0x732e6568
      fc:	00000100 	andeq	r0, r0, r0, lsl #2
     100:	02050000 	andeq	r0, r5, #0
     104:	c200016c 	andgt	r0, r0, #108, 2
     108:	2f011803 	svccs	0x00011803
     10c:	2f342f2f 	svccs	0x00342f2f
     110:	2f342f2f 	svccs	0x00342f2f
     114:	2f342f2f 	svccs	0x00342f2f
     118:	2f342f2f 	svccs	0x00342f2f
     11c:	2f30362f 	svccs	0x0030362f
     120:	2f2f2f2f 	svccs	0x002f2f2f
     124:	2f302f2f 	svccs	0x00302f2f
     128:	2f2f302f 	svccs	0x002f302f
     12c:	2f2f302f 	svccs	0x002f302f
     130:	2f302f34 	svccs	0x00302f34
     134:	312f2f2f 			; <UNDEFINED> instruction: 0x312f2f2f
     138:	2f2f2f2f 	svccs	0x002f2f2f
     13c:	2f2f2f30 	svccs	0x002f2f30
     140:	2f2f2f2f 	svccs	0x002f2f2f
     144:	312f312f 			; <UNDEFINED> instruction: 0x312f312f
     148:	2f2f2f2f 	svccs	0x002f2f2f
     14c:	2f312f2f 	svccs	0x00312f2f
     150:	2f312f2f 	svccs	0x00312f2f
     154:	2f302f34 	svccs	0x00302f34
     158:	312f2f2f 			; <UNDEFINED> instruction: 0x312f2f2f
     15c:	2f2f2f2f 	svccs	0x002f2f2f
     160:	2f2f2f30 	svccs	0x002f2f30
     164:	2f2f2f2f 	svccs	0x002f2f2f
     168:	312f312f 			; <UNDEFINED> instruction: 0x312f312f
     16c:	2f2f2f2f 	svccs	0x002f2f2f
     170:	2f312f2f 	svccs	0x00312f2f
     174:	2f312f2f 	svccs	0x00312f2f
     178:	2f302f34 	svccs	0x00302f34
     17c:	312f2f2f 			; <UNDEFINED> instruction: 0x312f2f2f
     180:	2f2f2f2f 	svccs	0x002f2f2f
     184:	2f2f2f30 	svccs	0x002f2f30
     188:	2f2f2f2f 	svccs	0x002f2f2f
     18c:	312f312f 			; <UNDEFINED> instruction: 0x312f312f
     190:	2f2f2f2f 	svccs	0x002f2f2f
     194:	2f312f2f 	svccs	0x00312f2f
     198:	2f312f2f 	svccs	0x00312f2f
     19c:	2f2f3036 	svccs	0x002f3036
     1a0:	2f2f2f2f 	svccs	0x002f2f2f
     1a4:	2f2f302f 	svccs	0x002f302f
     1a8:	2f2f2f30 	svccs	0x002f2f30
     1ac:	362f2f30 	qasxcc	r2, pc, r0	; <UNPREDICTABLE>
     1b0:	2f2f2f30 	svccs	0x002f2f30
     1b4:	2f2f2f2f 	svccs	0x002f2f2f
     1b8:	302f2f30 	eorcc	r2, pc, r0, lsr pc	; <UNPREDICTABLE>
     1bc:	302f2f2f 	eorcc	r2, pc, pc, lsr #30
     1c0:	30362f2f 	eorscc	r2, r6, pc, lsr #30
     1c4:	2f2f2f2f 	svccs	0x002f2f2f
     1c8:	302f2f2f 	eorcc	r2, pc, pc, lsr #30
     1cc:	2f302f2f 	svccs	0x00302f2f
     1d0:	2f302f2f 	svccs	0x00302f2f
     1d4:	7ea2032f 	cdpvc	3, 10, cr0, cr2, cr15, {1}
     1d8:	0202342e 	andeq	r3, r2, #771751936	; 0x2e000000
     1dc:	94010100 	strls	r0, [r1], #-256	; 0xffffff00
     1e0:	03000002 	movweq	r0, #2
     1e4:	00017600 	andeq	r7, r1, r0, lsl #12
     1e8:	fb010200 	blx	409f2 <SYS_MODE+0x409d3>
     1ec:	01000d0e 	tsteq	r0, lr, lsl #26
     1f0:	00010101 	andeq	r0, r1, r1, lsl #2
     1f4:	00010000 	andeq	r0, r1, r0
     1f8:	682f0100 	stmdavs	pc!, {r8}	; <UNPREDICTABLE>
     1fc:	2f656d6f 	svccs	0x00656d6f
     200:	696c7a63 	stmdbvs	ip!, {r0, r1, r5, r6, r9, fp, ip, sp, lr}^
     204:	632f786d 			; <UNDEFINED> instruction: 0x632f786d
     208:	7365646f 	cmnvc	r5, #1862270976	; 0x6f000000
     20c:	65636170 	strbvs	r6, [r3, #-368]!	; 0xfffffe90
     210:	7261622f 	rsbvc	r6, r1, #-268435454	; 0xf0000002
     214:	74656d65 	strbtvc	r6, [r5], #-3429	; 0xfffff29b
     218:	665f6c61 	ldrbvs	r6, [pc], -r1, ror #24
     21c:	635f726f 	cmpvs	pc, #-268435450	; 0xf0000006
     220:	6372612f 	cmnvs	r2, #-1073741813	; 0xc000000b
     224:	72612f68 	rsbvc	r2, r1, #104, 30	; 0x1a0
     228:	2d37766d 	ldccs	6, cr7, [r7, #-436]!	; 0xfffffe4c
     22c:	72732f61 	rsbsvc	r2, r3, #388	; 0x184
     230:	682f0063 	stmdavs	pc!, {r0, r1, r5, r6}	; <UNPREDICTABLE>
     234:	2f656d6f 	svccs	0x00656d6f
     238:	696c7a63 	stmdbvs	ip!, {r0, r1, r5, r6, r9, fp, ip, sp, lr}^
     23c:	2e2f786d 	cdpcs	8, 2, cr7, cr15, cr13, {3}
     240:	61636f6c 	cmnvs	r3, ip, ror #30
     244:	69622f6c 	stmdbvs	r2!, {r2, r3, r5, r6, r8, r9, sl, fp, sp}^
     248:	72612f6e 	rsbvc	r2, r1, #440	; 0x1b8
     24c:	63672d6d 	cmnvs	r7, #6976	; 0x1b40
     250:	63672f63 	cmnvs	r7, #396	; 0x18c
     254:	72612d63 	rsbvc	r2, r1, #6336	; 0x18c0
     258:	6f6e2d6d 	svcvs	0x006e2d6d
     25c:	652d656e 	strvs	r6, [sp, #-1390]!	; 0xfffffa92
     260:	2d696261 	sfmcs	f6, 2, [r9, #-388]!	; 0xfffffe7c
     264:	332e3031 			; <UNDEFINED> instruction: 0x332e3031
     268:	3230322d 	eorscc	r3, r0, #-805306366	; 0xd0000002
     26c:	37302e31 			; <UNDEFINED> instruction: 0x37302e31
     270:	6d72612f 	ldfvse	f6, [r2, #-188]!	; 0xffffff44
     274:	6e6f6e2d 	cdpvs	14, 6, cr6, cr15, cr13, {1}
     278:	61652d65 	cmnvs	r5, r5, ror #26
     27c:	692f6962 	stmdbvs	pc!, {r1, r5, r6, r8, fp, sp, lr}	; <UNPREDICTABLE>
     280:	756c636e 	strbvc	r6, [ip, #-878]!	; 0xfffffc92
     284:	6d2f6564 	cfstr32vs	mvfx6, [pc, #-400]!	; fc <SYS_MODE+0xdd>
     288:	69686361 	stmdbvs	r8!, {r0, r5, r6, r8, r9, sp, lr}^
     28c:	2f00656e 	svccs	0x0000656e
     290:	656d6f68 	strbvs	r6, [sp, #-3944]!	; 0xfffff098
     294:	6c7a632f 	ldclvs	3, cr6, [sl], #-188	; 0xffffff44
     298:	2f786d69 	svccs	0x00786d69
     29c:	636f6c2e 	cmnvs	pc, #11776	; 0x2e00
     2a0:	622f6c61 	eorvs	r6, pc, #24832	; 0x6100
     2a4:	612f6e69 			; <UNDEFINED> instruction: 0x612f6e69
     2a8:	672d6d72 			; <UNDEFINED> instruction: 0x672d6d72
     2ac:	672f6363 	strvs	r6, [pc, -r3, ror #6]!
     2b0:	612d6363 			; <UNDEFINED> instruction: 0x612d6363
     2b4:	6e2d6d72 	mcrvs	13, 1, r6, cr13, cr2, {3}
     2b8:	2d656e6f 	stclcs	14, cr6, [r5, #-444]!	; 0xfffffe44
     2bc:	69626165 	stmdbvs	r2!, {r0, r2, r5, r6, r8, sp, lr}^
     2c0:	2e30312d 	rsfcssp	f3, f0, #5.0
     2c4:	30322d33 	eorscc	r2, r2, r3, lsr sp
     2c8:	302e3132 	eorcc	r3, lr, r2, lsr r1
     2cc:	72612f37 	rsbvc	r2, r1, #55, 30	; 0xdc
     2d0:	6f6e2d6d 	svcvs	0x006e2d6d
     2d4:	652d656e 	strvs	r6, [sp, #-1390]!	; 0xfffffa92
     2d8:	2f696261 	svccs	0x00696261
     2dc:	6c636e69 	stclvs	14, cr6, [r3], #-420	; 0xfffffe5c
     2e0:	2f656475 	svccs	0x00656475
     2e4:	00737973 	rsbseq	r7, r3, r3, ror r9
     2e8:	6d6f682f 	stclvs	8, cr6, [pc, #-188]!	; 234 <SYS_MODE+0x215>
     2ec:	7a632f65 	bvc	18cc088 <SYS_MODE+0x18cc069>
     2f0:	786d696c 	stmdavc	sp!, {r2, r3, r5, r6, r8, fp, sp, lr}^
     2f4:	646f632f 	strbtvs	r6, [pc], #-815	; 2fc <SYS_MODE+0x2dd>
     2f8:	61707365 	cmnvs	r0, r5, ror #6
     2fc:	622f6563 	eorvs	r6, pc, #415236096	; 0x18c00000
     300:	6d657261 	sfmvs	f7, 2, [r5, #-388]!	; 0xfffffe7c
     304:	6c617465 	cfstrdvs	mvd7, [r1], #-404	; 0xfffffe6c
     308:	726f665f 	rsbvc	r6, pc, #99614720	; 0x5f00000
     30c:	612f635f 			; <UNDEFINED> instruction: 0x612f635f
     310:	2f686372 	svccs	0x00686372
     314:	766d7261 	strbtvc	r7, [sp], -r1, ror #4
     318:	2f612d37 	svccs	0x00612d37
     31c:	00636e69 	rsbeq	r6, r3, r9, ror #28
     320:	63726100 	cmnvs	r2, #0, 2
     324:	70635f68 	rsbvc	r5, r3, r8, ror #30
     328:	00632e75 	rsbeq	r2, r3, r5, ror lr
     32c:	5f000001 	svcpl	0x00000001
     330:	61666564 	cmnvs	r6, r4, ror #10
     334:	5f746c75 	svcpl	0x00746c75
     338:	65707974 	ldrbvs	r7, [r0, #-2420]!	; 0xfffff68c
     33c:	00682e73 	rsbeq	r2, r8, r3, ror lr
     340:	5f000002 	svcpl	0x00000002
     344:	69647473 	stmdbvs	r4!, {r0, r1, r4, r5, r6, sl, ip, sp, lr}^
     348:	682e746e 	stmdavs	lr!, {r1, r2, r3, r5, r6, sl, ip, sp, lr}
     34c:	00000300 	andeq	r0, r0, r0, lsl #6
     350:	68637261 	stmdavs	r3!, {r0, r5, r6, r9, ip, sp, lr}^
     354:	756d705f 	strbvc	r7, [sp, #-95]!	; 0xffffffa1
     358:	0400682e 	streq	r6, [r0], #-2094	; 0xfffff7d2
     35c:	05000000 	streq	r0, [r0, #-0]
     360:	02050001 	andeq	r0, r5, #1
     364:	c20006e0 	andgt	r0, r0, #224, 12	; 0xe000000
     368:	05010b03 	streq	r0, [r1, #-2819]	; 0xfffff4fd
     36c:	01051305 	tsteq	r5, r5, lsl #6
     370:	02026c06 	andeq	r6, r2, #1536	; 0x600
     374:	05010100 	streq	r0, [r1, #-256]	; 0xffffff00
     378:	02050001 	andeq	r0, r5, #1
     37c:	00000000 	andeq	r0, r0, r0
     380:	05011903 	streq	r1, [r1, #-2307]	; 0xfffff6fd
     384:	2f131305 	svccs	0x00131305
     388:	13060105 	movwne	r0, #24837	; 0x6105
     38c:	01000202 	tsteq	r0, r2, lsl #4
     390:	00010501 	andeq	r0, r1, r1, lsl #10
     394:	00000205 	andeq	r0, r0, r5, lsl #4
     398:	24030000 	strcs	r0, [r3], #-0
     39c:	05010601 	streq	r0, [r1, #-1537]	; 0xfffff9ff
     3a0:	05670605 	strbeq	r0, [r7, #-1541]!	; 0xfffff9fb
     3a4:	05010617 	streq	r0, [r1, #-1559]	; 0xfffff9e9
     3a8:	32054a23 	andcc	r4, r5, #143360	; 0x23000
     3ac:	0605052e 	streq	r0, [r5], -lr, lsr #10
     3b0:	06110530 			; <UNDEFINED> instruction: 0x06110530
     3b4:	2e0f0501 	cfsh32cs	mvfx0, mvfx15, #1
     3b8:	2f060505 	svccs	0x00060505
     3bc:	01061805 	tsteq	r6, r5, lsl #16
     3c0:	05660c05 	strbeq	r0, [r6, #-3077]!	; 0xfffff3fb
     3c4:	05300605 	ldreq	r0, [r0, #-1541]!	; 0xfffff9fb
     3c8:	05010610 	streq	r0, [r1, #-1552]	; 0xfffff9f0
     3cc:	09054a08 	stmdbeq	r5, {r3, r9, fp, lr}
     3d0:	02040200 	andeq	r0, r4, #0, 4
     3d4:	0d054d06 	stceq	13, cr4, [r5, #-24]	; 0xffffffe8
     3d8:	02040200 	andeq	r0, r4, #0, 4
     3dc:	001b0514 	andseq	r0, fp, r4, lsl r5
     3e0:	06020402 	streq	r0, [r2], -r2, lsl #8
     3e4:	00190501 	andseq	r0, r9, r1, lsl #10
     3e8:	2e020402 	cdpcs	4, 0, cr0, cr2, cr2, {0}
     3ec:	02001105 	andeq	r1, r0, #1073741825	; 0x40000001
     3f0:	2f060204 	svccs	0x00060204
     3f4:	02001f05 	andeq	r1, r0, #5, 30
     3f8:	01060204 	tsteq	r6, r4, lsl #4
     3fc:	02000905 	andeq	r0, r0, #81920	; 0x14000
     400:	054a0204 	strbeq	r0, [sl, #-516]	; 0xfffffdfc
     404:	04020039 	streq	r0, [r2], #-57	; 0xffffffc7
     408:	29054a01 	stmdbcs	r5, {r0, r9, fp, lr}
     40c:	01040200 	mrseq	r0, R12_usr
     410:	0009054a 	andeq	r0, r9, sl, asr #10
     414:	06030402 	streq	r0, [r3], -r2, lsl #8
     418:	000d056b 	andeq	r0, sp, fp, ror #10
     41c:	14030402 	strne	r0, [r3], #-1026	; 0xfffffbfe
     420:	02001b05 	andeq	r1, r0, #5120	; 0x1400
     424:	01060304 	tsteq	r6, r4, lsl #6
     428:	02001905 	andeq	r1, r0, #81920	; 0x14000
     42c:	052e0304 	streq	r0, [lr, #-772]!	; 0xfffffcfc
     430:	04020011 	streq	r0, [r2], #-17	; 0xffffffef
     434:	052f0603 	streq	r0, [pc, #-1539]!	; fffffe39 <__HeapLimit+0x3dff2e39>
     438:	0402001f 	streq	r0, [r2], #-31	; 0xffffffe1
     43c:	05010603 	streq	r0, [r1, #-1539]	; 0xfffff9fd
     440:	04020009 	streq	r0, [r2], #-9
     444:	3c054a03 			; <UNDEFINED> instruction: 0x3c054a03
     448:	02040200 	andeq	r0, r4, #0, 4
     44c:	002c054a 	eoreq	r0, ip, sl, asr #10
     450:	4a020402 	bmi	81460 <SYS_MODE+0x81441>
     454:	4a4c0105 	bmi	1300870 <SYS_MODE+0x1300851>
     458:	05010100 	streq	r0, [r1, #-256]	; 0xffffff00
     45c:	02050001 	andeq	r0, r5, #1
     460:	c20006f0 	andgt	r0, r0, #240, 12	; 0xf000000
     464:	0100c003 	tsteq	r0, r3
     468:	05130505 	ldreq	r0, [r3, #-1285]	; 0xfffffafb
     46c:	05010612 	streq	r0, [r1, #-1554]	; 0xfffff9ee
     470:	0202f401 	andeq	pc, r2, #16777216	; 0x1000000
     474:	79010100 	stmdbvc	r1, {r8}
     478:	03000000 	movweq	r0, #0
     47c:	00005f00 	andeq	r5, r0, r0, lsl #30
     480:	fb010200 	blx	40c8a <SYS_MODE+0x40c6b>
     484:	01000d0e 	tsteq	r0, lr, lsl #26
     488:	00010101 	andeq	r0, r1, r1, lsl #2
     48c:	00010000 	andeq	r0, r1, r0
     490:	682f0100 	stmdavs	pc!, {r8}	; <UNPREDICTABLE>
     494:	2f656d6f 	svccs	0x00656d6f
     498:	696c7a63 	stmdbvs	ip!, {r0, r1, r5, r6, r9, fp, ip, sp, lr}^
     49c:	632f786d 			; <UNDEFINED> instruction: 0x632f786d
     4a0:	7365646f 	cmnvc	r5, #1862270976	; 0x6f000000
     4a4:	65636170 	strbvs	r6, [r3, #-368]!	; 0xfffffe90
     4a8:	7261622f 	rsbvc	r6, r1, #-268435454	; 0xf0000002
     4ac:	74656d65 	strbtvc	r6, [r5], #-3429	; 0xfffff29b
     4b0:	665f6c61 	ldrbvs	r6, [pc], -r1, ror #24
     4b4:	635f726f 	cmpvs	pc, #-268435450	; 0xf0000006
     4b8:	6372612f 	cmnvs	r2, #-1073741813	; 0xc000000b
     4bc:	72612f68 	rsbvc	r2, r1, #104, 30	; 0x1a0
     4c0:	2d37766d 	ldccs	6, cr7, [r7, #-436]!	; 0xfffffe4c
     4c4:	72732f61 	rsbsvc	r2, r3, #388	; 0x184
     4c8:	61000063 	tstvs	r0, r3, rrx
     4cc:	5f686372 	svcpl	0x00686372
     4d0:	65637865 	strbvs	r7, [r3, #-2149]!	; 0xfffff79b
     4d4:	6f697470 	svcvs	0x00697470
     4d8:	00732e6e 	rsbseq	r2, r3, lr, ror #28
     4dc:	00000001 	andeq	r0, r0, r1
     4e0:	a0020500 	andge	r0, r2, r0, lsl #10
     4e4:	03c20004 	biceq	r0, r2, #4
     4e8:	3534010b 	ldrcc	r0, [r4, #-267]!	; 0xfffffef5
     4ec:	02313031 	eorseq	r3, r1, #49	; 0x31
     4f0:	01010002 	tsteq	r1, r2
     4f4:	0000007e 	andeq	r0, r0, lr, ror r0
     4f8:	00590003 	subseq	r0, r9, r3
     4fc:	01020000 	mrseq	r0, (UNDEF: 2)
     500:	000d0efb 	strdeq	r0, [sp], -fp
     504:	01010101 	tsteq	r1, r1, lsl #2
     508:	01000000 	mrseq	r0, (UNDEF: 0)
     50c:	2f010000 	svccs	0x00010000
     510:	656d6f68 	strbvs	r6, [sp, #-3944]!	; 0xfffff098
     514:	6c7a632f 	ldclvs	3, cr6, [sl], #-188	; 0xffffff44
     518:	2f786d69 	svccs	0x00786d69
     51c:	65646f63 	strbvs	r6, [r4, #-3939]!	; 0xfffff09d
     520:	63617073 	cmnvs	r1, #115	; 0x73
     524:	61622f65 	cmnvs	r2, r5, ror #30
     528:	656d6572 	strbvs	r6, [sp, #-1394]!	; 0xfffffa8e
     52c:	5f6c6174 	svcpl	0x006c6174
     530:	5f726f66 	svcpl	0x00726f66
     534:	72612f63 	rsbvc	r2, r1, #396	; 0x18c
     538:	612f6863 			; <UNDEFINED> instruction: 0x612f6863
     53c:	37766d72 			; <UNDEFINED> instruction: 0x37766d72
     540:	732f612d 			; <UNDEFINED> instruction: 0x732f612d
     544:	00006372 	andeq	r6, r0, r2, ror r3
     548:	68637261 	stmdavs	r3!, {r0, r5, r6, r9, ip, sp, lr}^
     54c:	7570665f 	ldrbvc	r6, [r0, #-1631]!	; 0xfffff9a1
     550:	0100732e 	tsteq	r0, lr, lsr #6
     554:	00000000 	andeq	r0, r0, r0
     558:	04b80205 	ldrteq	r0, [r8], #517	; 0x205
     55c:	0e03c200 	cdpeq	2, 0, cr12, cr3, cr0, {0}
     560:	312f2f01 			; <UNDEFINED> instruction: 0x312f2f01
     564:	2f312f2f 	svccs	0x00312f2f
     568:	2f35302f 	svccs	0x0035302f
     56c:	2f2f312f 	svccs	0x002f312f
     570:	00020230 	andeq	r0, r2, r0, lsr r2
     574:	02d00101 	sbcseq	r0, r0, #1073741824	; 0x40000000
     578:	00030000 	andeq	r0, r3, r0
     57c:	00000299 	muleq	r0, r9, r2
     580:	0efb0102 	cdpeq	1, 15, cr0, cr11, cr2, {0}
     584:	0101000d 	tsteq	r1, sp
     588:	00000101 	andeq	r0, r0, r1, lsl #2
     58c:	00000100 	andeq	r0, r0, r0, lsl #2
     590:	6f682f01 	svcvs	0x00682f01
     594:	632f656d 			; <UNDEFINED> instruction: 0x632f656d
     598:	6d696c7a 	stclvs	12, cr6, [r9, #-488]!	; 0xfffffe18
     59c:	6f632f78 	svcvs	0x00632f78
     5a0:	70736564 	rsbsvc	r6, r3, r4, ror #10
     5a4:	2f656361 	svccs	0x00656361
     5a8:	65726162 	ldrbvs	r6, [r2, #-354]!	; 0xfffffe9e
     5ac:	6174656d 	cmnvs	r4, sp, ror #10
     5b0:	6f665f6c 	svcvs	0x00665f6c
     5b4:	2f635f72 	svccs	0x00635f72
     5b8:	68637261 	stmdavs	r3!, {r0, r5, r6, r9, ip, sp, lr}^
     5bc:	6d72612f 	ldfvse	f6, [r2, #-188]!	; 0xffffff44
     5c0:	612d3776 			; <UNDEFINED> instruction: 0x612d3776
     5c4:	6372732f 	cmnvs	r2, #-1140850688	; 0xbc000000
     5c8:	6f682f00 	svcvs	0x00682f00
     5cc:	632f656d 			; <UNDEFINED> instruction: 0x632f656d
     5d0:	6d696c7a 	stclvs	12, cr6, [r9, #-488]!	; 0xfffffe18
     5d4:	6c2e2f78 	stcvs	15, cr2, [lr], #-480	; 0xfffffe20
     5d8:	6c61636f 	stclvs	3, cr6, [r1], #-444	; 0xfffffe44
     5dc:	6e69622f 	cdpvs	2, 6, cr6, cr9, cr15, {1}
     5e0:	6d72612f 	ldfvse	f6, [r2, #-188]!	; 0xffffff44
     5e4:	6363672d 	cmnvs	r3, #11796480	; 0xb40000
     5e8:	6363672f 	cmnvs	r3, #12320768	; 0xbc0000
     5ec:	6d72612d 	ldfvse	f6, [r2, #-180]!	; 0xffffff4c
     5f0:	6e6f6e2d 	cdpvs	14, 6, cr6, cr15, cr13, {1}
     5f4:	61652d65 	cmnvs	r5, r5, ror #26
     5f8:	312d6962 			; <UNDEFINED> instruction: 0x312d6962
     5fc:	2d332e30 	ldccs	14, cr2, [r3, #-192]!	; 0xffffff40
     600:	31323032 	teqcc	r2, r2, lsr r0
     604:	2f37302e 	svccs	0x0037302e
     608:	2d6d7261 	sfmcs	f7, 2, [sp, #-388]!	; 0xfffffe7c
     60c:	656e6f6e 	strbvs	r6, [lr, #-3950]!	; 0xfffff092
     610:	6261652d 	rsbvs	r6, r1, #188743680	; 0xb400000
     614:	6e692f69 	cdpvs	15, 6, cr2, cr9, cr9, {3}
     618:	64756c63 	ldrbtvs	r6, [r5], #-3171	; 0xfffff39d
     61c:	616d2f65 	cmnvs	sp, r5, ror #30
     620:	6e696863 	cdpvs	8, 6, cr6, cr9, cr3, {3}
     624:	682f0065 	stmdavs	pc!, {r0, r2, r5, r6}	; <UNPREDICTABLE>
     628:	2f656d6f 	svccs	0x00656d6f
     62c:	696c7a63 	stmdbvs	ip!, {r0, r1, r5, r6, r9, fp, ip, sp, lr}^
     630:	2e2f786d 	cdpcs	8, 2, cr7, cr15, cr13, {3}
     634:	61636f6c 	cmnvs	r3, ip, ror #30
     638:	69622f6c 	stmdbvs	r2!, {r2, r3, r5, r6, r8, r9, sl, fp, sp}^
     63c:	72612f6e 	rsbvc	r2, r1, #440	; 0x1b8
     640:	63672d6d 	cmnvs	r7, #6976	; 0x1b40
     644:	63672f63 	cmnvs	r7, #396	; 0x18c
     648:	72612d63 	rsbvc	r2, r1, #6336	; 0x18c0
     64c:	6f6e2d6d 	svcvs	0x006e2d6d
     650:	652d656e 	strvs	r6, [sp, #-1390]!	; 0xfffffa92
     654:	2d696261 	sfmcs	f6, 2, [r9, #-388]!	; 0xfffffe7c
     658:	332e3031 			; <UNDEFINED> instruction: 0x332e3031
     65c:	3230322d 	eorscc	r3, r0, #-805306366	; 0xd0000002
     660:	37302e31 			; <UNDEFINED> instruction: 0x37302e31
     664:	6d72612f 	ldfvse	f6, [r2, #-188]!	; 0xffffff44
     668:	6e6f6e2d 	cdpvs	14, 6, cr6, cr15, cr13, {1}
     66c:	61652d65 	cmnvs	r5, r5, ror #26
     670:	692f6962 	stmdbvs	pc!, {r1, r5, r6, r8, fp, sp, lr}	; <UNPREDICTABLE>
     674:	756c636e 	strbvc	r6, [ip, #-878]!	; 0xfffffc92
     678:	732f6564 			; <UNDEFINED> instruction: 0x732f6564
     67c:	2f007379 	svccs	0x00007379
     680:	656d6f68 	strbvs	r6, [sp, #-3944]!	; 0xfffff098
     684:	6c7a632f 	ldclvs	3, cr6, [sl], #-188	; 0xffffff44
     688:	2f786d69 	svccs	0x00786d69
     68c:	636f6c2e 	cmnvs	pc, #11776	; 0x2e00
     690:	622f6c61 	eorvs	r6, pc, #24832	; 0x6100
     694:	612f6e69 			; <UNDEFINED> instruction: 0x612f6e69
     698:	672d6d72 			; <UNDEFINED> instruction: 0x672d6d72
     69c:	672f6363 	strvs	r6, [pc, -r3, ror #6]!
     6a0:	612d6363 			; <UNDEFINED> instruction: 0x612d6363
     6a4:	6e2d6d72 	mcrvs	13, 1, r6, cr13, cr2, {3}
     6a8:	2d656e6f 	stclcs	14, cr6, [r5, #-444]!	; 0xfffffe44
     6ac:	69626165 	stmdbvs	r2!, {r0, r2, r5, r6, r8, sp, lr}^
     6b0:	2e30312d 	rsfcssp	f3, f0, #5.0
     6b4:	30322d33 	eorscc	r2, r2, r3, lsr sp
     6b8:	302e3132 	eorcc	r3, lr, r2, lsr r1
     6bc:	72612f37 	rsbvc	r2, r1, #55, 30	; 0xdc
     6c0:	6f6e2d6d 	svcvs	0x006e2d6d
     6c4:	652d656e 	strvs	r6, [sp, #-1390]!	; 0xfffffa92
     6c8:	2f696261 	svccs	0x00696261
     6cc:	6c636e69 	stclvs	14, cr6, [r3], #-420	; 0xfffffe5c
     6d0:	00656475 	rsbeq	r6, r5, r5, ror r4
     6d4:	6d6f682f 	stclvs	8, cr6, [pc, #-188]!	; 620 <SYS_MODE+0x601>
     6d8:	7a632f65 	bvc	18cc474 <SYS_MODE+0x18cc455>
     6dc:	786d696c 	stmdavc	sp!, {r2, r3, r5, r6, r8, fp, sp, lr}^
     6e0:	646f632f 	strbtvs	r6, [pc], #-815	; 6e8 <SYS_MODE+0x6c9>
     6e4:	61707365 	cmnvs	r0, r5, ror #6
     6e8:	622f6563 	eorvs	r6, pc, #415236096	; 0x18c00000
     6ec:	6d657261 	sfmvs	f7, 2, [r5, #-388]!	; 0xfffffe7c
     6f0:	6c617465 	cfstrdvs	mvd7, [r1], #-404	; 0xfffffe6c
     6f4:	726f665f 	rsbvc	r6, pc, #99614720	; 0x5f00000
     6f8:	622f635f 	eorvs	r6, pc, #2080374785	; 0x7c000001
     6fc:	6472616f 	ldrbtvs	r6, [r2], #-367	; 0xfffffe91
     700:	336d612f 	cmncc	sp, #-1073741813	; 0xc000000b
     704:	2f383533 	svccs	0x00383533
     708:	72797274 	rsbsvc	r7, r9, #116, 4	; 0x40000007
     70c:	2f736f74 	svccs	0x00736f74
     710:	00636e69 	rsbeq	r6, r3, r9, ror #28
     714:	6d6f682f 	stclvs	8, cr6, [pc, #-188]!	; 660 <SYS_MODE+0x641>
     718:	7a632f65 	bvc	18cc4b4 <SYS_MODE+0x18cc495>
     71c:	786d696c 	stmdavc	sp!, {r2, r3, r5, r6, r8, fp, sp, lr}^
     720:	646f632f 	strbtvs	r6, [pc], #-815	; 728 <SYS_MODE+0x709>
     724:	61707365 	cmnvs	r0, r5, ror #6
     728:	622f6563 	eorvs	r6, pc, #415236096	; 0x18c00000
     72c:	6d657261 	sfmvs	f7, 2, [r5, #-388]!	; 0xfffffe7c
     730:	6c617465 	cfstrdvs	mvd7, [r1], #-404	; 0xfffffe6c
     734:	726f665f 	rsbvc	r6, pc, #99614720	; 0x5f00000
     738:	612f635f 			; <UNDEFINED> instruction: 0x612f635f
     73c:	2f686372 	svccs	0x00686372
     740:	766d7261 	strbtvc	r7, [sp], -r1, ror #4
     744:	2f612d37 	svccs	0x00612d37
     748:	00636e69 	rsbeq	r6, r3, r9, ror #28
     74c:	63726100 	cmnvs	r2, #0, 2
     750:	6e695f68 	cdpvs	15, 6, cr5, cr9, cr8, {3}
     754:	632e7469 			; <UNDEFINED> instruction: 0x632e7469
     758:	00000100 	andeq	r0, r0, r0, lsl #2
     75c:	6665645f 			; <UNDEFINED> instruction: 0x6665645f
     760:	746c7561 	strbtvc	r7, [ip], #-1377	; 0xfffffa9f
     764:	7079745f 	rsbsvc	r7, r9, pc, asr r4
     768:	682e7365 	stmdavs	lr!, {r0, r2, r5, r6, r8, r9, ip, sp, lr}
     76c:	00000200 	andeq	r0, r0, r0, lsl #4
     770:	6474735f 	ldrbtvs	r7, [r4], #-863	; 0xfffffca1
     774:	2e746e69 	cdpcs	14, 7, cr6, cr4, cr9, {3}
     778:	00030068 	andeq	r0, r3, r8, rrx
     77c:	72747300 	rsbsvc	r7, r4, #0, 6
     780:	2e676e69 	cdpcs	14, 6, cr6, cr7, cr9, {3}
     784:	00040068 	andeq	r0, r4, r8, rrx
     788:	616f6200 	cmnvs	pc, r0, lsl #4
     78c:	695f6472 	ldmdbvs	pc, {r1, r4, r5, r6, sl, sp, lr}^	; <UNPREDICTABLE>
     790:	2e74696e 	vsubcs.f16	s13, s8, s29	; <UNPREDICTABLE>
     794:	00050068 	andeq	r0, r5, r8, rrx
     798:	63726100 	cmnvs	r2, #0, 2
     79c:	6c745f68 	ldclvs	15, cr5, [r4], #-416	; 0xfffffe60
     7a0:	00682e62 	rsbeq	r2, r8, r2, ror #28
     7a4:	61000006 	tstvs	r0, r6
     7a8:	5f686372 	svcpl	0x00686372
     7ac:	2e756d6d 	cdpcs	13, 7, cr6, cr5, cr13, {3}
     7b0:	00060068 	andeq	r0, r6, r8, rrx
     7b4:	63726100 	cmnvs	r2, #0, 2
     7b8:	61635f68 	cmnvs	r3, r8, ror #30
     7bc:	2e656863 	cdpcs	8, 6, cr6, cr5, cr3, {3}
     7c0:	00060068 	andeq	r0, r6, r8, rrx
     7c4:	63726100 	cmnvs	r2, #0, 2
     7c8:	72625f68 	rsbvc	r5, r2, #104, 30	; 0x1a0
     7cc:	68636e61 	stmdavs	r3!, {r0, r5, r6, r9, sl, fp, sp, lr}^
     7d0:	6572705f 	ldrbvs	r7, [r2, #-95]!	; 0xffffffa1
     7d4:	74636964 	strbtvc	r6, [r3], #-2404	; 0xfffff69c
     7d8:	682e726f 	stmdavs	lr!, {r0, r1, r2, r3, r5, r6, r9, ip, sp, lr}
     7dc:	00000600 	andeq	r0, r0, r0, lsl #12
     7e0:	68637261 	stmdavs	r3!, {r0, r5, r6, r9, ip, sp, lr}^
     7e4:	7570635f 	ldrbvc	r6, [r0, #-863]!	; 0xfffffca1
     7e8:	0600682e 	streq	r6, [r0], -lr, lsr #16
     7ec:	72610000 	rsbvc	r0, r1, #0
     7f0:	695f6863 	ldmdbvs	pc, {r0, r1, r5, r6, fp, sp, lr}^	; <UNPREDICTABLE>
     7f4:	682e7172 	stmdavs	lr!, {r1, r4, r5, r6, r8, ip, sp, lr}
     7f8:	00000600 	andeq	r0, r0, r0, lsl #12
     7fc:	68637261 	stmdavs	r3!, {r0, r5, r6, r9, ip, sp, lr}^
     800:	756d705f 	strbvc	r7, [sp, #-95]!	; 0xffffffa1
     804:	0600682e 	streq	r6, [r0], -lr, lsr #16
     808:	72610000 	rsbvc	r0, r1, #0
     80c:	665f6863 	ldrbvs	r6, [pc], -r3, ror #16
     810:	682e7570 	stmdavs	lr!, {r4, r5, r6, r8, sl, ip, sp, lr}
     814:	00000600 	andeq	r0, r0, r0, lsl #12
     818:	00010500 	andeq	r0, r1, r0, lsl #10
     81c:	07140205 	ldreq	r0, [r4, -r5, lsl #4]
     820:	1403c200 	strne	ip, [r3], #-512	; 0xfffffe00
     824:	30050501 	andcc	r0, r5, r1, lsl #10
     828:	01062d05 	tsteq	r6, r5, lsl #26
     82c:	069e0505 	ldreq	r0, [lr], r5, lsl #10
     830:	31313169 	teqcc	r1, r9, ror #2
     834:	312f312f 			; <UNDEFINED> instruction: 0x312f312f
     838:	3131312f 	teqcc	r1, pc, lsr #2
     83c:	312f2f31 			; <UNDEFINED> instruction: 0x312f2f31
     840:	06010531 			; <UNDEFINED> instruction: 0x06010531
     844:	0002022f 	andeq	r0, r2, pc, lsr #4
     848:	02c30101 	sbceq	r0, r3, #1073741824	; 0x40000000
     84c:	00030000 	andeq	r0, r3, r0
     850:	000001be 			; <UNDEFINED> instruction: 0x000001be
     854:	0efb0102 	cdpeq	1, 15, cr0, cr11, cr2, {0}
     858:	0101000d 	tsteq	r1, sp
     85c:	00000101 	andeq	r0, r0, r1, lsl #2
     860:	00000100 	andeq	r0, r0, r0, lsl #2
     864:	6f682f01 	svcvs	0x00682f01
     868:	632f656d 			; <UNDEFINED> instruction: 0x632f656d
     86c:	6d696c7a 	stclvs	12, cr6, [r9, #-488]!	; 0xfffffe18
     870:	6f632f78 	svcvs	0x00632f78
     874:	70736564 	rsbsvc	r6, r3, r4, ror #10
     878:	2f656361 	svccs	0x00656361
     87c:	65726162 	ldrbvs	r6, [r2, #-354]!	; 0xfffffe9e
     880:	6174656d 	cmnvs	r4, sp, ror #10
     884:	6f665f6c 	svcvs	0x00665f6c
     888:	2f635f72 	svccs	0x00635f72
     88c:	68637261 	stmdavs	r3!, {r0, r5, r6, r9, ip, sp, lr}^
     890:	6d72612f 	ldfvse	f6, [r2, #-188]!	; 0xffffff44
     894:	612d3776 			; <UNDEFINED> instruction: 0x612d3776
     898:	6372732f 	cmnvs	r2, #-1140850688	; 0xbc000000
     89c:	6f682f00 	svcvs	0x00682f00
     8a0:	632f656d 			; <UNDEFINED> instruction: 0x632f656d
     8a4:	6d696c7a 	stclvs	12, cr6, [r9, #-488]!	; 0xfffffe18
     8a8:	6c2e2f78 	stcvs	15, cr2, [lr], #-480	; 0xfffffe20
     8ac:	6c61636f 	stclvs	3, cr6, [r1], #-444	; 0xfffffe44
     8b0:	6e69622f 	cdpvs	2, 6, cr6, cr9, cr15, {1}
     8b4:	6d72612f 	ldfvse	f6, [r2, #-188]!	; 0xffffff44
     8b8:	6363672d 	cmnvs	r3, #11796480	; 0xb40000
     8bc:	6363672f 	cmnvs	r3, #12320768	; 0xbc0000
     8c0:	6d72612d 	ldfvse	f6, [r2, #-180]!	; 0xffffff4c
     8c4:	6e6f6e2d 	cdpvs	14, 6, cr6, cr15, cr13, {1}
     8c8:	61652d65 	cmnvs	r5, r5, ror #26
     8cc:	312d6962 			; <UNDEFINED> instruction: 0x312d6962
     8d0:	2d332e30 	ldccs	14, cr2, [r3, #-192]!	; 0xffffff40
     8d4:	31323032 	teqcc	r2, r2, lsr r0
     8d8:	2f37302e 	svccs	0x0037302e
     8dc:	2d6d7261 	sfmcs	f7, 2, [sp, #-388]!	; 0xfffffe7c
     8e0:	656e6f6e 	strbvs	r6, [lr, #-3950]!	; 0xfffff092
     8e4:	6261652d 	rsbvs	r6, r1, #188743680	; 0xb400000
     8e8:	6e692f69 	cdpvs	15, 6, cr2, cr9, cr9, {3}
     8ec:	64756c63 	ldrbtvs	r6, [r5], #-3171	; 0xfffff39d
     8f0:	616d2f65 	cmnvs	sp, r5, ror #30
     8f4:	6e696863 	cdpvs	8, 6, cr6, cr9, cr3, {3}
     8f8:	682f0065 	stmdavs	pc!, {r0, r2, r5, r6}	; <UNPREDICTABLE>
     8fc:	2f656d6f 	svccs	0x00656d6f
     900:	696c7a63 	stmdbvs	ip!, {r0, r1, r5, r6, r9, fp, ip, sp, lr}^
     904:	2e2f786d 	cdpcs	8, 2, cr7, cr15, cr13, {3}
     908:	61636f6c 	cmnvs	r3, ip, ror #30
     90c:	69622f6c 	stmdbvs	r2!, {r2, r3, r5, r6, r8, r9, sl, fp, sp}^
     910:	72612f6e 	rsbvc	r2, r1, #440	; 0x1b8
     914:	63672d6d 	cmnvs	r7, #6976	; 0x1b40
     918:	63672f63 	cmnvs	r7, #396	; 0x18c
     91c:	72612d63 	rsbvc	r2, r1, #6336	; 0x18c0
     920:	6f6e2d6d 	svcvs	0x006e2d6d
     924:	652d656e 	strvs	r6, [sp, #-1390]!	; 0xfffffa92
     928:	2d696261 	sfmcs	f6, 2, [r9, #-388]!	; 0xfffffe7c
     92c:	332e3031 			; <UNDEFINED> instruction: 0x332e3031
     930:	3230322d 	eorscc	r3, r0, #-805306366	; 0xd0000002
     934:	37302e31 			; <UNDEFINED> instruction: 0x37302e31
     938:	6d72612f 	ldfvse	f6, [r2, #-188]!	; 0xffffff44
     93c:	6e6f6e2d 	cdpvs	14, 6, cr6, cr15, cr13, {1}
     940:	61652d65 	cmnvs	r5, r5, ror #26
     944:	692f6962 	stmdbvs	pc!, {r1, r5, r6, r8, fp, sp, lr}	; <UNPREDICTABLE>
     948:	756c636e 	strbvc	r6, [ip, #-878]!	; 0xfffffc92
     94c:	732f6564 			; <UNDEFINED> instruction: 0x732f6564
     950:	2f007379 	svccs	0x00007379
     954:	656d6f68 	strbvs	r6, [sp, #-3944]!	; 0xfffff098
     958:	6c7a632f 	ldclvs	3, cr6, [sl], #-188	; 0xffffff44
     95c:	2f786d69 	svccs	0x00786d69
     960:	65646f63 	strbvs	r6, [r4, #-3939]!	; 0xfffff09d
     964:	63617073 	cmnvs	r1, #115	; 0x73
     968:	61622f65 	cmnvs	r2, r5, ror #30
     96c:	656d6572 	strbvs	r6, [sp, #-1394]!	; 0xfffffa8e
     970:	5f6c6174 	svcpl	0x006c6174
     974:	5f726f66 	svcpl	0x00726f66
     978:	72612f63 	rsbvc	r2, r1, #396	; 0x18c
     97c:	612f6863 			; <UNDEFINED> instruction: 0x612f6863
     980:	37766d72 			; <UNDEFINED> instruction: 0x37766d72
     984:	692f612d 	stmdbvs	pc!, {r0, r2, r3, r5, r8, sp, lr}	; <UNPREDICTABLE>
     988:	2f00636e 	svccs	0x0000636e
     98c:	656d6f68 	strbvs	r6, [sp, #-3944]!	; 0xfffff098
     990:	6c7a632f 	ldclvs	3, cr6, [sl], #-188	; 0xffffff44
     994:	2f786d69 	svccs	0x00786d69
     998:	65646f63 	strbvs	r6, [r4, #-3939]!	; 0xfffff09d
     99c:	63617073 	cmnvs	r1, #115	; 0x73
     9a0:	61622f65 	cmnvs	r2, r5, ror #30
     9a4:	656d6572 	strbvs	r6, [sp, #-1394]!	; 0xfffffa8e
     9a8:	5f6c6174 	svcpl	0x006c6174
     9ac:	5f726f66 	svcpl	0x00726f66
     9b0:	72642f63 	rsbvc	r2, r4, #396	; 0x18c
     9b4:	72657669 	rsbvc	r7, r5, #110100480	; 0x6900000
     9b8:	336d612f 	cmncc	sp, #-1073741813	; 0xc000000b
     9bc:	2f783533 	svccs	0x00783533
     9c0:	00636e69 	rsbeq	r6, r3, r9, ror #28
     9c4:	63726100 	cmnvs	r2, #0, 2
     9c8:	72695f68 	rsbvc	r5, r9, #104, 30	; 0x1a0
     9cc:	00632e71 	rsbeq	r2, r3, r1, ror lr
     9d0:	5f000001 	svcpl	0x00000001
     9d4:	61666564 	cmnvs	r6, r4, ror #10
     9d8:	5f746c75 	svcpl	0x00746c75
     9dc:	65707974 	ldrbvs	r7, [r0, #-2420]!	; 0xfffff68c
     9e0:	00682e73 	rsbeq	r2, r8, r3, ror lr
     9e4:	5f000002 	svcpl	0x00000002
     9e8:	69647473 	stmdbvs	r4!, {r0, r1, r4, r5, r6, sl, ip, sp, lr}^
     9ec:	682e746e 	stmdavs	lr!, {r1, r2, r3, r5, r6, sl, ip, sp, lr}
     9f0:	00000300 	andeq	r0, r0, r0, lsl #6
     9f4:	68637261 	stmdavs	r3!, {r0, r5, r6, r9, ip, sp, lr}^
     9f8:	7172695f 	cmnvc	r2, pc, asr r9
     9fc:	0400682e 	streq	r6, [r0], #-2094	; 0xfffff7d2
     a00:	64730000 	ldrbtvs	r0, [r3], #-0
     a04:	695f7672 	ldmdbvs	pc, {r1, r4, r5, r6, r9, sl, ip, sp, lr}^	; <UNPREDICTABLE>
     a08:	2e63746e 	cdpcs	4, 6, cr7, cr3, cr14, {3}
     a0c:	00050068 	andeq	r0, r5, r8, rrx
     a10:	01050000 	mrseq	r0, (UNDEF: 5)
     a14:	80020500 	andhi	r0, r2, r0, lsl #10
     a18:	03c20007 	biceq	r0, r2, #7
     a1c:	05050116 	streq	r0, [r5, #-278]	; 0xfffffeea
     a20:	06010513 			; <UNDEFINED> instruction: 0x06010513
     a24:	00020213 	andeq	r0, r2, r3, lsl r2
     a28:	01050101 	tsteq	r5, r1, lsl #2
     a2c:	84020500 	strhi	r0, [r2], #-1280	; 0xfffffb00
     a30:	03c20007 	biceq	r0, r2, #7
     a34:	0106011e 	tsteq	r6, lr, lsl r1
     a38:	4c060505 	cfstr32mi	mvfx0, [r6], {5}
     a3c:	06200531 			; <UNDEFINED> instruction: 0x06200531
     a40:	66050501 	strvs	r0, [r5], -r1, lsl #10
     a44:	02670105 	rsbeq	r0, r7, #1073741825	; 0x40000001
     a48:	01010002 	tsteq	r1, r2
     a4c:	05000105 	streq	r0, [r0, #-261]	; 0xfffffefb
     a50:	0007ac02 	andeq	sl, r7, r2, lsl #24
     a54:	012a03c2 	smlawteq	sl, r2, r3, r0
     a58:	05300505 	ldreq	r0, [r0, #-1285]!	; 0xfffffafb
     a5c:	1305010a 	movwne	r0, #20746	; 0x510a
     a60:	05050106 	streq	r0, [r5, #-262]	; 0xfffffefa
     a64:	0009052e 	andeq	r0, r9, lr, lsr #10
     a68:	06030402 	streq	r0, [r3], -r2, lsl #8
     a6c:	00280530 	eoreq	r0, r8, r0, lsr r5
     a70:	06030402 	streq	r0, [r3], -r2, lsl #8
     a74:	00090501 	andeq	r0, r9, r1, lsl #10
     a78:	06030402 	streq	r0, [r3], -r2, lsl #8
     a7c:	002b059f 	mlaeq	fp, pc, r5, r0	; <UNPREDICTABLE>
     a80:	06030402 	streq	r0, [r3], -r2, lsl #8
     a84:	002f0501 	eoreq	r0, pc, r1, lsl #10
     a88:	06030402 	streq	r0, [r3], -r2, lsl #8
     a8c:	00300563 	eorseq	r0, r0, r3, ror #10
     a90:	06030402 	streq	r0, [r3], -r2, lsl #8
     a94:	001a0501 	andseq	r0, sl, r1, lsl #10
     a98:	06010402 	streq	r0, [r1], -r2, lsl #8
     a9c:	0005052e 	andeq	r0, r5, lr, lsr #10
     aa0:	06010402 	streq	r0, [r1], -r2, lsl #8
     aa4:	31510601 	cmpcc	r1, r1, lsl #12
     aa8:	2f060105 	svccs	0x00060105
     aac:	01000202 	tsteq	r0, r2, lsl #4
     ab0:	00010501 	andeq	r0, r1, r1, lsl #10
     ab4:	07f00205 	ldrbeq	r0, [r0, r5, lsl #4]!
     ab8:	3d03c200 	sfmcc	f4, 1, [r3, #-0]
     abc:	05010601 	streq	r0, [r1, #-1537]	; 0xfffff9ff
     ac0:	052f0605 	streq	r0, [pc, #-1541]!	; 4c3 <SYS_MODE+0x4a4>
     ac4:	05010608 	streq	r0, [r1, #-1544]	; 0xfffff9f8
     ac8:	05850605 	streq	r0, [r5, #1541]	; 0x605
     acc:	05010608 	streq	r0, [r1, #-1544]	; 0xfffff9f8
     ad0:	314e0605 	cmpcc	lr, r5, lsl #12
     ad4:	0626054d 	strteq	r0, [r6], -sp, asr #10
     ad8:	06050501 	streq	r0, [r5], -r1, lsl #10
     adc:	06290583 	strteq	r0, [r9], -r3, lsl #11
     ae0:	2f010501 	svccs	0x00010501
     ae4:	01000202 	tsteq	r0, r2, lsl #4
     ae8:	00010501 	andeq	r0, r1, r1, lsl #10
     aec:	00000205 	andeq	r0, r0, r5, lsl #4
     af0:	d3030000 	movwle	r0, #12288	; 0x3000
     af4:	01060100 	mrseq	r0, (UNDEF: 22)
     af8:	4c060505 	cfstr32mi	mvfx0, [r6], {5}
     afc:	06260531 			; <UNDEFINED> instruction: 0x06260531
     b00:	06050501 	streq	r0, [r5], -r1, lsl #10
     b04:	0629059f 			; <UNDEFINED> instruction: 0x0629059f
     b08:	67010501 	strvs	r0, [r1, -r1, lsl #10]
     b0c:	01000202 	tsteq	r0, r2, lsl #4
     b10:	00007e01 	andeq	r7, r0, r1, lsl #28
     b14:	59000300 	stmdbpl	r0, {r8, r9}
     b18:	02000000 	andeq	r0, r0, #0
     b1c:	0d0efb01 	vstreq	d15, [lr, #-4]
     b20:	01010100 	mrseq	r0, (UNDEF: 17)
     b24:	00000001 	andeq	r0, r0, r1
     b28:	01000001 	tsteq	r0, r1
     b2c:	6d6f682f 	stclvs	8, cr6, [pc, #-188]!	; a78 <SYS_MODE+0xa59>
     b30:	7a632f65 	bvc	18cc8cc <SYS_MODE+0x18cc8ad>
     b34:	786d696c 	stmdavc	sp!, {r2, r3, r5, r6, r8, fp, sp, lr}^
     b38:	646f632f 	strbtvs	r6, [pc], #-815	; b40 <SYS_MODE+0xb21>
     b3c:	61707365 	cmnvs	r0, r5, ror #6
     b40:	622f6563 	eorvs	r6, pc, #415236096	; 0x18c00000
     b44:	6d657261 	sfmvs	f7, 2, [r5, #-388]!	; 0xfffffe7c
     b48:	6c617465 	cfstrdvs	mvd7, [r1], #-404	; 0xfffffe6c
     b4c:	726f665f 	rsbvc	r6, pc, #99614720	; 0x5f00000
     b50:	612f635f 			; <UNDEFINED> instruction: 0x612f635f
     b54:	2f686372 	svccs	0x00686372
     b58:	766d7261 	strbtvc	r7, [sp], -r1, ror #4
     b5c:	2f612d37 	svccs	0x00612d37
     b60:	00637273 	rsbeq	r7, r3, r3, ror r2
     b64:	63726100 	cmnvs	r2, #0, 2
     b68:	6d6d5f68 	stclvs	15, cr5, [sp, #-416]!	; 0xfffffe60
     b6c:	00732e75 	rsbseq	r2, r3, r5, ror lr
     b70:	00000001 	andeq	r0, r0, r1
     b74:	00020500 	andeq	r0, r2, r0, lsl #10
     b78:	03c20005 	biceq	r0, r2, #5
     b7c:	2f2f0118 	svccs	0x002f0118
     b80:	312f2f32 			; <UNDEFINED> instruction: 0x312f2f32
     b84:	2f302f2f 	svccs	0x00302f2f
     b88:	2f342f2f 	svccs	0x00342f2f
     b8c:	02022f2f 	andeq	r2, r2, #47, 30	; 0xbc
     b90:	81010100 	mrshi	r0, (UNDEF: 17)
     b94:	03000000 	movweq	r0, #0
     b98:	00005900 	andeq	r5, r0, r0, lsl #18
     b9c:	fb010200 	blx	413a6 <SYS_MODE+0x41387>
     ba0:	01000d0e 	tsteq	r0, lr, lsl #26
     ba4:	00010101 	andeq	r0, r1, r1, lsl #2
     ba8:	00010000 	andeq	r0, r1, r0
     bac:	682f0100 	stmdavs	pc!, {r8}	; <UNPREDICTABLE>
     bb0:	2f656d6f 	svccs	0x00656d6f
     bb4:	696c7a63 	stmdbvs	ip!, {r0, r1, r5, r6, r9, fp, ip, sp, lr}^
     bb8:	632f786d 			; <UNDEFINED> instruction: 0x632f786d
     bbc:	7365646f 	cmnvc	r5, #1862270976	; 0x6f000000
     bc0:	65636170 	strbvs	r6, [r3, #-368]!	; 0xfffffe90
     bc4:	7261622f 	rsbvc	r6, r1, #-268435454	; 0xf0000002
     bc8:	74656d65 	strbtvc	r6, [r5], #-3429	; 0xfffff29b
     bcc:	665f6c61 	ldrbvs	r6, [pc], -r1, ror #24
     bd0:	635f726f 	cmpvs	pc, #-268435450	; 0xf0000006
     bd4:	6372612f 	cmnvs	r2, #-1073741813	; 0xc000000b
     bd8:	72612f68 	rsbvc	r2, r1, #104, 30	; 0x1a0
     bdc:	2d37766d 	ldccs	6, cr7, [r7, #-436]!	; 0xfffffe4c
     be0:	72732f61 	rsbsvc	r2, r3, #388	; 0x184
     be4:	61000063 	tstvs	r0, r3, rrx
     be8:	5f686372 	svcpl	0x00686372
     bec:	2e626c74 	mcrcs	12, 3, r6, cr2, cr4, {3}
     bf0:	00010073 	andeq	r0, r1, r3, ror r0
     bf4:	05000000 	streq	r0, [r0, #-0]
     bf8:	00054402 	andeq	r4, r5, r2, lsl #8
     bfc:	011203c2 	tsteq	r2, r2, asr #7
     c00:	342f342f 	strtcc	r3, [pc], #-1071	; c08 <SYS_MODE+0xbe9>
     c04:	342f342f 	strtcc	r3, [pc], #-1071	; c0c <SYS_MODE+0xbed>
     c08:	352f352f 	strcc	r3, [pc, #-1327]!	; 6e1 <SYS_MODE+0x6c2>
     c0c:	352f342f 	strcc	r3, [pc, #-1071]!	; 7e5 <SYS_MODE+0x7c6>
     c10:	022f352f 	eoreq	r3, pc, #197132288	; 0xbc00000
     c14:	01010002 	tsteq	r1, r2
     c18:	000000c4 	andeq	r0, r0, r4, asr #1
     c1c:	00590003 	subseq	r0, r9, r3
     c20:	01020000 	mrseq	r0, (UNDEF: 2)
     c24:	000d0efb 	strdeq	r0, [sp], -fp
     c28:	01010101 	tsteq	r1, r1, lsl #2
     c2c:	01000000 	mrseq	r0, (UNDEF: 0)
     c30:	2f010000 	svccs	0x00010000
     c34:	656d6f68 	strbvs	r6, [sp, #-3944]!	; 0xfffff098
     c38:	6c7a632f 	ldclvs	3, cr6, [sl], #-188	; 0xffffff44
     c3c:	2f786d69 	svccs	0x00786d69
     c40:	65646f63 	strbvs	r6, [r4, #-3939]!	; 0xfffff09d
     c44:	63617073 	cmnvs	r1, #115	; 0x73
     c48:	61622f65 	cmnvs	r2, r5, ror #30
     c4c:	656d6572 	strbvs	r6, [sp, #-1394]!	; 0xfffffa8e
     c50:	5f6c6174 	svcpl	0x006c6174
     c54:	5f726f66 	svcpl	0x00726f66
     c58:	72612f63 	rsbvc	r2, r1, #396	; 0x18c
     c5c:	612f6863 			; <UNDEFINED> instruction: 0x612f6863
     c60:	37766d72 			; <UNDEFINED> instruction: 0x37766d72
     c64:	732f612d 			; <UNDEFINED> instruction: 0x732f612d
     c68:	00006372 	andeq	r6, r0, r2, ror r3
     c6c:	68637261 	stmdavs	r3!, {r0, r5, r6, r9, ip, sp, lr}^
     c70:	756d705f 	strbvc	r7, [sp, #-95]!	; 0xffffffa1
     c74:	0100732e 	tsteq	r0, lr, lsr #6
     c78:	00000000 	andeq	r0, r0, r0
     c7c:	05940205 	ldreq	r0, [r4, #517]	; 0x205
     c80:	1e03c200 	cdpne	2, 0, cr12, cr3, cr0, {0}
     c84:	2f2f2f01 	svccs	0x002f2f01
     c88:	2f2f2f35 	svccs	0x002f2f35
     c8c:	2f2f2f35 	svccs	0x002f2f35
     c90:	2f2f2f35 	svccs	0x002f2f35
     c94:	312f2f35 			; <UNDEFINED> instruction: 0x312f2f35
     c98:	2f312f2f 	svccs	0x00312f2f
     c9c:	2f35302f 	svccs	0x0035302f
     ca0:	2f352f2f 	svccs	0x00352f2f
     ca4:	2f36302f 	svccs	0x0036302f
     ca8:	2f352f35 	svccs	0x00352f35
     cac:	352f2f2f 	strcc	r2, [pc, #-3887]!	; fffffd85 <__HeapLimit+0x3dff2d85>
     cb0:	2f2f2f2f 	svccs	0x002f2f2f
     cb4:	2f2f2f35 	svccs	0x002f2f35
     cb8:	2f2f2f35 	svccs	0x002f2f35
     cbc:	312e0903 			; <UNDEFINED> instruction: 0x312e0903
     cc0:	2e09032f 	cdpcs	3, 0, cr0, cr9, cr15, {1}
     cc4:	2f2f3030 	svccs	0x002f3030
     cc8:	2f2f2f36 	svccs	0x002f2f36
     ccc:	2f362f2f 	svccs	0x00362f2f
     cd0:	2f2f2f2f 	svccs	0x002f2f2f
     cd4:	2f2f2f34 	svccs	0x002f2f34
     cd8:	02342f2f 	eorseq	r2, r4, #47, 30	; 0xbc
     cdc:	01010002 	tsteq	r1, r2
     ce0:	0000009b 	muleq	r0, fp, r0
     ce4:	005d0003 	subseq	r0, sp, r3
     ce8:	01020000 	mrseq	r0, (UNDEF: 2)
     cec:	000d0efb 	strdeq	r0, [sp], -fp
     cf0:	01010101 	tsteq	r1, r1, lsl #2
     cf4:	01000000 	mrseq	r0, (UNDEF: 0)
     cf8:	2f010000 	svccs	0x00010000
     cfc:	656d6f68 	strbvs	r6, [sp, #-3944]!	; 0xfffff098
     d00:	6c7a632f 	ldclvs	3, cr6, [sl], #-188	; 0xffffff44
     d04:	2f786d69 	svccs	0x00786d69
     d08:	65646f63 	strbvs	r6, [r4, #-3939]!	; 0xfffff09d
     d0c:	63617073 	cmnvs	r1, #115	; 0x73
     d10:	61622f65 	cmnvs	r2, r5, ror #30
     d14:	656d6572 	strbvs	r6, [sp, #-1394]!	; 0xfffffa8e
     d18:	5f6c6174 	svcpl	0x006c6174
     d1c:	5f726f66 	svcpl	0x00726f66
     d20:	72612f63 	rsbvc	r2, r1, #396	; 0x18c
     d24:	612f6863 			; <UNDEFINED> instruction: 0x612f6863
     d28:	37766d72 			; <UNDEFINED> instruction: 0x37766d72
     d2c:	732f612d 			; <UNDEFINED> instruction: 0x732f612d
     d30:	00006372 	andeq	r6, r0, r2, ror r3
     d34:	68637261 	stmdavs	r3!, {r0, r5, r6, r9, ip, sp, lr}^
     d38:	6174735f 	cmnvs	r4, pc, asr r3
     d3c:	70757472 	rsbsvc	r7, r5, r2, ror r4
     d40:	0100732e 	tsteq	r0, lr, lsr #6
     d44:	00000000 	andeq	r0, r0, r0
     d48:	005c0205 	subseq	r0, ip, r5, lsl #4
     d4c:	1603c200 	strne	ip, [r3], -r0, lsl #4
     d50:	2f2f3101 	svccs	0x002f3101
     d54:	2f312f2f 	svccs	0x00312f2f
     d58:	2f2f312f 	svccs	0x002f312f
     d5c:	312f2f31 			; <UNDEFINED> instruction: 0x312f2f31
     d60:	2f312f2f 	svccs	0x00312f2f
     d64:	2f2f312f 	svccs	0x002f312f
     d68:	2f2f2f2f 	svccs	0x002f2f2f
     d6c:	2f2f2f2f 	svccs	0x002f2f2f
     d70:	31312f2f 	teqcc	r1, pc, lsr #30
     d74:	032e5103 			; <UNDEFINED> instruction: 0x032e5103
     d78:	02022e1e 	andeq	r2, r2, #480	; 0x1e0
     d7c:	83010100 	movwhi	r0, #4352	; 0x1100
     d80:	03000000 	movweq	r0, #0
     d84:	00005d00 	andeq	r5, r0, r0, lsl #26
     d88:	fb010200 	blx	41592 <SYS_MODE+0x41573>
     d8c:	01000d0e 	tsteq	r0, lr, lsl #26
     d90:	00010101 	andeq	r0, r1, r1, lsl #2
     d94:	00010000 	andeq	r0, r1, r0
     d98:	682f0100 	stmdavs	pc!, {r8}	; <UNPREDICTABLE>
     d9c:	2f656d6f 	svccs	0x00656d6f
     da0:	696c7a63 	stmdbvs	ip!, {r0, r1, r5, r6, r9, fp, ip, sp, lr}^
     da4:	632f786d 			; <UNDEFINED> instruction: 0x632f786d
     da8:	7365646f 	cmnvc	r5, #1862270976	; 0x6f000000
     dac:	65636170 	strbvs	r6, [r3, #-368]!	; 0xfffffe90
     db0:	7261622f 	rsbvc	r6, r1, #-268435454	; 0xf0000002
     db4:	74656d65 	strbtvc	r6, [r5], #-3429	; 0xfffff29b
     db8:	665f6c61 	ldrbvs	r6, [pc], -r1, ror #24
     dbc:	635f726f 	cmpvs	pc, #-268435450	; 0xf0000006
     dc0:	6372612f 	cmnvs	r2, #-1073741813	; 0xc000000b
     dc4:	72612f68 	rsbvc	r2, r1, #104, 30	; 0x1a0
     dc8:	2d37766d 	ldccs	6, cr7, [r7, #-436]!	; 0xfffffe4c
     dcc:	72732f61 	rsbsvc	r2, r3, #388	; 0x184
     dd0:	61000063 	tstvs	r0, r3, rrx
     dd4:	5f686372 	svcpl	0x00686372
     dd8:	74636576 	strbtvc	r6, [r3], #-1398	; 0xfffffa8a
     ddc:	2e73726f 	cdpcs	2, 7, cr7, cr3, cr15, {3}
     de0:	00010073 	andeq	r0, r1, r3, ror r0
     de4:	05000000 	streq	r0, [r0, #-0]
     de8:	00000002 	andeq	r0, r0, r2
     dec:	010f03c2 	smlabteq	pc, r2, r3, r0	; <UNPREDICTABLE>
     df0:	2f2f2f2f 	svccs	0x002f2f2f
     df4:	032f2f2f 			; <UNDEFINED> instruction: 0x032f2f2f
     df8:	3120080f 			; <UNDEFINED> instruction: 0x3120080f
     dfc:	31313131 	teqcc	r1, r1, lsr r1
     e00:	00020231 	andeq	r0, r2, r1, lsr r2
     e04:	024f0101 	subeq	r0, pc, #1073741824	; 0x40000000
     e08:	00030000 	andeq	r0, r3, r0
     e0c:	00000134 	andeq	r0, r0, r4, lsr r1
     e10:	0efb0102 	cdpeq	1, 15, cr0, cr11, cr2, {0}
     e14:	0101000d 	tsteq	r1, sp
     e18:	00000101 	andeq	r0, r0, r1, lsl #2
     e1c:	00000100 	andeq	r0, r0, r0, lsl #2
     e20:	6f682f01 	svcvs	0x00682f01
     e24:	632f656d 			; <UNDEFINED> instruction: 0x632f656d
     e28:	6d696c7a 	stclvs	12, cr6, [r9, #-488]!	; 0xfffffe18
     e2c:	6f632f78 	svcvs	0x00632f78
     e30:	70736564 	rsbsvc	r6, r3, r4, ror #10
     e34:	2f656361 	svccs	0x00656361
     e38:	65726162 	ldrbvs	r6, [r2, #-354]!	; 0xfffffe9e
     e3c:	6174656d 	cmnvs	r4, sp, ror #10
     e40:	6f665f6c 	svcvs	0x00665f6c
     e44:	2f635f72 	svccs	0x00635f72
     e48:	76697264 	strbtvc	r7, [r9], -r4, ror #4
     e4c:	612f7265 			; <UNDEFINED> instruction: 0x612f7265
     e50:	3533336d 	ldrcc	r3, [r3, #-877]!	; 0xfffffc93
     e54:	72732f78 	rsbsvc	r2, r3, #120, 30	; 0x1e0
     e58:	682f0063 	stmdavs	pc!, {r0, r1, r5, r6}	; <UNPREDICTABLE>
     e5c:	2f656d6f 	svccs	0x00656d6f
     e60:	696c7a63 	stmdbvs	ip!, {r0, r1, r5, r6, r9, fp, ip, sp, lr}^
     e64:	2e2f786d 	cdpcs	8, 2, cr7, cr15, cr13, {3}
     e68:	61636f6c 	cmnvs	r3, ip, ror #30
     e6c:	69622f6c 	stmdbvs	r2!, {r2, r3, r5, r6, r8, r9, sl, fp, sp}^
     e70:	72612f6e 	rsbvc	r2, r1, #440	; 0x1b8
     e74:	63672d6d 	cmnvs	r7, #6976	; 0x1b40
     e78:	63672f63 	cmnvs	r7, #396	; 0x18c
     e7c:	72612d63 	rsbvc	r2, r1, #6336	; 0x18c0
     e80:	6f6e2d6d 	svcvs	0x006e2d6d
     e84:	652d656e 	strvs	r6, [sp, #-1390]!	; 0xfffffa92
     e88:	2d696261 	sfmcs	f6, 2, [r9, #-388]!	; 0xfffffe7c
     e8c:	332e3031 			; <UNDEFINED> instruction: 0x332e3031
     e90:	3230322d 	eorscc	r3, r0, #-805306366	; 0xd0000002
     e94:	37302e31 			; <UNDEFINED> instruction: 0x37302e31
     e98:	6d72612f 	ldfvse	f6, [r2, #-188]!	; 0xffffff44
     e9c:	6e6f6e2d 	cdpvs	14, 6, cr6, cr15, cr13, {1}
     ea0:	61652d65 	cmnvs	r5, r5, ror #26
     ea4:	692f6962 	stmdbvs	pc!, {r1, r5, r6, r8, fp, sp, lr}	; <UNPREDICTABLE>
     ea8:	756c636e 	strbvc	r6, [ip, #-878]!	; 0xfffffc92
     eac:	6d2f6564 	cfstr32vs	mvfx6, [pc, #-400]!	; d24 <SYS_MODE+0xd05>
     eb0:	69686361 	stmdbvs	r8!, {r0, r5, r6, r8, r9, sp, lr}^
     eb4:	2f00656e 	svccs	0x0000656e
     eb8:	656d6f68 	strbvs	r6, [sp, #-3944]!	; 0xfffff098
     ebc:	6c7a632f 	ldclvs	3, cr6, [sl], #-188	; 0xffffff44
     ec0:	2f786d69 	svccs	0x00786d69
     ec4:	636f6c2e 	cmnvs	pc, #11776	; 0x2e00
     ec8:	622f6c61 	eorvs	r6, pc, #24832	; 0x6100
     ecc:	612f6e69 			; <UNDEFINED> instruction: 0x612f6e69
     ed0:	672d6d72 			; <UNDEFINED> instruction: 0x672d6d72
     ed4:	672f6363 	strvs	r6, [pc, -r3, ror #6]!
     ed8:	612d6363 			; <UNDEFINED> instruction: 0x612d6363
     edc:	6e2d6d72 	mcrvs	13, 1, r6, cr13, cr2, {3}
     ee0:	2d656e6f 	stclcs	14, cr6, [r5, #-444]!	; 0xfffffe44
     ee4:	69626165 	stmdbvs	r2!, {r0, r2, r5, r6, r8, sp, lr}^
     ee8:	2e30312d 	rsfcssp	f3, f0, #5.0
     eec:	30322d33 	eorscc	r2, r2, r3, lsr sp
     ef0:	302e3132 	eorcc	r3, lr, r2, lsr r1
     ef4:	72612f37 	rsbvc	r2, r1, #55, 30	; 0xdc
     ef8:	6f6e2d6d 	svcvs	0x006e2d6d
     efc:	652d656e 	strvs	r6, [sp, #-1390]!	; 0xfffffa92
     f00:	2f696261 	svccs	0x00696261
     f04:	6c636e69 	stclvs	14, cr6, [r3], #-420	; 0xfffffe5c
     f08:	2f656475 	svccs	0x00656475
     f0c:	00737973 	rsbseq	r7, r3, r3, ror r9
     f10:	72647300 	rsbvc	r7, r4, #0, 6
     f14:	6e695f76 	mcrvs	15, 3, r5, cr9, cr6, {3}
     f18:	635f6374 	cmpvs	pc, #116, 6	; 0xd0000001
     f1c:	0100632e 	tsteq	r0, lr, lsr #6
     f20:	645f0000 	ldrbvs	r0, [pc], #-0	; f28 <SYS_MODE+0xf09>
     f24:	75616665 	strbvc	r6, [r1, #-1637]!	; 0xfffff99b
     f28:	745f746c 	ldrbvc	r7, [pc], #-1132	; f30 <SYS_MODE+0xf11>
     f2c:	73657079 	cmnvc	r5, #121	; 0x79
     f30:	0200682e 	andeq	r6, r0, #3014656	; 0x2e0000
     f34:	735f0000 	cmpvc	pc, #0
     f38:	6e696474 	mcrvs	4, 3, r6, cr9, cr4, {3}
     f3c:	00682e74 	rsbeq	r2, r8, r4, ror lr
     f40:	00000003 	andeq	r0, r0, r3
     f44:	05000105 	streq	r0, [r0, #-261]	; 0xfffffefb
     f48:	00083002 	andeq	r3, r8, r2
     f4c:	050518c2 	streq	r1, [r5, #-2242]	; 0xfffff73e
     f50:	05151313 	ldreq	r1, [r5, #-787]	; 0xfffffced
     f54:	0501060f 	streq	r0, [r1, #-1551]	; 0xfffff9f1
     f58:	05670605 	strbeq	r0, [r7, #-1541]!	; 0xfffff9fb
     f5c:	0501060f 	streq	r0, [r1, #-1551]	; 0xfffff9f1
     f60:	312f0605 			; <UNDEFINED> instruction: 0x312f0605
     f64:	03060e05 	movweq	r0, #28165	; 0x6e05
     f68:	0b050178 	bleq	141550 <SYS_MODE+0x141531>
     f6c:	06090536 			; <UNDEFINED> instruction: 0x06090536
     f70:	0612052f 	ldreq	r0, [r2], -pc, lsr #10
     f74:	10052e01 	andne	r2, r5, r1, lsl #28
     f78:	060b054a 	streq	r0, [fp], -sl, asr #10
     f7c:	0006022d 	andeq	r0, r6, sp, lsr #4
     f80:	01050101 	tsteq	r5, r1, lsl #2
     f84:	68020500 	stmdavs	r2, {r8, sl}
     f88:	03c20008 	biceq	r0, r2, #8
     f8c:	05050119 	streq	r0, [r5, #-281]	; 0xfffffee7
     f90:	06080513 			; <UNDEFINED> instruction: 0x06080513
     f94:	06050501 	streq	r0, [r5], -r1, lsl #10
     f98:	059e064d 	ldreq	r0, [lr, #1613]	; 0x64d
     f9c:	02024b01 	andeq	r4, r2, #1024	; 0x400
     fa0:	05010100 	streq	r0, [r1, #-256]	; 0xffffff00
     fa4:	02050001 	andeq	r0, r5, #1
     fa8:	c2000890 	andgt	r0, r0, #144, 16	; 0x900000
     fac:	05012403 	streq	r2, [r1, #-1027]	; 0xfffffbfd
     fb0:	14131305 	ldrne	r1, [r3], #-773	; 0xfffffcfb
     fb4:	01060805 	tsteq	r6, r5, lsl #16
     fb8:	4d060505 	cfstr32mi	mvfx0, [r6, #-20]	; 0xffffffec
     fbc:	06090513 			; <UNDEFINED> instruction: 0x06090513
     fc0:	06050501 	streq	r0, [r5], -r1, lsl #10
     fc4:	2e660630 	mcrcs	6, 3, r0, cr6, cr0, {1}
     fc8:	024b0105 	subeq	r0, fp, #1073741825	; 0x40000001
     fcc:	01010002 	tsteq	r1, r2
     fd0:	05000105 	streq	r0, [r0, #-261]	; 0xfffffefb
     fd4:	00000002 	andeq	r0, r0, r2
     fd8:	01350300 	teqeq	r5, r0, lsl #6
     fdc:	13130505 	tstne	r3, #20971520	; 0x1400000
     fe0:	06080514 			; <UNDEFINED> instruction: 0x06080514
     fe4:	06050501 	streq	r0, [r5], -r1, lsl #10
     fe8:	0905134d 	stmdbeq	r5, {r0, r2, r3, r6, r8, r9, ip}
     fec:	05050106 	streq	r0, [r5, #-262]	; 0xfffffefa
     ff0:	66063006 	strvs	r3, [r6], -r6
     ff4:	4b01052e 	blmi	424b4 <SYS_MODE+0x42495>
     ff8:	01000202 	tsteq	r0, r2, lsl #4
     ffc:	00010501 	andeq	r0, r1, r1, lsl #10
    1000:	08b80205 	ldmeq	r8!, {r0, r2, r9}
    1004:	c603c200 	strgt	ip, [r3], -r0, lsl #4
    1008:	05050100 	streq	r0, [r5, #-256]	; 0xffffff00
    100c:	05141313 	ldreq	r1, [r4, #-787]	; 0xfffffced
    1010:	05010608 	streq	r0, [r1, #-1544]	; 0xfffff9f8
    1014:	134d0605 	movtne	r0, #54789	; 0xd605
    1018:	01060905 	tsteq	r6, r5, lsl #18
    101c:	30060505 	andcc	r0, r6, r5, lsl #10
    1020:	052e6606 	streq	r6, [lr, #-1542]!	; 0xfffff9fa
    1024:	02024b01 	andeq	r4, r2, #1024	; 0x400
    1028:	05010100 	streq	r0, [r1, #-256]	; 0xffffff00
    102c:	02050001 	andeq	r0, r5, #1
    1030:	00000000 	andeq	r0, r0, r0
    1034:	0100d703 	tsteq	r0, r3, lsl #14
    1038:	13130505 	tstne	r3, #20971520	; 0x1400000
    103c:	06080514 			; <UNDEFINED> instruction: 0x06080514
    1040:	06050501 	streq	r0, [r5], -r1, lsl #10
    1044:	0905134d 	stmdbeq	r5, {r0, r2, r3, r6, r8, r9, ip}
    1048:	05050106 	streq	r0, [r5, #-262]	; 0xfffffefa
    104c:	66063006 	strvs	r3, [r6], -r6
    1050:	4b01052e 	blmi	42510 <SYS_MODE+0x424f1>
    1054:	01000202 	tsteq	r0, r2, lsl #4
    1058:	00008f01 	andeq	r8, r0, r1, lsl #30
    105c:	5d000300 	stcpl	3, cr0, [r0, #-0]
    1060:	02000000 	andeq	r0, r0, #0
    1064:	0d0efb01 	vstreq	d15, [lr, #-4]
    1068:	01010100 	mrseq	r0, (UNDEF: 17)
    106c:	00000001 	andeq	r0, r0, r1
    1070:	01000001 	tsteq	r0, r1
    1074:	6d6f682f 	stclvs	8, cr6, [pc, #-188]!	; fc0 <SYS_MODE+0xfa1>
    1078:	7a632f65 	bvc	18cce14 <SYS_MODE+0x18ccdf5>
    107c:	786d696c 	stmdavc	sp!, {r2, r3, r5, r6, r8, fp, sp, lr}^
    1080:	646f632f 	strbtvs	r6, [pc], #-815	; 1088 <SYS_MODE+0x1069>
    1084:	61707365 	cmnvs	r0, r5, ror #6
    1088:	622f6563 	eorvs	r6, pc, #415236096	; 0x18c00000
    108c:	6d657261 	sfmvs	f7, 2, [r5, #-388]!	; 0xfffffe7c
    1090:	6c617465 	cfstrdvs	mvd7, [r1], #-404	; 0xfffffe6c
    1094:	726f665f 	rsbvc	r6, pc, #99614720	; 0x5f00000
    1098:	642f635f 	strtvs	r6, [pc], #-863	; 10a0 <SYS_MODE+0x1081>
    109c:	65766972 	ldrbvs	r6, [r6, #-2418]!	; 0xfffff68e
    10a0:	6d612f72 	stclvs	15, cr2, [r1, #-456]!	; 0xfffffe38
    10a4:	78353333 	ldmdavc	r5!, {r0, r1, r4, r5, r8, r9, ip, sp}
    10a8:	6372732f 	cmnvs	r2, #-1140850688	; 0xbc000000
    10ac:	64730000 	ldrbtvs	r0, [r3], #-0
    10b0:	695f7672 	ldmdbvs	pc, {r1, r4, r5, r6, r9, sl, ip, sp, lr}^	; <UNPREDICTABLE>
    10b4:	5f63746e 	svcpl	0x0063746e
    10b8:	00732e73 	rsbseq	r2, r3, r3, ror lr
    10bc:	00000001 	andeq	r0, r0, r1
    10c0:	e0020500 	and	r0, r2, r0, lsl #10
    10c4:	03c20008 	biceq	r0, r2, #8
    10c8:	2f310109 	svccs	0x00310109
    10cc:	2f2f2f31 	svccs	0x002f2f31
    10d0:	312f2f31 			; <UNDEFINED> instruction: 0x312f2f31
    10d4:	312f2f2f 			; <UNDEFINED> instruction: 0x312f2f2f
    10d8:	31353131 	teqcc	r5, r1, lsr r1
    10dc:	312f3131 			; <UNDEFINED> instruction: 0x312f3131
    10e0:	2e4e0331 	mcrcs	3, 2, r0, cr14, cr1, {1}
    10e4:	02333432 	eorseq	r3, r3, #838860800	; 0x32000000
    10e8:	01010002 	tsteq	r1, r2
    10ec:	0000048c 	andeq	r0, r0, ip, lsl #9
    10f0:	017a0003 	cmneq	sl, r3
    10f4:	01020000 	mrseq	r0, (UNDEF: 2)
    10f8:	000d0efb 	strdeq	r0, [sp], -fp
    10fc:	01010101 	tsteq	r1, r1, lsl #2
    1100:	01000000 	mrseq	r0, (UNDEF: 0)
    1104:	2f010000 	svccs	0x00010000
    1108:	656d6f68 	strbvs	r6, [sp, #-3944]!	; 0xfffff098
    110c:	6c7a632f 	ldclvs	3, cr6, [sl], #-188	; 0xffffff44
    1110:	2f786d69 	svccs	0x00786d69
    1114:	65646f63 	strbvs	r6, [r4, #-3939]!	; 0xfffff09d
    1118:	63617073 	cmnvs	r1, #115	; 0x73
    111c:	61622f65 	cmnvs	r2, r5, ror #30
    1120:	656d6572 	strbvs	r6, [sp, #-1394]!	; 0xfffffa8e
    1124:	5f6c6174 	svcpl	0x006c6174
    1128:	5f726f66 	svcpl	0x00726f66
    112c:	72642f63 	rsbvc	r2, r4, #396	; 0x18c
    1130:	72657669 	rsbvc	r7, r5, #110100480	; 0x6900000
    1134:	336d612f 	cmncc	sp, #-1073741813	; 0xc000000b
    1138:	2f783533 	svccs	0x00783533
    113c:	00637273 	rsbeq	r7, r3, r3, ror r2
    1140:	6d6f682f 	stclvs	8, cr6, [pc, #-188]!	; 108c <SYS_MODE+0x106d>
    1144:	7a632f65 	bvc	18ccee0 <SYS_MODE+0x18ccec1>
    1148:	786d696c 	stmdavc	sp!, {r2, r3, r5, r6, r8, fp, sp, lr}^
    114c:	6f6c2e2f 	svcvs	0x006c2e2f
    1150:	2f6c6163 	svccs	0x006c6163
    1154:	2f6e6962 	svccs	0x006e6962
    1158:	2d6d7261 	sfmcs	f7, 2, [sp, #-388]!	; 0xfffffe7c
    115c:	2f636367 	svccs	0x00636367
    1160:	2d636367 	stclcs	3, cr6, [r3, #-412]!	; 0xfffffe64
    1164:	2d6d7261 	sfmcs	f7, 2, [sp, #-388]!	; 0xfffffe7c
    1168:	656e6f6e 	strbvs	r6, [lr, #-3950]!	; 0xfffff092
    116c:	6261652d 	rsbvs	r6, r1, #188743680	; 0xb400000
    1170:	30312d69 	eorscc	r2, r1, r9, ror #26
    1174:	322d332e 	eorcc	r3, sp, #-1207959552	; 0xb8000000
    1178:	2e313230 	mrccs	2, 1, r3, cr1, cr0, {1}
    117c:	612f3730 			; <UNDEFINED> instruction: 0x612f3730
    1180:	6e2d6d72 	mcrvs	13, 1, r6, cr13, cr2, {3}
    1184:	2d656e6f 	stclcs	14, cr6, [r5, #-444]!	; 0xfffffe44
    1188:	69626165 	stmdbvs	r2!, {r0, r2, r5, r6, r8, sp, lr}^
    118c:	636e692f 	cmnvs	lr, #770048	; 0xbc000
    1190:	6564756c 	strbvs	r7, [r4, #-1388]!	; 0xfffffa94
    1194:	63616d2f 	cmnvs	r1, #3008	; 0xbc0
    1198:	656e6968 	strbvs	r6, [lr, #-2408]!	; 0xfffff698
    119c:	6f682f00 	svcvs	0x00682f00
    11a0:	632f656d 			; <UNDEFINED> instruction: 0x632f656d
    11a4:	6d696c7a 	stclvs	12, cr6, [r9, #-488]!	; 0xfffffe18
    11a8:	6c2e2f78 	stcvs	15, cr2, [lr], #-480	; 0xfffffe20
    11ac:	6c61636f 	stclvs	3, cr6, [r1], #-444	; 0xfffffe44
    11b0:	6e69622f 	cdpvs	2, 6, cr6, cr9, cr15, {1}
    11b4:	6d72612f 	ldfvse	f6, [r2, #-188]!	; 0xffffff44
    11b8:	6363672d 	cmnvs	r3, #11796480	; 0xb40000
    11bc:	6363672f 	cmnvs	r3, #12320768	; 0xbc0000
    11c0:	6d72612d 	ldfvse	f6, [r2, #-180]!	; 0xffffff4c
    11c4:	6e6f6e2d 	cdpvs	14, 6, cr6, cr15, cr13, {1}
    11c8:	61652d65 	cmnvs	r5, r5, ror #26
    11cc:	312d6962 			; <UNDEFINED> instruction: 0x312d6962
    11d0:	2d332e30 	ldccs	14, cr2, [r3, #-192]!	; 0xffffff40
    11d4:	31323032 	teqcc	r2, r2, lsr r0
    11d8:	2f37302e 	svccs	0x0037302e
    11dc:	2d6d7261 	sfmcs	f7, 2, [sp, #-388]!	; 0xfffffe7c
    11e0:	656e6f6e 	strbvs	r6, [lr, #-3950]!	; 0xfffff092
    11e4:	6261652d 	rsbvs	r6, r1, #188743680	; 0xb400000
    11e8:	6e692f69 	cdpvs	15, 6, cr2, cr9, cr9, {3}
    11ec:	64756c63 	ldrbtvs	r6, [r5], #-3171	; 0xfffff39d
    11f0:	79732f65 	ldmdbvc	r3!, {r0, r2, r5, r6, r8, r9, sl, fp, sp}^
    11f4:	682f0073 	stmdavs	pc!, {r0, r1, r4, r5, r6}	; <UNPREDICTABLE>
    11f8:	2f656d6f 	svccs	0x00656d6f
    11fc:	696c7a63 	stmdbvs	ip!, {r0, r1, r5, r6, r9, fp, ip, sp, lr}^
    1200:	632f786d 			; <UNDEFINED> instruction: 0x632f786d
    1204:	7365646f 	cmnvc	r5, #1862270976	; 0x6f000000
    1208:	65636170 	strbvs	r6, [r3, #-368]!	; 0xfffffe90
    120c:	7261622f 	rsbvc	r6, r1, #-268435454	; 0xf0000002
    1210:	74656d65 	strbtvc	r6, [r5], #-3429	; 0xfffff29b
    1214:	665f6c61 	ldrbvs	r6, [pc], -r1, ror #24
    1218:	635f726f 	cmpvs	pc, #-268435450	; 0xf0000006
    121c:	6972642f 	ldmdbvs	r2!, {r0, r1, r2, r3, r5, sl, sp, lr}^
    1220:	2f726576 	svccs	0x00726576
    1224:	33336d61 	teqcc	r3, #6208	; 0x1840
    1228:	692f7835 	stmdbvs	pc!, {r0, r2, r4, r5, fp, ip, sp, lr}	; <UNPREDICTABLE>
    122c:	0000636e 	andeq	r6, r0, lr, ror #6
    1230:	76726473 			; <UNDEFINED> instruction: 0x76726473
    1234:	7261755f 	rsbvc	r7, r1, #398458880	; 0x17c00000
    1238:	00632e74 	rsbeq	r2, r3, r4, ror lr
    123c:	5f000001 	svcpl	0x00000001
    1240:	61666564 	cmnvs	r6, r4, ror #10
    1244:	5f746c75 	svcpl	0x00746c75
    1248:	65707974 	ldrbvs	r7, [r0, #-2420]!	; 0xfffff68c
    124c:	00682e73 	rsbeq	r2, r8, r3, ror lr
    1250:	5f000002 	svcpl	0x00000002
    1254:	69647473 	stmdbvs	r4!, {r0, r1, r4, r5, r6, sl, ip, sp, lr}^
    1258:	682e746e 	stmdavs	lr!, {r1, r2, r3, r5, r6, sl, ip, sp, lr}
    125c:	00000300 	andeq	r0, r0, r0, lsl #6
    1260:	76726473 			; <UNDEFINED> instruction: 0x76726473
    1264:	7261755f 	rsbvc	r7, r1, #398458880	; 0x17c00000
    1268:	00682e74 	rsbeq	r2, r8, r4, ror lr
    126c:	00000004 	andeq	r0, r0, r4
    1270:	05000105 	streq	r0, [r0, #-261]	; 0xfffffefb
    1274:	00095002 	andeq	r5, r9, r2
    1278:	012203c2 	smlawteq	r2, r2, r3, r0
    127c:	05050106 	streq	r0, [r5, #-262]	; 0xfffffefa
    1280:	08054b06 	stmdaeq	r5, {r1, r2, r8, r9, fp, lr}
    1284:	05660106 	strbeq	r0, [r6, #-262]!	; 0xfffffefa
    1288:	1a058713 	bne	162edc <SYS_MODE+0x162ebd>
    128c:	01040200 	mrseq	r0, R12_usr
    1290:	05052e06 	streq	r2, [r5, #-3590]	; 0xfffff1fa
    1294:	01040200 	mrseq	r0, R12_usr
    1298:	09050106 	stmdbeq	r5, {r1, r2, r8}
    129c:	2f054c06 	svccs	0x00054c06
    12a0:	0c050106 	stfeqs	f0, [r5], {6}
    12a4:	0026059e 	mlaeq	r6, lr, r5, r0
    12a8:	06020402 	streq	r0, [r2], -r2, lsl #8
    12ac:	0027052c 	eoreq	r0, r7, ip, lsr #10
    12b0:	06020402 	streq	r0, [r2], -r2, lsl #8
    12b4:	04020001 	streq	r0, [r2], #-1
    12b8:	0d052e02 	stceq	14, cr2, [r5, #-8]
    12bc:	2a053206 	bcs	14dadc <SYS_MODE+0x14dabd>
    12c0:	2e2e0106 	sufcse	f0, f6, f6
    12c4:	052e1205 	streq	r1, [lr, #-517]!	; 0xfffffdfb
    12c8:	052f060d 	streq	r0, [pc, #-1549]!	; cc3 <SYS_MODE+0xca4>
    12cc:	0501062a 	streq	r0, [r1, #-1578]	; 0xfffff9d6
    12d0:	0d052e12 	stceq	14, cr2, [r5, #-72]	; 0xffffffb8
    12d4:	14052f06 	strne	r2, [r5], #-3846	; 0xfffff0fa
    12d8:	054a0106 	strbeq	r0, [sl, #-262]	; 0xfffffefa
    12dc:	01760310 	cmneq	r6, r0, lsl r3
    12e0:	0f030105 	svceq	0x00030105
    12e4:	0002022e 	andeq	r0, r2, lr, lsr #4
    12e8:	01050101 	tsteq	r5, r1, lsl #2
    12ec:	c8020500 	stmdagt	r2, {r8, sl}
    12f0:	03c20009 	biceq	r0, r2, #9
    12f4:	0505013a 	streq	r0, [r5, #-314]	; 0xfffffec6
    12f8:	0b051513 	bleq	14674c <SYS_MODE+0x14672d>
    12fc:	05050106 	streq	r0, [r5, #-262]	; 0xfffffefa
    1300:	0b052f06 	bleq	14cf20 <SYS_MODE+0x14cf01>
    1304:	05050106 	streq	r0, [r5, #-262]	; 0xfffffefa
    1308:	05312f06 	ldreq	r2, [r1, #-3846]!	; 0xfffff0fa
    130c:	7803061c 	stmdavc	r3, {r2, r3, r4, r9, sl}
    1310:	360b0501 	strcc	r0, [fp], -r1, lsl #10
    1314:	30060905 	andcc	r0, r6, r5, lsl #18
    1318:	01061005 	tsteq	r6, r5
    131c:	2c060b05 			; <UNDEFINED> instruction: 0x2c060b05
    1320:	01000602 	tsteq	r0, r2, lsl #12
    1324:	00010501 	andeq	r0, r1, r1, lsl #10
    1328:	09ec0205 	stmibeq	ip!, {r0, r2, r9}^
    132c:	d203c200 	andle	ip, r3, #0, 4
    1330:	01060100 	mrseq	r0, (UNDEF: 22)
    1334:	2f060505 	svccs	0x00060505
    1338:	060d0518 			; <UNDEFINED> instruction: 0x060d0518
    133c:	06050501 	streq	r0, [r5], -r1, lsl #10
    1340:	0b05502f 	bleq	155404 <SYS_MODE+0x1553e5>
    1344:	05050106 	streq	r0, [r5, #-262]	; 0xfffffefa
    1348:	0d052f06 	stceq	15, cr2, [r5, #-24]	; 0xffffffe8
    134c:	05050106 	streq	r0, [r5, #-262]	; 0xfffffefa
    1350:	0b052f06 	bleq	14cf70 <SYS_MODE+0x14cf51>
    1354:	05050106 	streq	r0, [r5, #-262]	; 0xfffffefa
    1358:	06332f06 	ldrteq	r2, [r3], -r6, lsl #30
    135c:	0534062e 	ldreq	r0, [r4, #-1582]!	; 0xfffff9d2
    1360:	0501060b 	streq	r0, [r1, #-1547]	; 0xfffff9f5
    1364:	052f0605 	streq	r0, [pc, #-1541]!	; d67 <SYS_MODE+0xd48>
    1368:	0501060d 	streq	r0, [r1, #-1549]	; 0xfffff9f3
    136c:	052f0605 	streq	r0, [pc, #-1541]!	; d6f <SYS_MODE+0xd50>
    1370:	0501060b 	streq	r0, [r1, #-1547]	; 0xfffff9f5
    1374:	312f0605 			; <UNDEFINED> instruction: 0x312f0605
    1378:	06170513 			; <UNDEFINED> instruction: 0x06170513
    137c:	2e080501 	cfsh32cs	mvfx0, mvfx8, #1
    1380:	05490b05 	strbeq	r0, [r9, #-2821]	; 0xfffff4fb
    1384:	05320605 	ldreq	r0, [r2, #-1541]!	; 0xfffff9fb
    1388:	05010617 	streq	r0, [r1, #-1559]	; 0xfffff9e9
    138c:	09052e08 	stmdbeq	r5, {r3, r9, sl, fp, sp}
    1390:	0f052f06 	svceq	0x00052f06
    1394:	05050106 	streq	r0, [r5, #-262]	; 0xfffffefa
    1398:	16053006 	strne	r3, [r5], -r6
    139c:	44050106 	strmi	r0, [r5], #-262	; 0xfffffefa
    13a0:	4a0b052e 	bmi	2c2860 <SYS_MODE+0x2c2841>
    13a4:	2f060505 	svccs	0x00060505
    13a8:	01061605 	tsteq	r6, r5, lsl #12
    13ac:	052e4405 	streq	r4, [lr, #-1029]!	; 0xfffffbfb
    13b0:	05054a0b 	streq	r4, [r5, #-2571]	; 0xfffff5f5
    13b4:	06332f06 	ldrteq	r2, [r3], -r6, lsl #30
    13b8:	4b31062e 	blmi	c42c78 <SYS_MODE+0xc42c59>
    13bc:	060b0531 			; <UNDEFINED> instruction: 0x060b0531
    13c0:	06050501 	streq	r0, [r5], -r1, lsl #10
    13c4:	0608052f 	streq	r0, [r8], -pc, lsr #10
    13c8:	06090501 	streq	r0, [r9], -r1, lsl #10
    13cc:	060f054b 	streq	r0, [pc], -fp, asr #10
    13d0:	06050501 	streq	r0, [r5], -r1, lsl #10
    13d4:	2e063331 	mcrcs	3, 0, r3, cr6, cr1, {1}
    13d8:	0b053106 	bleq	14d7f8 <SYS_MODE+0x14d7d9>
    13dc:	05050106 	streq	r0, [r5, #-262]	; 0xfffffefa
    13e0:	08052f06 	stmdaeq	r5, {r1, r2, r8, r9, sl, fp, sp}
    13e4:	09050106 	stmdbeq	r5, {r1, r2, r8}
    13e8:	0f054b06 	svceq	0x00054b06
    13ec:	05050106 	streq	r0, [r5, #-262]	; 0xfffffefa
    13f0:	05313106 	ldreq	r3, [r1, #-262]!	; 0xfffffefa
    13f4:	052f0601 	streq	r0, [pc, #-1537]!	; dfb <SYS_MODE+0xddc>
    13f8:	2e57030f 	cdpcs	3, 5, cr0, cr7, cr15, {0}
    13fc:	03060905 	movweq	r0, #26885	; 0x6905
    1400:	0f054a17 	svceq	0x00054a17
    1404:	052e0106 	streq	r0, [lr, #-262]!	; 0xfffffefa
    1408:	0d030609 	stceq	6, cr0, [r3, #-36]	; 0xffffffdc
    140c:	060f052e 	streq	r0, [pc], -lr, lsr #10
    1410:	02022e01 	andeq	r2, r2, #1, 28
    1414:	05010100 	streq	r0, [r1, #-256]	; 0xffffff00
    1418:	02050001 	andeq	r0, r5, #1
    141c:	c2000ac8 	andgt	r0, r0, #200, 20	; 0xc8000
    1420:	0101a203 	tsteq	r1, r3, lsl #4
    1424:	05050106 	streq	r0, [r5, #-262]	; 0xfffffefa
    1428:	2c058306 	stccs	3, cr8, [r5], {6}
    142c:	38050106 	stmdacc	r5, {r1, r2, r8}
    1430:	0605054a 	streq	r0, [r5], -sl, asr #10
    1434:	06110530 			; <UNDEFINED> instruction: 0x06110530
    1438:	08056601 	stmdaeq	r5, {r0, r9, sl, sp, lr}
    143c:	0605052e 	streq	r0, [r5], -lr, lsr #10
    1440:	05504f50 	ldrbeq	r4, [r0, #-3920]	; 0xfffff0b0
    1444:	0501060b 	streq	r0, [r1, #-1547]	; 0xfffff9f5
    1448:	132f0605 			; <UNDEFINED> instruction: 0x132f0605
    144c:	01060b05 	tsteq	r6, r5, lsl #22
    1450:	2f060505 	svccs	0x00060505
    1454:	062e0633 			; <UNDEFINED> instruction: 0x062e0633
    1458:	4b343334 	blmi	d0e130 <SYS_MODE+0xd0e111>
    145c:	3133314f 	teqcc	r3, pc, asr #2
    1460:	01060b05 	tsteq	r6, r5, lsl #22
    1464:	2f060505 	svccs	0x00060505
    1468:	01060805 	tsteq	r6, r5, lsl #16
    146c:	4b060905 	blmi	183888 <SYS_MODE+0x183869>
    1470:	01060f05 	tsteq	r6, r5, lsl #30
    1474:	31060505 	tstcc	r6, r5, lsl #10
    1478:	06130533 			; <UNDEFINED> instruction: 0x06130533
    147c:	05052e01 	streq	r2, [r5, #-3585]	; 0xfffff1ff
    1480:	2e052f06 	cdpcs	15, 0, cr2, cr5, cr6, {0}
    1484:	08050106 	stmdaeq	r5, {r1, r2, r8}
    1488:	060a052e 	streq	r0, [sl], -lr, lsr #10
    148c:	060d054d 	streq	r0, [sp], -sp, asr #10
    1490:	06090501 	streq	r0, [r9], -r1, lsl #10
    1494:	060f054e 	streq	r0, [pc], -lr, asr #10
    1498:	06050501 	streq	r0, [r5], -r1, lsl #10
    149c:	06210530 			; <UNDEFINED> instruction: 0x06210530
    14a0:	2e080501 	cfsh32cs	mvfx0, mvfx8, #1
    14a4:	4b060905 	blmi	1838c0 <SYS_MODE+0x1838a1>
    14a8:	01060f05 	tsteq	r6, r5, lsl #30
    14ac:	03060505 	movweq	r0, #25861	; 0x6505
    14b0:	05132e0e 	ldreq	r2, [r3, #-3598]	; 0xfffff1f2
    14b4:	0501060b 	streq	r0, [r1, #-1547]	; 0xfffff9f5
    14b8:	332f0605 			; <UNDEFINED> instruction: 0x332f0605
    14bc:	01052e06 	tsteq	r5, r6, lsl #28
    14c0:	0609052f 	streq	r0, [r9], -pc, lsr #10
    14c4:	054a5903 	strbeq	r5, [sl, #-2307]	; 0xfffff6fd
    14c8:	2e01060f 	cfmadd32cs	mvax0, mvfx0, mvfx1, mvfx15
    14cc:	02003a05 	andeq	r3, r0, #20480	; 0x5000
    14d0:	05350104 	ldreq	r0, [r5, #-260]!	; 0xfffffefc
    14d4:	054c0609 	strbeq	r0, [ip, #-1545]	; 0xfffff9f7
    14d8:	2e01060f 	cfmadd32cs	mvax0, mvfx0, mvfx1, mvfx15
    14dc:	02003b05 	andeq	r3, r0, #5120	; 0x1400
    14e0:	052f0104 	streq	r0, [pc, #-260]!	; 13e4 <SYS_MODE+0x13c5>
    14e4:	054c0609 	strbeq	r0, [ip, #-1545]	; 0xfffff9f7
    14e8:	2e01060f 	cfmadd32cs	mvax0, mvfx0, mvfx1, mvfx15
    14ec:	34060a05 	strcc	r0, [r6], #-2565	; 0xfffff5fb
    14f0:	01060d05 	tsteq	r6, r5, lsl #26
    14f4:	36060905 	strcc	r0, [r6], -r5, lsl #18
    14f8:	0f051313 	svceq	0x00051313
    14fc:	052e0106 	streq	r0, [lr, #-262]!	; 0xfffffefa
    1500:	78030609 	stmdavc	r3, {r0, r3, r9, sl}
    1504:	0513132e 	ldreq	r1, [r3, #-814]	; 0xfffffcd2
    1508:	2e01060f 	cfmadd32cs	mvax0, mvfx0, mvfx1, mvfx15
    150c:	01000202 	tsteq	r0, r2, lsl #4
    1510:	00010501 	andeq	r0, r1, r1, lsl #10
    1514:	0bdc0205 	bleq	ff701d30 <__HeapLimit+0x3d6f4d30>
    1518:	8e03c200 	cdphi	2, 0, cr12, cr3, cr0, {0}
    151c:	01060102 	tsteq	r6, r2, lsl #2
    1520:	2f060505 	svccs	0x00060505
    1524:	01060805 	tsteq	r6, r5, lsl #16
    1528:	69060505 	stmdbvs	r6, {r0, r2, r8, sl}
    152c:	0105672f 	tsteq	r5, pc, lsr #14
    1530:	02026706 	andeq	r6, r2, #1572864	; 0x180000
    1534:	05010100 	streq	r0, [r1, #-256]	; 0xffffff00
    1538:	02050001 	andeq	r0, r5, #1
    153c:	c2000c0c 	andgt	r0, r0, #12, 24	; 0xc00
    1540:	01029803 	tsteq	r2, r3, lsl #16
    1544:	02000505 	andeq	r0, r0, #20971520	; 0x1400000
    1548:	05140104 	ldreq	r0, [r4, #-260]	; 0xfffffefc
    154c:	04020009 	streq	r0, [r2], #-9
    1550:	0f051401 	svceq	0x00051401
    1554:	01040200 	mrseq	r0, R12_usr
    1558:	09050106 	stmdbeq	r5, {r1, r2, r8}
    155c:	01040200 	mrseq	r0, R12_usr
    1560:	0d052f06 	stceq	15, cr2, [r5, #-24]	; 0xffffffe8
    1564:	01040200 	mrseq	r0, R12_usr
    1568:	00050513 	andeq	r0, r5, r3, lsl r5
    156c:	06010402 	streq	r0, [r1], -r2, lsl #8
    1570:	054c0601 	strbeq	r0, [ip, #-1537]	; 0xfffff9ff
    1574:	022f0601 	eoreq	r0, pc, #1048576	; 0x100000
    1578:	01010002 	tsteq	r1, r2
    157c:	000004ef 	andeq	r0, r0, pc, ror #9
    1580:	01c70003 	biceq	r0, r7, r3
    1584:	01020000 	mrseq	r0, (UNDEF: 2)
    1588:	000d0efb 	strdeq	r0, [sp], -fp
    158c:	01010101 	tsteq	r1, r1, lsl #2
    1590:	01000000 	mrseq	r0, (UNDEF: 0)
    1594:	2f010000 	svccs	0x00010000
    1598:	656d6f68 	strbvs	r6, [sp, #-3944]!	; 0xfffff098
    159c:	6c7a632f 	ldclvs	3, cr6, [sl], #-188	; 0xffffff44
    15a0:	2f786d69 	svccs	0x00786d69
    15a4:	65646f63 	strbvs	r6, [r4, #-3939]!	; 0xfffff09d
    15a8:	63617073 	cmnvs	r1, #115	; 0x73
    15ac:	61622f65 	cmnvs	r2, r5, ror #30
    15b0:	656d6572 	strbvs	r6, [sp, #-1394]!	; 0xfffffa8e
    15b4:	5f6c6174 	svcpl	0x006c6174
    15b8:	5f726f66 	svcpl	0x00726f66
    15bc:	72642f63 	rsbvc	r2, r4, #396	; 0x18c
    15c0:	72657669 	rsbvc	r7, r5, #110100480	; 0x6900000
    15c4:	336d612f 	cmncc	sp, #-1073741813	; 0xc000000b
    15c8:	2f783533 	svccs	0x00783533
    15cc:	00637273 	rsbeq	r7, r3, r3, ror r2
    15d0:	6d6f682f 	stclvs	8, cr6, [pc, #-188]!	; 151c <SYS_MODE+0x14fd>
    15d4:	7a632f65 	bvc	18cd370 <SYS_MODE+0x18cd351>
    15d8:	786d696c 	stmdavc	sp!, {r2, r3, r5, r6, r8, fp, sp, lr}^
    15dc:	646f632f 	strbtvs	r6, [pc], #-815	; 15e4 <SYS_MODE+0x15c5>
    15e0:	61707365 	cmnvs	r0, r5, ror #6
    15e4:	622f6563 	eorvs	r6, pc, #415236096	; 0x18c00000
    15e8:	6d657261 	sfmvs	f7, 2, [r5, #-388]!	; 0xfffffe7c
    15ec:	6c617465 	cfstrdvs	mvd7, [r1], #-404	; 0xfffffe6c
    15f0:	726f665f 	rsbvc	r6, pc, #99614720	; 0x5f00000
    15f4:	612f635f 			; <UNDEFINED> instruction: 0x612f635f
    15f8:	2f686372 	svccs	0x00686372
    15fc:	766d7261 	strbtvc	r7, [sp], -r1, ror #4
    1600:	2f612d37 	svccs	0x00612d37
    1604:	00636e69 	rsbeq	r6, r3, r9, ror #28
    1608:	6d6f682f 	stclvs	8, cr6, [pc, #-188]!	; 1554 <SYS_MODE+0x1535>
    160c:	7a632f65 	bvc	18cd3a8 <SYS_MODE+0x18cd389>
    1610:	786d696c 	stmdavc	sp!, {r2, r3, r5, r6, r8, fp, sp, lr}^
    1614:	6f6c2e2f 	svcvs	0x006c2e2f
    1618:	2f6c6163 	svccs	0x006c6163
    161c:	2f6e6962 	svccs	0x006e6962
    1620:	2d6d7261 	sfmcs	f7, 2, [sp, #-388]!	; 0xfffffe7c
    1624:	2f636367 	svccs	0x00636367
    1628:	2d636367 	stclcs	3, cr6, [r3, #-412]!	; 0xfffffe64
    162c:	2d6d7261 	sfmcs	f7, 2, [sp, #-388]!	; 0xfffffe7c
    1630:	656e6f6e 	strbvs	r6, [lr, #-3950]!	; 0xfffff092
    1634:	6261652d 	rsbvs	r6, r1, #188743680	; 0xb400000
    1638:	30312d69 	eorscc	r2, r1, r9, ror #26
    163c:	322d332e 	eorcc	r3, sp, #-1207959552	; 0xb8000000
    1640:	2e313230 	mrccs	2, 1, r3, cr1, cr0, {1}
    1644:	612f3730 			; <UNDEFINED> instruction: 0x612f3730
    1648:	6e2d6d72 	mcrvs	13, 1, r6, cr13, cr2, {3}
    164c:	2d656e6f 	stclcs	14, cr6, [r5, #-444]!	; 0xfffffe44
    1650:	69626165 	stmdbvs	r2!, {r0, r2, r5, r6, r8, sp, lr}^
    1654:	636e692f 	cmnvs	lr, #770048	; 0xbc000
    1658:	6564756c 	strbvs	r7, [r4, #-1388]!	; 0xfffffa94
    165c:	63616d2f 	cmnvs	r1, #3008	; 0xbc0
    1660:	656e6968 	strbvs	r6, [lr, #-2408]!	; 0xfffff698
    1664:	6f682f00 	svcvs	0x00682f00
    1668:	632f656d 			; <UNDEFINED> instruction: 0x632f656d
    166c:	6d696c7a 	stclvs	12, cr6, [r9, #-488]!	; 0xfffffe18
    1670:	6c2e2f78 	stcvs	15, cr2, [lr], #-480	; 0xfffffe20
    1674:	6c61636f 	stclvs	3, cr6, [r1], #-444	; 0xfffffe44
    1678:	6e69622f 	cdpvs	2, 6, cr6, cr9, cr15, {1}
    167c:	6d72612f 	ldfvse	f6, [r2, #-188]!	; 0xffffff44
    1680:	6363672d 	cmnvs	r3, #11796480	; 0xb40000
    1684:	6363672f 	cmnvs	r3, #12320768	; 0xbc0000
    1688:	6d72612d 	ldfvse	f6, [r2, #-180]!	; 0xffffff4c
    168c:	6e6f6e2d 	cdpvs	14, 6, cr6, cr15, cr13, {1}
    1690:	61652d65 	cmnvs	r5, r5, ror #26
    1694:	312d6962 			; <UNDEFINED> instruction: 0x312d6962
    1698:	2d332e30 	ldccs	14, cr2, [r3, #-192]!	; 0xffffff40
    169c:	31323032 	teqcc	r2, r2, lsr r0
    16a0:	2f37302e 	svccs	0x0037302e
    16a4:	2d6d7261 	sfmcs	f7, 2, [sp, #-388]!	; 0xfffffe7c
    16a8:	656e6f6e 	strbvs	r6, [lr, #-3950]!	; 0xfffff092
    16ac:	6261652d 	rsbvs	r6, r1, #188743680	; 0xb400000
    16b0:	6e692f69 	cdpvs	15, 6, cr2, cr9, cr9, {3}
    16b4:	64756c63 	ldrbtvs	r6, [r5], #-3171	; 0xfffff39d
    16b8:	79732f65 	ldmdbvc	r3!, {r0, r2, r5, r6, r8, r9, sl, fp, sp}^
    16bc:	682f0073 	stmdavs	pc!, {r0, r1, r4, r5, r6}	; <UNPREDICTABLE>
    16c0:	2f656d6f 	svccs	0x00656d6f
    16c4:	696c7a63 	stmdbvs	ip!, {r0, r1, r5, r6, r9, fp, ip, sp, lr}^
    16c8:	632f786d 			; <UNDEFINED> instruction: 0x632f786d
    16cc:	7365646f 	cmnvc	r5, #1862270976	; 0x6f000000
    16d0:	65636170 	strbvs	r6, [r3, #-368]!	; 0xfffffe90
    16d4:	7261622f 	rsbvc	r6, r1, #-268435454	; 0xf0000002
    16d8:	74656d65 	strbtvc	r6, [r5], #-3429	; 0xfffff29b
    16dc:	665f6c61 	ldrbvs	r6, [pc], -r1, ror #24
    16e0:	635f726f 	cmpvs	pc, #-268435450	; 0xf0000006
    16e4:	6972642f 	ldmdbvs	r2!, {r0, r1, r2, r3, r5, sl, sp, lr}^
    16e8:	2f726576 	svccs	0x00726576
    16ec:	33336d61 	teqcc	r3, #6208	; 0x1840
    16f0:	692f7835 	stmdbvs	pc!, {r0, r2, r4, r5, fp, ip, sp, lr}	; <UNPREDICTABLE>
    16f4:	0000636e 	andeq	r6, r0, lr, ror #6
    16f8:	76726473 			; <UNDEFINED> instruction: 0x76726473
    16fc:	6d69745f 	cfstrdvs	mvd7, [r9, #-380]!	; 0xfffffe84
    1700:	632e7265 			; <UNDEFINED> instruction: 0x632e7265
    1704:	00000100 	andeq	r0, r0, r0, lsl #2
    1708:	68637261 	stmdavs	r3!, {r0, r5, r6, r9, ip, sp, lr}^
    170c:	6d6f635f 	stclvs	3, cr6, [pc, #-380]!	; 1598 <SYS_MODE+0x1579>
    1710:	656c6970 	strbvs	r6, [ip, #-2416]!	; 0xfffff690
    1714:	00682e72 	rsbeq	r2, r8, r2, ror lr
    1718:	5f000002 	svcpl	0x00000002
    171c:	61666564 	cmnvs	r6, r4, ror #10
    1720:	5f746c75 	svcpl	0x00746c75
    1724:	65707974 	ldrbvs	r7, [r0, #-2420]!	; 0xfffff68c
    1728:	00682e73 	rsbeq	r2, r8, r3, ror lr
    172c:	5f000003 	svcpl	0x00000003
    1730:	69647473 	stmdbvs	r4!, {r0, r1, r4, r5, r6, sl, ip, sp, lr}^
    1734:	682e746e 	stmdavs	lr!, {r1, r2, r3, r5, r6, sl, ip, sp, lr}
    1738:	00000400 	andeq	r0, r0, r0, lsl #8
    173c:	76726473 			; <UNDEFINED> instruction: 0x76726473
    1740:	6d69745f 	cfstrdvs	mvd7, [r9, #-380]!	; 0xfffffe84
    1744:	682e7265 	stmdavs	lr!, {r0, r2, r5, r6, r9, ip, sp, lr}
    1748:	00000500 	andeq	r0, r0, r0, lsl #10
    174c:	00010500 	andeq	r0, r1, r0, lsl #10
    1750:	0c200205 	sfmeq	f0, 4, [r0], #-20	; 0xffffffec
    1754:	0515c200 	ldreq	ip, [r5, #-512]	; 0xfffffe00
    1758:	05141305 	ldreq	r1, [r4, #-773]	; 0xfffffcfb
    175c:	0501060b 	streq	r0, [r1, #-1547]	; 0xfffff9f5
    1760:	0e052e08 	cdpeq	14, 0, cr2, cr5, cr8, {0}
    1764:	06090548 	streq	r0, [r9], -r8, asr #10
    1768:	06120550 			; <UNDEFINED> instruction: 0x06120550
    176c:	2e2d0501 	cfsh64cs	mvdx0, mvdx13, #1
    1770:	052e0f05 	streq	r0, [lr, #-3845]!	; 0xfffff0fb
    1774:	022d060b 	eoreq	r0, sp, #11534336	; 0xb00000
    1778:	01010006 	tsteq	r1, r6
    177c:	05000105 	streq	r0, [r0, #-261]	; 0xfffffefb
    1780:	000c4c02 	andeq	r4, ip, r2, lsl #24
    1784:	010e03c2 	smlabteq	lr, r2, r3, r0
    1788:	14130505 	ldrne	r0, [r3], #-1285	; 0xfffffafb
    178c:	14050204 	strne	r0, [r5], #-516	; 0xfffffdfc
    1790:	14050536 	strne	r0, [r5], #-1334	; 0xfffffaca
    1794:	060b0514 			; <UNDEFINED> instruction: 0x060b0514
    1798:	06050501 	streq	r0, [r5], -r1, lsl #10
    179c:	0b05132f 	bleq	146460 <SYS_MODE+0x146441>
    17a0:	05050106 	streq	r0, [r5, #-262]	; 0xfffffefa
    17a4:	01042f06 	tsteq	r4, r6, lsl #30
    17a8:	03060e05 	movweq	r0, #28165	; 0x6e05
    17ac:	02042e6f 	andeq	r2, r4, #1776	; 0x6f0
    17b0:	12030105 	andne	r0, r3, #1073741825	; 0x40000001
    17b4:	01042e2e 	tsteq	r4, lr, lsr #28
    17b8:	03060905 	movweq	r0, #26885	; 0x6905
    17bc:	32050172 	andcc	r0, r5, #-2147483620	; 0x8000001c
    17c0:	0f050106 	svceq	0x00050106
    17c4:	060b052e 	streq	r0, [fp], -lr, lsr #10
    17c8:	0006022d 	andeq	r0, r6, sp, lsr #4
    17cc:	01050101 	tsteq	r5, r1, lsl #2
    17d0:	78020500 	stmdavc	r2, {r8, sl}
    17d4:	03c2000c 	biceq	r0, r2, #12
    17d8:	01060117 	tsteq	r6, r7, lsl r1
    17dc:	4b060505 	blmi	182bf8 <SYS_MODE+0x182bd9>
    17e0:	0502044b 	streq	r0, [r2, #-1099]	; 0xfffffbb5
    17e4:	05050114 	streq	r0, [r5, #-276]	; 0xfffffeec
    17e8:	0b051414 	bleq	146840 <SYS_MODE+0x146821>
    17ec:	05050106 	streq	r0, [r5, #-262]	; 0xfffffefa
    17f0:	05132f06 	ldreq	r2, [r3, #-3846]	; 0xfffff0fa
    17f4:	0501060b 	streq	r0, [r1, #-1547]	; 0xfffff9f5
    17f8:	062f0605 	strteq	r0, [pc], -r5, lsl #12
    17fc:	0501042e 	streq	r0, [r1, #-1070]	; 0xfffffbd2
    1800:	017a0301 	cmneq	sl, r1, lsl #6
    1804:	01000202 	tsteq	r0, r2, lsl #4
    1808:	00010501 	andeq	r0, r1, r1, lsl #10
    180c:	00000205 	andeq	r0, r0, r5, lsl #4
    1810:	1d030000 	stcne	0, cr0, [r3, #-0]
    1814:	05010601 	streq	r0, [r1, #-1537]	; 0xfffff9ff
    1818:	4b4b0605 	blmi	12c3034 <SYS_MODE+0x12c3015>
    181c:	14050204 	strne	r0, [r5], #-516	; 0xfffffdfc
    1820:	05017a03 	streq	r7, [r1, #-2563]	; 0xfffff5fd
    1824:	05141405 	ldreq	r1, [r4, #-1029]	; 0xfffffbfb
    1828:	0501060b 	streq	r0, [r1, #-1547]	; 0xfffff9f5
    182c:	052f0605 	streq	r0, [pc, #-1541]!	; 122f <SYS_MODE+0x1210>
    1830:	0501060b 	streq	r0, [r1, #-1547]	; 0xfffff9f5
    1834:	132f0605 			; <UNDEFINED> instruction: 0x132f0605
    1838:	01042e06 	tsteq	r4, r6, lsl #28
    183c:	02010105 	andeq	r0, r1, #1073741825	; 0x40000001
    1840:	01010002 	tsteq	r1, r2
    1844:	05000105 	streq	r0, [r0, #-261]	; 0xfffffefb
    1848:	000c9802 	andeq	r9, ip, r2, lsl #16
    184c:	012303c2 	smlawteq	r3, r2, r3, r0
    1850:	05050106 	streq	r0, [r5, #-262]	; 0xfffffefa
    1854:	06156706 	ldreq	r6, [r5], -r6, lsl #14
    1858:	0531062e 	ldreq	r0, [r1, #-1582]!	; 0xfffff9d2
    185c:	0501060b 	streq	r0, [r1, #-1547]	; 0xfffff9f5
    1860:	132f0605 			; <UNDEFINED> instruction: 0x132f0605
    1864:	01060b05 	tsteq	r6, r5, lsl #22
    1868:	2f060505 	svccs	0x00060505
    186c:	0b056931 	bleq	15bd38 <SYS_MODE+0x15bd19>
    1870:	05050106 	streq	r0, [r5, #-262]	; 0xfffffefa
    1874:	08052f06 	stmdaeq	r5, {r1, r2, r8, r9, sl, fp, sp}
    1878:	09050106 	stmdbeq	r5, {r1, r2, r8}
    187c:	0f054b06 	svceq	0x00054b06
    1880:	05050106 	streq	r0, [r5, #-262]	; 0xfffffefa
    1884:	01053606 	tsteq	r5, r6, lsl #12
    1888:	0a052f06 	beq	14d4a8 <SYS_MODE+0x14d489>
    188c:	2e780306 	cdpcs	3, 7, cr0, cr8, cr6, {0}
    1890:	01060d05 	tsteq	r6, r5, lsl #26
    1894:	32060905 	andcc	r0, r6, #81920	; 0x14000
    1898:	060f0513 			; <UNDEFINED> instruction: 0x060f0513
    189c:	09052e01 	stmdbeq	r5, {r0, r9, sl, fp, sp}
    18a0:	0f052a06 	svceq	0x00052a06
    18a4:	022e0106 	eoreq	r0, lr, #-2147483647	; 0x80000001
    18a8:	01010002 	tsteq	r1, r2
    18ac:	05000105 	streq	r0, [r0, #-261]	; 0xfffffefb
    18b0:	00000002 	andeq	r0, r0, r2
    18b4:	00c10300 	sbceq	r0, r1, r0, lsl #6
    18b8:	05010601 	streq	r0, [r1, #-1537]	; 0xfffff9ff
    18bc:	15670605 	strbne	r0, [r7, #-1541]!	; 0xfffff9fb
    18c0:	31062e06 	tstcc	r6, r6, lsl #28
    18c4:	01060b05 	tsteq	r6, r5, lsl #22
    18c8:	2f060505 	svccs	0x00060505
    18cc:	01060b05 	tsteq	r6, r5, lsl #22
    18d0:	2f060505 	svccs	0x00060505
    18d4:	0b056931 	bleq	15bda0 <SYS_MODE+0x15bd81>
    18d8:	05050106 	streq	r0, [r5, #-262]	; 0xfffffefa
    18dc:	1c052f06 	stcne	15, cr2, [r5], {6}
    18e0:	052e0106 	streq	r0, [lr, #-262]!	; 0xfffffefa
    18e4:	05052e0b 	streq	r2, [r5, #-3595]	; 0xfffff1f5
    18e8:	0b052f06 	bleq	14d508 <SYS_MODE+0x14d4e9>
    18ec:	05050106 	streq	r0, [r5, #-262]	; 0xfffffefa
    18f0:	01052f06 	tsteq	r5, r6, lsl #30
    18f4:	02022f06 	andeq	r2, r2, #6, 30
    18f8:	05010100 	streq	r0, [r1, #-256]	; 0xffffff00
    18fc:	02050001 	andeq	r0, r5, #1
    1900:	00000000 	andeq	r0, r0, r0
    1904:	0100d703 	tsteq	r0, r3, lsl #14
    1908:	05050106 	streq	r0, [r5, #-262]	; 0xfffffefa
    190c:	044d4c06 	strbeq	r4, [sp], #-3078	; 0xfffff3fa
    1910:	03140502 	tsteq	r4, #8388608	; 0x800000
    1914:	05017fbd 	streq	r7, [r1, #-4029]	; 0xfffff043
    1918:	05141405 	ldreq	r1, [r4, #-1029]	; 0xfffffbfb
    191c:	0501060b 	streq	r0, [r1, #-1547]	; 0xfffff9f5
    1920:	052f0605 	streq	r0, [pc, #-1541]!	; 1323 <SYS_MODE+0x1304>
    1924:	0501060b 	streq	r0, [r1, #-1547]	; 0xfffff9f5
    1928:	132f0605 			; <UNDEFINED> instruction: 0x132f0605
    192c:	01042e06 	tsteq	r4, r6, lsl #28
    1930:	3d030105 	stfccs	f0, [r3, #-20]	; 0xffffffec
    1934:	00020201 	andeq	r0, r2, r1, lsl #4
    1938:	01050101 	tsteq	r5, r1, lsl #2
    193c:	f0020500 			; <UNDEFINED> instruction: 0xf0020500
    1940:	03c2000c 	biceq	r0, r2, #12
    1944:	060100e0 	streq	r0, [r1], -r0, ror #1
    1948:	06050501 	streq	r0, [r5], -r1, lsl #10
    194c:	062e0668 	strteq	r0, [lr], -r8, ror #12
    1950:	06010531 			; <UNDEFINED> instruction: 0x06010531
    1954:	0002022f 	andeq	r0, r2, pc, lsr #4
    1958:	01050101 	tsteq	r5, r1, lsl #2
    195c:	0c020500 	cfstr32eq	mvfx0, [r2], {-0}
    1960:	03c2000d 	biceq	r0, r2, #13
    1964:	060100e9 	streq	r0, [r1], -r9, ror #1
    1968:	06050501 	streq	r0, [r5], -r1, lsl #10
    196c:	062e0668 	strteq	r0, [lr], -r8, ror #12
    1970:	06010531 			; <UNDEFINED> instruction: 0x06010531
    1974:	0002022f 	andeq	r0, r2, pc, lsr #4
    1978:	01050101 	tsteq	r5, r1, lsl #2
    197c:	00020500 	andeq	r0, r2, r0, lsl #10
    1980:	03000000 	movweq	r0, #0
    1984:	060100f2 			; <UNDEFINED> instruction: 0x060100f2
    1988:	06050501 	streq	r0, [r5], -r1, lsl #10
    198c:	062e0668 	strteq	r0, [lr], -r8, ror #12
    1990:	06010531 			; <UNDEFINED> instruction: 0x06010531
    1994:	0002022f 	andeq	r0, r2, pc, lsr #4
    1998:	01050101 	tsteq	r5, r1, lsl #2
    199c:	28020500 	stmdacs	r2, {r8, sl}
    19a0:	03c2000d 	biceq	r0, r2, #13
    19a4:	050100fb 	streq	r0, [r1, #-251]	; 0xffffff05
    19a8:	02041405 	andeq	r1, r4, #83886080	; 0x5000000
    19ac:	9c031405 	cfstrsls	mvf1, [r3], {5}
    19b0:	0505017f 	streq	r0, [r5, #-383]	; 0xfffffe81
    19b4:	0b051414 	bleq	146a0c <SYS_MODE+0x1469ed>
    19b8:	05050106 	streq	r0, [r5, #-262]	; 0xfffffefa
    19bc:	28052f06 	stmdacs	r5, {r1, r2, r8, r9, sl, fp, sp}
    19c0:	0b050106 	bleq	141de0 <SYS_MODE+0x141dc1>
    19c4:	0605052e 	streq	r0, [r5], -lr, lsr #10
    19c8:	060b052f 	streq	r0, [fp], -pc, lsr #10
    19cc:	06050501 	streq	r0, [r5], -r1, lsl #10
    19d0:	042e062f 	strteq	r0, [lr], #-1583	; 0xfffff9d1
    19d4:	de030601 	cfmadd32le	mvax0, mvfx0, mvfx3, mvfx1
    19d8:	01050100 	mrseq	r0, (UNDEF: 21)
    19dc:	02022f06 	andeq	r2, r2, #6, 30
    19e0:	05010100 	streq	r0, [r1, #-256]	; 0xffffff00
    19e4:	02050001 	andeq	r0, r5, #1
    19e8:	c2000d44 	andgt	r0, r0, #68, 26	; 0x1100
    19ec:	01018203 	tsteq	r1, r3, lsl #4
    19f0:	04140505 	ldreq	r0, [r4], #-1285	; 0xfffffafb
    19f4:	03140502 	tsteq	r4, #8388608	; 0x800000
    19f8:	05017f95 	streq	r7, [r1, #-3989]	; 0xfffff06b
    19fc:	05141405 	ldreq	r1, [r4, #-1029]	; 0xfffffbfb
    1a00:	0501060b 	streq	r0, [r1, #-1547]	; 0xfffff9f5
    1a04:	052f0605 	streq	r0, [pc, #-1541]!	; 1407 <SYS_MODE+0x13e8>
    1a08:	05010628 	streq	r0, [r1, #-1576]	; 0xfffff9d8
    1a0c:	05052e0b 	streq	r2, [r5, #-3595]	; 0xfffff1f5
    1a10:	0b052f06 	bleq	14d630 <SYS_MODE+0x14d611>
    1a14:	05050106 	streq	r0, [r5, #-262]	; 0xfffffefa
    1a18:	2e062f06 	cdpcs	15, 0, cr2, cr6, cr6, {0}
    1a1c:	01050104 	tsteq	r5, r4, lsl #2
    1a20:	0100e503 	tsteq	r0, r3, lsl #10
    1a24:	01000202 	tsteq	r0, r2, lsl #4
    1a28:	00010501 	andeq	r0, r1, r1, lsl #10
    1a2c:	00000205 	andeq	r0, r0, r5, lsl #4
    1a30:	88030000 	stmdahi	r3, {}	; <UNPREDICTABLE>
    1a34:	05050101 	streq	r0, [r5, #-257]	; 0xfffffeff
    1a38:	05020414 	streq	r0, [r2, #-1044]	; 0xfffffbec
    1a3c:	7f8f0314 	svcvc	0x008f0314
    1a40:	14050501 	strne	r0, [r5], #-1281	; 0xfffffaff
    1a44:	060b0514 			; <UNDEFINED> instruction: 0x060b0514
    1a48:	06050501 	streq	r0, [r5], -r1, lsl #10
    1a4c:	0628052f 	strteq	r0, [r8], -pc, lsr #10
    1a50:	2e0b0501 	cfsh32cs	mvfx0, mvfx11, #1
    1a54:	2f060505 	svccs	0x00060505
    1a58:	01060b05 	tsteq	r6, r5, lsl #22
    1a5c:	2f060505 	svccs	0x00060505
    1a60:	01042e06 	tsteq	r4, r6, lsl #28
    1a64:	eb030105 	bl	c1e80 <SYS_MODE+0xc1e61>
    1a68:	02020100 	andeq	r0, r2, #0, 2
    1a6c:	e2010100 	and	r0, r1, #0, 2
    1a70:	03000004 	movweq	r0, #4
    1a74:	00025400 	andeq	r5, r2, r0, lsl #8
    1a78:	fb010200 	blx	42282 <SYS_MODE+0x42263>
    1a7c:	01000d0e 	tsteq	r0, lr, lsl #26
    1a80:	00010101 	andeq	r0, r1, r1, lsl #2
    1a84:	00010000 	andeq	r0, r1, r0
    1a88:	682f0100 	stmdavs	pc!, {r8}	; <UNPREDICTABLE>
    1a8c:	2f656d6f 	svccs	0x00656d6f
    1a90:	696c7a63 	stmdbvs	ip!, {r0, r1, r5, r6, r9, fp, ip, sp, lr}^
    1a94:	632f786d 			; <UNDEFINED> instruction: 0x632f786d
    1a98:	7365646f 	cmnvc	r5, #1862270976	; 0x6f000000
    1a9c:	65636170 	strbvs	r6, [r3, #-368]!	; 0xfffffe90
    1aa0:	7261622f 	rsbvc	r6, r1, #-268435454	; 0xf0000002
    1aa4:	74656d65 	strbtvc	r6, [r5], #-3429	; 0xfffff29b
    1aa8:	665f6c61 	ldrbvs	r6, [pc], -r1, ror #24
    1aac:	635f726f 	cmpvs	pc, #-268435450	; 0xf0000006
    1ab0:	616f622f 	cmnvs	pc, pc, lsr #4
    1ab4:	612f6472 			; <UNDEFINED> instruction: 0x612f6472
    1ab8:	3533336d 	ldrcc	r3, [r3, #-877]!	; 0xfffffc93
    1abc:	72742f38 	rsbsvc	r2, r4, #56, 30	; 0xe0
    1ac0:	6f747279 	svcvs	0x00747279
    1ac4:	72732f73 	rsbsvc	r2, r3, #460	; 0x1cc
    1ac8:	682f0063 	stmdavs	pc!, {r0, r1, r5, r6}	; <UNPREDICTABLE>
    1acc:	2f656d6f 	svccs	0x00656d6f
    1ad0:	696c7a63 	stmdbvs	ip!, {r0, r1, r5, r6, r9, fp, ip, sp, lr}^
    1ad4:	2e2f786d 	cdpcs	8, 2, cr7, cr15, cr13, {3}
    1ad8:	61636f6c 	cmnvs	r3, ip, ror #30
    1adc:	69622f6c 	stmdbvs	r2!, {r2, r3, r5, r6, r8, r9, sl, fp, sp}^
    1ae0:	72612f6e 	rsbvc	r2, r1, #440	; 0x1b8
    1ae4:	63672d6d 	cmnvs	r7, #6976	; 0x1b40
    1ae8:	63672f63 	cmnvs	r7, #396	; 0x18c
    1aec:	72612d63 	rsbvc	r2, r1, #6336	; 0x18c0
    1af0:	6f6e2d6d 	svcvs	0x006e2d6d
    1af4:	652d656e 	strvs	r6, [sp, #-1390]!	; 0xfffffa92
    1af8:	2d696261 	sfmcs	f6, 2, [r9, #-388]!	; 0xfffffe7c
    1afc:	332e3031 			; <UNDEFINED> instruction: 0x332e3031
    1b00:	3230322d 	eorscc	r3, r0, #-805306366	; 0xd0000002
    1b04:	37302e31 			; <UNDEFINED> instruction: 0x37302e31
    1b08:	6d72612f 	ldfvse	f6, [r2, #-188]!	; 0xffffff44
    1b0c:	6e6f6e2d 	cdpvs	14, 6, cr6, cr15, cr13, {1}
    1b10:	61652d65 	cmnvs	r5, r5, ror #26
    1b14:	692f6962 	stmdbvs	pc!, {r1, r5, r6, r8, fp, sp, lr}	; <UNPREDICTABLE>
    1b18:	756c636e 	strbvc	r6, [ip, #-878]!	; 0xfffffc92
    1b1c:	6d2f6564 	cfstr32vs	mvfx6, [pc, #-400]!	; 1994 <SYS_MODE+0x1975>
    1b20:	69686361 	stmdbvs	r8!, {r0, r5, r6, r8, r9, sp, lr}^
    1b24:	2f00656e 	svccs	0x0000656e
    1b28:	656d6f68 	strbvs	r6, [sp, #-3944]!	; 0xfffff098
    1b2c:	6c7a632f 	ldclvs	3, cr6, [sl], #-188	; 0xffffff44
    1b30:	2f786d69 	svccs	0x00786d69
    1b34:	636f6c2e 	cmnvs	pc, #11776	; 0x2e00
    1b38:	622f6c61 	eorvs	r6, pc, #24832	; 0x6100
    1b3c:	612f6e69 			; <UNDEFINED> instruction: 0x612f6e69
    1b40:	672d6d72 			; <UNDEFINED> instruction: 0x672d6d72
    1b44:	672f6363 	strvs	r6, [pc, -r3, ror #6]!
    1b48:	612d6363 			; <UNDEFINED> instruction: 0x612d6363
    1b4c:	6e2d6d72 	mcrvs	13, 1, r6, cr13, cr2, {3}
    1b50:	2d656e6f 	stclcs	14, cr6, [r5, #-444]!	; 0xfffffe44
    1b54:	69626165 	stmdbvs	r2!, {r0, r2, r5, r6, r8, sp, lr}^
    1b58:	2e30312d 	rsfcssp	f3, f0, #5.0
    1b5c:	30322d33 	eorscc	r2, r2, r3, lsr sp
    1b60:	302e3132 	eorcc	r3, lr, r2, lsr r1
    1b64:	72612f37 	rsbvc	r2, r1, #55, 30	; 0xdc
    1b68:	6f6e2d6d 	svcvs	0x006e2d6d
    1b6c:	652d656e 	strvs	r6, [sp, #-1390]!	; 0xfffffa92
    1b70:	2f696261 	svccs	0x00696261
    1b74:	6c636e69 	stclvs	14, cr6, [r3], #-420	; 0xfffffe5c
    1b78:	2f656475 	svccs	0x00656475
    1b7c:	00737973 	rsbseq	r7, r3, r3, ror r9
    1b80:	6d6f682f 	stclvs	8, cr6, [pc, #-188]!	; 1acc <SYS_MODE+0x1aad>
    1b84:	7a632f65 	bvc	18cd920 <SYS_MODE+0x18cd901>
    1b88:	786d696c 	stmdavc	sp!, {r2, r3, r5, r6, r8, fp, sp, lr}^
    1b8c:	646f632f 	strbtvs	r6, [pc], #-815	; 1b94 <SYS_MODE+0x1b75>
    1b90:	61707365 	cmnvs	r0, r5, ror #6
    1b94:	622f6563 	eorvs	r6, pc, #415236096	; 0x18c00000
    1b98:	6d657261 	sfmvs	f7, 2, [r5, #-388]!	; 0xfffffe7c
    1b9c:	6c617465 	cfstrdvs	mvd7, [r1], #-404	; 0xfffffe6c
    1ba0:	726f665f 	rsbvc	r6, pc, #99614720	; 0x5f00000
    1ba4:	642f635f 	strtvs	r6, [pc], #-863	; 1bac <SYS_MODE+0x1b8d>
    1ba8:	65766972 	ldrbvs	r6, [r6, #-2418]!	; 0xfffff68e
    1bac:	6d612f72 	stclvs	15, cr2, [r1, #-456]!	; 0xfffffe38
    1bb0:	78353333 	ldmdavc	r5!, {r0, r1, r4, r5, r8, r9, ip, sp}
    1bb4:	636e692f 	cmnvs	lr, #770048	; 0xbc000
    1bb8:	6f682f00 	svcvs	0x00682f00
    1bbc:	632f656d 			; <UNDEFINED> instruction: 0x632f656d
    1bc0:	6d696c7a 	stclvs	12, cr6, [r9, #-488]!	; 0xfffffe18
    1bc4:	6c2e2f78 	stcvs	15, cr2, [lr], #-480	; 0xfffffe20
    1bc8:	6c61636f 	stclvs	3, cr6, [r1], #-444	; 0xfffffe44
    1bcc:	6e69622f 	cdpvs	2, 6, cr6, cr9, cr15, {1}
    1bd0:	6d72612f 	ldfvse	f6, [r2, #-188]!	; 0xffffff44
    1bd4:	6363672d 	cmnvs	r3, #11796480	; 0xb40000
    1bd8:	6363672f 	cmnvs	r3, #12320768	; 0xbc0000
    1bdc:	6d72612d 	ldfvse	f6, [r2, #-180]!	; 0xffffff4c
    1be0:	6e6f6e2d 	cdpvs	14, 6, cr6, cr15, cr13, {1}
    1be4:	61652d65 	cmnvs	r5, r5, ror #26
    1be8:	312d6962 			; <UNDEFINED> instruction: 0x312d6962
    1bec:	2d332e30 	ldccs	14, cr2, [r3, #-192]!	; 0xffffff40
    1bf0:	31323032 	teqcc	r2, r2, lsr r0
    1bf4:	2f37302e 	svccs	0x0037302e
    1bf8:	2d6d7261 	sfmcs	f7, 2, [sp, #-388]!	; 0xfffffe7c
    1bfc:	656e6f6e 	strbvs	r6, [lr, #-3950]!	; 0xfffff092
    1c00:	6261652d 	rsbvs	r6, r1, #188743680	; 0xb400000
    1c04:	6e692f69 	cdpvs	15, 6, cr2, cr9, cr9, {3}
    1c08:	64756c63 	ldrbtvs	r6, [r5], #-3171	; 0xfffff39d
    1c0c:	682f0065 	stmdavs	pc!, {r0, r2, r5, r6}	; <UNPREDICTABLE>
    1c10:	2f656d6f 	svccs	0x00656d6f
    1c14:	696c7a63 	stmdbvs	ip!, {r0, r1, r5, r6, r9, fp, ip, sp, lr}^
    1c18:	632f786d 			; <UNDEFINED> instruction: 0x632f786d
    1c1c:	7365646f 	cmnvc	r5, #1862270976	; 0x6f000000
    1c20:	65636170 	strbvs	r6, [r3, #-368]!	; 0xfffffe90
    1c24:	7261622f 	rsbvc	r6, r1, #-268435454	; 0xf0000002
    1c28:	74656d65 	strbtvc	r6, [r5], #-3429	; 0xfffff29b
    1c2c:	665f6c61 	ldrbvs	r6, [pc], -r1, ror #24
    1c30:	635f726f 	cmpvs	pc, #-268435450	; 0xf0000006
    1c34:	6372612f 	cmnvs	r2, #-1073741813	; 0xc000000b
    1c38:	72612f68 	rsbvc	r2, r1, #104, 30	; 0x1a0
    1c3c:	2d37766d 	ldccs	6, cr7, [r7, #-436]!	; 0xfffffe4c
    1c40:	6e692f61 	cdpvs	15, 6, cr2, cr9, cr1, {3}
    1c44:	62000063 	andvs	r0, r0, #99	; 0x63
    1c48:	6472616f 	ldrbtvs	r6, [r2], #-367	; 0xfffffe91
    1c4c:	696e695f 	stmdbvs	lr!, {r0, r1, r2, r3, r4, r6, r8, fp, sp, lr}^
    1c50:	00632e74 	rsbeq	r2, r3, r4, ror lr
    1c54:	5f000001 	svcpl	0x00000001
    1c58:	61666564 	cmnvs	r6, r4, ror #10
    1c5c:	5f746c75 	svcpl	0x00746c75
    1c60:	65707974 	ldrbvs	r7, [r0, #-2420]!	; 0xfffff68c
    1c64:	00682e73 	rsbeq	r2, r8, r3, ror lr
    1c68:	5f000002 	svcpl	0x00000002
    1c6c:	69647473 	stmdbvs	r4!, {r0, r1, r4, r5, r6, sl, ip, sp, lr}^
    1c70:	682e746e 	stmdavs	lr!, {r1, r2, r3, r5, r6, sl, ip, sp, lr}
    1c74:	00000300 	andeq	r0, r0, r0, lsl #6
    1c78:	76726473 			; <UNDEFINED> instruction: 0x76726473
    1c7c:	7261755f 	rsbvc	r7, r1, #398458880	; 0x17c00000
    1c80:	00682e74 	rsbeq	r2, r8, r4, ror lr
    1c84:	73000004 	movwvc	r0, #4
    1c88:	5f767264 	svcpl	0x00767264
    1c8c:	656d6974 	strbvs	r6, [sp, #-2420]!	; 0xfffff68c
    1c90:	00682e72 	rsbeq	r2, r8, r2, ror lr
    1c94:	73000004 	movwvc	r0, #4
    1c98:	6f696474 	svcvs	0x00696474
    1c9c:	0500682e 	streq	r6, [r0, #-2094]	; 0xfffff7d2
    1ca0:	72610000 	rsbvc	r0, r1, #0
    1ca4:	695f6863 	ldmdbvs	pc, {r0, r1, r5, r6, fp, sp, lr}^	; <UNPREDICTABLE>
    1ca8:	682e7172 	stmdavs	lr!, {r1, r4, r5, r6, r8, ip, sp, lr}
    1cac:	00000600 	andeq	r0, r0, r0, lsl #12
    1cb0:	68637261 	stmdavs	r3!, {r0, r5, r6, r9, ip, sp, lr}^
    1cb4:	7570635f 	ldrbvc	r6, [r0, #-863]!	; 0xfffffca1
    1cb8:	0600682e 	streq	r6, [r0], -lr, lsr #16
    1cbc:	72610000 	rsbvc	r0, r1, #0
    1cc0:	745f6863 	ldrbvc	r6, [pc], #-2147	; 1cc8 <SYS_MODE+0x1ca9>
    1cc4:	682e626c 	stmdavs	lr!, {r2, r3, r5, r6, r9, sp, lr}
    1cc8:	00000600 	andeq	r0, r0, r0, lsl #12
    1ccc:	00010500 	andeq	r0, r1, r0, lsl #10
    1cd0:	0d5c0205 	lfmeq	f0, 2, [ip, #-20]	; 0xffffffec
    1cd4:	2f03c200 	svccs	0x0003c200
    1cd8:	30050501 	andcc	r0, r5, r1, lsl #10
    1cdc:	134d674b 	movtne	r6, #55115	; 0xd74b
    1ce0:	0a051313 	beq	146934 <SYS_MODE+0x146915>
    1ce4:	06130501 	ldreq	r0, [r3], -r1, lsl #10
    1ce8:	2c0f0501 	cfstr32cs	mvfx0, [pc], {1}
    1cec:	05300505 	ldreq	r0, [r0, #-1285]!	; 0xfffffafb
    1cf0:	05300609 	ldreq	r0, [r0, #-1545]!	; 0xfffff9f7
    1cf4:	0501060c 	streq	r0, [r1, #-1548]	; 0xfffff9f4
    1cf8:	054c060d 	strbeq	r0, [ip, #-1549]	; 0xfffff9f3
    1cfc:	05010610 	streq	r0, [r1, #-1552]	; 0xfffff9f0
    1d00:	0d054b1b 	vstreq	d4, [r5, #-108]	; 0xffffff94
    1d04:	2b054f06 	blcs	155924 <SYS_MODE+0x155905>
    1d08:	17050106 	strne	r0, [r5, -r6, lsl #2]
    1d0c:	4a39054a 	bmi	e4323c <SYS_MODE+0xe4321d>
    1d10:	052e1b05 	streq	r1, [lr, #-2821]!	; 0xfffff4fb
    1d14:	04020009 	streq	r0, [r2], #-9
    1d18:	05360602 	ldreq	r0, [r6, #-1538]!	; 0xfffff9fe
    1d1c:	04020015 	streq	r0, [r2], #-21	; 0xffffffeb
    1d20:	05010602 	streq	r0, [r1, #-1538]	; 0xfffff9fe
    1d24:	04020024 	streq	r0, [r2], #-36	; 0xffffffdc
    1d28:	6e030602 	cfmadd32vs	mvax0, mvfx0, mvfx3, mvfx2
    1d2c:	0025052e 	eoreq	r0, r5, lr, lsr #10
    1d30:	06020402 	streq	r0, [r2], -r2, lsl #8
    1d34:	001a0501 	andseq	r0, sl, r1, lsl #10
    1d38:	06010402 	streq	r0, [r1], -r2, lsl #8
    1d3c:	0005052e 	andeq	r0, r5, lr, lsr #10
    1d40:	06010402 	streq	r0, [r1], -r2, lsl #8
    1d44:	03130501 	tsteq	r3, #4194304	; 0x400000
    1d48:	052e4a19 	streq	r4, [lr, #-2585]!	; 0xfffff5e7
    1d4c:	1205110e 	andne	r1, r5, #-2147483645	; 0x80000003
    1d50:	03062e49 	movweq	r2, #28233	; 0x6e49
    1d54:	15052e6f 	strne	r2, [r5, #-3695]	; 0xfffff191
    1d58:	1b050106 	blne	142178 <SYS_MODE+0x142159>
    1d5c:	0d05682f 	stceq	8, cr6, [r5, #-188]	; 0xffffff44
    1d60:	05136b06 	ldreq	r6, [r3, #-2822]	; 0xfffff4fa
    1d64:	05010617 	streq	r0, [r1, #-1559]	; 0xfffff9e9
    1d68:	05664a1b 	strbeq	r4, [r6, #-2587]!	; 0xfffff5e5
    1d6c:	0d030609 	stceq	6, cr0, [r3, #-36]	; 0xffffffdc
    1d70:	06280501 	strteq	r0, [r8], -r1, lsl #10
    1d74:	2e0c0501 	cfsh32cs	mvfx0, mvfx12, #1
    1d78:	52060d05 	andpl	r0, r6, #320	; 0x140
    1d7c:	06170513 			; <UNDEFINED> instruction: 0x06170513
    1d80:	661b0501 	ldrvs	r0, [fp], -r1, lsl #10
    1d84:	02000905 	andeq	r0, r0, #81920	; 0x14000
    1d88:	4c060204 	sfmmi	f0, 4, [r6], {4}
    1d8c:	02001505 	andeq	r1, r0, #20971520	; 0x1400000
    1d90:	01060204 	tsteq	r6, r4, lsl #4
    1d94:	02002405 	andeq	r2, r0, #83886080	; 0x5000000
    1d98:	03060204 	movweq	r0, #25092	; 0x6204
    1d9c:	25052e72 	strcs	r2, [r5, #-3698]	; 0xfffff18e
    1da0:	02040200 	andeq	r0, r4, #0, 4
    1da4:	1a050106 	bne	1421c4 <SYS_MODE+0x1421a5>
    1da8:	01040200 	mrseq	r0, R12_usr
    1dac:	05052e06 	streq	r2, [r5, #-3590]	; 0xfffff1fa
    1db0:	01040200 	mrseq	r0, R12_usr
    1db4:	13050106 	movwne	r0, #20742	; 0x5106
    1db8:	054a1403 	strbeq	r1, [sl, #-1027]	; 0xfffffbfd
    1dbc:	052e2d0f 	streq	r2, [lr, #-3343]!	; 0xfffff2f1
    1dc0:	7203060d 	andvc	r0, r3, #13631488	; 0xd00000
    1dc4:	2c05132e 	stccs	3, cr1, [r5], {46}	; 0x2e
    1dc8:	17050106 	strne	r0, [r5, -r6, lsl #2]
    1dcc:	663a054a 	ldrtvs	r0, [sl], -sl, asr #10
    1dd0:	052e1b05 	streq	r1, [lr, #-2821]!	; 0xfffff4fb
    1dd4:	052f060d 	streq	r0, [pc, #-1549]!	; 17cf <SYS_MODE+0x17b0>
    1dd8:	2e01061a 	mcrcs	6, 0, r0, cr1, cr10, {0}
    1ddc:	0609052e 	streq	r0, [r9], -lr, lsr #10
    1de0:	05011003 	streq	r1, [r1, #-3]
    1de4:	0501060c 	streq	r0, [r1, #-1548]	; 0xfffff9f4
    1de8:	054e060e 	strbeq	r0, [lr, #-1550]	; 0xfffff9f2
    1dec:	05010611 	streq	r0, [r1, #-1553]	; 0xfffff9ef
    1df0:	09055117 	stmdbeq	r5, {r0, r1, r2, r4, r8, ip, lr}
    1df4:	02040200 	andeq	r0, r4, #0, 4
    1df8:	23053106 	movwcs	r3, #20742	; 0x5106
    1dfc:	02040200 	andeq	r0, r4, #0, 4
    1e00:	12050106 	andne	r0, r5, #-2147483647	; 0x80000001
    1e04:	02040200 	andeq	r0, r4, #0, 4
    1e08:	0031054a 	eorseq	r0, r1, sl, asr #10
    1e0c:	66020402 	strvs	r0, [r2], -r2, lsl #8
    1e10:	02001605 	andeq	r1, r0, #5242880	; 0x500000
    1e14:	052e0204 	streq	r0, [lr, #-516]!	; 0xfffffdfc
    1e18:	04020009 	streq	r0, [r2], #-9
    1e1c:	052f0602 	streq	r0, [pc, #-1538]!	; 1822 <SYS_MODE+0x1803>
    1e20:	04020012 	streq	r0, [r2], #-18	; 0xffffffee
    1e24:	05010602 	streq	r0, [r1, #-1538]	; 0xfffff9fe
    1e28:	04020027 	streq	r0, [r2], #-39	; 0xffffffd9
    1e2c:	6e030602 	cfmadd32vs	mvax0, mvfx0, mvfx3, mvfx2
    1e30:	0028052e 	eoreq	r0, r8, lr, lsr #10
    1e34:	06020402 	streq	r0, [r2], -r2, lsl #8
    1e38:	001a0501 	andseq	r0, sl, r1, lsl #10
    1e3c:	06010402 	streq	r0, [r1], -r2, lsl #8
    1e40:	0005052e 	andeq	r0, r5, lr, lsr #10
    1e44:	06010402 	streq	r0, [r1], -r2, lsl #8
    1e48:	03170501 	tsteq	r7, #4194304	; 0x400000
    1e4c:	02466609 	subeq	r6, r6, #9437184	; 0x900000
    1e50:	01010004 	tsteq	r1, r4
    1e54:	05000105 	streq	r0, [r0, #-261]	; 0xfffffefb
    1e58:	000ec002 	andeq	ip, lr, r2
    1e5c:	018303c2 	orreq	r0, r3, r2, asr #7
    1e60:	05010601 	streq	r0, [r1, #-1537]	; 0xfffff9ff
    1e64:	2f2f0605 	svccs	0x002f0605
    1e68:	06010583 	streq	r0, [r1], -r3, lsl #11
    1e6c:	00020213 	andeq	r0, r2, r3, lsl r2
    1e70:	01050101 	tsteq	r5, r1, lsl #2
    1e74:	dc020500 	cfstr32le	mvfx0, [r2], {-0}
    1e78:	03c2000e 	biceq	r0, r2, #14
    1e7c:	0601018a 	streq	r0, [r1], -sl, lsl #3
    1e80:	06050501 	streq	r0, [r5], -r1, lsl #10
    1e84:	6931854c 	ldmdbvs	r1!, {r2, r3, r6, r8, sl, pc}
    1e88:	bd696969 			; <UNDEFINED> instruction: 0xbd696969
    1e8c:	4b060105 	blmi	1822a8 <SYS_MODE+0x182289>
    1e90:	01000202 	tsteq	r0, r2, lsl #4
    1e94:	00010501 	andeq	r0, r1, r1, lsl #10
    1e98:	0f4c0205 	svceq	0x004c0205
    1e9c:	1603c200 	strne	ip, [r3], -r0, lsl #4
    1ea0:	05010601 	streq	r0, [r1, #-1537]	; 0xfffff9ff
    1ea4:	064b0605 	strbeq	r0, [fp], -r5, lsl #12
    1ea8:	054b064a 	strbeq	r0, [fp, #-1610]	; 0xfffff9b6
    1eac:	02130601 	andseq	r0, r3, #1048576	; 0x100000
    1eb0:	01010004 	tsteq	r1, r4
    1eb4:	05000105 	streq	r0, [r0, #-261]	; 0xfffffefb
    1eb8:	000f6c02 	andeq	r6, pc, r2, lsl #24
    1ebc:	011c03c2 	tsteq	ip, r2, asr #7
    1ec0:	05050106 	streq	r0, [r5, #-262]	; 0xfffffefa
    1ec4:	05136706 	ldreq	r6, [r3, #-1798]	; 0xfffff8fa
    1ec8:	0e05010a 	adfeqs	f0, f5, #2.0
    1ecc:	05050106 	streq	r0, [r5, #-262]	; 0xfffffefa
    1ed0:	0009052e 	andeq	r0, r9, lr, lsr #10
    1ed4:	06030402 	streq	r0, [r3], -r2, lsl #8
    1ed8:	0402002f 	streq	r0, [r2], #-47	; 0xffffffd1
    1edc:	00010603 	andeq	r0, r1, r3, lsl #12
    1ee0:	2e030402 	cdpcs	4, 0, cr0, cr3, cr2, {0}
    1ee4:	02001f05 	andeq	r1, r0, #5, 30
    1ee8:	2d060304 	stccs	3, cr0, [r6, #-16]
    1eec:	02002005 	andeq	r2, r0, #5
    1ef0:	01060304 	tsteq	r6, r4, lsl #6
    1ef4:	02001505 	andeq	r1, r0, #20971520	; 0x1400000
    1ef8:	2e060104 	adfcss	f0, f6, f4
    1efc:	02000505 	andeq	r0, r0, #20971520	; 0x1400000
    1f00:	01060104 	tsteq	r6, r4, lsl #2
    1f04:	01040200 	mrseq	r0, R12_usr
    1f08:	0514064a 	ldreq	r0, [r4, #-1610]	; 0xfffff9b6
    1f0c:	02130601 	andseq	r0, r3, #1048576	; 0x100000
    1f10:	01010004 	tsteq	r1, r4
    1f14:	05000105 	streq	r0, [r0, #-261]	; 0xfffffefb
    1f18:	000f9c02 	andeq	r9, pc, r2, lsl #24
    1f1c:	00fd03c2 	rscseq	r0, sp, r2, asr #7
    1f20:	30050501 	andcc	r0, r5, r1, lsl #10
    1f24:	2f060105 	svccs	0x00060105
    1f28:	01000202 	tsteq	r0, r2, lsl #4
    1f2c:	00010501 	andeq	r0, r1, r1, lsl #10
    1f30:	0fa80205 	svceq	0x00a80205
    1f34:	a503c200 	strge	ip, [r3, #-512]	; 0xfffffe00
    1f38:	05050101 	streq	r0, [r5, #-257]	; 0xfffffeff
    1f3c:	0069a130 	rsbeq	sl, r9, r0, lsr r1
    1f40:	68010402 	stmdavs	r1, {r1, sl}
    1f44:	01040200 	mrseq	r0, R12_usr
    1f48:	000b0515 	andeq	r0, fp, r5, lsl r5
    1f4c:	0f010402 	svceq	0x00010402
    1f50:	01000202 	tsteq	r0, r2, lsl #4
    1f54:	Address 0x0000000000001f54 is out of bounds.


Disassembly of section .debug_info:

00000000 <.debug_info>:
       0:	00000022 	andeq	r0, r0, r2, lsr #32
       4:	00000002 	andeq	r0, r0, r2
       8:	01040000 	mrseq	r0, (UNDEF: 4)
       c:	00000000 	andeq	r0, r0, r0
      10:	c20000f4 	andgt	r0, r0, #244	; 0xf4
      14:	c200016c 	andgt	r0, r0, #108, 2
      18:	00000000 	andeq	r0, r0, r0
      1c:	00000050 	andeq	r0, r0, r0, asr r0
      20:	00000084 	andeq	r0, r0, r4, lsl #1
      24:	00228001 	eoreq	r8, r2, r1
      28:	00020000 	andeq	r0, r2, r0
      2c:	00000014 	andeq	r0, r0, r4, lsl r0
      30:	009c0104 	addseq	r0, ip, r4, lsl #2
      34:	016c0000 	cmneq	ip, r0
      38:	04a0c200 	strteq	ip, [r0], #512	; 0x200
      3c:	0092c200 	addseq	ip, r2, r0, lsl #4
      40:	00500000 	subseq	r0, r0, r0
      44:	00840000 	addeq	r0, r4, r0
      48:	80010000 	andhi	r0, r1, r0
      4c:	000001a6 	andeq	r0, r0, r6, lsr #3
      50:	00280002 	eoreq	r0, r8, r2
      54:	01040000 	mrseq	r0, (UNDEF: 4)
      58:	000001f5 	strdeq	r0, [r0], -r5
      5c:	0001a80c 	andeq	sl, r1, ip, lsl #16
      60:	00005000 	andeq	r5, r0, r0
	...
      70:	0001df00 	andeq	sp, r1, r0, lsl #30
      74:	06010200 	streq	r0, [r1], -r0, lsl #4
      78:	0000014e 	andeq	r0, r0, lr, asr #2
      7c:	4c080102 	stfmis	f0, [r8], {2}
      80:	02000001 	andeq	r0, r0, #1
      84:	01eb0502 	mvneq	r0, r2, lsl #10
      88:	02020000 	andeq	r0, r2, #0
      8c:	00017807 	andeq	r7, r1, r7, lsl #16
      90:	05040200 	streq	r0, [r4, #-512]	; 0xfffffe00
      94:	000000dc 	ldrdeq	r0, [r0], -ip
      98:	00012003 	andeq	r2, r1, r3
      9c:	194f0200 	stmdbne	pc, {r9}^	; <UNPREDICTABLE>
      a0:	00000058 	andeq	r0, r0, r8, asr r0
      a4:	3a070402 	bcc	1c10b4 <SYS_MODE+0x1c1095>
      a8:	02000001 	andeq	r0, r0, #1
      ac:	00d70508 	sbcseq	r0, r7, r8, lsl #10
      b0:	6d030000 	stcvs	0, cr0, [r3, #-0]
      b4:	02000001 	andeq	r0, r0, #1
      b8:	00721969 	rsbseq	r1, r2, r9, ror #18
      bc:	08020000 	stmdaeq	r2, {}	; <UNPREDICTABLE>
      c0:	00013507 	andeq	r3, r1, r7, lsl #10
      c4:	05040400 	streq	r0, [r4, #-1024]	; 0xfffffc00
      c8:	00746e69 	rsbseq	r6, r4, r9, ror #28
      cc:	3f070402 	svccc	0x00070402
      d0:	03000001 	movweq	r0, #1
      d4:	00000122 	andeq	r0, r0, r2, lsr #2
      d8:	4c143003 	ldcmi	0, cr3, [r4], {3}
      dc:	05000000 	streq	r0, [r0, #-0]
      e0:	00000087 	andeq	r0, r0, r7, lsl #1
      e4:	00016f03 	andeq	r6, r1, r3, lsl #30
      e8:	143c0300 	ldrtne	r0, [ip], #-768	; 0xfffffd00
      ec:	00000066 	andeq	r0, r0, r6, rrx
      f0:	8b040802 	blhi	102100 <SYS_MODE+0x1020e1>
      f4:	02000001 	andeq	r0, r0, #1
      f8:	01550801 	cmpeq	r5, r1, lsl #16
      fc:	ec060000 	stc	0, cr0, [r6], {-0}
     100:	01000002 	tsteq	r0, r2
     104:	00981105 	addseq	r1, r8, r5, lsl #2
     108:	03050000 	movweq	r0, #20480	; 0x5000
     10c:	c2008b00 	andgt	r8, r0, #0, 22
     110:	01970107 	orrseq	r0, r7, r7, lsl #2
     114:	40010000 	andmi	r0, r1, r0
     118:	06f00106 	ldrbteq	r0, [r0], r6, lsl #2
     11c:	0714c200 	ldreq	ip, [r4, -r0, lsl #4]
     120:	7d02c200 	sfmvc	f4, 1, [r2, #-0]
     124:	01080100 	mrseq	r0, (UNDEF: 24)
     128:	00000114 	andeq	r0, r0, r4, lsl r1
     12c:	01062401 	tsteq	r6, r1, lsl #8
	...
     13c:	00015201 	andeq	r5, r1, r1, lsl #4
     140:	01190900 	tsteq	r9, r0, lsl #18
     144:	24010000 	strcs	r0, [r1], #-0
     148:	0000871b 	andeq	r8, r0, fp, lsl r7
     14c:	00003c00 	andeq	r3, r0, r0, lsl #24
     150:	00003800 	andeq	r3, r0, r0, lsl #16
     154:	015a0600 	cmpeq	sl, r0, lsl #12
     158:	26010000 	strcs	r0, [r1], -r0
     15c:	00009317 	andeq	r9, r0, r7, lsl r3
     160:	74910200 	ldrvc	r0, [r1], #512	; 0x200
     164:	00012b06 	andeq	r2, r1, r6, lsl #22
     168:	23260100 			; <UNDEFINED> instruction: 0x23260100
     16c:	00000093 	muleq	r0, r3, r0
     170:	06709102 	ldrbteq	r9, [r0], -r2, lsl #2
     174:	00000161 	andeq	r0, r0, r1, ror #2
     178:	93322601 	teqls	r2, #1048576	; 0x100000
     17c:	02000000 	andeq	r0, r0, #0
     180:	000a6c91 	muleq	sl, r1, ip
     184:	9b000000 	blls	18c <SYS_MODE+0x16d>
     188:	0a000001 	beq	194 <SYS_MODE+0x175>
     18c:	00000000 	andeq	r0, r0, r0
     190:	0000019b 	muleq	r0, fp, r1
     194:	0000000a 	andeq	r0, r0, sl
     198:	00019b00 	andeq	r9, r1, r0, lsl #22
     19c:	010b0000 	mrseq	r0, (UNDEF: 11)
     1a0:	00000101 	andeq	r0, r0, r1, lsl #2
     1a4:	010a1901 	tsteq	sl, r1, lsl #18
     1a8:	00000087 	andeq	r0, r0, r7, lsl #1
	...
     1b4:	01007d02 	tsteq	r0, r2, lsl #26
     1b8:	00000185 	andeq	r0, r0, r5, lsl #3
     1bc:	00010e0c 	andeq	r0, r1, ip, lsl #28
     1c0:	0e1b0100 	mufeqe	f0, f3, f0
     1c4:	00000087 	andeq	r0, r0, r7, lsl #1
     1c8:	0000005e 	andeq	r0, r0, lr, asr r0
     1cc:	0000005a 	andeq	r0, r0, sl, asr r0
     1d0:	e5010700 	str	r0, [r1, #-1792]	; 0xfffff900
     1d4:	01000000 	mrseq	r0, (UNDEF: 0)
     1d8:	e001060b 	and	r0, r1, fp, lsl #12
     1dc:	f0c20006 			; <UNDEFINED> instruction: 0xf0c20006
     1e0:	02c20006 	sbceq	r0, r2, #6
     1e4:	0d01007d 	stceq	0, cr0, [r1, #-500]	; 0xfffffe0c
     1e8:	02c90101 	sbceq	r0, r9, #1073741824	; 0x40000000
     1ec:	02c90000 	sbceq	r0, r9, #0
     1f0:	33040000 	movwcc	r0, #16384	; 0x4000
     1f4:	0022000a 	eoreq	r0, r2, sl
     1f8:	00020000 	andeq	r0, r2, r0
     1fc:	00000116 	andeq	r0, r0, r6, lsl r1
     200:	04770104 	ldrbteq	r0, [r7], #-260	; 0xfffffefc
     204:	04a00000 	strteq	r0, [r0], #0
     208:	04b8c200 	ldrteq	ip, [r8], #512	; 0x200
     20c:	02fac200 	rscseq	ip, sl, #0, 4
     210:	00500000 	subseq	r0, r0, r0
     214:	00840000 	addeq	r0, r4, r0
     218:	80010000 	andhi	r0, r1, r0
     21c:	00000022 	andeq	r0, r0, r2, lsr #32
     220:	012a0002 			; <UNDEFINED> instruction: 0x012a0002
     224:	01040000 	mrseq	r0, (UNDEF: 4)
     228:	000004f4 	strdeq	r0, [r0], -r4
     22c:	c20004b8 	andgt	r0, r0, #184, 8	; 0xb8000000
     230:	c20004fc 	andgt	r0, r0, #252, 8	; 0xfc000000
     234:	00000343 	andeq	r0, r0, r3, asr #6
     238:	00000050 	andeq	r0, r0, r0, asr r0
     23c:	00000084 	andeq	r0, r0, r4, lsl #1
     240:	02668001 	rsbeq	r8, r6, #1
     244:	00020000 	andeq	r0, r2, r0
     248:	0000013e 	andeq	r0, r0, lr, lsr r1
     24c:	01f50104 	mvnseq	r0, r4, lsl #2
     250:	620c0000 	andvs	r0, ip, #0
     254:	50000004 	andpl	r0, r0, r4
     258:	28000000 	stmdacs	r0, {}	; <UNPREDICTABLE>
	...
     264:	76000000 	strvc	r0, [r0], -r0
     268:	02000005 	andeq	r0, r0, #5
     26c:	014e0601 	cmpeq	lr, r1, lsl #12
     270:	01020000 	mrseq	r0, (UNDEF: 2)
     274:	00014c08 	andeq	r4, r1, r8, lsl #24
     278:	05020200 	streq	r0, [r2, #-512]	; 0xfffffe00
     27c:	000001eb 	andeq	r0, r0, fp, ror #3
     280:	78070202 	stmdavc	r7, {r1, r9}
     284:	02000001 	andeq	r0, r0, #1
     288:	00dc0504 	sbcseq	r0, ip, r4, lsl #10
     28c:	20030000 	andcs	r0, r3, r0
     290:	02000001 	andeq	r0, r0, #1
     294:	0058194f 	subseq	r1, r8, pc, asr #18
     298:	04020000 	streq	r0, [r2], #-0
     29c:	00013a07 	andeq	r3, r1, r7, lsl #20
     2a0:	05080200 	streq	r0, [r8, #-512]	; 0xfffffe00
     2a4:	000000d7 	ldrdeq	r0, [r0], -r7
     2a8:	35070802 	strcc	r0, [r7, #-2050]	; 0xfffff7fe
     2ac:	04000001 	streq	r0, [r0], #-1
     2b0:	6e690504 	cdpvs	5, 6, cr0, cr9, cr4, {0}
     2b4:	04020074 	streq	r0, [r2], #-116	; 0xffffff8c
     2b8:	00013f07 	andeq	r3, r1, r7, lsl #30
     2bc:	01220300 			; <UNDEFINED> instruction: 0x01220300
     2c0:	30030000 	andcc	r0, r3, r0
     2c4:	00004c14 	andeq	r4, r0, r4, lsl ip
     2c8:	04080200 	streq	r0, [r8], #-512	; 0xfffffe00
     2cc:	0000018b 	andeq	r0, r0, fp, lsl #3
     2d0:	55080102 	strpl	r0, [r8, #-258]	; 0xfffffefe
     2d4:	05000001 	streq	r0, [r0, #-1]
     2d8:	0000007b 	andeq	r0, r0, fp, ror r0
     2dc:	000000a0 	andeq	r0, r0, r0, lsr #1
     2e0:	e5070006 	str	r0, [r7, #-6]
     2e4:	01000003 	tsteq	r0, r3
     2e8:	0095110f 	addseq	r1, r5, pc, lsl #2
     2ec:	01010000 	mrseq	r0, (UNDEF: 1)
     2f0:	0004f007 	andeq	pc, r4, r7
     2f4:	200f0100 	andcs	r0, pc, r0, lsl #2
     2f8:	00000095 	muleq	r0, r5, r0
     2fc:	01080101 	tsteq	r8, r1, lsl #2
     300:	00000391 	muleq	r0, r1, r3
     304:	01061401 	tsteq	r6, r1, lsl #8
     308:	c2000714 	andgt	r0, r0, #20, 14	; 0x500000
     30c:	c2000780 	andgt	r0, r0, #128, 14	; 0x2000000
     310:	0000007d 	andeq	r0, r0, sp, ror r0
     314:	00017b01 	andeq	r7, r1, r1, lsl #22
     318:	07380900 	ldreq	r0, [r8, -r0, lsl #18]!
     31c:	017bc200 	cmneq	fp, r0, lsl #4
     320:	00ea0000 	rsceq	r0, sl, r0
     324:	010a0000 	mrseq	r0, (UNDEF: 10)
     328:	00300151 	eorseq	r0, r0, r1, asr r1
     32c:	00073c0b 	andeq	r3, r7, fp, lsl #24
     330:	000189c2 	andeq	r8, r1, r2, asr #19
     334:	07400b00 	strbeq	r0, [r0, -r0, lsl #22]
     338:	0197c200 	orrseq	ip, r7, r0, lsl #4
     33c:	440b0000 	strmi	r0, [fp], #-0
     340:	a5c20007 	strbge	r0, [r2, #7]
     344:	0b000001 	bleq	350 <SYS_MODE+0x331>
     348:	c2000748 	andgt	r0, r0, #72, 14	; 0x1200000
     34c:	000001b3 			; <UNDEFINED> instruction: 0x000001b3
     350:	00074c0b 	andeq	r4, r7, fp, lsl #24
     354:	0001c1c2 	andeq	ip, r1, r2, asr #3
     358:	07500b00 	ldrbeq	r0, [r0, -r0, lsl #22]
     35c:	01cfc200 	biceq	ip, pc, r0, lsl #4
     360:	540b0000 	strpl	r0, [fp], #-0
     364:	ddc20007 	stclle	0, cr0, [r2, #28]
     368:	0b000001 	bleq	374 <SYS_MODE+0x355>
     36c:	c2000758 	andgt	r0, r0, #88, 14	; 0x1600000
     370:	000001eb 	andeq	r0, r0, fp, ror #3
     374:	00075c0b 	andeq	r5, r7, fp, lsl #24
     378:	0001f9c2 	andeq	pc, r1, r2, asr #19
     37c:	07600b00 	strbeq	r0, [r0, -r0, lsl #22]!
     380:	0207c200 	andeq	ip, r7, #0, 4
     384:	680b0000 	stmdavs	fp, {}	; <UNPREDICTABLE>
     388:	15c20007 	strbne	r0, [r2, #7]
     38c:	0b000002 	bleq	39c <SYS_MODE+0x37d>
     390:	c200076c 	andgt	r0, r0, #108, 14	; 0x1b00000
     394:	00000223 	andeq	r0, r0, r3, lsr #4
     398:	0007700b 	andeq	r7, r7, fp
     39c:	000231c2 	andeq	r3, r2, r2, asr #3
     3a0:	07740b00 	ldrbeq	r0, [r4, -r0, lsl #22]!
     3a4:	023fc200 	eorseq	ip, pc, #0, 4
     3a8:	780b0000 	stmdavc	fp, {}	; <UNPREDICTABLE>
     3ac:	4dc20007 	stclmi	0, cr0, [r2, #28]
     3b0:	0b000002 	bleq	3c0 <SYS_MODE+0x3a1>
     3b4:	c200077c 	andgt	r0, r0, #124, 14	; 0x1f00000
     3b8:	0000025b 	andeq	r0, r0, fp, asr r2
     3bc:	01010c00 	tsteq	r1, r0, lsl #24
     3c0:	00000425 	andeq	r0, r0, r5, lsr #8
     3c4:	00000425 	andeq	r0, r0, r5, lsr #8
     3c8:	0c092104 	stfeqs	f2, [r9], {4}
     3cc:	04140101 	ldreq	r0, [r4], #-257	; 0xfffffeff
     3d0:	04140000 	ldreq	r0, [r4], #-0
     3d4:	09050000 	stmdbeq	r5, {}	; <UNPREDICTABLE>
     3d8:	01010c06 	tsteq	r1, r6, lsl #24
     3dc:	0000044a 	andeq	r0, r0, sl, asr #8
     3e0:	0000044a 	andeq	r0, r0, sl, asr #8
     3e4:	0c061806 	stceq	8, cr1, [r6], {6}
     3e8:	04040101 	streq	r0, [r4], #-257	; 0xfffffeff
     3ec:	04040000 	streq	r0, [r4], #-0
     3f0:	17070000 	strne	r0, [r7, -r0]
     3f4:	01010c06 	tsteq	r1, r6, lsl #24
     3f8:	000004fa 	strdeq	r0, [r0], -sl
     3fc:	000004fa 	strdeq	r0, [r0], -sl
     400:	0c062c08 	stceq	12, cr2, [r6], {8}
     404:	03f10101 	mvnseq	r0, #1073741824	; 0x40000000
     408:	03f10000 	mvnseq	r0, #0
     40c:	15080000 	strne	r0, [r8, #-0]
     410:	01010c06 	tsteq	r1, r6, lsl #24
     414:	000004b9 			; <UNDEFINED> instruction: 0x000004b9
     418:	000004b9 			; <UNDEFINED> instruction: 0x000004b9
     41c:	0c062008 	stceq	0, cr2, [r6], {8}
     420:	04a60101 	strteq	r0, [r6], #257	; 0x101
     424:	04a60000 	strteq	r0, [r6], #0
     428:	0a080000 	beq	200430 <SYS_MODE+0x200411>
     42c:	01010c06 	tsteq	r1, r6, lsl #24
     430:	000003c0 	andeq	r0, r0, r0, asr #7
     434:	000003c0 	andeq	r0, r0, r0, asr #7
     438:	0c061309 	stceq	3, cr1, [r6], {9}
     43c:	05150101 	ldreq	r0, [r5, #-257]	; 0xfffffeff
     440:	05150000 	ldreq	r0, [r5, #-0]
     444:	09090000 	stmdbeq	r9, {}	; <UNPREDICTABLE>
     448:	01010c06 	tsteq	r1, r6, lsl #24
     44c:	000000e5 	andeq	r0, r0, r5, ror #1
     450:	000000e5 	andeq	r0, r0, r5, ror #1
     454:	0c06090a 			; <UNDEFINED> instruction: 0x0c06090a
     458:	043c0101 	ldrteq	r0, [ip], #-257	; 0xfffffeff
     45c:	043c0000 	ldrteq	r0, [ip], #-0
     460:	130b0000 	movwne	r0, #45056	; 0xb000
     464:	01010c06 	tsteq	r1, r6, lsl #24
     468:	000004d4 	ldrdeq	r0, [r0], -r4
     46c:	000004d4 	ldrdeq	r0, [r0], -r4
     470:	0c06090c 			; <UNDEFINED> instruction: 0x0c06090c
     474:	05320101 	ldreq	r0, [r2, #-257]!	; 0xfffffeff
     478:	05320000 	ldreq	r0, [r2, #-0]!
     47c:	1d0c0000 	stcne	0, cr0, [ip, #-0]
     480:	01010c06 	tsteq	r1, r6, lsl #24
     484:	000003a2 	andeq	r0, r0, r2, lsr #7
     488:	000003a2 	andeq	r0, r0, r2, lsr #7
     48c:	0c06130c 	stceq	3, cr1, [r6], {12}
     490:	042c0101 	strteq	r0, [ip], #-257	; 0xfffffeff
     494:	042c0000 	strteq	r0, [ip], #-0
     498:	070d0000 	streq	r0, [sp, -r0]
     49c:	01010c06 	tsteq	r1, r6, lsl #24
     4a0:	00000386 	andeq	r0, r0, r6, lsl #7
     4a4:	00000386 	andeq	r0, r0, r6, lsl #7
     4a8:	00060e05 	andeq	r0, r6, r5, lsl #28
     4ac:	000002bc 			; <UNDEFINED> instruction: 0x000002bc
     4b0:	01ee0002 	mvneq	r0, r2
     4b4:	01040000 	mrseq	r0, (UNDEF: 4)
     4b8:	000001f5 	strdeq	r0, [r0], -r5
     4bc:	0005750c 	andeq	r7, r5, ip, lsl #10
     4c0:	00005000 	andeq	r5, r0, r0
     4c4:	00003800 	andeq	r3, r0, r0, lsl #16
	...
     4d0:	00084a00 	andeq	r4, r8, r0, lsl #20
     4d4:	06010200 	streq	r0, [r1], -r0, lsl #4
     4d8:	0000014e 	andeq	r0, r0, lr, asr #2
     4dc:	4c080102 	stfmis	f0, [r8], {2}
     4e0:	02000001 	andeq	r0, r0, #1
     4e4:	01eb0502 	mvneq	r0, r2, lsl #10
     4e8:	02020000 	andeq	r0, r2, #0
     4ec:	00017807 	andeq	r7, r1, r7, lsl #16
     4f0:	05040200 	streq	r0, [r4, #-512]	; 0xfffffe00
     4f4:	000000dc 	ldrdeq	r0, [r0], -ip
     4f8:	00012003 	andeq	r2, r1, r3
     4fc:	194f0200 	stmdbne	pc, {r9}^	; <UNPREDICTABLE>
     500:	00000058 	andeq	r0, r0, r8, asr r0
     504:	3a070402 	bcc	1c1514 <SYS_MODE+0x1c14f5>
     508:	02000001 	andeq	r0, r0, #1
     50c:	00d70508 	sbcseq	r0, r7, r8, lsl #10
     510:	08020000 	stmdaeq	r2, {}	; <UNPREDICTABLE>
     514:	00013507 	andeq	r3, r1, r7, lsl #10
     518:	05040400 	streq	r0, [r4, #-1024]	; 0xfffffc00
     51c:	00746e69 	rsbseq	r6, r4, r9, ror #28
     520:	3f070402 	svccc	0x00070402
     524:	03000001 	movweq	r0, #1
     528:	00000122 	andeq	r0, r0, r2, lsr #2
     52c:	4c143003 	ldcmi	0, cr3, [r4], {3}
     530:	03000000 	movweq	r0, #0
     534:	000005e5 	andeq	r0, r0, r5, ror #11
     538:	93100904 	tstls	r0, #4, 18	; 0x10000
     53c:	05000000 	streq	r0, [r0, #-0]
     540:	00009904 	andeq	r9, r0, r4, lsl #18
     544:	a5010600 	strge	r0, [r1, #-1536]	; 0xfffffa00
     548:	07000000 	streq	r0, [r0, -r0]
     54c:	000000a5 	andeq	r0, r0, r5, lsr #1
     550:	09040800 	stmdbeq	r4, {fp}
     554:	000005e0 	andeq	r0, r0, r0, ror #11
     558:	08080108 	stmdaeq	r8, {r3, r8}
     55c:	000000d3 	ldrdeq	r0, [r0], -r3
     560:	000f060a 	andeq	r0, pc, sl, lsl #12
     564:	160a0100 	strne	r0, [sl], -r0, lsl #2
     568:	00000087 	andeq	r0, r0, r7, lsl #1
     56c:	0a002302 	beq	917c <SYS_MODE+0x915d>
     570:	0000065b 	andeq	r0, r0, fp, asr r6
     574:	a50b0b01 	strge	r0, [fp, #-2817]	; 0xfffff4ff
     578:	02000000 	andeq	r0, r0, #0
     57c:	0b000423 	bleq	1610 <SYS_MODE+0x15f1>
     580:	000000a7 	andeq	r0, r0, r7, lsr #1
     584:	000000e3 	andeq	r0, r0, r3, ror #1
     588:	0000740c 	andeq	r7, r0, ip, lsl #8
     58c:	0d007f00 	stceq	15, cr7, [r0, #-0]
     590:	000005f6 	strdeq	r0, [r0], -r6
     594:	d3251101 			; <UNDEFINED> instruction: 0xd3251101
     598:	05000000 	streq	r0, [r0, #-0]
     59c:	008b0803 	addeq	r0, fp, r3, lsl #16
     5a0:	0d010ec2 	stceq	14, cr0, [r1, #-776]	; 0xfffffcf8
     5a4:	01000006 	tsteq	r0, r6
     5a8:	00010653 	andeq	r0, r1, r3, asr r6
     5ac:	00000000 	andeq	r0, r0, r0
     5b0:	9d000000 	stcls	0, cr0, [r0, #-0]
     5b4:	01000000 	mrseq	r0, (UNDEF: 0)
     5b8:	00000135 	andeq	r0, r0, r5, lsr r1
     5bc:	7172690f 	cmnvc	r2, pc, lsl #18
     5c0:	23530100 	cmpcs	r3, #0, 2
     5c4:	0000007b 	andeq	r0, r0, fp, ror r0
     5c8:	000000c1 	andeq	r0, r0, r1, asr #1
     5cc:	000000bd 	strheq	r0, [r0], -sp
     5d0:	00000010 	andeq	r0, r0, r0, lsl r0
     5d4:	00027900 	andeq	r7, r2, r0, lsl #18
     5d8:	50011100 	andpl	r1, r1, r0, lsl #2
     5dc:	00007402 	andeq	r7, r0, r2, lsl #8
     5e0:	b8010e00 	stmdalt	r1, {r9, sl, fp}
     5e4:	01000005 	tsteq	r0, r5
     5e8:	f001063d 			; <UNDEFINED> instruction: 0xf001063d
     5ec:	30c20007 	sbccc	r0, r2, r7
     5f0:	dfc20008 	svcle	0x00c20008
     5f4:	01000000 	mrseq	r0, (UNDEF: 0)
     5f8:	000001cc 	andeq	r0, r0, ip, asr #3
     5fc:	7172690f 	cmnvc	r2, pc, lsl #18
     600:	213d0100 	teqcs	sp, r0, lsl #2
     604:	0000007b 	andeq	r0, r0, fp, ror r0
     608:	00000103 	andeq	r0, r0, r3, lsl #2
     60c:	000000ff 	strdeq	r0, [r0], -pc	; <UNPREDICTABLE>
     610:	0005d712 	andeq	sp, r5, r2, lsl r7
     614:	2f3d0100 	svccs	0x003d0100
     618:	0000007b 	andeq	r0, r0, fp, ror r0
     61c:	00000125 	andeq	r0, r0, r5, lsr #2
     620:	00000121 	andeq	r0, r0, r1, lsr #2
     624:	00065b12 	andeq	r5, r6, r2, lsl fp
     628:	3f3d0100 	svccc	0x003d0100
     62c:	000000a5 	andeq	r0, r0, r5, lsr #1
     630:	0000014a 	andeq	r0, r0, sl, asr #2
     634:	00000146 	andeq	r0, r0, r6, asr #2
     638:	000f0612 	andeq	r0, pc, r2, lsl r6	; <UNPREDICTABLE>
     63c:	563d0100 	ldrtpl	r0, [sp], -r0, lsl #2
     640:	00000087 	andeq	r0, r0, r7, lsl #1
     644:	0000016c 	andeq	r0, r0, ip, ror #2
     648:	00000168 	andeq	r0, r0, r8, ror #2
     64c:	00081013 	andeq	r1, r8, r3, lsl r0
     650:	000287c2 	andeq	r8, r2, r2, asr #15
     654:	0001bb00 	andeq	fp, r1, r0, lsl #22
     658:	50011100 	andpl	r1, r1, r0, lsl #2
     65c:	11007402 	tstne	r0, r2, lsl #8
     660:	f3035101 	vrhadd.u8	d5, d3, d1
     664:	10005101 	andne	r5, r0, r1, lsl #2
     668:	c2000818 	andgt	r0, r0, #24, 16	; 0x180000
     66c:	00000295 	muleq	r0, r5, r2
     670:	02500111 	subseq	r0, r0, #1073741828	; 0x40000004
     674:	00000074 	andeq	r0, r0, r4, ror r0
     678:	043c010e 	ldrteq	r0, [ip], #-270	; 0xfffffef2
     67c:	2a010000 	bcs	40684 <SYS_MODE+0x40665>
     680:	07ac0106 	streq	r0, [ip, r6, lsl #2]!
     684:	07f0c200 	ldrbeq	ip, [r0, r0, lsl #4]!
     688:	018ac200 	orreq	ip, sl, r0, lsl #4
     68c:	11010000 	mrsne	r0, (UNDEF: 1)
     690:	14000002 	strne	r0, [r0], #-2
     694:	c20007b0 	andgt	r0, r0, #176, 14	; 0x2c00000
     698:	c20007e4 	andgt	r0, r0, #228, 14	; 0x3900000
     69c:	00000207 	andeq	r0, r0, r7, lsl #4
     6a0:	01006915 	tsteq	r0, r5, lsl r9
     6a4:	007b132d 	rsbseq	r1, fp, sp, lsr #6
     6a8:	01ae0000 			; <UNDEFINED> instruction: 0x01ae0000
     6ac:	01aa0000 			; <UNDEFINED> instruction: 0x01aa0000
     6b0:	16000000 	strne	r0, [r0], -r0
     6b4:	c20007e8 	andgt	r0, r0, #232, 14	; 0x3a00000
     6b8:	000002a3 	andeq	r0, r0, r3, lsr #5
     6bc:	4e011700 	cdpmi	7, 0, cr1, cr1, cr0, {0}
     6c0:	01000005 	tsteq	r0, r5
     6c4:	8401061e 	strhi	r0, [r1], #-1566	; 0xfffff9e2
     6c8:	acc20007 	stclge	0, cr0, [r2], {7}
     6cc:	cdc20007 	stclgt	0, cr0, [r2, #28]
     6d0:	01000001 	tsteq	r0, r1
     6d4:	00000251 	andeq	r0, r0, r1, asr r2
     6d8:	7172690f 	cmnvc	r2, pc, lsl #18
     6dc:	201e0100 	andscs	r0, lr, r0, lsl #2
     6e0:	0000007b 	andeq	r0, r0, fp, ror r0
     6e4:	000001f1 	strdeq	r0, [r0], -r1
     6e8:	000001ed 	andeq	r0, r0, sp, ror #3
     6ec:	00079010 	andeq	r9, r7, r0, lsl r0
     6f0:	0002b1c2 	andeq	fp, r2, r2, asr #3
     6f4:	50011100 	andpl	r1, r1, r0, lsl #2
     6f8:	00007402 	andeq	r7, r0, r2, lsl #8
     6fc:	06211800 	strteq	r1, [r1], -r0, lsl #16
     700:	16010000 	strne	r0, [r1], -r0
     704:	0780010d 	streq	r0, [r0, sp, lsl #2]
     708:	0784c200 	streq	ip, [r4, r0, lsl #4]
     70c:	7d02c200 	sfmvc	f4, 1, [r2, #-0]
     710:	02790100 	rsbseq	r0, r9, #0, 2
     714:	5b190000 	blpl	64071c <SYS_MODE+0x6406fd>
     718:	01000006 	tsteq	r0, r6
     71c:	00a52c16 	adceq	r2, r5, r6, lsl ip
     720:	50010000 	andpl	r0, r1, r0
     724:	01011a00 	tsteq	r1, r0, lsl #20
     728:	0000064a 	andeq	r0, r0, sl, asr #12
     72c:	0000064a 	andeq	r0, r0, sl, asr #12
     730:	1a06a205 	bne	1a8f4c <SYS_MODE+0x1a8f2d>
     734:	05ca0101 	strbeq	r0, [sl, #257]	; 0x101
     738:	05ca0000 	strbeq	r0, [sl]
     73c:	98050000 	stmdals	r5, {}	; <UNPREDICTABLE>
     740:	01011a06 	tsteq	r1, r6, lsl #20
     744:	0000063a 	andeq	r0, r0, sl, lsr r6
     748:	0000063a 	andeq	r0, r0, sl, lsr r6
     74c:	1a069d05 	bne	1a7b68 <SYS_MODE+0x1a7b49>
     750:	06600101 	strbteq	r0, [r0], -r1, lsl #2
     754:	06600000 	strbteq	r0, [r0], -r0
     758:	93050000 	movwls	r0, #20480	; 0x5000
     75c:	01011a06 	tsteq	r1, r6, lsl #20
     760:	0000055f 	andeq	r0, r0, pc, asr r5
     764:	0000055f 	andeq	r0, r0, pc, asr r5
     768:	0006a705 	andeq	sl, r6, r5, lsl #14
     76c:	00000022 	andeq	r0, r0, r2, lsr #32
     770:	037b0002 	cmneq	fp, #2
     774:	01040000 	mrseq	r0, (UNDEF: 4)
     778:	00000b11 	andeq	r0, r0, r1, lsl fp
     77c:	c20004fc 	andgt	r0, r0, #252, 8	; 0xfc000000
     780:	c2000544 	andgt	r0, r0, #68, 10	; 0x11000000
     784:	0000066e 	andeq	r0, r0, lr, ror #12
     788:	00000050 	andeq	r0, r0, r0, asr r0
     78c:	00000084 	andeq	r0, r0, r4, lsl #1
     790:	00228001 	eoreq	r8, r2, r1
     794:	00020000 	andeq	r0, r2, r0
     798:	0000038f 	andeq	r0, r0, pc, lsl #7
     79c:	0b930104 	bleq	fe4c0bb4 <__HeapLimit+0x3c4b3bb4>
     7a0:	05440000 	strbeq	r0, [r4, #-0]
     7a4:	0594c200 	ldreq	ip, [r4, #512]	; 0x200
     7a8:	06b1c200 	ldrteq	ip, [r1], r0, lsl #4
     7ac:	00500000 	subseq	r0, r0, r0
     7b0:	00840000 	addeq	r0, r4, r0
     7b4:	80010000 	andhi	r0, r1, r0
     7b8:	00000022 	andeq	r0, r0, r2, lsr #32
     7bc:	03a30002 			; <UNDEFINED> instruction: 0x03a30002
     7c0:	01040000 	mrseq	r0, (UNDEF: 4)
     7c4:	00000c18 	andeq	r0, r0, r8, lsl ip
     7c8:	c2000594 	andgt	r0, r0, #148, 10	; 0x25000000
     7cc:	c20006e0 	andgt	r0, r0, #224, 12	; 0xe000000
     7d0:	000006f4 	strdeq	r0, [r0], -r4
     7d4:	00000050 	andeq	r0, r0, r0, asr r0
     7d8:	00000084 	andeq	r0, r0, r4, lsl #1
     7dc:	00228001 	eoreq	r8, r2, r1
     7e0:	00020000 	andeq	r0, r2, r0
     7e4:	000003b7 			; <UNDEFINED> instruction: 0x000003b7
     7e8:	0ce00104 	stfeqe	f0, [r0], #16
     7ec:	005c0000 	subseq	r0, ip, r0
     7f0:	00f4c200 	rscseq	ip, r4, r0, lsl #4
     7f4:	0737c200 	ldreq	ip, [r7, -r0, lsl #4]!
     7f8:	00500000 	subseq	r0, r0, r0
     7fc:	00840000 	addeq	r0, r4, r0
     800:	80010000 	andhi	r0, r1, r0
     804:	00000022 	andeq	r0, r0, r2, lsr #32
     808:	03cb0002 	biceq	r0, fp, #2
     80c:	01040000 	mrseq	r0, (UNDEF: 4)
     810:	00000d7f 	andeq	r0, r0, pc, ror sp
     814:	c2000000 	andgt	r0, r0, #0
     818:	c200005c 	andgt	r0, r0, #92	; 0x5c
     81c:	0000077e 	andeq	r0, r0, lr, ror r7
     820:	00000050 	andeq	r0, r0, r0, asr r0
     824:	00000084 	andeq	r0, r0, r4, lsl #1
     828:	025c8001 	subseq	r8, ip, #1
     82c:	00020000 	andeq	r0, r2, r0
     830:	000003df 	ldrdeq	r0, [r0], -pc	; <UNPREDICTABLE>
     834:	01f50104 	mvnseq	r0, r4, lsl #2
     838:	cb0c0000 	blgt	300840 <SYS_MODE+0x300821>
     83c:	50000007 	andpl	r0, r0, r7
     840:	68000000 	stmdavs	r0, {}	; <UNPREDICTABLE>
	...
     84c:	06000000 	streq	r0, [r0], -r0
     850:	0200000e 	andeq	r0, r0, #14
     854:	014e0601 	cmpeq	lr, r1, lsl #12
     858:	01020000 	mrseq	r0, (UNDEF: 2)
     85c:	00014c08 	andeq	r4, r1, r8, lsl #24
     860:	05020200 	streq	r0, [r2, #-512]	; 0xfffffe00
     864:	000001eb 	andeq	r0, r0, fp, ror #3
     868:	78070202 	stmdavc	r7, {r1, r9}
     86c:	02000001 	andeq	r0, r0, #1
     870:	00dc0504 	sbcseq	r0, ip, r4, lsl #10
     874:	20030000 	andcs	r0, r3, r0
     878:	02000001 	andeq	r0, r0, #1
     87c:	0058194f 	subseq	r1, r8, pc, asr #18
     880:	04020000 	streq	r0, [r2], #-0
     884:	00013a07 	andeq	r3, r1, r7, lsl #20
     888:	05080200 	streq	r0, [r8, #-512]	; 0xfffffe00
     88c:	000000d7 	ldrdeq	r0, [r0], -r7
     890:	35070802 	strcc	r0, [r7, #-2050]	; 0xfffff7fe
     894:	04000001 	streq	r0, [r0], #-1
     898:	6e690504 	cdpvs	5, 6, cr0, cr9, cr4, {0}
     89c:	04020074 	streq	r0, [r2], #-116	; 0xffffff8c
     8a0:	00013f07 	andeq	r3, r1, r7, lsl #30
     8a4:	01220300 			; <UNDEFINED> instruction: 0x01220300
     8a8:	30030000 	andcc	r0, r3, r0
     8ac:	00004c14 	andeq	r4, r0, r4, lsl ip
     8b0:	12010500 	andne	r0, r1, #0, 10
     8b4:	01000008 	tsteq	r0, r8
     8b8:	00010657 	andeq	r0, r1, r7, asr r6
     8bc:	00000000 	andeq	r0, r0, r0
     8c0:	02000000 	andeq	r0, r0, #0
     8c4:	de01007d 	mcrle	0, 0, r0, cr1, cr13, {3}
     8c8:	06000000 	streq	r0, [r0], -r0
     8cc:	00717269 	rsbseq	r7, r1, r9, ror #4
     8d0:	7b205701 	blvc	8164dc <SYS_MODE+0x8164bd>
     8d4:	13000000 	movwne	r0, #0
     8d8:	0f000002 	svceq	0x00000002
     8dc:	07000002 	streq	r0, [r0, -r2]
     8e0:	000007c5 	andeq	r0, r0, r5, asr #15
     8e4:	74125901 	ldrvc	r5, [r2], #-2305	; 0xfffff6ff
     8e8:	3a000000 	bcc	8f0 <SYS_MODE+0x8d1>
     8ec:	34000002 	strcc	r0, [r0], #-2
     8f0:	08000002 	stmdaeq	r0, {r1}
     8f4:	00746962 	rsbseq	r6, r4, r2, ror #18
     8f8:	74125a01 	ldrvc	r5, [r2], #-2561	; 0xfffff5ff
     8fc:	73000000 	movwvc	r0, #0
     900:	6d000002 	stcvs	0, cr0, [r0, #-8]
     904:	00000002 	andeq	r0, r0, r2
     908:	055f0105 	ldrbeq	r0, [pc, #-261]	; 80b <SYS_MODE+0x7ec>
     90c:	46010000 	strmi	r0, [r1], -r0
     910:	08b80106 	ldmeq	r8!, {r1, r2, r8}
     914:	08e0c200 	stmiaeq	r0!, {r9, lr, pc}^
     918:	7d02c200 	sfmvc	f4, 1, [r2, #-0]
     91c:	01350100 	teqeq	r5, r0, lsl #2
     920:	69060000 	stmdbvs	r6, {}	; <UNPREDICTABLE>
     924:	01007172 	tsteq	r0, r2, ror r1
     928:	007b2546 	rsbseq	r2, fp, r6, asr #10
     92c:	02a60000 	adceq	r0, r6, #0
     930:	02a20000 	adceq	r0, r2, #0
     934:	c5070000 	strgt	r0, [r7, #-0]
     938:	01000007 	tsteq	r0, r7
     93c:	00741248 	rsbseq	r1, r4, r8, asr #4
     940:	02cd0000 	sbceq	r0, sp, #0
     944:	02c70000 	sbceq	r0, r7, #0
     948:	62080000 	andvs	r0, r8, #0
     94c:	01007469 	tsteq	r0, r9, ror #8
     950:	00741249 	rsbseq	r1, r4, r9, asr #4
     954:	03060000 	movweq	r0, #24576	; 0x6000
     958:	03000000 	movweq	r0, #0
     95c:	05000000 	streq	r0, [r0, #-0]
     960:	00064a01 	andeq	r4, r6, r1, lsl #20
     964:	06350100 	ldrteq	r0, [r5], -r0, lsl #2
     968:	00000001 	andeq	r0, r0, r1
     96c:	00000000 	andeq	r0, r0, r0
     970:	007d0200 	rsbseq	r0, sp, r0, lsl #4
     974:	00018c01 	andeq	r8, r1, r1, lsl #24
     978:	72690600 	rsbvc	r0, r9, #0, 12
     97c:	35010071 	strcc	r0, [r1, #-113]	; 0xffffff8f
     980:	00007b20 	andeq	r7, r0, r0, lsr #22
     984:	00033900 	andeq	r3, r3, r0, lsl #18
     988:	00033500 	andeq	r3, r3, r0, lsl #10
     98c:	07c50700 	strbeq	r0, [r5, r0, lsl #14]
     990:	37010000 	strcc	r0, [r1, -r0]
     994:	00007412 	andeq	r7, r0, r2, lsl r4
     998:	00036000 	andeq	r6, r3, r0
     99c:	00035a00 	andeq	r5, r3, r0, lsl #20
     9a0:	69620800 	stmdbvs	r2!, {fp}^
     9a4:	38010074 	stmdacc	r1, {r2, r4, r5, r6}
     9a8:	00007412 	andeq	r7, r0, r2, lsl r4
     9ac:	00039900 	andeq	r9, r3, r0, lsl #18
     9b0:	00039300 	andeq	r9, r3, r0, lsl #6
     9b4:	01050000 	mrseq	r0, (UNDEF: 5)
     9b8:	0000063a 	andeq	r0, r0, sl, lsr r6
     9bc:	01062401 	tsteq	r6, r1, lsl #8
     9c0:	c2000890 	andgt	r0, r0, #144, 16	; 0x900000
     9c4:	c20008b8 	andgt	r0, r0, #184, 16	; 0xb80000
     9c8:	01007d02 	tsteq	r0, r2, lsl #26
     9cc:	000001e3 	andeq	r0, r0, r3, ror #3
     9d0:	71726906 	cmnvc	r2, r6, lsl #18
     9d4:	1f240100 	svcne	0x00240100
     9d8:	0000007b 	andeq	r0, r0, fp, ror r0
     9dc:	000003cc 	andeq	r0, r0, ip, asr #7
     9e0:	000003c8 	andeq	r0, r0, r8, asr #7
     9e4:	0007c507 	andeq	ip, r7, r7, lsl #10
     9e8:	12260100 	eorne	r0, r6, #0, 2
     9ec:	00000074 	andeq	r0, r0, r4, ror r0
     9f0:	000003f3 	strdeq	r0, [r0], -r3
     9f4:	000003ed 	andeq	r0, r0, sp, ror #7
     9f8:	74696208 	strbtvc	r6, [r9], #-520	; 0xfffffdf8
     9fc:	12270100 	eorne	r0, r7, #0, 2
     a00:	00000074 	andeq	r0, r0, r4, ror r0
     a04:	0000042c 	andeq	r0, r0, ip, lsr #8
     a08:	00000426 	andeq	r0, r0, r6, lsr #8
     a0c:	ca010500 	bgt	41e14 <SYS_MODE+0x41df5>
     a10:	01000005 	tsteq	r0, r5
     a14:	68010619 	stmdavs	r1, {r0, r3, r4, r9, sl}
     a18:	90c20008 	sbcls	r0, r2, r8
     a1c:	02c20008 	sbceq	r0, r2, #8
     a20:	2001007d 	andcs	r0, r1, sp, ror r0
     a24:	09000002 	stmdbeq	r0, {r1}
     a28:	00717269 	rsbseq	r7, r1, r9, ror #4
     a2c:	7b251901 	blvc	946e38 <SYS_MODE+0x946e19>
     a30:	01000000 	mrseq	r0, (UNDEF: 0)
     a34:	05d70a50 	ldrbeq	r0, [r7, #2640]	; 0xa50
     a38:	19010000 	stmdbne	r1, {}	; <UNPREDICTABLE>
     a3c:	00007b33 	andeq	r7, r0, r3, lsr fp
     a40:	00045f00 	andeq	r5, r4, r0, lsl #30
     a44:	00045b00 	andeq	r5, r4, r0, lsl #22
     a48:	010b0000 	mrseq	r0, (UNDEF: 11)
     a4c:	00000660 	andeq	r0, r0, r0, ror #12
     a50:	01060601 	tsteq	r6, r1, lsl #12
     a54:	c2000830 	andgt	r0, r0, #48, 16	; 0x300000
     a58:	c2000868 	andgt	r0, r0, #104, 16	; 0x680000
     a5c:	01007d02 	tsteq	r0, r2, lsl #26
     a60:	00082307 	andeq	r2, r8, r7, lsl #6
     a64:	0e080100 	adfeqe	f0, f0, f0
     a68:	0000007b 	andeq	r0, r0, fp, ror r0
     a6c:	00000484 	andeq	r0, r0, r4, lsl #9
     a70:	00000480 	andeq	r0, r0, r0, lsl #9
     a74:	000cce07 	andeq	ip, ip, r7, lsl #28
     a78:	0e090100 	adfeqe	f0, f1, f0
     a7c:	0000007b 	andeq	r0, r0, fp, ror r0
     a80:	000004a9 	andeq	r0, r0, r9, lsr #9
     a84:	000004a3 	andeq	r0, r0, r3, lsr #9
     a88:	00220000 	eoreq	r0, r2, r0
     a8c:	00020000 	andeq	r0, r2, r0
     a90:	000004b1 			; <UNDEFINED> instruction: 0x000004b1
     a94:	10590104 	subsne	r0, r9, r4, lsl #2
     a98:	08e00000 	stmiaeq	r0!, {}^	; <UNPREDICTABLE>
     a9c:	0950c200 	ldmdbeq	r0, {r9, lr, pc}^
     aa0:	082dc200 	stmdaeq	sp!, {r9, lr, pc}
     aa4:	00500000 	subseq	r0, r0, r0
     aa8:	00840000 	addeq	r0, r4, r0
     aac:	80010000 	andhi	r0, r1, r0
     ab0:	00000542 	andeq	r0, r0, r2, asr #10
     ab4:	04c50002 	strbeq	r0, [r5], #2
     ab8:	01040000 	mrseq	r0, (UNDEF: 4)
     abc:	000001f5 	strdeq	r0, [r0], -r5
     ac0:	000ab60c 	andeq	fp, sl, ip, lsl #12
     ac4:	00005000 	andeq	r5, r0, r0
     ac8:	0000a000 	andeq	sl, r0, r0
	...
     ad4:	0010ec00 	andseq	lr, r0, r0, lsl #24
     ad8:	06010200 	streq	r0, [r1], -r0, lsl #4
     adc:	0000014e 	andeq	r0, r0, lr, asr #2
     ae0:	4c080102 	stfmis	f0, [r8], {2}
     ae4:	02000001 	andeq	r0, r0, #1
     ae8:	01eb0502 	mvneq	r0, r2, lsl #10
     aec:	02020000 	andeq	r0, r2, #0
     af0:	00017807 	andeq	r7, r1, r7, lsl #16
     af4:	05040200 	streq	r0, [r4, #-512]	; 0xfffffe00
     af8:	000000dc 	ldrdeq	r0, [r0], -ip
     afc:	00012003 	andeq	r2, r1, r3
     b00:	194f0200 	stmdbne	pc, {r9}^	; <UNPREDICTABLE>
     b04:	00000058 	andeq	r0, r0, r8, asr r0
     b08:	3a070402 	bcc	1c1b18 <SYS_MODE+0x1c1af9>
     b0c:	02000001 	andeq	r0, r0, #1
     b10:	00d70508 	sbcseq	r0, r7, r8, lsl #10
     b14:	08020000 	stmdaeq	r2, {}	; <UNPREDICTABLE>
     b18:	00013507 	andeq	r3, r1, r7, lsl #10
     b1c:	05040400 	streq	r0, [r4, #-1024]	; 0xfffffc00
     b20:	00746e69 	rsbseq	r6, r4, r9, ror #28
     b24:	00006d05 	andeq	r6, r0, r5, lsl #26
     b28:	07040200 	streq	r0, [r4, -r0, lsl #4]
     b2c:	0000013f 	andeq	r0, r0, pc, lsr r1
     b30:	00012203 	andeq	r2, r1, r3, lsl #4
     b34:	14300300 	ldrtne	r0, [r0], #-768	; 0xfffffd00
     b38:	0000004c 	andeq	r0, r0, ip, asr #32
     b3c:	00008005 	andeq	r8, r0, r5
     b40:	01070600 	tsteq	r7, r0, lsl #12
     b44:	00000030 	andeq	r0, r0, r0, lsr r0
     b48:	b80e7b04 	stmdalt	lr, {r2, r8, r9, fp, ip, sp, lr}
     b4c:	07000000 	streq	r0, [r0, -r0]
     b50:	00000afb 	strdeq	r0, [r0], -fp
     b54:	0a330700 	beq	cc275c <SYS_MODE+0xcc273d>
     b58:	07010000 	streq	r0, [r1, -r0]
     b5c:	00000b47 	andeq	r0, r0, r7, asr #22
     b60:	08cc0702 	stmiaeq	ip, {r1, r8, r9, sl}^
     b64:	00030000 	andeq	r0, r3, r0
     b68:	00091c03 	andeq	r1, r9, r3, lsl #24
     b6c:	03800400 	orreq	r0, r0, #0, 8
     b70:	00000091 	muleq	r0, r1, r0
     b74:	30010706 	andcc	r0, r1, r6, lsl #14
     b78:	04000000 	streq	r0, [r0], #-0
     b7c:	00eb0e85 	rsceq	r0, fp, r5, lsl #29
     b80:	fa070000 	blx	1c0b88 <SYS_MODE+0x1c0b69>
     b84:	00000009 	andeq	r0, r0, r9
     b88:	000b8107 	andeq	r8, fp, r7, lsl #2
     b8c:	30070100 	andcc	r0, r7, r0, lsl #2
     b90:	0200000b 	andeq	r0, r0, #11
     b94:	000a1107 	andeq	r1, sl, r7, lsl #2
     b98:	03000300 	movweq	r0, #768	; 0x300
     b9c:	00000954 	andeq	r0, r0, r4, asr r9
     ba0:	c4038a04 	strgt	r8, [r3], #-2564	; 0xfffff5fc
     ba4:	06000000 	streq	r0, [r0], -r0
     ba8:	00300107 	eorseq	r0, r0, r7, lsl #2
     bac:	8f040000 	svchi	0x00040000
     bb0:	0001180e 	andeq	r1, r1, lr, lsl #16
     bb4:	09cf0700 	stmibeq	pc, {r8, r9, sl}^	; <UNPREDICTABLE>
     bb8:	07000000 	streq	r0, [r0, -r0]
     bbc:	00000a54 	andeq	r0, r0, r4, asr sl
     bc0:	0a9f0701 	beq	fe7c27cc <__HeapLimit+0x3c7b57cc>
     bc4:	00020000 	andeq	r0, r2, r0
     bc8:	000b6903 	andeq	r6, fp, r3, lsl #18
     bcc:	03930400 	orrseq	r0, r3, #0, 8
     bd0:	000000f7 	strdeq	r0, [r0], -r7
     bd4:	30010706 	andcc	r0, r1, r6, lsl #14
     bd8:	04000000 	streq	r0, [r0], #-0
     bdc:	01450e98 			; <UNDEFINED> instruction: 0x01450e98
     be0:	36070000 	strcc	r0, [r7], -r0
     be4:	00000009 	andeq	r0, r0, r9
     be8:	000a7c07 	andeq	r7, sl, r7, lsl #24
     bec:	ae070100 	adfges	f0, f7, f0
     bf0:	02000009 	andeq	r0, r0, #9
     bf4:	08fa0300 	ldmeq	sl!, {r8, r9}^
     bf8:	9c040000 	stcls	0, cr0, [r4], {-0}
     bfc:	00012403 	andeq	r2, r1, r3, lsl #8
     c00:	04100800 	ldreq	r0, [r0], #-2048	; 0xfffff800
     c04:	01d309a1 	bicseq	r0, r3, r1, lsr #19
     c08:	25090000 	strcs	r0, [r9, #-0]
     c0c:	0400000b 	streq	r0, [r0], #-11
     c10:	01d30aa2 	bicseq	r0, r3, r2, lsr #21
     c14:	23020000 	movwcs	r0, #8192	; 0x2000
     c18:	09100900 	ldmdbeq	r0, {r8, fp}
     c1c:	a3040000 	movwge	r0, #16384	; 0x4000
     c20:	0001d30a 	andeq	sp, r1, sl, lsl #6
     c24:	01230200 			; <UNDEFINED> instruction: 0x01230200
     c28:	0009c609 	andeq	ip, r9, r9, lsl #12
     c2c:	0ea40400 	cdpeq	4, 10, cr0, cr4, cr0, {0}
     c30:	00000080 	andeq	r0, r0, r0, lsl #1
     c34:	09042302 	stmdbeq	r4, {r1, r8, r9, sp}
     c38:	00000a46 	andeq	r0, r0, r6, asr #20
     c3c:	b81fa504 	ldmdalt	pc, {r2, r8, sl, sp, pc}	; <UNPREDICTABLE>
     c40:	02000000 	andeq	r0, r0, #0
     c44:	df090823 	svcle	0x00090823
     c48:	04000008 	streq	r0, [r0], #-8
     c4c:	00b81fa6 	adcseq	r1, r8, r6, lsr #31
     c50:	23020000 	movwcs	r0, #8192	; 0x2000
     c54:	09bf0909 	ldmibeq	pc!, {r0, r3, r8, fp}	; <UNPREDICTABLE>
     c58:	a7040000 	strge	r0, [r4, -r0]
     c5c:	0001451b 	andeq	r4, r1, fp, lsl r5
     c60:	0a230200 	beq	8c1468 <SYS_MODE+0x8c1449>
     c64:	00096e09 	andeq	r6, r9, r9, lsl #28
     c68:	1da80400 	cfstrsne	mvf0, [r8]
     c6c:	00000118 	andeq	r0, r0, r8, lsl r1
     c70:	090b2302 	stmdbeq	fp, {r1, r8, r9, sp}
     c74:	00000a28 	andeq	r0, r0, r8, lsr #20
     c78:	eb1fa904 	bl	7eb090 <SYS_MODE+0x7eb071>
     c7c:	02000000 	andeq	r0, r0, #0
     c80:	02000c23 	andeq	r0, r0, #8960	; 0x2300
     c84:	0a940201 	beq	fe501490 <__HeapLimit+0x3c4f4490>
     c88:	98030000 	stmdals	r3, {}	; <UNPREDICTABLE>
     c8c:	04000009 	streq	r0, [r0], #-9
     c90:	015103aa 	cmpeq	r1, sl, lsr #7
     c94:	da050000 	ble	140c9c <SYS_MODE+0x140c7d>
     c98:	08000001 	stmdaeq	r0, {r0}
     c9c:	0906010c 	stmdbeq	r6, {r2, r3, r8}
     ca0:	00000222 	andeq	r0, r0, r2, lsr #4
     ca4:	0009f509 	andeq	pc, r9, r9, lsl #10
     ca8:	0e070100 	adfeqs	f0, f7, f0
     cac:	00000080 	andeq	r0, r0, r0, lsl #1
     cb0:	0a002302 	beq	98c0 <SYS_MODE+0x98a1>
     cb4:	00686c64 	rsbeq	r6, r8, r4, ror #24
     cb8:	800e0801 	andhi	r0, lr, r1, lsl #16
     cbc:	02000000 	andeq	r0, r0, #0
     cc0:	640a0423 	strvs	r0, [sl], #-1059	; 0xfffffbdd
     cc4:	01006c6c 	tsteq	r0, ip, ror #24
     cc8:	00800e09 	addeq	r0, r0, r9, lsl #28
     ccc:	23020000 	movwcs	r0, #8192	; 0x2000
     cd0:	0d030008 	stceq	0, cr0, [r3, #-32]	; 0xffffffe0
     cd4:	0100000b 	tsteq	r0, fp
     cd8:	01eb030a 	mvneq	r0, sl, lsl #6
     cdc:	22050000 	andcs	r0, r5, #0
     ce0:	0b000002 	bleq	cf0 <SYS_MODE+0xcd1>
     ce4:	0000022e 	andeq	r0, r0, lr, lsr #4
     ce8:	00000243 	andeq	r0, r0, r3, asr #4
     cec:	0000790c 	andeq	r7, r0, ip, lsl #18
     cf0:	05000b00 	streq	r0, [r0, #-2816]	; 0xfffff500
     cf4:	00000233 	andeq	r0, r0, r3, lsr r2
     cf8:	0008840d 	andeq	r8, r8, sp, lsl #8
     cfc:	260c0100 	strcs	r0, [ip], -r0, lsl #2
     d00:	00000243 	andeq	r0, r0, r3, asr #4
     d04:	7c000305 	stcvc	3, cr0, [r0], {5}
     d08:	010ec200 	mrseq	ip, LR_fiq
     d0c:	00000945 	andeq	r0, r0, r5, asr #18
     d10:	06011801 	streq	r1, [r1], -r1, lsl #16
     d14:	000c0c01 	andeq	r0, ip, r1, lsl #24
     d18:	000c20c2 	andeq	r2, ip, r2, asr #1
     d1c:	007d02c2 	rsbseq	r0, sp, r2, asr #5
     d20:	0002b501 	andeq	fp, r2, r1, lsl #10
     d24:	0a6f0f00 	beq	1bc492c <SYS_MODE+0x1bc490d>
     d28:	18010000 	stmdane	r1, {}	; <UNPREDICTABLE>
     d2c:	008c2401 	addeq	r2, ip, r1, lsl #8
     d30:	04d50000 	ldrbeq	r0, [r5], #0
     d34:	04d30000 	ldrbeq	r0, [r3], #0
     d38:	9a0f0000 	bls	3c0d40 <SYS_MODE+0x3c0d21>
     d3c:	0100000a 	tsteq	r0, sl
     d40:	743c0118 	ldrtvc	r0, [ip], #-280	; 0xfffffee8
     d44:	ea000000 	b	d4c <SYS_MODE+0xd2d>
     d48:	e8000004 	stmda	r0, {r2}
     d4c:	10000004 	andne	r0, r0, r4
     d50:	000008f4 	strdeq	r0, [r0], -r4
     d54:	0e011a01 	vmlaeq.f32	s2, s2, s2
     d58:	00000080 	andeq	r0, r0, r0, lsl #1
     d5c:	00000501 	andeq	r0, r0, r1, lsl #10
     d60:	000004fd 	strdeq	r0, [r0], -sp
     d64:	b5011100 	strlt	r1, [r1, #-256]	; 0xffffff00
     d68:	01000008 	tsteq	r0, r8
     d6c:	0106010e 	tsteq	r6, lr, lsl #2
     d70:	c2000bdc 	andgt	r0, r0, #220, 22	; 0x37000
     d74:	c2000c0c 	andgt	r0, r0, #12, 24	; 0xc00
     d78:	00000526 	andeq	r0, r0, r6, lsr #10
     d7c:	00034001 	andeq	r4, r3, r1
     d80:	0a6f0f00 	beq	1bc4988 <SYS_MODE+0x1bc4969>
     d84:	0e010000 	cdpeq	0, 0, cr0, cr1, cr0, {0}
     d88:	008c2401 	addeq	r2, ip, r1, lsl #8
     d8c:	054a0000 	strbeq	r0, [sl, #-0]
     d90:	05460000 	strbeq	r0, [r6, #-0]
     d94:	d50f0000 	strle	r0, [pc, #-0]	; d9c <SYS_MODE+0xd7d>
     d98:	0100000e 	tsteq	r0, lr
     d9c:	404f010e 	submi	r0, pc, lr, lsl #2
     da0:	6c000003 	stcvs	0, cr0, [r0], {3}
     da4:	68000005 	stmdavs	r0, {r0, r2}
     da8:	12000005 	andne	r0, r0, #5
     dac:	c2000bf0 	andgt	r0, r0, #240, 22	; 0x3c000
     db0:	0000046c 	andeq	r0, r0, ip, ror #8
     db4:	0000030f 	andeq	r0, r0, pc, lsl #6
     db8:	02500113 	subseq	r0, r0, #-1073741820	; 0xc0000004
     dbc:	12000075 	andne	r0, r0, #117	; 0x75
     dc0:	c2000bfc 	andgt	r0, r0, #252, 22	; 0x3f000
     dc4:	000003e5 	andeq	r0, r0, r5, ror #7
     dc8:	00000329 	andeq	r0, r0, r9, lsr #6
     dcc:	02500113 	subseq	r0, r0, #-1073741820	; 0xc0000004
     dd0:	01130075 	tsteq	r3, r5, ror r0
     dd4:	00740251 	rsbseq	r0, r4, r1, asr r2
     dd8:	0c081400 	cfstrseq	mvf1, [r8], {-0}
     ddc:	0346c200 	movteq	ip, #25088	; 0x6200
     de0:	01130000 	tsteq	r3, r0
     de4:	00750250 	rsbseq	r0, r5, r0, asr r2
     de8:	02510113 	subseq	r0, r1, #-1073741820	; 0xc0000004
     dec:	00000074 	andeq	r0, r0, r4, ror r0
     df0:	01e60415 	mvneq	r0, r5, lsl r4
     df4:	98160000 	ldmdals	r6, {}	; <UNPREDICTABLE>
     df8:	01000008 	tsteq	r0, r8
     dfc:	c8010da2 	stmdagt	r1, {r1, r5, r7, r8, sl, fp}
     e00:	dcc2000a 	stclle	0, cr0, [r2], {10}
     e04:	8ac2000b 	bhi	ff080e38 <__HeapLimit+0x3d073e38>
     e08:	01000005 	tsteq	r0, r5
     e0c:	000003e5 	andeq	r0, r0, r5, ror #7
     e10:	000a6f17 	andeq	r6, sl, r7, lsl pc
     e14:	39a20100 	stmibcc	r2!, {r8}
     e18:	0000008c 	andeq	r0, r0, ip, lsl #1
     e1c:	000005d2 	ldrdeq	r0, [r0], -r2
     e20:	000005ce 	andeq	r0, r0, lr, asr #11
     e24:	000ed517 	andeq	sp, lr, r7, lsl r5
     e28:	64a20100 	strtvs	r0, [r2], #256	; 0x100
     e2c:	00000340 	andeq	r0, r0, r0, asr #6
     e30:	000005f4 	strdeq	r0, [r0], -r4
     e34:	000005f0 	strdeq	r0, [r0], -r0	; <UNPREDICTABLE>
     e38:	0008f418 	andeq	pc, r8, r8, lsl r4	; <UNPREDICTABLE>
     e3c:	0ea40100 	fdveqs	f0, f4, f0
     e40:	00000080 	andeq	r0, r0, r0, lsl #1
     e44:	00000632 	andeq	r0, r0, r2, lsr r6
     e48:	00000612 	andeq	r0, r0, r2, lsl r6
     e4c:	000a8c18 	andeq	r8, sl, r8, lsl ip
     e50:	1ca40100 	stfnes	f0, [r4]
     e54:	00000080 	andeq	r0, r0, r0, lsl #1
     e58:	00000710 	andeq	r0, r0, r0, lsl r7
     e5c:	0000070a 	andeq	r0, r0, sl, lsl #14
     e60:	686c6419 	stmdavs	ip!, {r0, r3, r4, sl, sp, lr}^
     e64:	2ca40100 	stfcss	f0, [r4]
     e68:	00000080 	andeq	r0, r0, r0, lsl #1
     e6c:	196c9102 	stmdbne	ip!, {r1, r8, ip, pc}^
     e70:	006c6c64 	rsbeq	r6, ip, r4, ror #24
     e74:	8038a401 	eorshi	sl, r8, r1, lsl #8
     e78:	02000000 	andeq	r0, r0, #0
     e7c:	f4146891 			; <UNDEFINED> instruction: 0xf4146891
     e80:	bcc2000a 	stcllt	0, cr0, [r2], {10}
     e84:	13000004 	movwne	r0, #4
     e88:	91025101 	tstls	r2, r1, lsl #2
     e8c:	52011364 	andpl	r1, r1, #100, 6	; 0x90000001
     e90:	00609102 	rsbeq	r9, r0, r2, lsl #2
     e94:	09771600 	ldmdbeq	r7!, {r9, sl, ip}^
     e98:	52010000 	andpl	r0, r1, #0
     e9c:	09ec010d 	stmibeq	ip!, {r0, r2, r3, r8}^
     ea0:	0ac8c200 	beq	ff2316a8 <__HeapLimit+0x3d2246a8>
     ea4:	0748c200 	strbeq	ip, [r8, -r0, lsl #4]
     ea8:	6c010000 	stcvs	0, cr0, [r1], {-0}
     eac:	1a000004 	bne	ec4 <SYS_MODE+0xea5>
     eb0:	00000a6f 	andeq	r0, r0, pc, ror #20
     eb4:	8c3d5201 	lfmhi	f5, 4, [sp], #-4
     eb8:	01000000 	mrseq	r0, (UNDEF: 0)
     ebc:	0ed51a50 			; <UNDEFINED> instruction: 0x0ed51a50
     ec0:	52010000 	andpl	r0, r1, #0
     ec4:	00034068 	andeq	r4, r3, r8, rrx
     ec8:	18510100 	ldmdane	r1, {r8}^
     ecc:	000008f4 	strdeq	r0, [r0], -r4
     ed0:	800e5401 	andhi	r5, lr, r1, lsl #8
     ed4:	82000000 	andhi	r0, r0, #0
     ed8:	68000007 	stmdavs	r0, {r0, r1, r2}
     edc:	18000007 	stmdane	r0, {r0, r1, r2}
     ee0:	000008c4 	andeq	r0, r0, r4, asr #17
     ee4:	801c5401 	andshi	r5, ip, r1, lsl #8
     ee8:	23000000 	movwcs	r0, #0
     eec:	1f000008 	svcne	0x00000008
     ef0:	18000008 	stmdane	r0, {r3}
     ef4:	00000a8c 	andeq	r0, r0, ip, lsl #21
     ef8:	802c5401 	eorhi	r5, ip, r1, lsl #8
     efc:	46000000 	strmi	r0, [r0], -r0
     f00:	42000008 	andmi	r0, r0, #8
     f04:	18000008 	stmdane	r0, {r3}
     f08:	00000b61 	andeq	r0, r0, r1, ror #22
     f0c:	803c5401 	eorshi	r5, ip, r1, lsl #8
     f10:	69000000 	stmdbvs	r0, {}	; <UNPREDICTABLE>
     f14:	65000008 	strvs	r0, [r0, #-8]
     f18:	00000008 	andeq	r0, r0, r8
     f1c:	0008741b 	andeq	r7, r8, fp, lsl r4
     f20:	0d3a0100 	ldfeqs	f0, [sl, #-0]
     f24:	0009c801 	andeq	ip, r9, r1, lsl #16
     f28:	0009ecc2 	andeq	lr, r9, r2, asr #25
     f2c:	007d02c2 	rsbseq	r0, sp, r2, asr #5
     f30:	0004bc01 	andeq	fp, r4, r1, lsl #24
     f34:	0a6f1a00 	beq	1bc773c <SYS_MODE+0x1bc771d>
     f38:	3a010000 	bcc	40f40 <SYS_MODE+0x40f21>
     f3c:	00008c2c 	andeq	r8, r0, ip, lsr #24
     f40:	18500100 	ldmdane	r0, {r8}^
     f44:	000008f4 	strdeq	r0, [r0], -r4
     f48:	800e3c01 	andhi	r3, lr, r1, lsl #24
     f4c:	8e000000 	cdphi	0, 0, cr0, cr0, cr0, {0}
     f50:	88000008 	stmdahi	r0, {r3}
     f54:	18000008 	stmdane	r0, {r3}
     f58:	000008ed 	andeq	r0, r0, sp, ror #17
     f5c:	801c3c01 	andshi	r3, ip, r1, lsl #24
     f60:	be000000 	cdplt	0, 0, cr0, cr0, cr0, {0}
     f64:	ba000008 	blt	f8c <SYS_MODE+0xf6d>
     f68:	00000008 	andeq	r0, r0, r8
     f6c:	0009e61c 	andeq	lr, r9, ip, lsl r6
     f70:	0d220100 	stfeqs	f0, [r2, #-0]
     f74:	0001d301 	andeq	sp, r1, r1, lsl #6
     f78:	00095000 	andeq	r5, r9, r0
     f7c:	0009c8c2 	andeq	ip, r9, r2, asr #17
     f80:	0008ddc2 	andeq	sp, r8, r2, asr #27
     f84:	053f0100 	ldreq	r0, [pc, #-256]!	; e8c <SYS_MODE+0xe6d>
     f88:	c6170000 	ldrgt	r0, [r7], -r0
     f8c:	01000009 	tsteq	r0, r9
     f90:	008c3022 	addeq	r3, ip, r2, lsr #32
     f94:	09010000 	stmdbeq	r1, {}	; <UNPREDICTABLE>
     f98:	08fd0000 	ldmeq	sp!, {}^	; <UNPREDICTABLE>
     f9c:	641d0000 	ldrvs	r0, [sp], #-0
     fa0:	0100686c 	tsteq	r0, ip, ror #16
     fa4:	053f4422 	ldreq	r4, [pc, #-1058]!	; b8a <SYS_MODE+0xb6b>
     fa8:	09250000 	stmdbeq	r5!, {}	; <UNPREDICTABLE>
     fac:	091f0000 	ldmdbeq	pc, {}	; <UNPREDICTABLE>
     fb0:	641d0000 	ldrvs	r0, [sp], #-0
     fb4:	01006c6c 	tsteq	r0, ip, ror #24
     fb8:	053f5322 	ldreq	r5, [pc, #-802]!	; c9e <SYS_MODE+0xc7f>
     fbc:	09540000 	ldmdbeq	r4, {}^	; <UNPREDICTABLE>
     fc0:	094e0000 	stmdbeq	lr, {}^	; <UNPREDICTABLE>
     fc4:	5a1e0000 	bpl	780fcc <SYS_MODE+0x780fad>
     fc8:	0100000b 	tsteq	r0, fp
     fcc:	00800e27 	addeq	r0, r0, r7, lsr #28
     fd0:	741f0000 	ldrvc	r0, [pc], #-0	; fd8 <SYS_MODE+0xfb9>
     fd4:	c0c20009 	sbcgt	r0, r2, r9
     fd8:	20c20009 	sbccs	r0, r2, r9
     fdc:	29010069 	stmdbcs	r1, {r0, r3, r5, r6}
     fe0:	00008013 	andeq	r8, r0, r3, lsl r0
     fe4:	00097f00 	andeq	r7, r9, r0, lsl #30
     fe8:	00097d00 	andeq	r7, r9, r0, lsl #26
     fec:	15000000 	strne	r0, [r0, #-0]
     ff0:	00008004 	andeq	r8, r0, r4
     ff4:	07ce0000 	strbeq	r0, [lr, r0]
     ff8:	00020000 	andeq	r0, r2, r0
     ffc:	000006de 	ldrdeq	r0, [r0], -lr
    1000:	01f50104 	mvnseq	r0, r4, lsl #2
    1004:	200c0000 	andcs	r0, ip, r0
    1008:	5000000d 	andpl	r0, r0, sp
    100c:	f0000000 			; <UNDEFINED> instruction: 0xf0000000
	...
    1018:	7c000000 	stcvc	0, cr0, [r0], {-0}
    101c:	02000015 	andeq	r0, r0, #21
    1020:	014e0601 	cmpeq	lr, r1, lsl #12
    1024:	01020000 	mrseq	r0, (UNDEF: 2)
    1028:	00014c08 	andeq	r4, r1, r8, lsl #24
    102c:	05020200 	streq	r0, [r2, #-512]	; 0xfffffe00
    1030:	000001eb 	andeq	r0, r0, fp, ror #3
    1034:	78070202 	stmdavc	r7, {r1, r9}
    1038:	02000001 	andeq	r0, r0, #1
    103c:	00dc0504 	sbcseq	r0, ip, r4, lsl #10
    1040:	20030000 	andcs	r0, r3, r0
    1044:	03000001 	movweq	r0, #1
    1048:	0058194f 	subseq	r1, r8, pc, asr #18
    104c:	04020000 	streq	r0, [r2], #-0
    1050:	00013a07 	andeq	r3, r1, r7, lsl #20
    1054:	05080200 	streq	r0, [r8, #-512]	; 0xfffffe00
    1058:	000000d7 	ldrdeq	r0, [r0], -r7
    105c:	35070802 	strcc	r0, [r7, #-2050]	; 0xfffff7fe
    1060:	04000001 	streq	r0, [r0], #-1
    1064:	6e690504 	cdpvs	5, 6, cr0, cr9, cr4, {0}
    1068:	04020074 	streq	r0, [r2], #-116	; 0xffffff8c
    106c:	00013f07 	andeq	r3, r1, r7, lsl #30
    1070:	01220300 			; <UNDEFINED> instruction: 0x01220300
    1074:	30040000 	andcc	r0, r4, r0
    1078:	00004c14 	andeq	r4, r0, r4, lsl ip
    107c:	007b0500 	rsbseq	r0, fp, r0, lsl #10
    1080:	bd060000 	stclt	0, cr0, [r6, #-0]
    1084:	0700000c 	streq	r0, [r0, -ip]
    1088:	00003001 	andeq	r3, r0, r1
    108c:	061d0500 	ldreq	r0, [sp], -r0, lsl #10
    1090:	000000bd 	strheq	r0, [r0], -sp
    1094:	000c6a07 	andeq	r6, ip, r7, lsl #20
    1098:	1d070000 	stcne	0, cr0, [r7, #-0]
    109c:	0100000e 	tsteq	r0, lr
    10a0:	000be407 	andeq	lr, fp, r7, lsl #8
    10a4:	5c070200 	sfmpl	f0, 4, [r7], {-0}
    10a8:	0300000e 	movweq	r0, #14
    10ac:	000c0d07 	andeq	r0, ip, r7, lsl #26
    10b0:	05000400 	streq	r0, [r0, #-1024]	; 0xfffffc00
    10b4:	0000008c 	andeq	r0, r0, ip, lsl #1
    10b8:	000c7c06 	andeq	r7, ip, r6, lsl #24
    10bc:	30010700 	andcc	r0, r1, r0, lsl #14
    10c0:	05000000 	streq	r0, [r0, #-0]
    10c4:	00e70628 	rsceq	r0, r7, r8, lsr #12
    10c8:	41070000 	mrsmi	r0, (UNDEF: 7)
    10cc:	0000000c 	andeq	r0, r0, ip
    10d0:	000e0707 	andeq	r0, lr, r7, lsl #14
    10d4:	4a070100 	bmi	1c14dc <SYS_MODE+0x1c14bd>
    10d8:	0200000e 	andeq	r0, r0, #14
    10dc:	0dca0600 	stcleq	6, cr0, [sl]
    10e0:	01070000 	mrseq	r0, (UNDEF: 7)
    10e4:	00000030 	andeq	r0, r0, r0, lsr r0
    10e8:	0c063105 	stfeqs	f3, [r6], {5}
    10ec:	07000001 	streq	r0, [r0, -r1]
    10f0:	00000e36 	andeq	r0, r0, r6, lsr lr
    10f4:	0c560700 	mrrceq	7, 0, r0, r6, cr0
    10f8:	07010000 	streq	r0, [r1, -r0]
    10fc:	00000d9a 	muleq	r0, sl, sp
    1100:	e7050002 	str	r0, [r5, -r2]
    1104:	08000000 	stmdaeq	r0, {}	; <UNPREDICTABLE>
    1108:	000de701 	andeq	lr, sp, r1, lsl #14
    110c:	06880100 	streq	r0, [r8], r0, lsl #2
    1110:	00000001 	andeq	r0, r0, r1
    1114:	00000000 	andeq	r0, r0, r0
    1118:	007d0200 	rsbseq	r0, sp, r0, lsl #4
    111c:	00019f01 	andeq	r9, r1, r1, lsl #30
    1120:	0f200900 	svceq	0x00200900
    1124:	88010000 	stmdahi	r1, {}	; <UNPREDICTABLE>
    1128:	0000872d 	andeq	r8, r0, sp, lsr #14
    112c:	0a500100 	beq	1401534 <SYS_MODE+0x1401515>
    1130:	00746962 	rsbseq	r6, r4, r2, ror #18
    1134:	0c548801 	mrrceq	8, 0, r8, r4, cr1
    1138:	01000001 	tsteq	r0, r1
    113c:	078a0b51 			; <UNDEFINED> instruction: 0x078a0b51
    1140:	00000000 	andeq	r0, r0, r0
    1144:	00020000 	andeq	r0, r2, r0
    1148:	00000000 	andeq	r0, r0, r0
    114c:	01000000 	mrseq	r0, (UNDEF: 0)
    1150:	b80c058b 	stmdalt	ip, {r0, r1, r3, r7, r8, sl}
    1154:	94000007 	strls	r0, [r0], #-7
    1158:	92000009 	andls	r0, r0, #9
    115c:	0c000009 	stceq	0, cr0, [r0], {9}
    1160:	000007ac 	andeq	r0, r0, ip, lsr #15
    1164:	00000994 	muleq	r0, r4, r9
    1168:	00000992 	muleq	r0, r2, r9
    116c:	0007a00c 	andeq	sl, r7, ip
    1170:	0009aa00 	andeq	sl, r9, r0, lsl #20
    1174:	0009a800 	andeq	sl, r9, r0, lsl #16
    1178:	07940c00 	ldreq	r0, [r4, r0, lsl #24]
    117c:	09bf0000 	ldmibeq	pc!, {}	; <UNPREDICTABLE>
    1180:	09bd0000 	ldmibeq	sp!, {}	; <UNPREDICTABLE>
    1184:	c40d0000 	strgt	r0, [sp], #-0
    1188:	d8000007 	stmdale	r0, {r0, r1, r2}
    118c:	d4000009 	strle	r0, [r0], #-9
    1190:	00000009 	andeq	r0, r0, r9
    1194:	7a010800 	bvc	4319c <SYS_MODE+0x4317d>
    1198:	0100000d 	tsteq	r0, sp
    119c:	44010682 	strmi	r0, [r1], #-1666	; 0xfffff97e
    11a0:	5cc2000d 	stclpl	0, cr0, [r2], {13}
    11a4:	02c2000d 	sbceq	r0, r2, #13
    11a8:	2d01007d 	stccs	0, cr0, [r1, #-500]	; 0xfffffe0c
    11ac:	09000002 	stmdbeq	r0, {r1}
    11b0:	00000f20 	andeq	r0, r0, r0, lsr #30
    11b4:	872c8201 	strhi	r8, [ip, -r1, lsl #4]!
    11b8:	01000000 	mrseq	r0, (UNDEF: 0)
    11bc:	69620a50 	stmdbvs	r2!, {r4, r6, r9, fp}^
    11c0:	82010074 	andhi	r0, r1, #116	; 0x74
    11c4:	00010c53 	andeq	r0, r1, r3, asr ip
    11c8:	0b510100 	bleq	14415d0 <SYS_MODE+0x14415b1>
    11cc:	0000078a 	andeq	r0, r0, sl, lsl #15
    11d0:	c2000d44 	andgt	r0, r0, #68, 26	; 0x1100
    11d4:	000d4402 	andeq	r4, sp, r2, lsl #8
    11d8:	000d58c2 	andeq	r5, sp, r2, asr #17
    11dc:	058501c2 	streq	r0, [r5, #450]	; 0x1c2
    11e0:	0007b80c 	andeq	fp, r7, ip, lsl #16
    11e4:	0009f900 	andeq	pc, r9, r0, lsl #18
    11e8:	0009f700 	andeq	pc, r9, r0, lsl #14
    11ec:	07ac0c00 	streq	r0, [ip, r0, lsl #24]!
    11f0:	09f90000 	ldmibeq	r9!, {}^	; <UNPREDICTABLE>
    11f4:	09f70000 	ldmibeq	r7!, {}^	; <UNPREDICTABLE>
    11f8:	a00c0000 	andge	r0, ip, r0
    11fc:	0f000007 	svceq	0x00000007
    1200:	0d00000a 	stceq	0, cr0, [r0, #-40]	; 0xffffffd8
    1204:	0c00000a 	stceq	0, cr0, [r0], {10}
    1208:	00000794 	muleq	r0, r4, r7
    120c:	00000a24 	andeq	r0, r0, r4, lsr #20
    1210:	00000a22 	andeq	r0, r0, r2, lsr #20
    1214:	0007c40d 	andeq	ip, r7, sp, lsl #8
    1218:	000a3d00 	andeq	r3, sl, r0, lsl #26
    121c:	000a3900 	andeq	r3, sl, r0, lsl #18
    1220:	08000000 	stmdaeq	r0, {}	; <UNPREDICTABLE>
    1224:	000c9501 	andeq	r9, ip, r1, lsl #10
    1228:	067b0100 	ldrbteq	r0, [fp], -r0, lsl #2
    122c:	000d2801 	andeq	r2, sp, r1, lsl #16
    1230:	000d44c2 	andeq	r4, sp, r2, asr #9
    1234:	007d02c2 	rsbseq	r0, sp, r2, asr #5
    1238:	0002bb01 	andeq	fp, r2, r1, lsl #22
    123c:	0f200900 	svceq	0x00200900
    1240:	7b010000 	blvc	41248 <SYS_MODE+0x41229>
    1244:	00008732 	andeq	r8, r0, r2, lsr r7
    1248:	0a500100 	beq	1401650 <SYS_MODE+0x1401631>
    124c:	00746962 	rsbseq	r6, r4, r2, ror #18
    1250:	0c597b01 	mrrceq	11, 0, r7, r9, cr1
    1254:	01000001 	tsteq	r0, r1
    1258:	078a0b51 			; <UNDEFINED> instruction: 0x078a0b51
    125c:	0d280000 	stceq	0, cr0, [r8, #-0]
    1260:	2802c200 	stmdacs	r2, {r9, lr, pc}
    1264:	3cc2000d 	stclcc	0, cr0, [r2], {13}
    1268:	01c2000d 	biceq	r0, r2, sp
    126c:	b80c057e 	stmdalt	ip, {r1, r2, r3, r4, r5, r6, r8, sl}
    1270:	5e000007 	cdppl	0, 0, cr0, cr0, cr7, {0}
    1274:	5c00000a 	stcpl	0, cr0, [r0], {10}
    1278:	0c00000a 	stceq	0, cr0, [r0], {10}
    127c:	000007ac 	andeq	r0, r0, ip, lsr #15
    1280:	00000a5e 	andeq	r0, r0, lr, asr sl
    1284:	00000a5c 	andeq	r0, r0, ip, asr sl
    1288:	0007a00c 	andeq	sl, r7, ip
    128c:	000a7400 	andeq	r7, sl, r0, lsl #8
    1290:	000a7200 	andeq	r7, sl, r0, lsl #4
    1294:	07940c00 	ldreq	r0, [r4, r0, lsl #24]
    1298:	0a890000 	beq	fe2412a0 <__HeapLimit+0x3c2342a0>
    129c:	0a870000 	beq	fe1c12a4 <__HeapLimit+0x3c1b42a4>
    12a0:	c40d0000 	strgt	r0, [sp], #-0
    12a4:	a2000007 	andge	r0, r0, #7
    12a8:	9e00000a 	cdpls	0, 0, cr0, cr0, cr10, {0}
    12ac:	0000000a 	andeq	r0, r0, sl
    12b0:	d5010e00 	strle	r0, [r1, #-3584]	; 0xfffff200
    12b4:	0100000c 	tsteq	r0, ip
    12b8:	00010672 	andeq	r0, r1, r2, ror r6
    12bc:	00000000 	andeq	r0, r0, r0
    12c0:	c1000000 	mrsgt	r0, (UNDEF: 0)
    12c4:	0100000a 	tsteq	r0, sl
    12c8:	00000314 	andeq	r0, r0, r4, lsl r3
    12cc:	000f200f 	andeq	r2, pc, pc
    12d0:	2d720100 	ldfcse	f0, [r2, #-0]
    12d4:	00000087 	andeq	r0, r0, r7, lsl #1
    12d8:	00000ae5 	andeq	r0, r0, r5, ror #21
    12dc:	00000ae1 	andeq	r0, r0, r1, ror #21
    12e0:	000dff0f 	andeq	pc, sp, pc, lsl #30
    12e4:	42720100 	rsbsmi	r0, r2, #0, 2
    12e8:	00000087 	andeq	r0, r0, r7, lsl #1
    12ec:	00000b07 	andeq	r0, r0, r7, lsl #22
    12f0:	00000b03 	andeq	r0, r0, r3, lsl #22
    12f4:	00000010 	andeq	r0, r0, r0, lsl r0
    12f8:	00074000 	andeq	r4, r7, r0
    12fc:	50011100 	andpl	r1, r1, r0, lsl #2
    1300:	11007402 	tstne	r0, r2, lsl #8
    1304:	34015101 	strcc	r5, [r1], #-257	; 0xfffffeff
    1308:	010e0000 	mrseq	r0, (UNDEF: 14)
    130c:	00000bf6 	strdeq	r0, [r0], -r6
    1310:	01066901 	tsteq	r6, r1, lsl #18
    1314:	c2000d0c 	andgt	r0, r0, #12, 26	; 0x300
    1318:	c2000d28 	andgt	r0, r0, #40, 26	; 0xa00
    131c:	00000b25 	andeq	r0, r0, r5, lsr #22
    1320:	00036d01 	andeq	r6, r3, r1, lsl #26
    1324:	0f200f00 	svceq	0x00200f00
    1328:	69010000 	stmdbvs	r1, {}	; <UNPREDICTABLE>
    132c:	0000872c 	andeq	r8, r0, ip, lsr #14
    1330:	000b4900 	andeq	r4, fp, r0, lsl #18
    1334:	000b4500 	andeq	r4, fp, r0, lsl #10
    1338:	0e2f0f00 	cdpeq	15, 2, cr0, cr15, cr0, {0}
    133c:	69010000 	stmdbvs	r1, {}	; <UNPREDICTABLE>
    1340:	00008741 	andeq	r8, r0, r1, asr #14
    1344:	000b6b00 	andeq	r6, fp, r0, lsl #22
    1348:	000b6700 	andeq	r6, fp, r0, lsl #14
    134c:	0d201000 	stceq	0, cr1, [r0, #-0]
    1350:	0740c200 	strbeq	ip, [r0, -r0, lsl #4]
    1354:	01110000 	tsteq	r1, r0
    1358:	00740250 	rsbseq	r0, r4, r0, asr r2
    135c:	01510111 	cmpeq	r1, r1, lsl r1
    1360:	0e000032 	mcreq	0, 0, r0, cr0, cr2, {1}
    1364:	000bab01 	andeq	sl, fp, r1, lsl #22
    1368:	06600100 	strbteq	r0, [r0], -r0, lsl #2
    136c:	000cf001 	andeq	pc, ip, r1
    1370:	000d0cc2 	andeq	r0, sp, r2, asr #25
    1374:	000b89c2 	andeq	r8, fp, r2, asr #19
    1378:	03c60100 	biceq	r0, r6, #0, 2
    137c:	200f0000 	andcs	r0, pc, r0
    1380:	0100000f 	tsteq	r0, pc
    1384:	00872d60 	addeq	r2, r7, r0, ror #26
    1388:	0bad0000 	bleq	feb41390 <__HeapLimit+0x3cb34390>
    138c:	0ba90000 	bleq	fea41394 <__HeapLimit+0x3ca34394>
    1390:	e40f0000 	str	r0, [pc], #-0	; 1398 <SYS_MODE+0x1379>
    1394:	01000002 	tsteq	r0, r2
    1398:	00874260 	addeq	r4, r7, r0, ror #4
    139c:	0bcf0000 	bleq	ff3c13a4 <__HeapLimit+0x3d3b43a4>
    13a0:	0bcb0000 	bleq	ff2c13a8 <__HeapLimit+0x3d2b43a8>
    13a4:	04100000 	ldreq	r0, [r0], #-0
    13a8:	40c2000d 	sbcmi	r0, r2, sp
    13ac:	11000007 	tstne	r0, r7
    13b0:	74025001 	strvc	r5, [r2], #-1
    13b4:	51011100 	mrspl	r1, (UNDEF: 17)
    13b8:	00003101 	andeq	r3, r0, r1, lsl #2
    13bc:	0c1f010e 	ldfeqs	f0, [pc], {14}
    13c0:	57010000 	strpl	r0, [r1, -r0]
    13c4:	00000106 	andeq	r0, r0, r6, lsl #2
    13c8:	00000000 	andeq	r0, r0, r0
    13cc:	0bed0000 	bleq	ffb413d4 <__HeapLimit+0x3db343d4>
    13d0:	66010000 	strvs	r0, [r1], -r0
    13d4:	0f000004 	svceq	0x00000004
    13d8:	00000f20 	andeq	r0, r0, r0, lsr #30
    13dc:	87375701 	ldrhi	r5, [r7, -r1, lsl #14]!
    13e0:	11000000 	mrsne	r0, (UNDEF: 0)
    13e4:	0d00000c 	stceq	0, cr0, [r0, #-48]	; 0xffffffd0
    13e8:	1200000c 	andne	r0, r0, #12
    13ec:	0000078a 	andeq	r0, r0, sl, lsl #15
    13f0:	00000000 	andeq	r0, r0, r0
    13f4:	00000001 	andeq	r0, r0, r1
    13f8:	00000000 	andeq	r0, r0, r0
    13fc:	055d0100 	ldrbeq	r0, [sp, #-256]	; 0xffffff00
    1400:	00000450 	andeq	r0, r0, r0, asr r4
    1404:	0007b80c 	andeq	fp, r7, ip, lsl #16
    1408:	000c3100 	andeq	r3, ip, r0, lsl #2
    140c:	000c2f00 	andeq	r2, ip, r0, lsl #30
    1410:	07ac0c00 	streq	r0, [ip, r0, lsl #24]!
    1414:	0c470000 	mareq	acc0, r0, r7
    1418:	0c450000 	mareq	acc0, r0, r5
    141c:	a00c0000 	andge	r0, ip, r0
    1420:	5d000007 	stcpl	0, cr0, [r0, #-28]	; 0xffffffe4
    1424:	5b00000c 	blpl	145c <SYS_MODE+0x143d>
    1428:	0c00000c 	stceq	0, cr0, [r0], {12}
    142c:	00000794 	muleq	r0, r4, r7
    1430:	00000c73 	andeq	r0, r0, r3, ror ip
    1434:	00000c71 	andeq	r0, r0, r1, ror ip
    1438:	0007c40d 	andeq	ip, r7, sp, lsl #8
    143c:	000c8c00 	andeq	r8, ip, r0, lsl #24
    1440:	000c8800 	andeq	r8, ip, r0, lsl #16
    1444:	00100000 	andseq	r0, r0, r0
    1448:	40000000 	andmi	r0, r0, r0
    144c:	11000007 	tstne	r0, r7
    1450:	74025001 	strvc	r5, [r2], #-1
    1454:	51011100 	mrspl	r1, (UNDEF: 17)
    1458:	00003001 	andeq	r3, r0, r1
    145c:	0bc3010e 	bleq	ff0c189c <__HeapLimit+0x3d0b489c>
    1460:	41010000 	mrsmi	r0, (UNDEF: 1)
    1464:	00000106 	andeq	r0, r0, r6, lsl #2
    1468:	00000000 	andeq	r0, r0, r0
    146c:	0cab0000 	stceq	0, cr0, [fp]
    1470:	ec010000 	stc	0, cr0, [r1], {-0}
    1474:	0f000004 	svceq	0x00000004
    1478:	00000f20 	andeq	r0, r0, r0, lsr #30
    147c:	87364101 	ldrhi	r4, [r6, -r1, lsl #2]!
    1480:	cf000000 	svcgt	0x00000000
    1484:	cb00000c 	blgt	14bc <SYS_MODE+0x149d>
    1488:	1300000c 	movwne	r0, #12
    148c:	00767470 	rsbseq	r7, r6, r0, ror r4
    1490:	874b4101 	strbhi	r4, [fp, -r1, lsl #2]
    1494:	f3000000 	vhadd.u8	d0, d0, d0
    1498:	ed00000c 	stc	0, cr0, [r0, #-48]	; 0xffffffd0
    149c:	1400000c 	strne	r0, [r0], #-12
    14a0:	000008f4 	strdeq	r0, [r0], -r4
    14a4:	7b0e4301 	blvc	3920b0 <SYS_MODE+0x392091>
    14a8:	27000000 	strcs	r0, [r0, -r0]
    14ac:	1f00000d 	svcne	0x0000000d
    14b0:	1500000d 	strne	r0, [r0, #-13]
    14b4:	00000000 	andeq	r0, r0, r0
    14b8:	00000740 	andeq	r0, r0, r0, asr #14
    14bc:	000004d6 	ldrdeq	r0, [r0], -r6
    14c0:	02500111 	subseq	r0, r0, #1073741828	; 0x40000004
    14c4:	01110075 	tsteq	r1, r5, ror r0
    14c8:	00300151 	eorseq	r0, r0, r1, asr r1
    14cc:	00000010 	andeq	r0, r0, r0, lsl r0
    14d0:	00074000 	andeq	r4, r7, r0
    14d4:	50011100 	andpl	r1, r1, r0, lsl #2
    14d8:	11007502 	tstne	r0, r2, lsl #10
    14dc:	30015101 	andcc	r5, r1, r1, lsl #2
    14e0:	010e0000 	mrseq	r0, (UNDEF: 14)
    14e4:	00000daf 	andeq	r0, r0, pc, lsr #27
    14e8:	01062301 	tsteq	r6, r1, lsl #6
    14ec:	c2000c98 	andgt	r0, r0, #152, 24	; 0x9800
    14f0:	c2000cf0 	andgt	r0, r0, #240, 24	; 0xf000
    14f4:	00000d5c 	andeq	r0, r0, ip, asr sp
    14f8:	00057201 	andeq	r7, r5, r1, lsl #4
    14fc:	0f200f00 	svceq	0x00200f00
    1500:	23010000 	movwcs	r0, #4096	; 0x1000
    1504:	00008730 	andeq	r8, r0, r0, lsr r7
    1508:	000d8000 	andeq	r8, sp, r0
    150c:	000d7c00 	andeq	r7, sp, r0, lsl #24
    1510:	0c900f00 	ldceq	15, cr0, [r0], {0}
    1514:	23010000 	movwcs	r0, #4096	; 0x1000
    1518:	00008745 	andeq	r8, r0, r5, asr #14
    151c:	000da200 	andeq	sl, sp, r0, lsl #4
    1520:	000d9e00 	andeq	r9, sp, r0, lsl #28
    1524:	08f41400 	ldmeq	r4!, {sl, ip}^
    1528:	25010000 	strcs	r0, [r1, #-0]
    152c:	00007b0e 	andeq	r7, r0, lr, lsl #22
    1530:	000dce00 	andeq	ip, sp, r0, lsl #28
    1534:	000dc000 	andeq	ip, sp, r0
    1538:	0cac1500 	cfstr32eq	mvfx1, [ip]
    153c:	0740c200 	strbeq	ip, [r0, -r0, lsl #4]
    1540:	055c0000 	ldrbeq	r0, [ip, #-0]
    1544:	01110000 	tsteq	r1, r0
    1548:	00740250 	rsbseq	r0, r4, r0, asr r2
    154c:	01510111 	cmpeq	r1, r1, lsl r1
    1550:	c4100030 	ldrgt	r0, [r0], #-48	; 0xffffffd0
    1554:	40c2000c 	sbcmi	r0, r2, ip
    1558:	11000007 	tstne	r0, r7
    155c:	74025001 	strvc	r5, [r2], #-1
    1560:	51011100 	mrspl	r1, (UNDEF: 17)
    1564:	00003001 	andeq	r3, r0, r1
    1568:	0d66010e 	stfeqe	f0, [r6, #-56]!	; 0xffffffc8
    156c:	1d010000 	stcne	0, cr0, [r1, #-0]
    1570:	00000106 	andeq	r0, r0, r6, lsl #2
    1574:	00000000 	andeq	r0, r0, r0
    1578:	0e2d0000 	cdpeq	0, 2, cr0, cr13, cr0, {0}
    157c:	12010000 	andne	r0, r1, #0
    1580:	0f000006 	svceq	0x00000006
    1584:	00000f20 	andeq	r0, r0, r0, lsr #30
    1588:	87291d01 	strhi	r1, [r9, -r1, lsl #26]!
    158c:	51000000 	mrspl	r0, (UNDEF: 0)
    1590:	4d00000e 	stcmi	0, cr0, [r0, #-56]	; 0xffffffc8
    1594:	1200000e 	andne	r0, r0, #14
    1598:	0000078a 	andeq	r0, r0, sl, lsl #15
    159c:	00000000 	andeq	r0, r0, r0
    15a0:	00000001 	andeq	r0, r0, r1
    15a4:	00000000 	andeq	r0, r0, r0
    15a8:	05200100 	streq	r0, [r0, #-256]!	; 0xffffff00
    15ac:	000005fc 	strdeq	r0, [r0], -ip
    15b0:	0007b80c 	andeq	fp, r7, ip, lsl #16
    15b4:	000e7100 	andeq	r7, lr, r0, lsl #2
    15b8:	000e6f00 	andeq	r6, lr, r0, lsl #30
    15bc:	07ac0c00 	streq	r0, [ip, r0, lsl #24]!
    15c0:	0e870000 	cdpeq	0, 8, cr0, cr7, cr0, {0}
    15c4:	0e850000 	cdpeq	0, 8, cr0, cr5, cr0, {0}
    15c8:	a00c0000 	andge	r0, ip, r0
    15cc:	71000007 	tstvc	r0, r7
    15d0:	6f00000e 	svcvs	0x0000000e
    15d4:	0c00000e 	stceq	0, cr0, [r0], {14}
    15d8:	00000794 	muleq	r0, r4, r7
    15dc:	00000e9d 	muleq	r0, sp, lr
    15e0:	00000e9b 	muleq	r0, fp, lr
    15e4:	0007c40d 	andeq	ip, r7, sp, lsl #8
    15e8:	000eb600 	andeq	fp, lr, r0, lsl #12
    15ec:	000eb200 	andeq	fp, lr, r0, lsl #4
    15f0:	00100000 	andseq	r0, r0, r0
    15f4:	40000000 	andmi	r0, r0, r0
    15f8:	11000007 	tstne	r0, r7
    15fc:	74025001 	strvc	r5, [r2], #-1
    1600:	51011100 	mrspl	r1, (UNDEF: 17)
    1604:	00003001 	andeq	r3, r0, r1
    1608:	0b98010e 	bleq	fe601a48 <__HeapLimit+0x3c5f4a48>
    160c:	17010000 	strne	r0, [r1, -r0]
    1610:	0c780106 	ldfeqe	f0, [r8], #-24	; 0xffffffe8
    1614:	0c98c200 	lfmeq	f4, 1, [r8], {0}
    1618:	0ed5c200 	cdpeq	2, 13, cr12, cr5, cr0, {0}
    161c:	b2010000 	andlt	r0, r1, #0
    1620:	0f000006 	svceq	0x00000006
    1624:	00000f20 	andeq	r0, r0, r0, lsr #30
    1628:	87281701 	strhi	r1, [r8, -r1, lsl #14]!
    162c:	f9000000 			; <UNDEFINED> instruction: 0xf9000000
    1630:	f500000e 			; <UNDEFINED> instruction: 0xf500000e
    1634:	1200000e 	andne	r0, r0, #14
    1638:	0000078a 	andeq	r0, r0, sl, lsl #15
    163c:	c2000c88 	andgt	r0, r0, #136, 24	; 0x8800
    1640:	000c8801 	andeq	r8, ip, r1, lsl #16
    1644:	000c94c2 	andeq	r9, ip, r2, asr #9
    1648:	051a01c2 	ldreq	r0, [sl, #-450]	; 0xfffffe3e
    164c:	0000069c 	muleq	r0, ip, r6
    1650:	0007b80c 	andeq	fp, r7, ip, lsl #16
    1654:	000f1900 	andeq	r1, pc, r0, lsl #18
    1658:	000f1700 	andeq	r1, pc, r0, lsl #14
    165c:	07ac0c00 	streq	r0, [ip, r0, lsl #24]!
    1660:	0f190000 	svceq	0x00190000
    1664:	0f170000 	svceq	0x00170000
    1668:	a00c0000 	andge	r0, ip, r0
    166c:	2f000007 	svccs	0x00000007
    1670:	2d00000f 	stccs	0, cr0, [r0, #-60]	; 0xffffffc4
    1674:	0c00000f 	stceq	0, cr0, [r0], {15}
    1678:	00000794 	muleq	r0, r4, r7
    167c:	00000f45 	andeq	r0, r0, r5, asr #30
    1680:	00000f43 	andeq	r0, r0, r3, asr #30
    1684:	0007c40d 	andeq	ip, r7, sp, lsl #8
    1688:	000f6200 	andeq	r6, pc, r0, lsl #4
    168c:	000f5a00 	andeq	r5, pc, r0, lsl #20
    1690:	88100000 	ldmdahi	r0, {}	; <UNPREDICTABLE>
    1694:	40c2000c 	sbcmi	r0, r2, ip
    1698:	11000007 	tstne	r0, r7
    169c:	74025001 	strvc	r5, [r2], #-1
    16a0:	51011100 	mrspl	r1, (UNDEF: 17)
    16a4:	00003001 	andeq	r3, r0, r1
    16a8:	0d090108 	stfeqs	f0, [r9, #-32]	; 0xffffffe0
    16ac:	0e010000 	cdpeq	0, 0, cr0, cr1, cr0, {0}
    16b0:	0c4c0106 	stfeqe	f0, [ip], {6}
    16b4:	0c78c200 	lfmeq	f4, 3, [r8], #-0
    16b8:	7d02c200 	sfmvc	f4, 1, [r2, #-0]
    16bc:	07400100 	strbeq	r0, [r0, -r0, lsl #2]
    16c0:	20090000 	andcs	r0, r9, r0
    16c4:	0100000f 	tsteq	r0, pc
    16c8:	00872c0e 	addeq	r2, r7, lr, lsl #24
    16cc:	50010000 	andpl	r0, r1, r0
    16d0:	0008f414 	andeq	pc, r8, r4, lsl r4	; <UNPREDICTABLE>
    16d4:	0e100100 	mufeqs	f0, f0, f0
    16d8:	0000007b 	andeq	r0, r0, fp, ror r0
    16dc:	00000fa2 	andeq	r0, r0, r2, lsr #31
    16e0:	00000f9c 	muleq	r0, ip, pc	; <UNPREDICTABLE>
    16e4:	00078a16 	andeq	r8, r7, r6, lsl sl
    16e8:	000c5000 	andeq	r5, ip, r0
    16ec:	00d800c2 	sbcseq	r0, r8, r2, asr #1
    16f0:	12010000 	andne	r0, r1, #0
    16f4:	07b80c05 	ldreq	r0, [r8, r5, lsl #24]!
    16f8:	0fce0000 	svceq	0x00ce0000
    16fc:	0fcc0000 	svceq	0x00cc0000
    1700:	ac0c0000 	stcge	0, cr0, [ip], {-0}
    1704:	ce000007 	cdpgt	0, 0, cr0, cr0, cr7, {0}
    1708:	cc00000f 	stcgt	0, cr0, [r0], {15}
    170c:	0c00000f 	stceq	0, cr0, [r0], {15}
    1710:	000007a0 	andeq	r0, r0, r0, lsr #15
    1714:	00000fe4 	andeq	r0, r0, r4, ror #31
    1718:	00000fe2 	andeq	r0, r0, r2, ror #31
    171c:	00079417 	andeq	r9, r7, r7, lsl r4
    1720:	00d81800 	sbcseq	r1, r8, r0, lsl #16
    1724:	c40d0000 	strgt	r0, [sp], #-0
    1728:	02000007 	andeq	r0, r0, #7
    172c:	f8000010 			; <UNDEFINED> instruction: 0xf8000010
    1730:	0000000f 	andeq	r0, r0, pc
    1734:	ed190000 	ldc	0, cr0, [r9, #-0]
    1738:	0100000c 	tsteq	r0, ip
    173c:	20010d03 	andcs	r0, r1, r3, lsl #26
    1740:	4cc2000c 	stclmi	0, cr0, [r2], {12}
    1744:	02c2000c 	sbceq	r0, r2, #12
    1748:	8a01007d 	bhi	41944 <SYS_MODE+0x41925>
    174c:	09000007 	stmdbeq	r0, {r0, r1, r2}
    1750:	00000f20 	andeq	r0, r0, r0, lsr #30
    1754:	87380301 	ldrhi	r0, [r8, -r1, lsl #6]!
    1758:	01000000 	mrseq	r0, (UNDEF: 0)
    175c:	69620a50 	stmdbvs	r2!, {r4, r6, r9, fp}^
    1760:	03010074 	movweq	r0, #4212	; 0x1074
    1764:	0000bd61 	andeq	fp, r0, r1, ror #26
    1768:	14510100 	ldrbne	r0, [r1], #-256	; 0xffffff00
    176c:	000008f4 	strdeq	r0, [r0], -r4
    1770:	7b0e0501 	blvc	382b7c <SYS_MODE+0x382b5d>
    1774:	4e000000 	cdpmi	0, 0, cr0, cr0, cr0, {0}
    1778:	48000010 	stmdami	r0, {r4}
    177c:	00000010 	andeq	r0, r0, r0, lsl r0
    1780:	000de01a 	andeq	lr, sp, sl, lsl r0
    1784:	141a0200 	ldrne	r0, [sl], #-512	; 0xfffffe00
    1788:	b81b0301 	ldmdalt	fp, {r0, r8, r9}
    178c:	0200000c 	andeq	r0, r0, #12
    1790:	00872a1a 	addeq	r2, r7, sl, lsl sl
    1794:	911b0000 	tstls	fp, r0
    1798:	0200000d 	andeq	r0, r0, #13
    179c:	00873f1a 	addeq	r3, r7, sl, lsl pc
    17a0:	b21b0000 	andslt	r0, fp, #0
    17a4:	0200000c 	andeq	r0, r0, #12
    17a8:	0087581a 	addeq	r5, r7, sl, lsl r8
    17ac:	761c0000 	ldrvc	r0, [ip], -r0
    17b0:	02006c61 	andeq	r6, r0, #24832	; 0x6100
    17b4:	00876e1a 	addeq	r6, r7, sl, lsl lr
    17b8:	f41d0000 			; <UNDEFINED> instruction: 0xf41d0000
    17bc:	02000008 	andeq	r0, r0, #8
    17c0:	007b0e1c 	rsbseq	r0, fp, ip, lsl lr
    17c4:	00000000 	andeq	r0, r0, r0
    17c8:	00000697 	muleq	r0, r7, r6
    17cc:	08b80002 	ldmeq	r8!, {r1}
    17d0:	01040000 	mrseq	r0, (UNDEF: 4)
    17d4:	000001f5 	strdeq	r0, [r0], -r5
    17d8:	000e7e0c 	andeq	r7, lr, ip, lsl #28
    17dc:	00005000 	andeq	r5, r0, r0
    17e0:	0001b800 	andeq	fp, r1, r0, lsl #16
	...
    17ec:	001a6f00 	andseq	r6, sl, r0, lsl #30
    17f0:	06010200 	streq	r0, [r1], -r0, lsl #4
    17f4:	0000014e 	andeq	r0, r0, lr, asr #2
    17f8:	4c080102 	stfmis	f0, [r8], {2}
    17fc:	02000001 	andeq	r0, r0, #1
    1800:	01eb0502 	mvneq	r0, r2, lsl #10
    1804:	02020000 	andeq	r0, r2, #0
    1808:	00017807 	andeq	r7, r1, r7, lsl #16
    180c:	05040200 	streq	r0, [r4, #-512]	; 0xfffffe00
    1810:	000000dc 	ldrdeq	r0, [r0], -ip
    1814:	00012003 	andeq	r2, r1, r3
    1818:	194f0200 	stmdbne	pc, {r9}^	; <UNPREDICTABLE>
    181c:	00000058 	andeq	r0, r0, r8, asr r0
    1820:	3a070402 	bcc	1c2830 <SYS_MODE+0x1c2811>
    1824:	02000001 	andeq	r0, r0, #1
    1828:	00d70508 	sbcseq	r0, r7, r8, lsl #10
    182c:	08020000 	stmdaeq	r2, {}	; <UNPREDICTABLE>
    1830:	00013507 	andeq	r3, r1, r7, lsl #10
    1834:	05040400 	streq	r0, [r4, #-1024]	; 0xfffffc00
    1838:	00746e69 	rsbseq	r6, r4, r9, ror #28
    183c:	3f070402 	svccc	0x00070402
    1840:	03000001 	movweq	r0, #1
    1844:	00000122 	andeq	r0, r0, r2, lsr #2
    1848:	4c143003 	ldcmi	0, cr3, [r4], {3}
    184c:	05000000 	streq	r0, [r0, #-0]
    1850:	00300107 	eorseq	r0, r0, r7, lsl #2
    1854:	7b040000 	blvc	10185c <SYS_MODE+0x10183d>
    1858:	0000ae0e 	andeq	sl, r0, lr, lsl #28
    185c:	0afb0600 	beq	ffec3064 <__HeapLimit+0x3deb6064>
    1860:	06000000 	streq	r0, [r0], -r0
    1864:	00000a33 	andeq	r0, r0, r3, lsr sl
    1868:	0b470601 	bleq	11c3074 <SYS_MODE+0x11c3055>
    186c:	06020000 	streq	r0, [r2], -r0
    1870:	000008cc 	andeq	r0, r0, ip, asr #17
    1874:	1c030003 	stcne	0, cr0, [r3], {3}
    1878:	04000009 	streq	r0, [r0], #-9
    187c:	00870380 	addeq	r0, r7, r0, lsl #7
    1880:	07050000 	streq	r0, [r5, -r0]
    1884:	00003001 	andeq	r3, r0, r1
    1888:	0e850400 	cdpeq	4, 8, cr0, cr5, cr0, {0}
    188c:	000000e1 	andeq	r0, r0, r1, ror #1
    1890:	0009fa06 	andeq	pc, r9, r6, lsl #20
    1894:	81060000 	mrshi	r0, (UNDEF: 6)
    1898:	0100000b 	tsteq	r0, fp
    189c:	000b3006 	andeq	r3, fp, r6
    18a0:	11060200 	mrsne	r0, LR_usr
    18a4:	0300000a 	movweq	r0, #10
    18a8:	09540300 	ldmdbeq	r4, {r8, r9}^
    18ac:	8a040000 	bhi	1018b4 <SYS_MODE+0x101895>
    18b0:	0000ba03 	andeq	fp, r0, r3, lsl #20
    18b4:	01070500 	tsteq	r7, r0, lsl #10
    18b8:	00000030 	andeq	r0, r0, r0, lsr r0
    18bc:	0e0e8f04 	cdpeq	15, 0, cr8, cr14, cr4, {0}
    18c0:	06000001 	streq	r0, [r0], -r1
    18c4:	000009cf 	andeq	r0, r0, pc, asr #19
    18c8:	0a540600 	beq	15030d0 <SYS_MODE+0x15030b1>
    18cc:	06010000 	streq	r0, [r1], -r0
    18d0:	00000a9f 	muleq	r0, pc, sl	; <UNPREDICTABLE>
    18d4:	69030002 	stmdbvs	r3, {r1}
    18d8:	0400000b 	streq	r0, [r0], #-11
    18dc:	00ed0393 	smlaleq	r0, sp, r3, r3
    18e0:	07050000 	streq	r0, [r5, -r0]
    18e4:	00003001 	andeq	r3, r0, r1
    18e8:	0e980400 	cdpeq	4, 9, cr0, cr8, cr0, {0}
    18ec:	0000013b 	andeq	r0, r0, fp, lsr r1
    18f0:	00093606 	andeq	r3, r9, r6, lsl #12
    18f4:	7c060000 	stcvc	0, cr0, [r6], {-0}
    18f8:	0100000a 	tsteq	r0, sl
    18fc:	0009ae06 	andeq	sl, r9, r6, lsl #28
    1900:	03000200 	movweq	r0, #512	; 0x200
    1904:	000008fa 	strdeq	r0, [r0], -sl
    1908:	1a039c04 	bne	e8920 <SYS_MODE+0xe8901>
    190c:	07000001 	streq	r0, [r0, -r1]
    1910:	09a10410 	stmibeq	r1!, {r4, sl}
    1914:	000001c9 	andeq	r0, r0, r9, asr #3
    1918:	000b2508 	andeq	r2, fp, r8, lsl #10
    191c:	0aa20400 	beq	fe882924 <__HeapLimit+0x3c875924>
    1920:	000001c9 	andeq	r0, r0, r9, asr #3
    1924:	08002302 	stmdaeq	r0, {r1, r8, r9, sp}
    1928:	00000910 	andeq	r0, r0, r0, lsl r9
    192c:	c90aa304 	stmdbgt	sl, {r2, r8, r9, sp, pc}
    1930:	02000001 	andeq	r0, r0, #1
    1934:	c6080123 	strgt	r0, [r8], -r3, lsr #2
    1938:	04000009 	streq	r0, [r0], #-9
    193c:	007b0ea4 	rsbseq	r0, fp, r4, lsr #29
    1940:	23020000 	movwcs	r0, #8192	; 0x2000
    1944:	0a460804 	beq	118395c <SYS_MODE+0x118393d>
    1948:	a5040000 	strge	r0, [r4, #-0]
    194c:	0000ae1f 	andeq	sl, r0, pc, lsl lr
    1950:	08230200 	stmdaeq	r3!, {r9}
    1954:	0008df08 	andeq	sp, r8, r8, lsl #30
    1958:	1fa60400 	svcne	0x00a60400
    195c:	000000ae 	andeq	r0, r0, lr, lsr #1
    1960:	08092302 	stmdaeq	r9, {r1, r8, r9, sp}
    1964:	000009bf 			; <UNDEFINED> instruction: 0x000009bf
    1968:	3b1ba704 	blcc	6eb580 <SYS_MODE+0x6eb561>
    196c:	02000001 	andeq	r0, r0, #1
    1970:	6e080a23 	vmlavs.f32	s0, s16, s7
    1974:	04000009 	streq	r0, [r0], #-9
    1978:	010e1da8 	smlatbeq	lr, r8, sp, r1
    197c:	23020000 	movwcs	r0, #8192	; 0x2000
    1980:	0a28080b 	beq	a039b4 <SYS_MODE+0xa03995>
    1984:	a9040000 	stmdbge	r4, {}	; <UNPREDICTABLE>
    1988:	0000e11f 	andeq	lr, r0, pc, lsl r1
    198c:	0c230200 	sfmeq	f0, 4, [r3], #-0
    1990:	02010200 	andeq	r0, r1, #0, 4
    1994:	00000a94 	muleq	r0, r4, sl
    1998:	00099803 	andeq	r9, r9, r3, lsl #16
    199c:	03aa0400 			; <UNDEFINED> instruction: 0x03aa0400
    19a0:	00000147 	andeq	r0, r0, r7, asr #2
    19a4:	0001d009 	andeq	sp, r1, r9
    19a8:	0c7c0a00 			; <UNDEFINED> instruction: 0x0c7c0a00
    19ac:	01070000 	mrseq	r0, (UNDEF: 7)
    19b0:	00000030 	andeq	r0, r0, r0, lsr r0
    19b4:	06062805 	streq	r2, [r6], -r5, lsl #16
    19b8:	06000002 	streq	r0, [r0], -r2
    19bc:	00000c41 	andeq	r0, r0, r1, asr #24
    19c0:	0e070600 	cfmadd32eq	mvax0, mvfx0, mvfx7, mvfx0
    19c4:	06010000 	streq	r0, [r1], -r0
    19c8:	00000e4a 	andeq	r0, r0, sl, asr #28
    19cc:	ca0a0002 	bgt	2819dc <SYS_MODE+0x2819bd>
    19d0:	0700000d 	streq	r0, [r0, -sp]
    19d4:	00003001 	andeq	r3, r0, r1
    19d8:	06310500 	ldrteq	r0, [r1], -r0, lsl #10
    19dc:	0000022b 	andeq	r0, r0, fp, lsr #4
    19e0:	000e3606 	andeq	r3, lr, r6, lsl #12
    19e4:	56060000 	strpl	r0, [r6], -r0
    19e8:	0100000c 	tsteq	r0, ip
    19ec:	000d9a06 	andeq	r9, sp, r6, lsl #20
    19f0:	0b000200 	bleq	21f8 <SYS_MODE+0x21d9>
    19f4:	04080204 	streq	r0, [r8], #-516	; 0xfffffdfc
    19f8:	0000018b 	andeq	r0, r0, fp, lsl #3
    19fc:	023a040c 	eorseq	r0, sl, #12, 8	; 0xc000000
    1a00:	01020000 	mrseq	r0, (UNDEF: 2)
    1a04:	00015508 	andeq	r5, r1, r8, lsl #10
    1a08:	0edc0d00 	cdpeq	13, 13, cr0, cr12, cr0, {0}
    1a0c:	24010000 	strcs	r0, [r1], #-0
    1a10:	0001dc1d 	andeq	sp, r1, sp, lsl ip
    1a14:	03050100 	movweq	r0, #20736	; 0x5100
    1a18:	c2007cac 	andgt	r7, r0, #172, 24	; 0xac00
    1a1c:	0386010e 	orreq	r0, r6, #-2147483645	; 0x80000003
    1a20:	a5010000 	strge	r0, [r1, #-0]
    1a24:	0fa80106 	svceq	0x00a80106
    1a28:	0fdcc200 	svceq	0x00dcc200
    1a2c:	1078c200 	rsbsne	ip, r8, r0, lsl #4
    1a30:	a3010000 	movwge	r0, #4096	; 0x1000
    1a34:	0f000002 	svceq	0x00000002
    1a38:	c2000fc0 	andgt	r0, r0, #192, 30	; 0x300
    1a3c:	000005c8 	andeq	r0, r0, r8, asr #11
    1a40:	00000286 	andeq	r0, r0, r6, lsl #5
    1a44:	05510110 	ldrbeq	r0, [r1, #-272]	; 0xfffffef0
    1a48:	007cac03 	rsbseq	sl, ip, r3, lsl #24
    1a4c:	cc1100c2 	ldcgt	0, cr0, [r1], {194}	; 0xc2
    1a50:	a3c2000f 	bicge	r0, r2, #15
    1a54:	12000002 	andne	r0, r0, #2
    1a58:	c2000fd8 	andgt	r0, r0, #216, 30	; 0x360
    1a5c:	000005d6 	ldrdeq	r0, [r0], -r6
    1a60:	05500110 	ldrbeq	r0, [r0, #-272]	; 0xfffffef0
    1a64:	007c9003 	rsbseq	r9, ip, r3
    1a68:	130000c2 	movwne	r0, #194	; 0xc2
    1a6c:	00000f70 	andeq	r0, r0, r0, ror pc
    1a70:	010d8a01 	tsteq	sp, r1, lsl #20
    1a74:	c2000edc 	andgt	r0, r0, #220, 28	; 0xdc0
    1a78:	c2000f4c 	andgt	r0, r0, #76, 30	; 0x130
    1a7c:	00001098 	muleq	r0, r8, r0
    1a80:	00038501 	andeq	r8, r3, r1, lsl #10
    1a84:	0f201400 	svceq	0x00201400
    1a88:	8a010000 	bhi	41a90 <SYS_MODE+0x41a71>
    1a8c:	00007b26 	andeq	r7, r0, r6, lsr #22
    1a90:	0010bc00 	andseq	fp, r0, r0, lsl #24
    1a94:	0010b800 	andseq	fp, r0, r0, lsl #16
    1a98:	0ef80f00 	cdpeq	15, 15, cr0, cr8, cr0, {0}
    1a9c:	05e4c200 	strbeq	ip, [r4, #512]!	; 0x200
    1aa0:	02e50000 	rsceq	r0, r5, #0
    1aa4:	01100000 	tsteq	r0, r0
    1aa8:	00740250 	rsbseq	r0, r4, r0, asr r2
    1aac:	0f040f00 	svceq	0x00040f00
    1ab0:	05f2c200 	ldrbeq	ip, [r2, #512]!	; 0x200
    1ab4:	03000000 	movweq	r0, #0
    1ab8:	01100000 	tsteq	r0, r0
    1abc:	00740250 	rsbseq	r0, r4, r0, asr r2
    1ac0:	03510110 	cmpeq	r1, #16, 2
    1ac4:	00ff000b 	rscseq	r0, pc, fp
    1ac8:	000f100f 	andeq	r1, pc, pc
    1acc:	000600c2 	andeq	r0, r6, r2, asr #1
    1ad0:	00031b00 	andeq	r1, r3, r0, lsl #22
    1ad4:	50011000 	andpl	r1, r1, r0
    1ad8:	10007402 	andne	r7, r0, r2, lsl #8
    1adc:	0b035101 	bleq	d5ee8 <SYS_MODE+0xd5ec9>
    1ae0:	0f00ff00 	svceq	0x0000ff00
    1ae4:	c2000f1c 	andgt	r0, r0, #28, 30	; 0x70
    1ae8:	0000060e 	andeq	r0, r0, lr, lsl #12
    1aec:	00000334 	andeq	r0, r0, r4, lsr r3
    1af0:	02500110 	subseq	r0, r0, #16, 2
    1af4:	01100074 	tsteq	r0, r4, ror r0
    1af8:	00300151 	eorseq	r0, r0, r1, asr r1
    1afc:	000f280f 	andeq	r2, pc, pc, lsl #16
    1b00:	00061cc2 	andeq	r1, r6, r2, asr #25
    1b04:	00034d00 	andeq	r4, r3, r0, lsl #26
    1b08:	50011000 	andpl	r1, r1, r0
    1b0c:	10007402 	andne	r7, r0, r2, lsl #8
    1b10:	31015101 	tstcc	r1, r1, lsl #2
    1b14:	0f400f00 	svceq	0x00400f00
    1b18:	062ac200 	strteq	ip, [sl], -r0, lsl #4
    1b1c:	03740000 	cmneq	r4, #0
    1b20:	01100000 	tsteq	r0, r0
    1b24:	44080250 	strmi	r0, [r8], #-592	; 0xfffffdb0
    1b28:	01510110 	cmpeq	r1, r0, lsl r1
    1b2c:	5201103f 	andpl	r1, r1, #63	; 0x3f
    1b30:	01103001 	tsteq	r0, r1
    1b34:	c0030553 	andgt	r0, r3, r3, asr r5
    1b38:	00c2000e 	sbceq	r0, r2, lr
    1b3c:	000f4812 	andeq	r4, pc, r2, lsl r8	; <UNPREDICTABLE>
    1b40:	000638c2 	andeq	r3, r6, r2, asr #17
    1b44:	50011000 	andpl	r1, r1, r0
    1b48:	00007402 	andeq	r7, r0, r2, lsl #8
    1b4c:	f6010e00 			; <UNDEFINED> instruction: 0xf6010e00
    1b50:	0100000e 	tsteq	r0, lr
    1b54:	c0010683 	andgt	r0, r1, r3, lsl #13
    1b58:	dcc2000e 	stclle	0, cr0, [r2], {14}
    1b5c:	dac2000e 	ble	ff081b9c <__HeapLimit+0x3d074b9c>
    1b60:	01000010 	tsteq	r0, r0, lsl r0
    1b64:	000003cd 	andeq	r0, r0, sp, asr #7
    1b68:	00065b14 	andeq	r5, r6, r4, lsl fp
    1b6c:	24830100 	strcs	r0, [r3], #256	; 0x100
    1b70:	0000022b 	andeq	r0, r0, fp, lsr #4
    1b74:	000010fe 	strdeq	r1, [r0], -lr
    1b78:	000010fa 	strdeq	r1, [r0], -sl
    1b7c:	000ec811 	andeq	ip, lr, r1, lsl r8
    1b80:	000646c2 	andeq	r4, r6, r2, asr #13
    1b84:	0ed81200 	cdpeq	2, 13, cr1, cr8, cr0, {0}
    1b88:	0654c200 	ldrbeq	ip, [r4], -r0, lsl #4
    1b8c:	01100000 	tsteq	r0, r0
    1b90:	00310151 	eorseq	r0, r1, r1, asr r1
    1b94:	14010e00 	strne	r0, [r1], #-3584	; 0xfffff200
    1b98:	01000004 	tsteq	r0, r4
    1b9c:	9c01067d 	stcls	6, cr0, [r1], {125}	; 0x7d
    1ba0:	a8c2000f 	stmiage	r2, {r0, r1, r2, r3}^
    1ba4:	1fc2000f 	svcne	0x00c2000f
    1ba8:	01000011 	tsteq	r0, r1, lsl r0
    1bac:	000003f2 	strdeq	r0, [r0], -r2
    1bb0:	000fa411 	andeq	sl, pc, r1, lsl r4	; <UNPREDICTABLE>
    1bb4:	0003f2c2 	andeq	pc, r3, r2, asr #5
    1bb8:	cb130000 	blgt	4c1bc0 <SYS_MODE+0x4c1ba1>
    1bbc:	0100000e 	tsteq	r0, lr
    1bc0:	5c010d2f 	stcpl	13, cr0, [r1], {47}	; 0x2f
    1bc4:	c0c2000d 	sbcgt	r0, r2, sp
    1bc8:	3fc2000e 	svccc	0x00c2000e
    1bcc:	01000011 	tsteq	r0, r1, lsl r0
    1bd0:	000004ff 	strdeq	r0, [r0], -pc	; <UNPREDICTABLE>
    1bd4:	000f8015 	andeq	r8, pc, r5, lsl r0	; <UNPREDICTABLE>
    1bd8:	0f370100 	svceq	0x00370100
    1bdc:	0000007b 	andeq	r0, r0, fp, ror r0
    1be0:	0000116b 	andeq	r1, r0, fp, ror #2
    1be4:	0000115f 	andeq	r1, r0, pc, asr r1
    1be8:	000fa015 	andeq	sl, pc, r5, lsl r0	; <UNPREDICTABLE>
    1bec:	0f380100 	svceq	0x00380100
    1bf0:	0000007b 	andeq	r0, r0, fp, ror r0
    1bf4:	000011c3 	andeq	r1, r0, r3, asr #3
    1bf8:	000011b9 			; <UNDEFINED> instruction: 0x000011b9
    1bfc:	000f2c15 	andeq	r2, pc, r5, lsl ip	; <UNPREDICTABLE>
    1c00:	0f390100 	svceq	0x00390100
    1c04:	000004ff 	strdeq	r0, [r0], -pc	; <UNPREDICTABLE>
    1c08:	00001205 	andeq	r1, r0, r5, lsl #4
    1c0c:	00001203 	andeq	r1, r0, r3, lsl #4
    1c10:	000ee915 	andeq	lr, lr, r5, lsl r9
    1c14:	0e520100 	rdfeqs	f0, f2, f0
    1c18:	0000007b 	andeq	r0, r0, fp, ror r0
    1c1c:	0000121e 	andeq	r1, r0, lr, lsl r2
    1c20:	0000121c 	andeq	r1, r0, ip, lsl r2
    1c24:	000f1b16 	andeq	r1, pc, r6, lsl fp	; <UNPREDICTABLE>
    1c28:	0f650100 	svceq	0x00650100
    1c2c:	000004ff 	strdeq	r0, [r0], -pc	; <UNPREDICTABLE>
    1c30:	000e6e15 	andeq	r6, lr, r5, lsl lr
    1c34:	0f660100 	svceq	0x00660100
    1c38:	0000007b 	andeq	r0, r0, fp, ror r0
    1c3c:	00001233 	andeq	r1, r0, r3, lsr r2
    1c40:	00001231 	andeq	r1, r0, r1, lsr r2
    1c44:	00016017 	andeq	r6, r1, r7, lsl r0
    1c48:	00049800 	andeq	r9, r4, r0, lsl #16
    1c4c:	00691800 	rsbeq	r1, r9, r0, lsl #16
    1c50:	7b133a01 	blvc	4d045c <SYS_MODE+0x4d043d>
    1c54:	4c000000 	stcmi	0, cr0, [r0], {-0}
    1c58:	46000012 			; <UNDEFINED> instruction: 0x46000012
    1c5c:	00000012 	andeq	r0, r0, r2, lsl r0
    1c60:	00018017 	andeq	r8, r1, r7, lsl r0
    1c64:	0004b400 	andeq	fp, r4, r0, lsl #8
    1c68:	00691800 	rsbeq	r1, r9, r0, lsl #16
    1c6c:	7b135301 	blvc	4d6878 <SYS_MODE+0x4d6859>
    1c70:	78000000 	stmdavc	r0, {}	; <UNPREDICTABLE>
    1c74:	76000012 			; <UNDEFINED> instruction: 0x76000012
    1c78:	00000012 	andeq	r0, r0, r2, lsl r0
    1c7c:	0001a017 	andeq	sl, r1, r7, lsl r0
    1c80:	0004d000 	andeq	sp, r4, r0
    1c84:	00691800 	rsbeq	r1, r9, r0, lsl #16
    1c88:	7b136701 	blvc	4db894 <SYS_MODE+0x4db875>
    1c8c:	8d000000 	stchi	0, cr0, [r0, #-0]
    1c90:	8b000012 	blhi	1ce0 <SYS_MODE+0x1cc1>
    1c94:	00000012 	andeq	r0, r0, r2, lsl r0
    1c98:	000d680f 	andeq	r6, sp, pc, lsl #16
    1c9c:	000662c2 	andeq	r6, r6, r2, asr #5
    1ca0:	0004e600 	andeq	lr, r4, r0, lsl #12
    1ca4:	50011000 	andpl	r1, r1, r0
    1ca8:	244b4004 	strbcs	r4, [fp], #-4
    1cac:	7411001f 	ldrvc	r0, [r1], #-31	; 0xffffffe1
    1cb0:	70c2000d 	sbcvc	r0, r2, sp
    1cb4:	12000006 	andne	r0, r0, #6
    1cb8:	c2000d7c 	andgt	r0, r0, #124, 26	; 0x1f00
    1cbc:	0000067e 	andeq	r0, r0, lr, ror r6
    1cc0:	01500110 	cmpeq	r0, r0, lsl r1
    1cc4:	0c000031 	stceq	0, cr0, [r0], {49}	; 0x31
    1cc8:	00007b04 	andeq	r7, r0, r4, lsl #22
    1ccc:	25011900 	strcs	r1, [r1, #-2304]	; 0xfffff700
    1cd0:	0100000f 	tsteq	r0, pc
    1cd4:	6d01051c 	cfstr32vs	mvfx0, [r1, #-112]	; 0xffffff90
    1cd8:	6c000000 	stcvs	0, cr0, [r0], {-0}
    1cdc:	9cc2000f 	stclls	0, cr0, [r2], {15}
    1ce0:	a0c2000f 	sbcge	r0, r2, pc
    1ce4:	01000012 	tsteq	r0, r2, lsl r0
    1ce8:	00000585 	andeq	r0, r0, r5, lsl #11
    1cec:	0064661a 	rsbeq	r6, r4, sl, lsl r6
    1cf0:	6d101c01 	ldcvs	12, cr1, [r0, #-4]
    1cf4:	c4000000 	strgt	r0, [r0], #-0
    1cf8:	c0000012 	andgt	r0, r0, r2, lsl r0
    1cfc:	14000012 	strne	r0, [r0], #-18	; 0xffffffee
    1d00:	00000f0e 	andeq	r0, r0, lr, lsl #30
    1d04:	341a1c01 	ldrcc	r1, [sl], #-3073	; 0xfffff3ff
    1d08:	ed000002 	stc	0, cr0, [r0, #-8]
    1d0c:	e5000012 	str	r0, [r0, #-18]	; 0xffffffee
    1d10:	14000012 	strne	r0, [r0], #-18	; 0xffffffee
    1d14:	00000f16 	andeq	r0, r0, r6, lsl pc
    1d18:	6d271c01 	stcvs	12, cr1, [r7, #-4]!
    1d1c:	27000000 	strcs	r0, [r0, -r0]
    1d20:	23000013 	movwcs	r0, #19
    1d24:	1b000013 	blne	1d78 <SYS_MODE+0x1d59>
    1d28:	c2000f78 	andgt	r0, r0, #120, 30	; 0x1e0
    1d2c:	c2000f94 	andgt	r0, r0, #148, 30	; 0x250
    1d30:	01006918 	tsteq	r0, r8, lsl r9
    1d34:	006d0e1f 	rsbeq	r0, sp, pc, lsl lr
    1d38:	13490000 	movtne	r0, #36864	; 0x9000
    1d3c:	13450000 	movtne	r0, #20480	; 0x5000
    1d40:	88110000 	ldmdahi	r1, {}	; <UNPREDICTABLE>
    1d44:	85c2000f 	strbhi	r0, [r2, #15]
    1d48:	00000005 	andeq	r0, r0, r5
    1d4c:	37011900 	strcc	r1, [r1, -r0, lsl #18]
    1d50:	0100000f 	tsteq	r0, pc
    1d54:	6d010116 	stfvss	f0, [r1, #-88]	; 0xffffffa8
    1d58:	4c000000 	stcmi	0, cr0, [r0], {-0}
    1d5c:	6cc2000f 	stclvs	0, cr0, [r2], {15}
    1d60:	68c2000f 	stmiavs	r2, {r0, r1, r2, r3}^
    1d64:	01000013 	tsteq	r0, r3, lsl r0
    1d68:	000005c8 	andeq	r0, r0, r8, asr #11
    1d6c:	0068631a 	rsbeq	r6, r8, sl, lsl r3
    1d70:	6d011601 	stcvs	6, cr1, [r1, #-4]
    1d74:	8e000000 	cdphi	0, 0, cr0, cr0, cr0, {0}
    1d78:	88000013 	stmdahi	r0, {r0, r1, r4}
    1d7c:	12000013 	andne	r0, r0, #19
    1d80:	c2000f64 	andgt	r0, r0, #100, 30	; 0x190
    1d84:	0000068c 	andeq	r0, r0, ip, lsl #13
    1d88:	02510110 	subseq	r0, r1, #16, 2
    1d8c:	00000074 	andeq	r0, r0, r4, ror r0
    1d90:	b501011c 	strlt	r0, [r1, #-284]	; 0xfffffee4
    1d94:	b5000008 	strlt	r0, [r0, #-8]
    1d98:	04000008 	streq	r0, [r0], #-8
    1d9c:	011c06b1 			; <UNDEFINED> instruction: 0x011c06b1
    1da0:	000e7701 	andeq	r7, lr, r1, lsl #14
    1da4:	000e7700 	andeq	r7, lr, r0, lsl #14
    1da8:	05c80600 	strbeq	r0, [r8, #1536]	; 0x600
    1dac:	0901011c 	stmdbeq	r1, {r2, r3, r4, r8}
    1db0:	0900000d 	stmdbeq	r0, {r0, r2, r3}
    1db4:	0500000d 	streq	r0, [r0, #-13]
    1db8:	011c0637 	tsteq	ip, r7, lsr r6
    1dbc:	000bab01 	andeq	sl, fp, r1, lsl #22
    1dc0:	000bab00 	andeq	sl, fp, r0, lsl #22
    1dc4:	06430500 	strbeq	r0, [r3], -r0, lsl #10
    1dc8:	f601011c 			; <UNDEFINED> instruction: 0xf601011c
    1dcc:	f600000b 			; <UNDEFINED> instruction: 0xf600000b
    1dd0:	0500000b 	streq	r0, [r0, #-11]
    1dd4:	011c0645 	tsteq	ip, r5, asr #12
    1dd8:	000daf01 	andeq	sl, sp, r1, lsl #30
    1ddc:	000daf00 	andeq	sl, sp, r0, lsl #30
    1de0:	063d0500 	ldrteq	r0, [sp], -r0, lsl #10
    1de4:	7a01011c 	bvc	4225c <SYS_MODE+0x4223d>
    1de8:	7a00000d 	bvc	1e24 <SYS_MODE+0x1e05>
    1dec:	0500000d 	streq	r0, [r0, #-13]
    1df0:	011c064b 	tsteq	ip, fp, asr #12
    1df4:	0005b801 	andeq	fp, r5, r1, lsl #16
    1df8:	0005b800 	andeq	fp, r5, r0, lsl #16
    1dfc:	06180700 	ldreq	r0, [r8], -r0, lsl #14
    1e00:	9801011c 	stmdals	r1, {r2, r3, r4, r8}
    1e04:	9800000b 	stmdals	r0, {r0, r1, r3}
    1e08:	0500000b 	streq	r0, [r0, #-11]
    1e0c:	011c0639 	tsteq	ip, r9, lsr r6
    1e10:	00019701 	andeq	r9, r1, r1, lsl #14
    1e14:	00019700 	andeq	r9, r1, r0, lsl #14
    1e18:	061a0800 	ldreq	r0, [sl], -r0, lsl #16
    1e1c:	9501011c 	strls	r0, [r1, #-284]	; 0xfffffee4
    1e20:	9500000c 	strls	r0, [r0, #-12]
    1e24:	0500000c 	streq	r0, [r0, #-12]
    1e28:	011c0649 	tsteq	ip, r9, asr #12
    1e2c:	000f4401 	andeq	r4, pc, r1, lsl #8
    1e30:	000f4400 	andeq	r4, pc, r0, lsl #8
    1e34:	06090900 	streq	r0, [r9], -r0, lsl #18
    1e38:	5a01011c 	bpl	422b0 <SYS_MODE+0x42291>
    1e3c:	5a00000f 	bpl	1e80 <SYS_MODE+0x1e61>
    1e40:	0900000f 	stmdbeq	r0, {r0, r1, r2, r3}
    1e44:	011c060e 	tsteq	ip, lr, lsl #12
    1e48:	000f8a01 	andeq	r8, pc, r1, lsl #20
    1e4c:	000f8a00 	andeq	r8, pc, r0, lsl #20
    1e50:	06130900 	ldreq	r0, [r3], -r0, lsl #18
    1e54:	4501011c 	strmi	r0, [r1, #-284]	; 0xfffffee4
    1e58:	45000009 	strmi	r0, [r0, #-9]
    1e5c:	04000009 	streq	r0, [r0], #-9
    1e60:	Address 0x0000000000001e60 is out of bounds.


Disassembly of section .debug_abbrev:

00000000 <.debug_abbrev>:
   0:	10001101 	andne	r1, r0, r1, lsl #2
   4:	12011106 	andne	r1, r1, #-2147483647	; 0x80000001
   8:	1b0e0301 	blne	380c14 <SYS_MODE+0x380bf5>
   c:	130e250e 	movwne	r2, #58638	; 0xe50e
  10:	00000005 	andeq	r0, r0, r5
  14:	10001101 	andne	r1, r0, r1, lsl #2
  18:	12011106 	andne	r1, r1, #-2147483647	; 0x80000001
  1c:	1b0e0301 	blne	380c28 <SYS_MODE+0x380c09>
  20:	130e250e 	movwne	r2, #58638	; 0xe50e
  24:	00000005 	andeq	r0, r0, r5
  28:	25011101 	strcs	r1, [r1, #-257]	; 0xfffffeff
  2c:	030b130e 	movweq	r1, #45838	; 0xb30e
  30:	550e1b0e 	strpl	r1, [lr, #-2830]	; 0xfffff4f2
  34:	52011106 	andpl	r1, r1, #-2147483647	; 0x80000001
  38:	00061001 	andeq	r1, r6, r1
  3c:	00240200 	eoreq	r0, r4, r0, lsl #4
  40:	0b3e0b0b 	bleq	f82c74 <SYS_MODE+0xf82c55>
  44:	00000e03 	andeq	r0, r0, r3, lsl #28
  48:	03001603 	movweq	r1, #1539	; 0x603
  4c:	3b0b3a0e 	blcc	2ce88c <SYS_MODE+0x2ce86d>
  50:	490b390b 	stmdbmi	fp, {r0, r1, r3, r8, fp, ip, sp}
  54:	04000013 	streq	r0, [r0], #-19	; 0xffffffed
  58:	0b0b0024 	bleq	2c00f0 <SYS_MODE+0x2c00d1>
  5c:	08030b3e 	stmdaeq	r3, {r1, r2, r3, r4, r5, r8, r9, fp}
  60:	35050000 	strcc	r0, [r5, #-0]
  64:	00134900 	andseq	r4, r3, r0, lsl #18
  68:	00340600 	eorseq	r0, r4, r0, lsl #12
  6c:	0b3a0e03 	bleq	e83880 <SYS_MODE+0xe83861>
  70:	0b390b3b 	bleq	e42d64 <SYS_MODE+0xe42d45>
  74:	0a021349 	beq	84da0 <SYS_MODE+0x84d81>
  78:	2e070000 	cdpcs	0, 0, cr0, cr7, cr0, {0}
  7c:	030c3f00 	movweq	r3, #52992	; 0xcf00
  80:	3b0b3a0e 	blcc	2ce8c0 <SYS_MODE+0x2ce8a1>
  84:	270b390b 	strcs	r3, [fp, -fp, lsl #18]
  88:	1201110c 	andne	r1, r1, #12, 2
  8c:	970a4001 	strls	r4, [sl, -r1]
  90:	00000c42 	andeq	r0, r0, r2, asr #24
  94:	3f012e08 	svccc	0x00012e08
  98:	3a0e030c 	bcc	380cd0 <SYS_MODE+0x380cb1>
  9c:	390b3b0b 	stmdbcc	fp, {r0, r1, r3, r8, r9, fp, ip, sp}
  a0:	110c270b 	tstne	ip, fp, lsl #14
  a4:	40011201 	andmi	r1, r1, r1, lsl #4
  a8:	0c429706 	mcrreq	7, 0, r9, r2, cr6
  ac:	00001301 	andeq	r1, r0, r1, lsl #6
  b0:	03000509 	movweq	r0, #1289	; 0x509
  b4:	3b0b3a0e 	blcc	2ce8f4 <SYS_MODE+0x2ce8d5>
  b8:	490b390b 	stmdbmi	fp, {r0, r1, r3, r8, fp, ip, sp}
  bc:	b7060213 	smladlt	r6, r3, r2, r0
  c0:	00000642 	andeq	r0, r0, r2, asr #12
  c4:	0182890a 	orreq	r8, r2, sl, lsl #18
  c8:	31011100 	mrscc	r1, (UNDEF: 17)
  cc:	0b000013 	bleq	120 <SYS_MODE+0x101>
  d0:	0c3f012e 	ldfeqs	f0, [pc], #-184	; 20 <SYS_MODE+0x1>
  d4:	0b3a0e03 	bleq	e838e8 <SYS_MODE+0xe838c9>
  d8:	0b390b3b 	bleq	e42dcc <SYS_MODE+0xe42dad>
  dc:	13490c27 	movtne	r0, #39975	; 0x9c27
  e0:	01120111 	tsteq	r2, r1, lsl r1
  e4:	42970a40 	addsmi	r0, r7, #64, 20	; 0x40000
  e8:	0013010c 	andseq	r0, r3, ip, lsl #2
  ec:	00340c00 	eorseq	r0, r4, r0, lsl #24
  f0:	0b3a0e03 	bleq	e83904 <SYS_MODE+0xe838e5>
  f4:	0b390b3b 	bleq	e42de8 <SYS_MODE+0xe42dc9>
  f8:	06021349 	streq	r1, [r2], -r9, asr #6
  fc:	000642b7 			; <UNDEFINED> instruction: 0x000642b7
 100:	002e0d00 	eoreq	r0, lr, r0, lsl #26
 104:	0c3c0c3f 	ldceq	12, cr0, [ip], #-252	; 0xffffff04
 108:	030e4087 	movweq	r4, #57479	; 0xe087
 10c:	3b0b3a0e 	blcc	2ce94c <SYS_MODE+0x2ce92d>
 110:	000b390b 	andeq	r3, fp, fp, lsl #18
 114:	11010000 	mrsne	r0, (UNDEF: 1)
 118:	11061000 	mrsne	r1, (UNDEF: 6)
 11c:	03011201 	movweq	r1, #4609	; 0x1201
 120:	250e1b0e 	strcs	r1, [lr, #-2830]	; 0xfffff4f2
 124:	0005130e 	andeq	r1, r5, lr, lsl #6
 128:	11010000 	mrsne	r0, (UNDEF: 1)
 12c:	11061000 	mrsne	r1, (UNDEF: 6)
 130:	03011201 	movweq	r1, #4609	; 0x1201
 134:	250e1b0e 	strcs	r1, [lr, #-2830]	; 0xfffff4f2
 138:	0005130e 	andeq	r1, r5, lr, lsl #6
 13c:	11010000 	mrsne	r0, (UNDEF: 1)
 140:	130e2501 	movwne	r2, #58625	; 0xe501
 144:	1b0e030b 	blne	380d78 <SYS_MODE+0x380d59>
 148:	1106550e 	tstne	r6, lr, lsl #10
 14c:	10015201 	andne	r5, r1, r1, lsl #4
 150:	02000006 	andeq	r0, r0, #6
 154:	0b0b0024 	bleq	2c01ec <SYS_MODE+0x2c01cd>
 158:	0e030b3e 	vmoveq.16	d3[0], r0
 15c:	16030000 	strne	r0, [r3], -r0
 160:	3a0e0300 	bcc	380d68 <SYS_MODE+0x380d49>
 164:	390b3b0b 	stmdbcc	fp, {r0, r1, r3, r8, r9, fp, ip, sp}
 168:	0013490b 	andseq	r4, r3, fp, lsl #18
 16c:	00240400 	eoreq	r0, r4, r0, lsl #8
 170:	0b3e0b0b 	bleq	f82da4 <SYS_MODE+0xf82d85>
 174:	00000803 	andeq	r0, r0, r3, lsl #16
 178:	49010105 	stmdbmi	r1, {r0, r2, r8}
 17c:	00130113 	andseq	r0, r3, r3, lsl r1
 180:	00210600 	eoreq	r0, r1, r0, lsl #12
 184:	34070000 	strcc	r0, [r7], #-0
 188:	3a0e0300 	bcc	380d90 <SYS_MODE+0x380d71>
 18c:	390b3b0b 	stmdbcc	fp, {r0, r1, r3, r8, r9, fp, ip, sp}
 190:	3f13490b 	svccc	0x0013490b
 194:	000c3c0c 	andeq	r3, ip, ip, lsl #24
 198:	012e0800 			; <UNDEFINED> instruction: 0x012e0800
 19c:	0e030c3f 	mcreq	12, 0, r0, cr3, cr15, {1}
 1a0:	0b3b0b3a 	bleq	ec2e90 <SYS_MODE+0xec2e71>
 1a4:	0c270b39 			; <UNDEFINED> instruction: 0x0c270b39
 1a8:	01120111 	tsteq	r2, r1, lsl r1
 1ac:	42970640 	addsmi	r0, r7, #64, 12	; 0x4000000
 1b0:	0013010c 	andseq	r0, r3, ip, lsl #2
 1b4:	82890900 	addhi	r0, r9, #0, 18
 1b8:	01110101 	tsteq	r1, r1, lsl #2
 1bc:	13011331 	movwne	r1, #4913	; 0x1331
 1c0:	8a0a0000 	bhi	2801c8 <SYS_MODE+0x2801a9>
 1c4:	02000182 	andeq	r0, r0, #-2147483616	; 0x80000020
 1c8:	0a42910a 	beq	10a45f8 <SYS_MODE+0x10a45d9>
 1cc:	890b0000 	stmdbhi	fp, {}	; <UNPREDICTABLE>
 1d0:	11000182 	smlabbne	r0, r2, r1, r0
 1d4:	00133101 	andseq	r3, r3, r1, lsl #2
 1d8:	002e0c00 	eoreq	r0, lr, r0, lsl #24
 1dc:	0c3c0c3f 	ldceq	12, cr0, [ip], #-252	; 0xffffff04
 1e0:	030e4087 	movweq	r4, #57479	; 0xe087
 1e4:	3b0b3a0e 	blcc	2cea24 <SYS_MODE+0x2cea05>
 1e8:	000b390b 	andeq	r3, fp, fp, lsl #18
 1ec:	11010000 	mrsne	r0, (UNDEF: 1)
 1f0:	130e2501 	movwne	r2, #58625	; 0xe501
 1f4:	1b0e030b 	blne	380e28 <SYS_MODE+0x380e09>
 1f8:	1106550e 	tstne	r6, lr, lsl #10
 1fc:	10015201 	andne	r5, r1, r1, lsl #4
 200:	02000006 	andeq	r0, r0, #6
 204:	0b0b0024 	bleq	2c029c <SYS_MODE+0x2c027d>
 208:	0e030b3e 	vmoveq.16	d3[0], r0
 20c:	16030000 	strne	r0, [r3], -r0
 210:	3a0e0300 	bcc	380e18 <SYS_MODE+0x380df9>
 214:	390b3b0b 	stmdbcc	fp, {r0, r1, r3, r8, r9, fp, ip, sp}
 218:	0013490b 	andseq	r4, r3, fp, lsl #18
 21c:	00240400 	eoreq	r0, r4, r0, lsl #8
 220:	0b3e0b0b 	bleq	f82e54 <SYS_MODE+0xf82e35>
 224:	00000803 	andeq	r0, r0, r3, lsl #16
 228:	0b000f05 	bleq	3e44 <SYS_MODE+0x3e25>
 22c:	0013490b 	andseq	r4, r3, fp, lsl #18
 230:	01150600 	tsteq	r5, r0, lsl #12
 234:	13010c27 	movwne	r0, #7207	; 0x1c27
 238:	05070000 	streq	r0, [r7, #-0]
 23c:	00134900 	andseq	r4, r3, r0, lsl #18
 240:	000f0800 	andeq	r0, pc, r0, lsl #16
 244:	00000b0b 	andeq	r0, r0, fp, lsl #22
 248:	03011309 	movweq	r1, #4873	; 0x1309
 24c:	3a0b0b0e 	bcc	2c2e8c <SYS_MODE+0x2c2e6d>
 250:	390b3b0b 	stmdbcc	fp, {r0, r1, r3, r8, r9, fp, ip, sp}
 254:	0013010b 	andseq	r0, r3, fp, lsl #2
 258:	000d0a00 	andeq	r0, sp, r0, lsl #20
 25c:	0b3a0e03 	bleq	e83a70 <SYS_MODE+0xe83a51>
 260:	0b390b3b 	bleq	e42f54 <SYS_MODE+0xe42f35>
 264:	0a381349 	beq	e04f90 <SYS_MODE+0xe04f71>
 268:	010b0000 	mrseq	r0, (UNDEF: 11)
 26c:	01134901 	tsteq	r3, r1, lsl #18
 270:	0c000013 	stceq	0, cr0, [r0], {19}
 274:	13490021 	movtne	r0, #36897	; 0x9021
 278:	00000b2f 	andeq	r0, r0, pc, lsr #22
 27c:	0300340d 	movweq	r3, #1037	; 0x40d
 280:	3b0b3a0e 	blcc	2ceac0 <SYS_MODE+0x2ceaa1>
 284:	490b390b 	stmdbmi	fp, {r0, r1, r3, r8, fp, ip, sp}
 288:	000a0213 	andeq	r0, sl, r3, lsl r2
 28c:	012e0e00 			; <UNDEFINED> instruction: 0x012e0e00
 290:	0e030c3f 	mcreq	12, 0, r0, cr3, cr15, {1}
 294:	0b3b0b3a 	bleq	ec2f84 <SYS_MODE+0xec2f65>
 298:	0c270b39 			; <UNDEFINED> instruction: 0x0c270b39
 29c:	01120111 	tsteq	r2, r1, lsl r1
 2a0:	42970640 	addsmi	r0, r7, #64, 12	; 0x4000000
 2a4:	0013010c 	andseq	r0, r3, ip, lsl #2
 2a8:	00050f00 	andeq	r0, r5, r0, lsl #30
 2ac:	0b3a0803 	bleq	e822c0 <SYS_MODE+0xe822a1>
 2b0:	0b390b3b 	bleq	e42fa4 <SYS_MODE+0xe42f85>
 2b4:	06021349 	streq	r1, [r2], -r9, asr #6
 2b8:	000642b7 			; <UNDEFINED> instruction: 0x000642b7
 2bc:	82891000 	addhi	r1, r9, #0
 2c0:	01110101 	tsteq	r1, r1, lsl #2
 2c4:	00001331 	andeq	r1, r0, r1, lsr r3
 2c8:	01828a11 	orreq	r8, r2, r1, lsl sl
 2cc:	910a0200 	mrsls	r0, R10_fiq
 2d0:	00000a42 	andeq	r0, r0, r2, asr #20
 2d4:	03000512 	movweq	r0, #1298	; 0x512
 2d8:	3b0b3a0e 	blcc	2ceb18 <SYS_MODE+0x2ceaf9>
 2dc:	490b390b 	stmdbmi	fp, {r0, r1, r3, r8, fp, ip, sp}
 2e0:	b7060213 	smladlt	r6, r3, r2, r0
 2e4:	00000642 	andeq	r0, r0, r2, asr #12
 2e8:	01828913 	orreq	r8, r2, r3, lsl r9
 2ec:	31011101 	tstcc	r1, r1, lsl #2
 2f0:	00130113 	andseq	r0, r3, r3, lsl r1
 2f4:	010b1400 	tsteq	fp, r0, lsl #8
 2f8:	01120111 	tsteq	r2, r1, lsl r1
 2fc:	00001301 	andeq	r1, r0, r1, lsl #6
 300:	03003415 	movweq	r3, #1045	; 0x415
 304:	3b0b3a08 	blcc	2ceb2c <SYS_MODE+0x2ceb0d>
 308:	490b390b 	stmdbmi	fp, {r0, r1, r3, r8, fp, ip, sp}
 30c:	b7060213 	smladlt	r6, r3, r2, r0
 310:	00000642 	andeq	r0, r0, r2, asr #12
 314:	01828916 	orreq	r8, r2, r6, lsl r9
 318:	31011100 	mrscc	r1, (UNDEF: 17)
 31c:	17000013 	smladne	r0, r3, r0, r0
 320:	0c3f012e 	ldfeqs	f0, [pc], #-184	; 270 <SYS_MODE+0x251>
 324:	0b3a0e03 	bleq	e83b38 <SYS_MODE+0xe83b19>
 328:	0b390b3b 	bleq	e4301c <SYS_MODE+0xe42ffd>
 32c:	01110c27 	tsteq	r1, r7, lsr #24
 330:	06400112 			; <UNDEFINED> instruction: 0x06400112
 334:	010c4296 			; <UNDEFINED> instruction: 0x010c4296
 338:	18000013 	stmdane	r0, {r0, r1, r4}
 33c:	0e03012e 	adfeqsp	f0, f3, #0.5
 340:	0b3b0b3a 	bleq	ec3030 <SYS_MODE+0xec3011>
 344:	0c270b39 			; <UNDEFINED> instruction: 0x0c270b39
 348:	01120111 	tsteq	r2, r1, lsl r1
 34c:	42970a40 	addsmi	r0, r7, #64, 20	; 0x40000
 350:	0013010c 	andseq	r0, r3, ip, lsl #2
 354:	00051900 	andeq	r1, r5, r0, lsl #18
 358:	0b3a0e03 	bleq	e83b6c <SYS_MODE+0xe83b4d>
 35c:	0b390b3b 	bleq	e43050 <SYS_MODE+0xe43031>
 360:	0a021349 	beq	8508c <SYS_MODE+0x8506d>
 364:	2e1a0000 	cdpcs	0, 1, cr0, cr10, cr0, {0}
 368:	3c0c3f00 	stccc	15, cr3, [ip], {-0}
 36c:	0e40870c 	cdpeq	7, 4, cr8, cr0, cr12, {0}
 370:	0b3a0e03 	bleq	e83b84 <SYS_MODE+0xe83b65>
 374:	0b390b3b 	bleq	e43068 <SYS_MODE+0xe43049>
 378:	01000000 	mrseq	r0, (UNDEF: 0)
 37c:	06100011 			; <UNDEFINED> instruction: 0x06100011
 380:	01120111 	tsteq	r2, r1, lsl r1
 384:	0e1b0e03 	cdpeq	14, 1, cr0, cr11, cr3, {0}
 388:	05130e25 	ldreq	r0, [r3, #-3621]	; 0xfffff1db
 38c:	01000000 	mrseq	r0, (UNDEF: 0)
 390:	06100011 			; <UNDEFINED> instruction: 0x06100011
 394:	01120111 	tsteq	r2, r1, lsl r1
 398:	0e1b0e03 	cdpeq	14, 1, cr0, cr11, cr3, {0}
 39c:	05130e25 	ldreq	r0, [r3, #-3621]	; 0xfffff1db
 3a0:	01000000 	mrseq	r0, (UNDEF: 0)
 3a4:	06100011 			; <UNDEFINED> instruction: 0x06100011
 3a8:	01120111 	tsteq	r2, r1, lsl r1
 3ac:	0e1b0e03 	cdpeq	14, 1, cr0, cr11, cr3, {0}
 3b0:	05130e25 	ldreq	r0, [r3, #-3621]	; 0xfffff1db
 3b4:	01000000 	mrseq	r0, (UNDEF: 0)
 3b8:	06100011 			; <UNDEFINED> instruction: 0x06100011
 3bc:	01120111 	tsteq	r2, r1, lsl r1
 3c0:	0e1b0e03 	cdpeq	14, 1, cr0, cr11, cr3, {0}
 3c4:	05130e25 	ldreq	r0, [r3, #-3621]	; 0xfffff1db
 3c8:	01000000 	mrseq	r0, (UNDEF: 0)
 3cc:	06100011 			; <UNDEFINED> instruction: 0x06100011
 3d0:	01120111 	tsteq	r2, r1, lsl r1
 3d4:	0e1b0e03 	cdpeq	14, 1, cr0, cr11, cr3, {0}
 3d8:	05130e25 	ldreq	r0, [r3, #-3621]	; 0xfffff1db
 3dc:	01000000 	mrseq	r0, (UNDEF: 0)
 3e0:	0e250111 	mcreq	1, 1, r0, cr5, cr1, {0}
 3e4:	0e030b13 	vmoveq.32	d3[0], r0
 3e8:	06550e1b 			; <UNDEFINED> instruction: 0x06550e1b
 3ec:	01520111 	cmpeq	r2, r1, lsl r1
 3f0:	00000610 	andeq	r0, r0, r0, lsl r6
 3f4:	0b002402 	bleq	9404 <SYS_MODE+0x93e5>
 3f8:	030b3e0b 	movweq	r3, #48651	; 0xbe0b
 3fc:	0300000e 	movweq	r0, #14
 400:	0e030016 	mcreq	0, 0, r0, cr3, cr6, {0}
 404:	0b3b0b3a 	bleq	ec30f4 <SYS_MODE+0xec30d5>
 408:	13490b39 	movtne	r0, #39737	; 0x9b39
 40c:	24040000 	strcs	r0, [r4], #-0
 410:	3e0b0b00 	vmlacc.f64	d0, d11, d0
 414:	0008030b 	andeq	r0, r8, fp, lsl #6
 418:	012e0500 			; <UNDEFINED> instruction: 0x012e0500
 41c:	0e030c3f 	mcreq	12, 0, r0, cr3, cr15, {1}
 420:	0b3b0b3a 	bleq	ec3110 <SYS_MODE+0xec30f1>
 424:	0c270b39 			; <UNDEFINED> instruction: 0x0c270b39
 428:	01120111 	tsteq	r2, r1, lsl r1
 42c:	42970a40 	addsmi	r0, r7, #64, 20	; 0x40000
 430:	0013010c 	andseq	r0, r3, ip, lsl #2
 434:	00050600 	andeq	r0, r5, r0, lsl #12
 438:	0b3a0803 	bleq	e8244c <SYS_MODE+0xe8242d>
 43c:	0b390b3b 	bleq	e43130 <SYS_MODE+0xe43111>
 440:	06021349 	streq	r1, [r2], -r9, asr #6
 444:	000642b7 			; <UNDEFINED> instruction: 0x000642b7
 448:	00340700 	eorseq	r0, r4, r0, lsl #14
 44c:	0b3a0e03 	bleq	e83c60 <SYS_MODE+0xe83c41>
 450:	0b390b3b 	bleq	e43144 <SYS_MODE+0xe43125>
 454:	06021349 	streq	r1, [r2], -r9, asr #6
 458:	000642b7 			; <UNDEFINED> instruction: 0x000642b7
 45c:	00340800 	eorseq	r0, r4, r0, lsl #16
 460:	0b3a0803 	bleq	e82474 <SYS_MODE+0xe82455>
 464:	0b390b3b 	bleq	e43158 <SYS_MODE+0xe43139>
 468:	06021349 	streq	r1, [r2], -r9, asr #6
 46c:	000642b7 			; <UNDEFINED> instruction: 0x000642b7
 470:	00050900 	andeq	r0, r5, r0, lsl #18
 474:	0b3a0803 	bleq	e82488 <SYS_MODE+0xe82469>
 478:	0b390b3b 	bleq	e4316c <SYS_MODE+0xe4314d>
 47c:	0a021349 	beq	851a8 <SYS_MODE+0x85189>
 480:	050a0000 	streq	r0, [sl, #-0]
 484:	3a0e0300 	bcc	38108c <SYS_MODE+0x38106d>
 488:	390b3b0b 	stmdbcc	fp, {r0, r1, r3, r8, r9, fp, ip, sp}
 48c:	0213490b 	andseq	r4, r3, #180224	; 0x2c000
 490:	0642b706 	strbeq	fp, [r2], -r6, lsl #14
 494:	2e0b0000 	cdpcs	0, 0, cr0, cr11, cr0, {0}
 498:	030c3f01 	movweq	r3, #52993	; 0xcf01
 49c:	3b0b3a0e 	blcc	2cecdc <SYS_MODE+0x2cecbd>
 4a0:	270b390b 	strcs	r3, [fp, -fp, lsl #18]
 4a4:	1201110c 	andne	r1, r1, #12, 2
 4a8:	970a4001 	strls	r4, [sl, -r1]
 4ac:	00000c42 	andeq	r0, r0, r2, asr #24
 4b0:	00110100 	andseq	r0, r1, r0, lsl #2
 4b4:	01110610 	tsteq	r1, r0, lsl r6
 4b8:	0e030112 	mcreq	1, 0, r0, cr3, cr2, {0}
 4bc:	0e250e1b 	mcreq	14, 1, r0, cr5, cr11, {0}
 4c0:	00000513 	andeq	r0, r0, r3, lsl r5
 4c4:	01110100 	tsteq	r1, r0, lsl #2
 4c8:	0b130e25 	bleq	4c3d64 <SYS_MODE+0x4c3d45>
 4cc:	0e1b0e03 	cdpeq	14, 1, cr0, cr11, cr3, {0}
 4d0:	01110655 	tsteq	r1, r5, asr r6
 4d4:	06100152 			; <UNDEFINED> instruction: 0x06100152
 4d8:	24020000 	strcs	r0, [r2], #-0
 4dc:	3e0b0b00 	vmlacc.f64	d0, d11, d0
 4e0:	000e030b 	andeq	r0, lr, fp, lsl #6
 4e4:	00160300 	andseq	r0, r6, r0, lsl #6
 4e8:	0b3a0e03 	bleq	e83cfc <SYS_MODE+0xe83cdd>
 4ec:	0b390b3b 	bleq	e431e0 <SYS_MODE+0xe431c1>
 4f0:	00001349 	andeq	r1, r0, r9, asr #6
 4f4:	0b002404 	bleq	950c <SYS_MODE+0x94ed>
 4f8:	030b3e0b 	movweq	r3, #48651	; 0xbe0b
 4fc:	05000008 	streq	r0, [r0, #-8]
 500:	13490026 	movtne	r0, #36902	; 0x9026
 504:	04060000 	streq	r0, [r6], #-0
 508:	0b0b3e01 	bleq	2cfd14 <SYS_MODE+0x2cfcf5>
 50c:	3a13490b 	bcc	4d2940 <SYS_MODE+0x4d2921>
 510:	390b3b0b 	stmdbcc	fp, {r0, r1, r3, r8, r9, fp, ip, sp}
 514:	0013010b 	andseq	r0, r3, fp, lsl #2
 518:	00280700 	eoreq	r0, r8, r0, lsl #14
 51c:	0b1c0e03 	bleq	703d30 <SYS_MODE+0x703d11>
 520:	13080000 	movwne	r0, #32768	; 0x8000
 524:	3a0b0b01 	bcc	2c3130 <SYS_MODE+0x2c3111>
 528:	390b3b0b 	stmdbcc	fp, {r0, r1, r3, r8, r9, fp, ip, sp}
 52c:	0013010b 	andseq	r0, r3, fp, lsl #2
 530:	000d0900 	andeq	r0, sp, r0, lsl #18
 534:	0b3a0e03 	bleq	e83d48 <SYS_MODE+0xe83d29>
 538:	0b390b3b 	bleq	e4322c <SYS_MODE+0xe4320d>
 53c:	0a381349 	beq	e05268 <SYS_MODE+0xe05249>
 540:	0d0a0000 	stceq	0, cr0, [sl, #-0]
 544:	3a080300 	bcc	20114c <SYS_MODE+0x20112d>
 548:	390b3b0b 	stmdbcc	fp, {r0, r1, r3, r8, r9, fp, ip, sp}
 54c:	3813490b 	ldmdacc	r3, {r0, r1, r3, r8, fp, lr}
 550:	0b00000a 	bleq	580 <SYS_MODE+0x561>
 554:	13490101 	movtne	r0, #37121	; 0x9101
 558:	00001301 	andeq	r1, r0, r1, lsl #6
 55c:	4900210c 	stmdbmi	r0, {r2, r3, r8, sp}
 560:	000b2f13 	andeq	r2, fp, r3, lsl pc
 564:	00340d00 	eorseq	r0, r4, r0, lsl #26
 568:	0b3a0e03 	bleq	e83d7c <SYS_MODE+0xe83d5d>
 56c:	0b390b3b 	bleq	e43260 <SYS_MODE+0xe43241>
 570:	0a021349 	beq	8529c <SYS_MODE+0x8527d>
 574:	2e0e0000 	cdpcs	0, 0, cr0, cr14, cr0, {0}
 578:	030c3f01 	movweq	r3, #52993	; 0xcf01
 57c:	3b0b3a0e 	blcc	2cedbc <SYS_MODE+0x2ced9d>
 580:	270b3905 	strcs	r3, [fp, -r5, lsl #18]
 584:	1201110c 	andne	r1, r1, #12, 2
 588:	970a4001 	strls	r4, [sl, -r1]
 58c:	13010c42 	movwne	r0, #7234	; 0x1c42
 590:	050f0000 	streq	r0, [pc, #-0]	; 598 <SYS_MODE+0x579>
 594:	3a0e0300 	bcc	38119c <SYS_MODE+0x38117d>
 598:	39053b0b 	stmdbcc	r5, {r0, r1, r3, r8, r9, fp, ip, sp}
 59c:	0213490b 	andseq	r4, r3, #180224	; 0x2c000
 5a0:	0642b706 	strbeq	fp, [r2], -r6, lsl #14
 5a4:	34100000 	ldrcc	r0, [r0], #-0
 5a8:	3a0e0300 	bcc	3811b0 <SYS_MODE+0x381191>
 5ac:	39053b0b 	stmdbcc	r5, {r0, r1, r3, r8, r9, fp, ip, sp}
 5b0:	0213490b 	andseq	r4, r3, #180224	; 0x2c000
 5b4:	0642b706 	strbeq	fp, [r2], -r6, lsl #14
 5b8:	2e110000 	cdpcs	0, 1, cr0, cr1, cr0, {0}
 5bc:	030c3f01 	movweq	r3, #52993	; 0xcf01
 5c0:	3b0b3a0e 	blcc	2cee00 <SYS_MODE+0x2cede1>
 5c4:	270b3905 	strcs	r3, [fp, -r5, lsl #18]
 5c8:	1201110c 	andne	r1, r1, #12, 2
 5cc:	97064001 	strls	r4, [r6, -r1]
 5d0:	13010c42 	movwne	r0, #7234	; 0x1c42
 5d4:	89120000 	ldmdbhi	r2, {}	; <UNPREDICTABLE>
 5d8:	11010182 	smlabbne	r1, r2, r1, r0
 5dc:	01133101 	tsteq	r3, r1, lsl #2
 5e0:	13000013 	movwne	r0, #19
 5e4:	0001828a 	andeq	r8, r1, sl, lsl #5
 5e8:	42910a02 	addsmi	r0, r1, #8192	; 0x2000
 5ec:	1400000a 	strne	r0, [r0], #-10
 5f0:	01018289 	smlabbeq	r1, r9, r2, r8
 5f4:	13310111 	teqne	r1, #1073741828	; 0x40000004
 5f8:	0f150000 	svceq	0x00150000
 5fc:	490b0b00 	stmdbmi	fp, {r8, r9, fp}
 600:	16000013 			; <UNDEFINED> instruction: 0x16000013
 604:	0e03012e 	adfeqsp	f0, f3, #0.5
 608:	0b3b0b3a 	bleq	ec32f8 <SYS_MODE+0xec32d9>
 60c:	0c270b39 			; <UNDEFINED> instruction: 0x0c270b39
 610:	01120111 	tsteq	r2, r1, lsl r1
 614:	42970640 	addsmi	r0, r7, #64, 12	; 0x4000000
 618:	0013010c 	andseq	r0, r3, ip, lsl #2
 61c:	00051700 	andeq	r1, r5, r0, lsl #14
 620:	0b3a0e03 	bleq	e83e34 <SYS_MODE+0xe83e15>
 624:	0b390b3b 	bleq	e43318 <SYS_MODE+0xe432f9>
 628:	06021349 	streq	r1, [r2], -r9, asr #6
 62c:	000642b7 			; <UNDEFINED> instruction: 0x000642b7
 630:	00341800 	eorseq	r1, r4, r0, lsl #16
 634:	0b3a0e03 	bleq	e83e48 <SYS_MODE+0xe83e29>
 638:	0b390b3b 	bleq	e4332c <SYS_MODE+0xe4330d>
 63c:	06021349 	streq	r1, [r2], -r9, asr #6
 640:	000642b7 			; <UNDEFINED> instruction: 0x000642b7
 644:	00341900 	eorseq	r1, r4, r0, lsl #18
 648:	0b3a0803 	bleq	e8265c <SYS_MODE+0xe8263d>
 64c:	0b390b3b 	bleq	e43340 <SYS_MODE+0xe43321>
 650:	0a021349 	beq	8537c <SYS_MODE+0x8535d>
 654:	051a0000 	ldreq	r0, [sl, #-0]
 658:	3a0e0300 	bcc	381260 <SYS_MODE+0x381241>
 65c:	390b3b0b 	stmdbcc	fp, {r0, r1, r3, r8, r9, fp, ip, sp}
 660:	0213490b 	andseq	r4, r3, #180224	; 0x2c000
 664:	1b00000a 	blne	694 <SYS_MODE+0x675>
 668:	0e03012e 	adfeqsp	f0, f3, #0.5
 66c:	0b3b0b3a 	bleq	ec335c <SYS_MODE+0xec333d>
 670:	0c270b39 			; <UNDEFINED> instruction: 0x0c270b39
 674:	01120111 	tsteq	r2, r1, lsl r1
 678:	42970a40 	addsmi	r0, r7, #64, 20	; 0x40000
 67c:	0013010c 	andseq	r0, r3, ip, lsl #2
 680:	012e1c00 			; <UNDEFINED> instruction: 0x012e1c00
 684:	0b3a0e03 	bleq	e83e98 <SYS_MODE+0xe83e79>
 688:	0b390b3b 	bleq	e4337c <SYS_MODE+0xe4335d>
 68c:	13490c27 	movtne	r0, #39975	; 0x9c27
 690:	01120111 	tsteq	r2, r1, lsl r1
 694:	42970640 	addsmi	r0, r7, #64, 12	; 0x4000000
 698:	0013010c 	andseq	r0, r3, ip, lsl #2
 69c:	00051d00 	andeq	r1, r5, r0, lsl #26
 6a0:	0b3a0803 	bleq	e826b4 <SYS_MODE+0xe82695>
 6a4:	0b390b3b 	bleq	e43398 <SYS_MODE+0xe43379>
 6a8:	06021349 	streq	r1, [r2], -r9, asr #6
 6ac:	000642b7 			; <UNDEFINED> instruction: 0x000642b7
 6b0:	00341e00 	eorseq	r1, r4, r0, lsl #28
 6b4:	0b3a0e03 	bleq	e83ec8 <SYS_MODE+0xe83ea9>
 6b8:	0b390b3b 	bleq	e433ac <SYS_MODE+0xe4338d>
 6bc:	00001349 	andeq	r1, r0, r9, asr #6
 6c0:	11010b1f 	tstne	r1, pc, lsl fp
 6c4:	00011201 	andeq	r1, r1, r1, lsl #4
 6c8:	00342000 	eorseq	r2, r4, r0
 6cc:	0b3a0803 	bleq	e826e0 <SYS_MODE+0xe826c1>
 6d0:	0b390b3b 	bleq	e433c4 <SYS_MODE+0xe433a5>
 6d4:	06021349 	streq	r1, [r2], -r9, asr #6
 6d8:	000642b7 			; <UNDEFINED> instruction: 0x000642b7
 6dc:	11010000 	mrsne	r0, (UNDEF: 1)
 6e0:	130e2501 	movwne	r2, #58625	; 0xe501
 6e4:	1b0e030b 	blne	381318 <SYS_MODE+0x3812f9>
 6e8:	1106550e 	tstne	r6, lr, lsl #10
 6ec:	10015201 	andne	r5, r1, r1, lsl #4
 6f0:	02000006 	andeq	r0, r0, #6
 6f4:	0b0b0024 	bleq	2c078c <SYS_MODE+0x2c076d>
 6f8:	0e030b3e 	vmoveq.16	d3[0], r0
 6fc:	16030000 	strne	r0, [r3], -r0
 700:	3a0e0300 	bcc	381308 <SYS_MODE+0x3812e9>
 704:	390b3b0b 	stmdbcc	fp, {r0, r1, r3, r8, r9, fp, ip, sp}
 708:	0013490b 	andseq	r4, r3, fp, lsl #18
 70c:	00240400 	eoreq	r0, r4, r0, lsl #8
 710:	0b3e0b0b 	bleq	f83344 <SYS_MODE+0xf83325>
 714:	00000803 	andeq	r0, r0, r3, lsl #16
 718:	49002605 	stmdbmi	r0, {r0, r2, r9, sl, sp}
 71c:	06000013 			; <UNDEFINED> instruction: 0x06000013
 720:	0e030104 	adfeqs	f0, f3, f4
 724:	0b0b0b3e 	bleq	2c3424 <SYS_MODE+0x2c3405>
 728:	0b3a1349 	bleq	e85454 <SYS_MODE+0xe85435>
 72c:	0b390b3b 	bleq	e43420 <SYS_MODE+0xe43401>
 730:	00001301 	andeq	r1, r0, r1, lsl #6
 734:	03002807 	movweq	r2, #2055	; 0x807
 738:	000b1c0e 	andeq	r1, fp, lr, lsl #24
 73c:	012e0800 			; <UNDEFINED> instruction: 0x012e0800
 740:	0e030c3f 	mcreq	12, 0, r0, cr3, cr15, {1}
 744:	0b3b0b3a 	bleq	ec3434 <SYS_MODE+0xec3415>
 748:	0c270b39 			; <UNDEFINED> instruction: 0x0c270b39
 74c:	01120111 	tsteq	r2, r1, lsl r1
 750:	42970a40 	addsmi	r0, r7, #64, 20	; 0x40000
 754:	0013010c 	andseq	r0, r3, ip, lsl #2
 758:	00050900 	andeq	r0, r5, r0, lsl #18
 75c:	0b3a0e03 	bleq	e83f70 <SYS_MODE+0xe83f51>
 760:	0b390b3b 	bleq	e43454 <SYS_MODE+0xe43435>
 764:	0a021349 	beq	85490 <SYS_MODE+0x85471>
 768:	050a0000 	streq	r0, [sl, #-0]
 76c:	3a080300 	bcc	201374 <SYS_MODE+0x201355>
 770:	390b3b0b 	stmdbcc	fp, {r0, r1, r3, r8, r9, fp, ip, sp}
 774:	0213490b 	andseq	r4, r3, #180224	; 0x2c000
 778:	0b00000a 	bleq	7a8 <SYS_MODE+0x789>
 77c:	1331011d 	teqne	r1, #1073741831	; 0x40000007
 780:	42b80152 	adcsmi	r0, r8, #-2147483628	; 0x80000014
 784:	1201110b 	andne	r1, r1, #-1073741822	; 0xc0000002
 788:	590b5801 	stmdbpl	fp, {r0, fp, ip, lr}
 78c:	000b570b 	andeq	r5, fp, fp, lsl #14
 790:	00050c00 	andeq	r0, r5, r0, lsl #24
 794:	06021331 			; <UNDEFINED> instruction: 0x06021331
 798:	000642b7 			; <UNDEFINED> instruction: 0x000642b7
 79c:	00340d00 	eorseq	r0, r4, r0, lsl #26
 7a0:	06021331 			; <UNDEFINED> instruction: 0x06021331
 7a4:	000642b7 			; <UNDEFINED> instruction: 0x000642b7
 7a8:	012e0e00 			; <UNDEFINED> instruction: 0x012e0e00
 7ac:	0e030c3f 	mcreq	12, 0, r0, cr3, cr15, {1}
 7b0:	0b3b0b3a 	bleq	ec34a0 <SYS_MODE+0xec3481>
 7b4:	0c270b39 			; <UNDEFINED> instruction: 0x0c270b39
 7b8:	01120111 	tsteq	r2, r1, lsl r1
 7bc:	42970640 	addsmi	r0, r7, #64, 12	; 0x4000000
 7c0:	0013010c 	andseq	r0, r3, ip, lsl #2
 7c4:	00050f00 	andeq	r0, r5, r0, lsl #30
 7c8:	0b3a0e03 	bleq	e83fdc <SYS_MODE+0xe83fbd>
 7cc:	0b390b3b 	bleq	e434c0 <SYS_MODE+0xe434a1>
 7d0:	06021349 	streq	r1, [r2], -r9, asr #6
 7d4:	000642b7 			; <UNDEFINED> instruction: 0x000642b7
 7d8:	82891000 	addhi	r1, r9, #0
 7dc:	01110101 	tsteq	r1, r1, lsl #2
 7e0:	00001331 	andeq	r1, r0, r1, lsr r3
 7e4:	01828a11 	orreq	r8, r2, r1, lsl sl
 7e8:	910a0200 	mrsls	r0, R10_fiq
 7ec:	00000a42 	andeq	r0, r0, r2, asr #20
 7f0:	31011d12 	tstcc	r1, r2, lsl sp
 7f4:	b8015213 	stmdalt	r1, {r0, r1, r4, r9, ip, lr}
 7f8:	01110b42 	tsteq	r1, r2, asr #22
 7fc:	0b580112 	bleq	1600c4c <SYS_MODE+0x1600c2d>
 800:	0b570b59 	bleq	15c356c <SYS_MODE+0x15c354d>
 804:	00001301 	andeq	r1, r0, r1, lsl #6
 808:	03000513 	movweq	r0, #1299	; 0x513
 80c:	3b0b3a08 	blcc	2cf034 <SYS_MODE+0x2cf015>
 810:	490b390b 	stmdbmi	fp, {r0, r1, r3, r8, fp, ip, sp}
 814:	b7060213 	smladlt	r6, r3, r2, r0
 818:	00000642 	andeq	r0, r0, r2, asr #12
 81c:	03003414 	movweq	r3, #1044	; 0x414
 820:	3b0b3a0e 	blcc	2cf060 <SYS_MODE+0x2cf041>
 824:	490b390b 	stmdbmi	fp, {r0, r1, r3, r8, fp, ip, sp}
 828:	b7060213 	smladlt	r6, r3, r2, r0
 82c:	00000642 	andeq	r0, r0, r2, asr #12
 830:	01828915 	orreq	r8, r2, r5, lsl r9
 834:	31011101 	tstcc	r1, r1, lsl #2
 838:	00130113 	andseq	r0, r3, r3, lsl r1
 83c:	011d1600 	tsteq	sp, r0, lsl #12
 840:	01521331 	cmpeq	r2, r1, lsr r3
 844:	550b42b8 	strpl	r4, [fp, #-696]	; 0xfffffd48
 848:	590b5806 	stmdbpl	fp, {r1, r2, fp, ip, lr}
 84c:	000b570b 	andeq	r5, fp, fp, lsl #14
 850:	00051700 	andeq	r1, r5, r0, lsl #14
 854:	00001331 	andeq	r1, r0, r1, lsr r3
 858:	55010b18 	strpl	r0, [r1, #-2840]	; 0xfffff4e8
 85c:	19000006 	stmdbne	r0, {r1, r2}
 860:	0e03012e 	adfeqsp	f0, f3, #0.5
 864:	0b3b0b3a 	bleq	ec3554 <SYS_MODE+0xec3535>
 868:	0c270b39 			; <UNDEFINED> instruction: 0x0c270b39
 86c:	01120111 	tsteq	r2, r1, lsl r1
 870:	42970a40 	addsmi	r0, r7, #64, 20	; 0x40000
 874:	0013010c 	andseq	r0, r3, ip, lsl #2
 878:	012e1a00 			; <UNDEFINED> instruction: 0x012e1a00
 87c:	0b3a0e03 	bleq	e84090 <SYS_MODE+0xe84071>
 880:	0b390b3b 	bleq	e43574 <SYS_MODE+0xe43555>
 884:	0b200c27 	bleq	803928 <SYS_MODE+0x803909>
 888:	051b0000 	ldreq	r0, [fp, #-0]
 88c:	3a0e0300 	bcc	381494 <SYS_MODE+0x381475>
 890:	390b3b0b 	stmdbcc	fp, {r0, r1, r3, r8, r9, fp, ip, sp}
 894:	0013490b 	andseq	r4, r3, fp, lsl #18
 898:	00051c00 	andeq	r1, r5, r0, lsl #24
 89c:	0b3a0803 	bleq	e828b0 <SYS_MODE+0xe82891>
 8a0:	0b390b3b 	bleq	e43594 <SYS_MODE+0xe43575>
 8a4:	00001349 	andeq	r1, r0, r9, asr #6
 8a8:	0300341d 	movweq	r3, #1053	; 0x41d
 8ac:	3b0b3a0e 	blcc	2cf0ec <SYS_MODE+0x2cf0cd>
 8b0:	490b390b 	stmdbmi	fp, {r0, r1, r3, r8, fp, ip, sp}
 8b4:	00000013 	andeq	r0, r0, r3, lsl r0
 8b8:	25011101 	strcs	r1, [r1, #-257]	; 0xfffffeff
 8bc:	030b130e 	movweq	r1, #45838	; 0xb30e
 8c0:	550e1b0e 	strpl	r1, [lr, #-2830]	; 0xfffff4f2
 8c4:	52011106 	andpl	r1, r1, #-2147483647	; 0x80000001
 8c8:	00061001 	andeq	r1, r6, r1
 8cc:	00240200 	eoreq	r0, r4, r0, lsl #4
 8d0:	0b3e0b0b 	bleq	f83504 <SYS_MODE+0xf834e5>
 8d4:	00000e03 	andeq	r0, r0, r3, lsl #28
 8d8:	03001603 	movweq	r1, #1539	; 0x603
 8dc:	3b0b3a0e 	blcc	2cf11c <SYS_MODE+0x2cf0fd>
 8e0:	490b390b 	stmdbmi	fp, {r0, r1, r3, r8, fp, ip, sp}
 8e4:	04000013 	streq	r0, [r0], #-19	; 0xffffffed
 8e8:	0b0b0024 	bleq	2c0980 <SYS_MODE+0x2c0961>
 8ec:	08030b3e 	stmdaeq	r3, {r1, r2, r3, r4, r5, r8, r9, fp}
 8f0:	04050000 	streq	r0, [r5], #-0
 8f4:	0b0b3e01 	bleq	2d0100 <SYS_MODE+0x2d00e1>
 8f8:	3a13490b 	bcc	4d2d2c <SYS_MODE+0x4d2d0d>
 8fc:	390b3b0b 	stmdbcc	fp, {r0, r1, r3, r8, r9, fp, ip, sp}
 900:	0013010b 	andseq	r0, r3, fp, lsl #2
 904:	00280600 	eoreq	r0, r8, r0, lsl #12
 908:	0b1c0e03 	bleq	70411c <SYS_MODE+0x7040fd>
 90c:	13070000 	movwne	r0, #28672	; 0x7000
 910:	3a0b0b01 	bcc	2c351c <SYS_MODE+0x2c34fd>
 914:	390b3b0b 	stmdbcc	fp, {r0, r1, r3, r8, r9, fp, ip, sp}
 918:	0013010b 	andseq	r0, r3, fp, lsl #2
 91c:	000d0800 	andeq	r0, sp, r0, lsl #16
 920:	0b3a0e03 	bleq	e84134 <SYS_MODE+0xe84115>
 924:	0b390b3b 	bleq	e43618 <SYS_MODE+0xe435f9>
 928:	0a381349 	beq	e05654 <SYS_MODE+0xe05635>
 92c:	26090000 	strcs	r0, [r9], -r0
 930:	00134900 	andseq	r4, r3, r0, lsl #18
 934:	01040a00 	tsteq	r4, r0, lsl #20
 938:	0b3e0e03 	bleq	f8414c <SYS_MODE+0xf8412d>
 93c:	13490b0b 	movtne	r0, #39691	; 0x9b0b
 940:	0b3b0b3a 	bleq	ec3630 <SYS_MODE+0xec3611>
 944:	13010b39 	movwne	r0, #6969	; 0x1b39
 948:	0f0b0000 	svceq	0x000b0000
 94c:	000b0b00 	andeq	r0, fp, r0, lsl #22
 950:	000f0c00 	andeq	r0, pc, r0, lsl #24
 954:	13490b0b 	movtne	r0, #39691	; 0x9b0b
 958:	340d0000 	strcc	r0, [sp], #-0
 95c:	3a0e0300 	bcc	381564 <SYS_MODE+0x381545>
 960:	390b3b0b 	stmdbcc	fp, {r0, r1, r3, r8, r9, fp, ip, sp}
 964:	3f13490b 	svccc	0x0013490b
 968:	000a020c 	andeq	r0, sl, ip, lsl #4
 96c:	012e0e00 			; <UNDEFINED> instruction: 0x012e0e00
 970:	0e030c3f 	mcreq	12, 0, r0, cr3, cr15, {1}
 974:	0b3b0b3a 	bleq	ec3664 <SYS_MODE+0xec3645>
 978:	0c270b39 			; <UNDEFINED> instruction: 0x0c270b39
 97c:	01120111 	tsteq	r2, r1, lsl r1
 980:	42970640 	addsmi	r0, r7, #64, 12	; 0x4000000
 984:	0013010c 	andseq	r0, r3, ip, lsl #2
 988:	82890f00 	addhi	r0, r9, #0, 30
 98c:	01110101 	tsteq	r1, r1, lsl #2
 990:	13011331 	movwne	r1, #4913	; 0x1331
 994:	8a100000 	bhi	40099c <SYS_MODE+0x40097d>
 998:	02000182 	andeq	r0, r0, #-2147483616	; 0x80000020
 99c:	0a42910a 	beq	10a4dcc <SYS_MODE+0x10a4dad>
 9a0:	89110000 	ldmdbhi	r1, {}	; <UNPREDICTABLE>
 9a4:	11000182 	smlabbne	r0, r2, r1, r0
 9a8:	00133101 	andseq	r3, r3, r1, lsl #2
 9ac:	82891200 	addhi	r1, r9, #0, 4
 9b0:	01110101 	tsteq	r1, r1, lsl #2
 9b4:	00001331 	andeq	r1, r0, r1, lsr r3
 9b8:	03012e13 	movweq	r2, #7699	; 0x1e13
 9bc:	3b0b3a0e 	blcc	2cf1fc <SYS_MODE+0x2cf1dd>
 9c0:	270b390b 	strcs	r3, [fp, -fp, lsl #18]
 9c4:	1201110c 	andne	r1, r1, #12, 2
 9c8:	97064001 	strls	r4, [r6, -r1]
 9cc:	13010c42 	movwne	r0, #7234	; 0x1c42
 9d0:	05140000 	ldreq	r0, [r4, #-0]
 9d4:	3a0e0300 	bcc	3815dc <SYS_MODE+0x3815bd>
 9d8:	390b3b0b 	stmdbcc	fp, {r0, r1, r3, r8, r9, fp, ip, sp}
 9dc:	0213490b 	andseq	r4, r3, #180224	; 0x2c000
 9e0:	0642b706 	strbeq	fp, [r2], -r6, lsl #14
 9e4:	34150000 	ldrcc	r0, [r5], #-0
 9e8:	3a0e0300 	bcc	3815f0 <SYS_MODE+0x3815d1>
 9ec:	390b3b0b 	stmdbcc	fp, {r0, r1, r3, r8, r9, fp, ip, sp}
 9f0:	0213490b 	andseq	r4, r3, #180224	; 0x2c000
 9f4:	0642b706 	strbeq	fp, [r2], -r6, lsl #14
 9f8:	34160000 	ldrcc	r0, [r6], #-0
 9fc:	3a0e0300 	bcc	381604 <SYS_MODE+0x3815e5>
 a00:	390b3b0b 	stmdbcc	fp, {r0, r1, r3, r8, r9, fp, ip, sp}
 a04:	0013490b 	andseq	r4, r3, fp, lsl #18
 a08:	010b1700 	tsteq	fp, r0, lsl #14
 a0c:	13010655 	movwne	r0, #5717	; 0x1655
 a10:	34180000 	ldrcc	r0, [r8], #-0
 a14:	3a080300 	bcc	20161c <SYS_MODE+0x2015fd>
 a18:	390b3b0b 	stmdbcc	fp, {r0, r1, r3, r8, r9, fp, ip, sp}
 a1c:	0213490b 	andseq	r4, r3, #180224	; 0x2c000
 a20:	0642b706 	strbeq	fp, [r2], -r6, lsl #14
 a24:	2e190000 	cdpcs	0, 1, cr0, cr9, cr0, {0}
 a28:	030c3f01 	movweq	r3, #52993	; 0xcf01
 a2c:	3b0b3a0e 	blcc	2cf26c <SYS_MODE+0x2cf24d>
 a30:	270b390b 	strcs	r3, [fp, -fp, lsl #18]
 a34:	1113490c 	tstne	r3, ip, lsl #18
 a38:	40011201 	andmi	r1, r1, r1, lsl #4
 a3c:	0c429706 	mcrreq	7, 0, r9, r2, cr6
 a40:	00001301 	andeq	r1, r0, r1, lsl #6
 a44:	0300051a 	movweq	r0, #1306	; 0x51a
 a48:	3b0b3a08 	blcc	2cf270 <SYS_MODE+0x2cf251>
 a4c:	490b390b 	stmdbmi	fp, {r0, r1, r3, r8, fp, ip, sp}
 a50:	b7060213 	smladlt	r6, r3, r2, r0
 a54:	00000642 	andeq	r0, r0, r2, asr #12
 a58:	11010b1b 	tstne	r1, fp, lsl fp
 a5c:	00011201 	andeq	r1, r1, r1, lsl #4
 a60:	002e1c00 	eoreq	r1, lr, r0, lsl #24
 a64:	0c3c0c3f 	ldceq	12, cr0, [ip], #-252	; 0xffffff04
 a68:	030e4087 	movweq	r4, #57479	; 0xe087
 a6c:	3b0b3a0e 	blcc	2cf2ac <SYS_MODE+0x2cf28d>
 a70:	000b390b 	andeq	r3, fp, fp, lsl #18
	...

Disassembly of section .debug_aranges:

00000000 <.debug_aranges>:
   0:	0000001c 	andeq	r0, r0, ip, lsl r0
   4:	00000002 	andeq	r0, r0, r2
   8:	00040000 	andeq	r0, r4, r0
   c:	00000000 	andeq	r0, r0, r0
  10:	c20000f4 	andgt	r0, r0, #244	; 0xf4
  14:	00000078 	andeq	r0, r0, r8, ror r0
	...
  20:	0000001c 	andeq	r0, r0, ip, lsl r0
  24:	00260002 	eoreq	r0, r6, r2
  28:	00040000 	andeq	r0, r4, r0
  2c:	00000000 	andeq	r0, r0, r0
  30:	c200016c 	andgt	r0, r0, #108, 2
  34:	00000334 	andeq	r0, r0, r4, lsr r3
	...
  40:	00000034 	andeq	r0, r0, r4, lsr r0
  44:	004c0002 	subeq	r0, ip, r2
  48:	00040000 	andeq	r0, r4, r0
  4c:	00000000 	andeq	r0, r0, r0
  50:	c20006e0 	andgt	r0, r0, #224, 12	; 0xe000000
  54:	00000010 	andeq	r0, r0, r0, lsl r0
  58:	00000000 	andeq	r0, r0, r0
  5c:	00000008 	andeq	r0, r0, r8
  60:	00000000 	andeq	r0, r0, r0
  64:	000000a0 	andeq	r0, r0, r0, lsr #1
  68:	c20006f0 	andgt	r0, r0, #240, 12	; 0xf000000
  6c:	00000024 	andeq	r0, r0, r4, lsr #32
	...
  78:	0000001c 	andeq	r0, r0, ip, lsl r0
  7c:	01f60002 	mvnseq	r0, r2
  80:	00040000 	andeq	r0, r4, r0
  84:	00000000 	andeq	r0, r0, r0
  88:	c20004a0 	andgt	r0, r0, #160, 8	; 0xa0000000
  8c:	00000018 	andeq	r0, r0, r8, lsl r0
	...
  98:	0000001c 	andeq	r0, r0, ip, lsl r0
  9c:	021c0002 	andseq	r0, ip, #2
  a0:	00040000 	andeq	r0, r4, r0
  a4:	00000000 	andeq	r0, r0, r0
  a8:	c20004b8 	andgt	r0, r0, #184, 8	; 0xb8000000
  ac:	00000044 	andeq	r0, r0, r4, asr #32
	...
  b8:	0000001c 	andeq	r0, r0, ip, lsl r0
  bc:	02420002 	subeq	r0, r2, #2
  c0:	00040000 	andeq	r0, r4, r0
  c4:	00000000 	andeq	r0, r0, r0
  c8:	c2000714 	andgt	r0, r0, #20, 14	; 0x500000
  cc:	0000006c 	andeq	r0, r0, ip, rrx
	...
  d8:	0000003c 	andeq	r0, r0, ip, lsr r0
  dc:	04ac0002 	strteq	r0, [ip], #2
  e0:	00040000 	andeq	r0, r4, r0
  e4:	00000000 	andeq	r0, r0, r0
  e8:	c2000780 	andgt	r0, r0, #128, 14	; 0x2000000
  ec:	00000004 	andeq	r0, r0, r4
  f0:	c2000784 	andgt	r0, r0, #132, 14	; 0x2100000
  f4:	00000028 	andeq	r0, r0, r8, lsr #32
  f8:	c20007ac 	andgt	r0, r0, #172, 14	; 0x2b00000
  fc:	00000044 	andeq	r0, r0, r4, asr #32
 100:	c20007f0 	andgt	r0, r0, #240, 14	; 0x3c00000
 104:	00000040 	andeq	r0, r0, r0, asr #32
 108:	00000000 	andeq	r0, r0, r0
 10c:	00000030 	andeq	r0, r0, r0, lsr r0
	...
 118:	0000001c 	andeq	r0, r0, ip, lsl r0
 11c:	076c0002 	strbeq	r0, [ip, -r2]!
 120:	00040000 	andeq	r0, r4, r0
 124:	00000000 	andeq	r0, r0, r0
 128:	c20004fc 	andgt	r0, r0, #252, 8	; 0xfc000000
 12c:	00000048 	andeq	r0, r0, r8, asr #32
	...
 138:	0000001c 	andeq	r0, r0, ip, lsl r0
 13c:	07920002 	ldreq	r0, [r2, r2]
 140:	00040000 	andeq	r0, r4, r0
 144:	00000000 	andeq	r0, r0, r0
 148:	c2000544 	andgt	r0, r0, #68, 10	; 0x11000000
 14c:	00000050 	andeq	r0, r0, r0, asr r0
	...
 158:	0000001c 	andeq	r0, r0, ip, lsl r0
 15c:	07b80002 	ldreq	r0, [r8, r2]!
 160:	00040000 	andeq	r0, r4, r0
 164:	00000000 	andeq	r0, r0, r0
 168:	c2000594 	andgt	r0, r0, #148, 10	; 0x25000000
 16c:	0000014c 	andeq	r0, r0, ip, asr #2
	...
 178:	0000001c 	andeq	r0, r0, ip, lsl r0
 17c:	07de0002 	ldrbeq	r0, [lr, r2]
 180:	00040000 	andeq	r0, r4, r0
 184:	00000000 	andeq	r0, r0, r0
 188:	c200005c 	andgt	r0, r0, #92	; 0x5c
 18c:	00000098 	muleq	r0, r8, r0
	...
 198:	0000001c 	andeq	r0, r0, ip, lsl r0
 19c:	08040002 	stmdaeq	r4, {r1}
 1a0:	00040000 	andeq	r0, r4, r0
 1a4:	00000000 	andeq	r0, r0, r0
 1a8:	c2000000 	andgt	r0, r0, #0
 1ac:	0000005c 	andeq	r0, r0, ip, asr r0
	...
 1b8:	00000044 	andeq	r0, r0, r4, asr #32
 1bc:	082a0002 	stmdaeq	sl!, {r1}
 1c0:	00040000 	andeq	r0, r4, r0
 1c4:	00000000 	andeq	r0, r0, r0
 1c8:	c2000830 	andgt	r0, r0, #48, 16	; 0x300000
 1cc:	00000038 	andeq	r0, r0, r8, lsr r0
 1d0:	c2000868 	andgt	r0, r0, #104, 16	; 0x680000
 1d4:	00000028 	andeq	r0, r0, r8, lsr #32
 1d8:	c2000890 	andgt	r0, r0, #144, 16	; 0x900000
 1dc:	00000028 	andeq	r0, r0, r8, lsr #32
 1e0:	00000000 	andeq	r0, r0, r0
 1e4:	00000028 	andeq	r0, r0, r8, lsr #32
 1e8:	c20008b8 	andgt	r0, r0, #184, 16	; 0xb80000
 1ec:	00000028 	andeq	r0, r0, r8, lsr #32
 1f0:	00000000 	andeq	r0, r0, r0
 1f4:	00000028 	andeq	r0, r0, r8, lsr #32
	...
 200:	0000001c 	andeq	r0, r0, ip, lsl r0
 204:	0a8a0002 	beq	fe280214 <__HeapLimit+0x3c273214>
 208:	00040000 	andeq	r0, r4, r0
 20c:	00000000 	andeq	r0, r0, r0
 210:	c20008e0 	andgt	r0, r0, #224, 16	; 0xe00000
 214:	00000070 	andeq	r0, r0, r0, ror r0
	...
 220:	00000044 	andeq	r0, r0, r4, asr #32
 224:	0ab00002 	beq	fec00234 <__HeapLimit+0x3cbf3234>
 228:	00040000 	andeq	r0, r4, r0
 22c:	00000000 	andeq	r0, r0, r0
 230:	c2000950 	andgt	r0, r0, #80, 18	; 0x140000
 234:	00000078 	andeq	r0, r0, r8, ror r0
 238:	c20009c8 	andgt	r0, r0, #200, 18	; 0x320000
 23c:	00000024 	andeq	r0, r0, r4, lsr #32
 240:	c20009ec 	andgt	r0, r0, #236, 18	; 0x3b0000
 244:	000000dc 	ldrdeq	r0, [r0], -ip
 248:	c2000ac8 	andgt	r0, r0, #200, 20	; 0xc8000
 24c:	00000114 	andeq	r0, r0, r4, lsl r1
 250:	c2000bdc 	andgt	r0, r0, #220, 22	; 0x37000
 254:	00000030 	andeq	r0, r0, r0, lsr r0
 258:	c2000c0c 	andgt	r0, r0, #12, 24	; 0xc00
 25c:	00000014 	andeq	r0, r0, r4, lsl r0
	...
 268:	0000007c 	andeq	r0, r0, ip, ror r0
 26c:	0ff60002 	svceq	0x00f60002
 270:	00040000 	andeq	r0, r4, r0
 274:	00000000 	andeq	r0, r0, r0
 278:	c2000c20 	andgt	r0, r0, #32, 24	; 0x2000
 27c:	0000002c 	andeq	r0, r0, ip, lsr #32
 280:	c2000c4c 	andgt	r0, r0, #76, 24	; 0x4c00
 284:	0000002c 	andeq	r0, r0, ip, lsr #32
 288:	c2000c78 	andgt	r0, r0, #120, 24	; 0x7800
 28c:	00000020 	andeq	r0, r0, r0, lsr #32
 290:	00000000 	andeq	r0, r0, r0
 294:	00000020 	andeq	r0, r0, r0, lsr #32
 298:	c2000c98 	andgt	r0, r0, #152, 24	; 0x9800
 29c:	00000058 	andeq	r0, r0, r8, asr r0
 2a0:	00000000 	andeq	r0, r0, r0
 2a4:	00000048 	andeq	r0, r0, r8, asr #32
 2a8:	00000000 	andeq	r0, r0, r0
 2ac:	00000020 	andeq	r0, r0, r0, lsr #32
 2b0:	c2000cf0 	andgt	r0, r0, #240, 24	; 0xf000
 2b4:	0000001c 	andeq	r0, r0, ip, lsl r0
 2b8:	c2000d0c 	andgt	r0, r0, #12, 26	; 0x300
 2bc:	0000001c 	andeq	r0, r0, ip, lsl r0
 2c0:	00000000 	andeq	r0, r0, r0
 2c4:	0000001c 	andeq	r0, r0, ip, lsl r0
 2c8:	c2000d28 	andgt	r0, r0, #40, 26	; 0xa00
 2cc:	0000001c 	andeq	r0, r0, ip, lsl r0
 2d0:	c2000d44 	andgt	r0, r0, #68, 26	; 0x1100
 2d4:	00000018 	andeq	r0, r0, r8, lsl r0
 2d8:	00000000 	andeq	r0, r0, r0
 2dc:	00000018 	andeq	r0, r0, r8, lsl r0
	...
 2e8:	0000004c 	andeq	r0, r0, ip, asr #32
 2ec:	17c80002 	strbne	r0, [r8, r2]
 2f0:	00040000 	andeq	r0, r4, r0
 2f4:	00000000 	andeq	r0, r0, r0
 2f8:	c2000d5c 	andgt	r0, r0, #92, 26	; 0x1700
 2fc:	00000164 	andeq	r0, r0, r4, ror #2
 300:	c2000ec0 	andgt	r0, r0, #192, 28	; 0xc00
 304:	0000001c 	andeq	r0, r0, ip, lsl r0
 308:	c2000edc 	andgt	r0, r0, #220, 28	; 0xdc0
 30c:	00000070 	andeq	r0, r0, r0, ror r0
 310:	c2000f4c 	andgt	r0, r0, #76, 30	; 0x130
 314:	00000020 	andeq	r0, r0, r0, lsr #32
 318:	c2000f6c 	andgt	r0, r0, #108, 30	; 0x1b0
 31c:	00000030 	andeq	r0, r0, r0, lsr r0
 320:	c2000f9c 	andgt	r0, r0, #156, 30	; 0x270
 324:	0000000c 	andeq	r0, r0, ip
 328:	c2000fa8 	andgt	r0, r0, #168, 30	; 0x2a0
 32c:	00000034 	andeq	r0, r0, r4, lsr r0
	...

Disassembly of section .debug_str:

00000000 <.debug_str>:
   0:	6d6f682f 	stclvs	8, cr6, [pc, #-188]!	; ffffff4c <__HeapLimit+0x3dff2f4c>
   4:	7a632f65 	bvc	18cbda0 <SYS_MODE+0x18cbd81>
   8:	786d696c 	stmdavc	sp!, {r2, r3, r5, r6, r8, fp, sp, lr}^
   c:	646f632f 	strbtvs	r6, [pc], #-815	; 14 <SVC_MODE+0x1>
  10:	61707365 	cmnvs	r0, r5, ror #6
  14:	622f6563 	eorvs	r6, pc, #415236096	; 0x18c00000
  18:	6d657261 	sfmvs	f7, 2, [r5, #-388]!	; 0xfffffe7c
  1c:	6c617465 	cfstrdvs	mvd7, [r1], #-404	; 0xfffffe6c
  20:	726f665f 	rsbvc	r6, pc, #99614720	; 0x5f00000
  24:	612f635f 			; <UNDEFINED> instruction: 0x612f635f
  28:	2f686372 	svccs	0x00686372
  2c:	766d7261 	strbtvc	r7, [sp], -r1, ror #4
  30:	2f612d37 	svccs	0x00612d37
  34:	2f637273 	svccs	0x00637273
  38:	68637261 	stmdavs	r3!, {r0, r5, r6, r9, ip, sp, lr}^
  3c:	6172625f 	cmnvs	r2, pc, asr r2
  40:	5f68636e 	svcpl	0x0068636e
  44:	64657270 	strbtvs	r7, [r5], #-624	; 0xfffffd90
  48:	6f746369 	svcvs	0x00746369
  4c:	00732e72 	rsbseq	r2, r3, r2, ror lr
  50:	6d6f682f 	stclvs	8, cr6, [pc, #-188]!	; ffffff9c <__HeapLimit+0x3dff2f9c>
  54:	7a632f65 	bvc	18cbdf0 <SYS_MODE+0x18cbdd1>
  58:	786d696c 	stmdavc	sp!, {r2, r3, r5, r6, r8, fp, sp, lr}^
  5c:	646f632f 	strbtvs	r6, [pc], #-815	; 64 <SYS_MODE+0x45>
  60:	61707365 	cmnvs	r0, r5, ror #6
  64:	622f6563 	eorvs	r6, pc, #415236096	; 0x18c00000
  68:	6d657261 	sfmvs	f7, 2, [r5, #-388]!	; 0xfffffe7c
  6c:	6c617465 	cfstrdvs	mvd7, [r1], #-404	; 0xfffffe6c
  70:	726f665f 	rsbvc	r6, pc, #99614720	; 0x5f00000
  74:	622f635f 	eorvs	r6, pc, #2080374785	; 0x7c000001
  78:	646c6975 	strbtvs	r6, [ip], #-2421	; 0xfffff68b
  7c:	336d612f 	cmncc	sp, #-1073741813	; 0xc000000b
  80:	00383533 	eorseq	r3, r8, r3, lsr r5
  84:	20554e47 	subscs	r4, r5, r7, asr #28
  88:	32205341 	eorcc	r5, r0, #67108865	; 0x4000001
  8c:	2e36332e 	cdpcs	3, 3, cr3, cr6, cr14, {1}
  90:	682f0031 	stmdavs	pc!, {r0, r4, r5}	; <UNPREDICTABLE>
  94:	2f656d6f 	svccs	0x00656d6f
  98:	696c7a63 	stmdbvs	ip!, {r0, r1, r5, r6, r9, fp, ip, sp, lr}^
  9c:	632f786d 			; <UNDEFINED> instruction: 0x632f786d
  a0:	7365646f 	cmnvc	r5, #1862270976	; 0x6f000000
  a4:	65636170 	strbvs	r6, [r3, #-368]!	; 0xfffffe90
  a8:	7261622f 	rsbvc	r6, r1, #-268435454	; 0xf0000002
  ac:	74656d65 	strbtvc	r6, [r5], #-3429	; 0xfffff29b
  b0:	665f6c61 	ldrbvs	r6, [pc], -r1, ror #24
  b4:	635f726f 	cmpvs	pc, #-268435450	; 0xf0000006
  b8:	6372612f 	cmnvs	r2, #-1073741813	; 0xc000000b
  bc:	72612f68 	rsbvc	r2, r1, #104, 30	; 0x1a0
  c0:	2d37766d 	ldccs	6, cr7, [r7, #-436]!	; 0xfffffe4c
  c4:	72732f61 	rsbsvc	r2, r3, #388	; 0x184
  c8:	72612f63 	rsbvc	r2, r1, #396	; 0x18c
  cc:	635f6863 	cmpvs	pc, #6488064	; 0x630000
  d0:	65686361 	strbvs	r6, [r8, #-865]!	; 0xfffffc9f
  d4:	6c00732e 	stcvs	3, cr7, [r0], {46}	; 0x2e
  d8:	20676e6f 	rsbcs	r6, r7, pc, ror #28
  dc:	676e6f6c 	strbvs	r6, [lr, -ip, ror #30]!
  e0:	746e6920 	strbtvc	r6, [lr], #-2336	; 0xfffff6e0
  e4:	63726100 	cmnvs	r2, #0, 2
  e8:	6c615f68 	stclvs	15, cr5, [r1], #-416	; 0xfffffe60
  ec:	6d6e6769 	stclvs	7, cr6, [lr, #-420]!	; 0xfffffe5c
  f0:	5f746e65 	svcpl	0x00746e65
  f4:	63656863 	cmnvs	r5, #6488064	; 0x630000
  f8:	6e655f6b 	cdpvs	15, 6, cr5, cr5, cr11, {3}
  fc:	656c6261 	strbvs	r6, [ip, #-609]!	; 0xfffffd9f
 100:	63726100 	cmnvs	r2, #0, 2
 104:	70635f68 	rsbvc	r5, r3, r8, ror #30
 108:	65675f75 	strbvs	r5, [r7, #-3957]!	; 0xfffff08b
 10c:	706d5f74 	rsbvc	r5, sp, r4, ror pc
 110:	00726469 	rsbseq	r6, r2, r9, ror #8
 114:	68637261 	stmdavs	r3!, {r0, r5, r6, r9, ip, sp, lr}^
 118:	6564755f 	strbvs	r7, [r4, #-1375]!	; 0xfffffaa1
 11c:	0079616c 	rsbseq	r6, r9, ip, ror #2
 120:	69755f5f 	ldmdbvs	r5!, {r0, r1, r2, r3, r4, r6, r8, r9, sl, fp, ip, lr}^
 124:	3233746e 	eorscc	r7, r3, #1845493760	; 0x6e000000
 128:	7300745f 	movwvc	r7, #1119	; 0x45f
 12c:	74726174 	ldrbtvc	r6, [r2], #-372	; 0xfffffe8c
 130:	6b636954 	blvs	18da688 <SYS_MODE+0x18da669>
 134:	6e6f6c00 	cdpvs	12, 6, cr6, cr15, cr0, {0}
 138:	6f6c2067 	svcvs	0x006c2067
 13c:	7520676e 	strvc	r6, [r0, #-1902]!	; 0xfffff892
 140:	6769736e 	strbvs	r7, [r9, -lr, ror #6]!
 144:	2064656e 	rsbcs	r6, r4, lr, ror #10
 148:	00746e69 	rsbseq	r6, r4, r9, ror #28
 14c:	69736e75 	ldmdbvs	r3!, {r0, r2, r4, r5, r6, r9, sl, fp, sp, lr}^
 150:	64656e67 	strbtvs	r6, [r5], #-3687	; 0xfffff199
 154:	61686320 	cmnvs	r8, r0, lsr #6
 158:	69740072 	ldmdbvs	r4!, {r1, r4, r5, r6}^
 15c:	6f546b63 	svcvs	0x00546b63
 160:	72756300 	rsbsvc	r6, r5, #0, 6
 164:	746e6572 	strbtvc	r6, [lr], #-1394	; 0xfffffa8e
 168:	6b636954 	blvs	18da6c0 <SYS_MODE+0x18da6a1>
 16c:	755f5f00 	ldrbvc	r5, [pc, #-3840]	; fffff274 <__HeapLimit+0x3dff2274>
 170:	36746e69 	ldrbtcc	r6, [r4], -r9, ror #28
 174:	00745f34 	rsbseq	r5, r4, r4, lsr pc
 178:	726f6873 	rsbvc	r6, pc, #7536640	; 0x730000
 17c:	6e752074 	mrcvs	0, 3, r2, cr5, cr4, {3}
 180:	6e676973 			; <UNDEFINED> instruction: 0x6e676973
 184:	69206465 	stmdbvs	r0!, {r0, r2, r5, r6, sl, sp, lr}
 188:	6c00746e 	cfstrsvs	mvf7, [r0], {110}	; 0x6e
 18c:	20676e6f 	rsbcs	r6, r7, pc, ror #28
 190:	62756f64 	rsbsvs	r6, r5, #100, 30	; 0x190
 194:	6100656c 	tstvs	r0, ip, ror #10
 198:	5f686372 	svcpl	0x00686372
 19c:	61647075 	smcvs	18181	; 0x4705
 1a0:	745f6574 	ldrbvc	r6, [pc], #-1396	; 1a8 <SYS_MODE+0x189>
 1a4:	006b6369 	rsbeq	r6, fp, r9, ror #6
 1a8:	6d6f682f 	stclvs	8, cr6, [pc, #-188]!	; f4 <SYS_MODE+0xd5>
 1ac:	7a632f65 	bvc	18cbf48 <SYS_MODE+0x18cbf29>
 1b0:	786d696c 	stmdavc	sp!, {r2, r3, r5, r6, r8, fp, sp, lr}^
 1b4:	646f632f 	strbtvs	r6, [pc], #-815	; 1bc <SYS_MODE+0x19d>
 1b8:	61707365 	cmnvs	r0, r5, ror #6
 1bc:	622f6563 	eorvs	r6, pc, #415236096	; 0x18c00000
 1c0:	6d657261 	sfmvs	f7, 2, [r5, #-388]!	; 0xfffffe7c
 1c4:	6c617465 	cfstrdvs	mvd7, [r1], #-404	; 0xfffffe6c
 1c8:	726f665f 	rsbvc	r6, pc, #99614720	; 0x5f00000
 1cc:	612f635f 			; <UNDEFINED> instruction: 0x612f635f
 1d0:	2f686372 	svccs	0x00686372
 1d4:	766d7261 	strbtvc	r7, [sp], -r1, ror #4
 1d8:	2f612d37 	svccs	0x00612d37
 1dc:	2f637273 	svccs	0x00637273
 1e0:	68637261 	stmdavs	r3!, {r0, r5, r6, r9, ip, sp, lr}^
 1e4:	7570635f 	ldrbvc	r6, [r0, #-863]!	; 0xfffffca1
 1e8:	7300632e 	movwvc	r6, #814	; 0x32e
 1ec:	74726f68 	ldrbtvc	r6, [r2], #-3944	; 0xfffff098
 1f0:	746e6920 	strbtvc	r6, [lr], #-2336	; 0xfffff6e0
 1f4:	554e4700 	strbpl	r4, [lr, #-1792]	; 0xfffff900
 1f8:	37314320 	ldrcc	r4, [r1, -r0, lsr #6]!
 1fc:	2e303120 	rsfcssp	f3, f0, f0
 200:	20312e33 	eorscs	r2, r1, r3, lsr lr
 204:	31323032 	teqcc	r2, r2, lsr r0
 208:	31323630 	teqcc	r2, r0, lsr r6
 20c:	65722820 	ldrbvs	r2, [r2, #-2080]!	; 0xfffff7e0
 210:	7361656c 	cmnvc	r1, #108, 10	; 0x1b000000
 214:	2d202965 			; <UNDEFINED> instruction: 0x2d202965
 218:	6d72616d 	ldfvse	f6, [r2, #-436]!	; 0xfffffe4c
 21c:	746d2d20 	strbtvc	r2, [sp], #-3360	; 0xfffff2e0
 220:	3d656e75 	stclcc	14, cr6, [r5, #-468]!	; 0xfffffe2c
 224:	74726f63 	ldrbtvc	r6, [r2], #-3939	; 0xfffff09d
 228:	612d7865 			; <UNDEFINED> instruction: 0x612d7865
 22c:	6d2d2038 	stcvs	0, cr2, [sp, #-224]!	; 0xffffff20
 230:	3d757066 	ldclcc	0, cr7, [r5, #-408]!	; 0xfffffe68
 234:	76706676 			; <UNDEFINED> instruction: 0x76706676
 238:	31642d33 	cmncc	r4, r3, lsr sp
 23c:	6d2d2036 	stcvs	0, cr2, [sp, #-216]!	; 0xffffff28
 240:	616f6c66 	cmnvs	pc, r6, ror #24
 244:	62612d74 	rsbvs	r2, r1, #116, 26	; 0x1d00
 248:	61683d69 	cmnvs	r8, r9, ror #26
 24c:	2d206472 	cfstrscs	mvf6, [r0, #-456]!	; 0xfffffe38
 250:	2d6f6e6d 	stclcs	14, cr6, [pc, #-436]!	; a4 <SYS_MODE+0x85>
 254:	6c616e75 	stclvs	14, cr6, [r1], #-468	; 0xfffffe2c
 258:	656e6769 	strbvs	r6, [lr, #-1897]!	; 0xfffff897
 25c:	63612d64 	cmnvs	r1, #100, 26	; 0x1900
 260:	73736563 	cmnvc	r3, #415236096	; 0x18c00000
 264:	616d2d20 	cmnvs	sp, r0, lsr #26
 268:	3d686372 	stclcc	3, cr6, [r8, #-456]!	; 0xfffffe38
 26c:	766d7261 	strbtvc	r7, [sp], -r1, ror #4
 270:	2b612d37 	blcs	184b754 <SYS_MODE+0x184b735>
 274:	2d207066 	stccs	0, cr7, [r0, #-408]!	; 0xfffffe68
 278:	672d2067 	strvs	r2, [sp, -r7, rrx]!
 27c:	72617764 	rsbvc	r7, r1, #100, 14	; 0x1900000
 280:	20322d66 	eorscs	r2, r2, r6, ror #26
 284:	20674f2d 	rsbcs	r4, r7, sp, lsr #30
 288:	6f6e662d 	svcvs	0x006e662d
 28c:	6975622d 	ldmdbvs	r5!, {r0, r2, r3, r5, r9, sp, lr}^
 290:	6e69746c 	cdpvs	4, 6, cr7, cr9, cr12, {3}
 294:	64662d20 	strbtvs	r2, [r6], #-3360	; 0xfffff2e0
 298:	2d617461 	cfstrdcs	mvd7, [r1, #-388]!	; 0xfffffe7c
 29c:	74636573 	strbtvc	r6, [r3], #-1395	; 0xfffffa8d
 2a0:	736e6f69 	cmnvc	lr, #420	; 0x1a4
 2a4:	66662d20 	strbtvs	r2, [r6], -r0, lsr #26
 2a8:	74636e75 	strbtvc	r6, [r3], #-3701	; 0xfffff18b
 2ac:	2d6e6f69 	stclcs	15, cr6, [lr, #-420]!	; 0xfffffe5c
 2b0:	74636573 	strbtvc	r6, [r3], #-1395	; 0xfffffa8d
 2b4:	736e6f69 	cmnvc	lr, #420	; 0x1a4
 2b8:	6e662d20 	cdpvs	13, 6, cr2, cr6, cr0, {1}
 2bc:	78652d6f 	stmdavc	r5!, {r0, r1, r2, r3, r5, r6, r8, sl, fp, sp}^
 2c0:	74706563 	ldrbtvc	r6, [r0], #-1379	; 0xfffffa9d
 2c4:	736e6f69 	cmnvc	lr, #420	; 0x1a4
 2c8:	63726100 	cmnvs	r2, #0, 2
 2cc:	6d705f68 	ldclvs	15, cr5, [r0, #-416]!	; 0xfffffe60
 2d0:	79635f75 	stmdbvc	r3!, {r0, r2, r4, r5, r6, r8, r9, sl, fp, ip, lr}^
 2d4:	5f656c63 	svcpl	0x00656c63
 2d8:	6e756f63 	cdpvs	15, 7, cr6, cr5, cr3, {3}
 2dc:	5f726574 	svcpl	0x00726574
 2e0:	5f746567 	svcpl	0x00746567
 2e4:	6e756f63 	cdpvs	15, 7, cr6, cr5, cr3, {3}
 2e8:	00726574 	rsbseq	r6, r2, r4, ror r5
 2ec:	68637261 	stmdavs	r3!, {r0, r5, r6, r9, ip, sp, lr}^
 2f0:	7275635f 	rsbsvc	r6, r5, #2080374785	; 0x7c000001
 2f4:	6369745f 	cmnvs	r9, #1593835520	; 0x5f000000
 2f8:	682f006b 	stmdavs	pc!, {r0, r1, r3, r5, r6}	; <UNPREDICTABLE>
 2fc:	2f656d6f 	svccs	0x00656d6f
 300:	696c7a63 	stmdbvs	ip!, {r0, r1, r5, r6, r9, fp, ip, sp, lr}^
 304:	632f786d 			; <UNDEFINED> instruction: 0x632f786d
 308:	7365646f 	cmnvc	r5, #1862270976	; 0x6f000000
 30c:	65636170 	strbvs	r6, [r3, #-368]!	; 0xfffffe90
 310:	7261622f 	rsbvc	r6, r1, #-268435454	; 0xf0000002
 314:	74656d65 	strbtvc	r6, [r5], #-3429	; 0xfffff29b
 318:	665f6c61 	ldrbvs	r6, [pc], -r1, ror #24
 31c:	635f726f 	cmpvs	pc, #-268435450	; 0xf0000006
 320:	6372612f 	cmnvs	r2, #-1073741813	; 0xc000000b
 324:	72612f68 	rsbvc	r2, r1, #104, 30	; 0x1a0
 328:	2d37766d 	ldccs	6, cr7, [r7, #-436]!	; 0xfffffe4c
 32c:	72732f61 	rsbsvc	r2, r3, #388	; 0x184
 330:	72612f63 	rsbvc	r2, r1, #396	; 0x18c
 334:	655f6863 	ldrbvs	r6, [pc, #-2147]	; fffffad9 <__HeapLimit+0x3dff2ad9>
 338:	70656378 	rsbvc	r6, r5, r8, ror r3
 33c:	6e6f6974 			; <UNDEFINED> instruction: 0x6e6f6974
 340:	2f00732e 	svccs	0x0000732e
 344:	656d6f68 	strbvs	r6, [sp, #-3944]!	; 0xfffff098
 348:	6c7a632f 	ldclvs	3, cr6, [sl], #-188	; 0xffffff44
 34c:	2f786d69 	svccs	0x00786d69
 350:	65646f63 	strbvs	r6, [r4, #-3939]!	; 0xfffff09d
 354:	63617073 	cmnvs	r1, #115	; 0x73
 358:	61622f65 	cmnvs	r2, r5, ror #30
 35c:	656d6572 	strbvs	r6, [sp, #-1394]!	; 0xfffffa8e
 360:	5f6c6174 	svcpl	0x006c6174
 364:	5f726f66 	svcpl	0x00726f66
 368:	72612f63 	rsbvc	r2, r1, #396	; 0x18c
 36c:	612f6863 			; <UNDEFINED> instruction: 0x612f6863
 370:	37766d72 			; <UNDEFINED> instruction: 0x37766d72
 374:	732f612d 			; <UNDEFINED> instruction: 0x732f612d
 378:	612f6372 			; <UNDEFINED> instruction: 0x612f6372
 37c:	5f686372 	svcpl	0x00686372
 380:	2e757066 	cdpcs	0, 7, cr7, cr5, cr6, {3}
 384:	6f620073 	svcvs	0x00620073
 388:	5f647261 	svcpl	0x00647261
 38c:	74696e69 	strbtvc	r6, [r9], #-3689	; 0xfffff197
 390:	61655f00 	cmnvs	r5, r0, lsl #30
 394:	5f796c72 	svcpl	0x00796c72
 398:	68637261 	stmdavs	r3!, {r0, r5, r6, r9, ip, sp, lr}^
 39c:	696e695f 	stmdbvs	lr!, {r0, r1, r2, r3, r4, r6, r8, fp, sp, lr}^
 3a0:	72610074 	rsbvc	r0, r1, #116	; 0x74
 3a4:	705f6863 	subsvc	r6, pc, r3, ror #16
 3a8:	635f756d 	cmpvs	pc, #457179136	; 0x1b400000
 3ac:	656c6379 	strbvs	r6, [ip, #-889]!	; 0xfffffc87
 3b0:	756f635f 	strbvc	r6, [pc, #-863]!	; 59 <SYS_MODE+0x3a>
 3b4:	7265746e 	rsbvc	r7, r5, #1845493760	; 0x6e000000
 3b8:	616e655f 	cmnvs	lr, pc, asr r5
 3bc:	00656c62 	rsbeq	r6, r5, r2, ror #24
 3c0:	68637261 	stmdavs	r3!, {r0, r5, r6, r9, ip, sp, lr}^
 3c4:	6172625f 	cmnvs	r2, pc, asr r2
 3c8:	5f68636e 	svcpl	0x0068636e
 3cc:	64657270 	strbtvs	r7, [r5], #-624	; 0xfffffd90
 3d0:	6f746369 	svcvs	0x00746369
 3d4:	6e695f72 	mcrvs	15, 3, r5, cr9, cr2, {3}
 3d8:	696c6176 	stmdbvs	ip!, {r1, r2, r4, r5, r6, r8, sp, lr}^
 3dc:	65746164 	ldrbvs	r6, [r4, #-356]!	; 0xfffffe9c
 3e0:	6c6c615f 	stfvse	f6, [ip], #-380	; 0xfffffe84
 3e4:	73625f00 	cmnvc	r2, #0, 30
 3e8:	74735f73 	ldrbtvc	r5, [r3], #-3955	; 0xfffff08d
 3ec:	5f747261 	svcpl	0x00747261
 3f0:	63726100 	cmnvs	r2, #0, 2
 3f4:	63645f68 	cmnvs	r4, #104, 30	; 0x1a0
 3f8:	65686361 	strbvs	r6, [r8, #-865]!	; 0xfffffc9f
 3fc:	616e655f 	cmnvs	lr, pc, asr r5
 400:	00656c62 	rsbeq	r6, r5, r2, ror #24
 404:	68637261 	stmdavs	r3!, {r0, r5, r6, r9, ip, sp, lr}^
 408:	756d6d5f 	strbvc	r6, [sp, #-3423]!	; 0xfffff2a1
 40c:	616e655f 	cmnvs	lr, pc, asr r5
 410:	00656c62 	rsbeq	r6, r5, r2, ror #24
 414:	72616f62 	rsbvc	r6, r1, #392	; 0x188
 418:	61655f64 	cmnvs	r5, r4, ror #30
 41c:	5f796c72 	svcpl	0x00796c72
 420:	74696e69 	strbtvc	r6, [r9], #-3689	; 0xfffff197
 424:	6d656d00 	stclvs	13, cr6, [r5, #-0]
 428:	00746573 	rsbseq	r6, r4, r3, ror r5
 42c:	68637261 	stmdavs	r3!, {r0, r5, r6, r9, ip, sp, lr}^
 430:	7570665f 	ldrbvc	r6, [r0, #-1631]!	; 0xfffff9a1
 434:	616e655f 	cmnvs	lr, pc, asr r5
 438:	00656c62 	rsbeq	r6, r5, r2, ror #24
 43c:	68637261 	stmdavs	r3!, {r0, r5, r6, r9, ip, sp, lr}^
 440:	7172695f 	cmnvc	r2, pc, asr r9
 444:	696e695f 	stmdbvs	lr!, {r0, r1, r2, r3, r4, r6, r8, fp, sp, lr}^
 448:	72610074 	rsbvc	r0, r1, #116	; 0x74
 44c:	745f6863 	ldrbvc	r6, [pc], #-2147	; 454 <SYS_MODE+0x435>
 450:	695f626c 	ldmdbvs	pc, {r2, r3, r5, r6, r9, sp, lr}^	; <UNPREDICTABLE>
 454:	6c61766e 	stclvs	6, cr7, [r1], #-440	; 0xfffffe48
 458:	74616469 	strbtvc	r6, [r1], #-1129	; 0xfffffb97
 45c:	6c615f65 	stclvs	15, cr5, [r1], #-404	; 0xfffffe6c
 460:	682f006c 	stmdavs	pc!, {r2, r3, r5, r6}	; <UNPREDICTABLE>
 464:	2f656d6f 	svccs	0x00656d6f
 468:	696c7a63 	stmdbvs	ip!, {r0, r1, r5, r6, r9, fp, ip, sp, lr}^
 46c:	632f786d 			; <UNDEFINED> instruction: 0x632f786d
 470:	7365646f 	cmnvc	r5, #1862270976	; 0x6f000000
 474:	65636170 	strbvs	r6, [r3, #-368]!	; 0xfffffe90
 478:	7261622f 	rsbvc	r6, r1, #-268435454	; 0xf0000002
 47c:	74656d65 	strbtvc	r6, [r5], #-3429	; 0xfffff29b
 480:	665f6c61 	ldrbvs	r6, [pc], -r1, ror #24
 484:	635f726f 	cmpvs	pc, #-268435450	; 0xf0000006
 488:	6372612f 	cmnvs	r2, #-1073741813	; 0xc000000b
 48c:	72612f68 	rsbvc	r2, r1, #104, 30	; 0x1a0
 490:	2d37766d 	ldccs	6, cr7, [r7, #-436]!	; 0xfffffe4c
 494:	72732f61 	rsbsvc	r2, r3, #388	; 0x184
 498:	72612f63 	rsbvc	r2, r1, #396	; 0x18c
 49c:	695f6863 	ldmdbvs	pc, {r0, r1, r5, r6, fp, sp, lr}^	; <UNPREDICTABLE>
 4a0:	2e74696e 	vsubcs.f16	s13, s8, s29	; <UNPREDICTABLE>
 4a4:	72610063 	rsbvc	r0, r1, #99	; 0x63
 4a8:	695f6863 	ldmdbvs	pc, {r0, r1, r5, r6, fp, sp, lr}^	; <UNPREDICTABLE>
 4ac:	68636163 	stmdavs	r3!, {r0, r1, r5, r6, r8, sp, lr}^
 4b0:	6e655f65 	cdpvs	15, 6, cr5, cr5, cr5, {3}
 4b4:	656c6261 	strbvs	r6, [ip, #-609]!	; 0xfffffd9f
 4b8:	63726100 	cmnvs	r2, #0, 2
 4bc:	63695f68 	cmnvs	r9, #104, 30	; 0x1a0
 4c0:	65686361 	strbvs	r6, [r8, #-865]!	; 0xfffffc9f
 4c4:	766e695f 			; <UNDEFINED> instruction: 0x766e695f
 4c8:	64696c61 	strbtvs	r6, [r9], #-3169	; 0xfffff39f
 4cc:	5f657461 	svcpl	0x00657461
 4d0:	006c6c61 	rsbeq	r6, ip, r1, ror #24
 4d4:	68637261 	stmdavs	r3!, {r0, r5, r6, r9, ip, sp, lr}^
 4d8:	756d705f 	strbvc	r7, [sp, #-95]!	; 0xffffffa1
 4dc:	6573755f 	ldrbvs	r7, [r3, #-1375]!	; 0xfffffaa1
 4e0:	63615f72 	cmnvs	r1, #456	; 0x1c8
 4e4:	73736563 	cmnvc	r3, #415236096	; 0x18c00000
 4e8:	616e655f 	cmnvs	lr, pc, asr r5
 4ec:	00656c62 	rsbeq	r6, r5, r2, ror #24
 4f0:	7373625f 	cmnvc	r3, #-268435451	; 0xf0000005
 4f4:	646e655f 	strbtvs	r6, [lr], #-1375	; 0xfffffaa1
 4f8:	7261005f 	rsbvc	r0, r1, #95	; 0x5f
 4fc:	645f6863 	ldrbvs	r6, [pc], #-2147	; 504 <SYS_MODE+0x4e5>
 500:	68636163 	stmdavs	r3!, {r0, r1, r5, r6, r8, sp, lr}^
 504:	6e695f65 	cdpvs	15, 6, cr5, cr9, cr5, {3}
 508:	696c6176 	stmdbvs	ip!, {r1, r2, r4, r5, r6, r8, sp, lr}^
 50c:	65746164 	ldrbvs	r6, [r4, #-356]!	; 0xfffffe9c
 510:	6c6c615f 	stfvse	f6, [ip], #-380	; 0xfffffe84
 514:	63726100 	cmnvs	r2, #0, 2
 518:	72625f68 	rsbvc	r5, r2, #104, 30	; 0x1a0
 51c:	68636e61 	stmdavs	r3!, {r0, r5, r6, r9, sl, fp, sp, lr}^
 520:	6572705f 	ldrbvs	r7, [r2, #-95]!	; 0xffffffa1
 524:	74636964 	strbtvc	r6, [r3], #-2404	; 0xfffff69c
 528:	655f726f 	ldrbvs	r7, [pc, #-623]	; 2c1 <SYS_MODE+0x2a2>
 52c:	6c62616e 	stfvse	f6, [r2], #-440	; 0xfffffe48
 530:	72610065 	rsbvc	r0, r1, #101	; 0x65
 534:	705f6863 	subsvc	r6, pc, r3, ror #16
 538:	635f756d 	cmpvs	pc, #457179136	; 0x1b400000
 53c:	656c6379 	strbvs	r6, [ip, #-889]!	; 0xfffffc87
 540:	756f635f 	strbvc	r6, [pc, #-863]!	; 1e9 <SYS_MODE+0x1ca>
 544:	7265746e 	rsbvc	r7, r5, #1845493760	; 0x6e000000
 548:	696e695f 	stmdbvs	lr!, {r0, r1, r2, r3, r4, r6, r8, fp, sp, lr}^
 54c:	72610074 	rsbvc	r0, r1, #116	; 0x74
 550:	695f6863 	ldmdbvs	pc, {r0, r1, r5, r6, fp, sp, lr}^	; <UNPREDICTABLE>
 554:	685f7172 	ldmdavs	pc, {r1, r4, r5, r6, r8, ip, sp, lr}^	; <UNPREDICTABLE>
 558:	6c646e61 	stclvs	14, cr6, [r4], #-388	; 0xfffffe7c
 55c:	73007265 	movwvc	r7, #613	; 0x265
 560:	5f767264 	svcpl	0x00767264
 564:	5f717269 	svcpl	0x00717269
 568:	61656c63 	cmnvs	r5, r3, ror #24
 56c:	74735f72 	ldrbtvc	r5, [r3], #-3954	; 0xfffff08e
 570:	73757461 	cmnvc	r5, #1627389952	; 0x61000000
 574:	6f682f00 	svcvs	0x00682f00
 578:	632f656d 			; <UNDEFINED> instruction: 0x632f656d
 57c:	6d696c7a 	stclvs	12, cr6, [r9, #-488]!	; 0xfffffe18
 580:	6f632f78 	svcvs	0x00632f78
 584:	70736564 	rsbsvc	r6, r3, r4, ror #10
 588:	2f656361 	svccs	0x00656361
 58c:	65726162 	ldrbvs	r6, [r2, #-354]!	; 0xfffffe9e
 590:	6174656d 	cmnvs	r4, sp, ror #10
 594:	6f665f6c 	svcvs	0x00665f6c
 598:	2f635f72 	svccs	0x00635f72
 59c:	68637261 	stmdavs	r3!, {r0, r5, r6, r9, ip, sp, lr}^
 5a0:	6d72612f 	ldfvse	f6, [r2, #-188]!	; 0xffffff44
 5a4:	612d3776 			; <UNDEFINED> instruction: 0x612d3776
 5a8:	6372732f 	cmnvs	r2, #-1140850688	; 0xbc000000
 5ac:	6372612f 	cmnvs	r2, #-1073741813	; 0xc000000b
 5b0:	72695f68 	rsbvc	r5, r9, #104, 30	; 0x1a0
 5b4:	00632e71 	rsbeq	r2, r3, r1, ror lr
 5b8:	68637261 	stmdavs	r3!, {r0, r5, r6, r9, ip, sp, lr}^
 5bc:	7172695f 	cmnvc	r2, pc, asr r9
 5c0:	6765725f 			; <UNDEFINED> instruction: 0x6765725f
 5c4:	65747369 	ldrbvs	r7, [r4, #-873]!	; 0xfffffc97
 5c8:	64730072 	ldrbtvs	r0, [r3], #-114	; 0xffffff8e
 5cc:	695f7672 	ldmdbvs	pc, {r1, r4, r5, r6, r9, sl, ip, sp, lr}^	; <UNPREDICTABLE>
 5d0:	735f7172 	cmpvc	pc, #-2147483620	; 0x8000001c
 5d4:	705f7465 	subsvc	r7, pc, r5, ror #8
 5d8:	726f6972 	rsbvc	r6, pc, #1867776	; 0x1c8000
 5dc:	00797469 	rsbseq	r7, r9, r9, ror #8
 5e0:	68637261 	stmdavs	r3!, {r0, r5, r6, r9, ip, sp, lr}^
 5e4:	7172695f 	cmnvc	r2, pc, asr r9
 5e8:	6e61685f 	mcrvs	8, 3, r6, cr1, cr15, {2}
 5ec:	72656c64 	rsbvc	r6, r5, #100, 24	; 0x6400
 5f0:	7079745f 	rsbsvc	r7, r9, pc, asr r4
 5f4:	72610065 	rsbvc	r0, r1, #101	; 0x65
 5f8:	695f6863 	ldmdbvs	pc, {r0, r1, r5, r6, fp, sp, lr}^	; <UNPREDICTABLE>
 5fc:	685f7172 	ldmdavs	pc, {r1, r4, r5, r6, r8, ip, sp, lr}^	; <UNPREDICTABLE>
 600:	6c646e61 	stclvs	14, cr6, [r4], #-388	; 0xfffffe7c
 604:	615f7265 	cmpvs	pc, r5, ror #4
 608:	79617272 	stmdbvc	r1!, {r1, r4, r5, r6, r9, ip, sp, lr}^
 60c:	63726100 	cmnvs	r2, #0, 2
 610:	72695f68 	rsbvc	r5, r9, #104, 30	; 0x1a0
 614:	6e755f71 	mrcvs	15, 3, r5, cr5, cr1, {3}
 618:	69676572 	stmdbvs	r7!, {r1, r4, r5, r6, r8, sl, sp, lr}^
 61c:	72657473 	rsbvc	r7, r5, #1929379840	; 0x73000000
 620:	63726100 	cmnvs	r2, #0, 2
 624:	65645f68 	strbvs	r5, [r4, #-3944]!	; 0xfffff098
 628:	6c756166 	ldfvse	f6, [r5], #-408	; 0xfffffe68
 62c:	72695f74 	rsbvc	r5, r9, #116, 30	; 0x1d0
 630:	61685f71 	smcvs	34289	; 0x85f1
 634:	656c646e 	strbvs	r6, [ip, #-1134]!	; 0xfffffb92
 638:	64730072 	ldrbtvs	r0, [r3], #-114	; 0xffffff8e
 63c:	695f7672 	ldmdbvs	pc, {r1, r4, r5, r6, r9, sl, ip, sp, lr}^	; <UNPREDICTABLE>
 640:	655f7172 	ldrbvs	r7, [pc, #-370]	; 4d6 <SYS_MODE+0x4b7>
 644:	6c62616e 	stfvse	f6, [r2], #-440	; 0xfffffe48
 648:	64730065 	ldrbtvs	r0, [r3], #-101	; 0xffffff9b
 64c:	695f7672 	ldmdbvs	pc, {r1, r4, r5, r6, r9, sl, ip, sp, lr}^	; <UNPREDICTABLE>
 650:	645f7172 	ldrbvs	r7, [pc], #-370	; 658 <SYS_MODE+0x639>
 654:	62617369 	rsbvs	r7, r1, #-1543503871	; 0xa4000001
 658:	7000656c 	andvc	r6, r0, ip, ror #10
 65c:	00617261 	rsbeq	r7, r1, r1, ror #4
 660:	76726473 			; <UNDEFINED> instruction: 0x76726473
 664:	7172695f 	cmnvc	r2, pc, asr r9
 668:	696e695f 	stmdbvs	lr!, {r0, r1, r2, r3, r4, r6, r8, fp, sp, lr}^
 66c:	682f0074 	stmdavs	pc!, {r2, r4, r5, r6}	; <UNPREDICTABLE>
 670:	2f656d6f 	svccs	0x00656d6f
 674:	696c7a63 	stmdbvs	ip!, {r0, r1, r5, r6, r9, fp, ip, sp, lr}^
 678:	632f786d 			; <UNDEFINED> instruction: 0x632f786d
 67c:	7365646f 	cmnvc	r5, #1862270976	; 0x6f000000
 680:	65636170 	strbvs	r6, [r3, #-368]!	; 0xfffffe90
 684:	7261622f 	rsbvc	r6, r1, #-268435454	; 0xf0000002
 688:	74656d65 	strbtvc	r6, [r5], #-3429	; 0xfffff29b
 68c:	665f6c61 	ldrbvs	r6, [pc], -r1, ror #24
 690:	635f726f 	cmpvs	pc, #-268435450	; 0xf0000006
 694:	6372612f 	cmnvs	r2, #-1073741813	; 0xc000000b
 698:	72612f68 	rsbvc	r2, r1, #104, 30	; 0x1a0
 69c:	2d37766d 	ldccs	6, cr7, [r7, #-436]!	; 0xfffffe4c
 6a0:	72732f61 	rsbsvc	r2, r3, #388	; 0x184
 6a4:	72612f63 	rsbvc	r2, r1, #396	; 0x18c
 6a8:	6d5f6863 	ldclvs	8, cr6, [pc, #-396]	; 524 <SYS_MODE+0x505>
 6ac:	732e756d 			; <UNDEFINED> instruction: 0x732e756d
 6b0:	6f682f00 	svcvs	0x00682f00
 6b4:	632f656d 			; <UNDEFINED> instruction: 0x632f656d
 6b8:	6d696c7a 	stclvs	12, cr6, [r9, #-488]!	; 0xfffffe18
 6bc:	6f632f78 	svcvs	0x00632f78
 6c0:	70736564 	rsbsvc	r6, r3, r4, ror #10
 6c4:	2f656361 	svccs	0x00656361
 6c8:	65726162 	ldrbvs	r6, [r2, #-354]!	; 0xfffffe9e
 6cc:	6174656d 	cmnvs	r4, sp, ror #10
 6d0:	6f665f6c 	svcvs	0x00665f6c
 6d4:	2f635f72 	svccs	0x00635f72
 6d8:	68637261 	stmdavs	r3!, {r0, r5, r6, r9, ip, sp, lr}^
 6dc:	6d72612f 	ldfvse	f6, [r2, #-188]!	; 0xffffff44
 6e0:	612d3776 			; <UNDEFINED> instruction: 0x612d3776
 6e4:	6372732f 	cmnvs	r2, #-1140850688	; 0xbc000000
 6e8:	6372612f 	cmnvs	r2, #-1073741813	; 0xc000000b
 6ec:	6c745f68 	ldclvs	15, cr5, [r4], #-416	; 0xfffffe60
 6f0:	00732e62 	rsbseq	r2, r3, r2, ror #28
 6f4:	6d6f682f 	stclvs	8, cr6, [pc, #-188]!	; 640 <SYS_MODE+0x621>
 6f8:	7a632f65 	bvc	18cc494 <SYS_MODE+0x18cc475>
 6fc:	786d696c 	stmdavc	sp!, {r2, r3, r5, r6, r8, fp, sp, lr}^
 700:	646f632f 	strbtvs	r6, [pc], #-815	; 708 <SYS_MODE+0x6e9>
 704:	61707365 	cmnvs	r0, r5, ror #6
 708:	622f6563 	eorvs	r6, pc, #415236096	; 0x18c00000
 70c:	6d657261 	sfmvs	f7, 2, [r5, #-388]!	; 0xfffffe7c
 710:	6c617465 	cfstrdvs	mvd7, [r1], #-404	; 0xfffffe6c
 714:	726f665f 	rsbvc	r6, pc, #99614720	; 0x5f00000
 718:	612f635f 			; <UNDEFINED> instruction: 0x612f635f
 71c:	2f686372 	svccs	0x00686372
 720:	766d7261 	strbtvc	r7, [sp], -r1, ror #4
 724:	2f612d37 	svccs	0x00612d37
 728:	2f637273 	svccs	0x00637273
 72c:	68637261 	stmdavs	r3!, {r0, r5, r6, r9, ip, sp, lr}^
 730:	756d705f 	strbvc	r7, [sp, #-95]!	; 0xffffffa1
 734:	2f00732e 	svccs	0x0000732e
 738:	656d6f68 	strbvs	r6, [sp, #-3944]!	; 0xfffff098
 73c:	6c7a632f 	ldclvs	3, cr6, [sl], #-188	; 0xffffff44
 740:	2f786d69 	svccs	0x00786d69
 744:	65646f63 	strbvs	r6, [r4, #-3939]!	; 0xfffff09d
 748:	63617073 	cmnvs	r1, #115	; 0x73
 74c:	61622f65 	cmnvs	r2, r5, ror #30
 750:	656d6572 	strbvs	r6, [sp, #-1394]!	; 0xfffffa8e
 754:	5f6c6174 	svcpl	0x006c6174
 758:	5f726f66 	svcpl	0x00726f66
 75c:	72612f63 	rsbvc	r2, r1, #396	; 0x18c
 760:	612f6863 			; <UNDEFINED> instruction: 0x612f6863
 764:	37766d72 			; <UNDEFINED> instruction: 0x37766d72
 768:	732f612d 			; <UNDEFINED> instruction: 0x732f612d
 76c:	612f6372 			; <UNDEFINED> instruction: 0x612f6372
 770:	5f686372 	svcpl	0x00686372
 774:	72617473 	rsbvc	r7, r1, #1929379840	; 0x73000000
 778:	2e707574 	mrccs	5, 3, r7, cr0, cr4, {3}
 77c:	682f0073 	stmdavs	pc!, {r0, r1, r4, r5, r6}	; <UNPREDICTABLE>
 780:	2f656d6f 	svccs	0x00656d6f
 784:	696c7a63 	stmdbvs	ip!, {r0, r1, r5, r6, r9, fp, ip, sp, lr}^
 788:	632f786d 			; <UNDEFINED> instruction: 0x632f786d
 78c:	7365646f 	cmnvc	r5, #1862270976	; 0x6f000000
 790:	65636170 	strbvs	r6, [r3, #-368]!	; 0xfffffe90
 794:	7261622f 	rsbvc	r6, r1, #-268435454	; 0xf0000002
 798:	74656d65 	strbtvc	r6, [r5], #-3429	; 0xfffff29b
 79c:	665f6c61 	ldrbvs	r6, [pc], -r1, ror #24
 7a0:	635f726f 	cmpvs	pc, #-268435450	; 0xf0000006
 7a4:	6372612f 	cmnvs	r2, #-1073741813	; 0xc000000b
 7a8:	72612f68 	rsbvc	r2, r1, #104, 30	; 0x1a0
 7ac:	2d37766d 	ldccs	6, cr7, [r7, #-436]!	; 0xfffffe4c
 7b0:	72732f61 	rsbsvc	r2, r3, #388	; 0x184
 7b4:	72612f63 	rsbvc	r2, r1, #396	; 0x18c
 7b8:	765f6863 	ldrbvc	r6, [pc], -r3, ror #16
 7bc:	6f746365 	svcvs	0x00746365
 7c0:	732e7372 			; <UNDEFINED> instruction: 0x732e7372
 7c4:	6f726700 	svcvs	0x00726700
 7c8:	2f007075 	svccs	0x00007075
 7cc:	656d6f68 	strbvs	r6, [sp, #-3944]!	; 0xfffff098
 7d0:	6c7a632f 	ldclvs	3, cr6, [sl], #-188	; 0xffffff44
 7d4:	2f786d69 	svccs	0x00786d69
 7d8:	65646f63 	strbvs	r6, [r4, #-3939]!	; 0xfffff09d
 7dc:	63617073 	cmnvs	r1, #115	; 0x73
 7e0:	61622f65 	cmnvs	r2, r5, ror #30
 7e4:	656d6572 	strbvs	r6, [sp, #-1394]!	; 0xfffffa8e
 7e8:	5f6c6174 	svcpl	0x006c6174
 7ec:	5f726f66 	svcpl	0x00726f66
 7f0:	72642f63 	rsbvc	r2, r4, #396	; 0x18c
 7f4:	72657669 	rsbvc	r7, r5, #110100480	; 0x6900000
 7f8:	336d612f 	cmncc	sp, #-1073741813	; 0xc000000b
 7fc:	2f783533 	svccs	0x00783533
 800:	2f637273 	svccs	0x00637273
 804:	76726473 			; <UNDEFINED> instruction: 0x76726473
 808:	746e695f 	strbtvc	r6, [lr], #-2399	; 0xfffff6a1
 80c:	2e635f63 	cdpcs	15, 6, cr5, cr3, cr3, {3}
 810:	64730063 	ldrbtvs	r0, [r3], #-99	; 0xffffff9d
 814:	695f7672 	ldmdbvs	pc, {r1, r4, r5, r6, r9, sl, ip, sp, lr}^	; <UNPREDICTABLE>
 818:	745f7172 	ldrbvc	r7, [pc], #-370	; 820 <SYS_MODE+0x801>
 81c:	67676972 			; <UNDEFINED> instruction: 0x67676972
 820:	73007265 	movwvc	r7, #613	; 0x265
 824:	6f637379 	svcvs	0x00637379
 828:	6769666e 	strbvs	r6, [r9, -lr, ror #12]!
 82c:	6f682f00 	svcvs	0x00682f00
 830:	632f656d 			; <UNDEFINED> instruction: 0x632f656d
 834:	6d696c7a 	stclvs	12, cr6, [r9, #-488]!	; 0xfffffe18
 838:	6f632f78 	svcvs	0x00632f78
 83c:	70736564 	rsbsvc	r6, r3, r4, ror #10
 840:	2f656361 	svccs	0x00656361
 844:	65726162 	ldrbvs	r6, [r2, #-354]!	; 0xfffffe9e
 848:	6174656d 	cmnvs	r4, sp, ror #10
 84c:	6f665f6c 	svcvs	0x00665f6c
 850:	2f635f72 	svccs	0x00635f72
 854:	76697264 	strbtvc	r7, [r9], -r4, ror #4
 858:	612f7265 			; <UNDEFINED> instruction: 0x612f7265
 85c:	3533336d 	ldrcc	r3, [r3, #-877]!	; 0xfffffc93
 860:	72732f78 	rsbsvc	r2, r3, #120, 30	; 0x1e0
 864:	64732f63 	ldrbtvs	r2, [r3], #-3939	; 0xfffff09d
 868:	695f7672 	ldmdbvs	pc, {r1, r4, r5, r6, r9, sl, ip, sp, lr}^	; <UNPREDICTABLE>
 86c:	5f63746e 	svcpl	0x0063746e
 870:	00732e73 	rsbseq	r2, r3, r3, ror lr
 874:	76726473 			; <UNDEFINED> instruction: 0x76726473
 878:	7261755f 	rsbvc	r7, r1, #398458880	; 0x17c00000
 87c:	65725f74 	ldrbvs	r5, [r2, #-3956]!	; 0xfffff08c
 880:	00746573 	rsbseq	r6, r4, r3, ror r5
 884:	74726175 	ldrbtvc	r6, [r2], #-373	; 0xfffffe8b
 888:	7561625f 	strbvc	r6, [r1, #-607]!	; 0xfffffda1
 88c:	74617264 	strbtvc	r7, [r1], #-612	; 0xfffffd9c
 890:	72615f65 	rsbvc	r5, r1, #404	; 0x194
 894:	00796172 	rsbseq	r6, r9, r2, ror r1
 898:	76726473 			; <UNDEFINED> instruction: 0x76726473
 89c:	7261755f 	rsbvc	r7, r1, #398458880	; 0x17c00000
 8a0:	6f635f74 	svcvs	0x00635f74
 8a4:	6769666e 	strbvs	r6, [r9, -lr, ror #12]!
 8a8:	5f657275 	svcpl	0x00657275
 8ac:	746f7270 	strbtvc	r7, [pc], #-624	; 8b4 <SYS_MODE+0x895>
 8b0:	6c6f636f 	stclvs	3, cr6, [pc], #-444	; 6fc <SYS_MODE+0x6dd>
 8b4:	72647300 	rsbvc	r7, r4, #0, 6
 8b8:	61755f76 	cmnvs	r5, r6, ror pc
 8bc:	695f7472 	ldmdbvs	pc, {r1, r4, r5, r6, sl, ip, sp, lr}^	; <UNPREDICTABLE>
 8c0:	0074696e 	rsbseq	r6, r4, lr, ror #18
 8c4:	5f646c6f 	svcpl	0x00646c6f
 8c8:	0072636c 	rsbseq	r6, r2, ip, ror #6
 8cc:	54524155 	ldrbpl	r4, [r2], #-341	; 0xfffffeab
 8d0:	4649465f 			; <UNDEFINED> instruction: 0x4649465f
 8d4:	454c5f4f 	strbmi	r5, [ip, #-3919]	; 0xfffff0b1
 8d8:	5f4c4556 	svcpl	0x004c4556
 8dc:	74003633 	strvc	r3, [r0], #-1587	; 0xfffff9cd
 8e0:	69665f78 	stmdbvs	r6!, {r3, r4, r5, r6, r8, r9, sl, fp, ip, lr}^
 8e4:	6c5f6f66 	mrrcvs	15, 6, r6, pc, cr6	; <UNPREDICTABLE>
 8e8:	6c657665 	stclvs	6, cr7, [r5], #-404	; 0xfffffe6c
 8ec:	74657200 	strbtvc	r7, [r5], #-512	; 0xfffffe00
 8f0:	006c6176 	rsbeq	r6, ip, r6, ror r1
 8f4:	756c6176 	strbvc	r6, [ip, #-374]!	; 0xfffffe8a
 8f8:	64730065 	ldrbtvs	r0, [r3], #-101	; 0xffffff9b
 8fc:	755f7672 	ldrbvc	r7, [pc, #-1650]	; 292 <SYS_MODE+0x273>
 900:	5f747261 	svcpl	0x00747261
 904:	69726170 	ldmdbvs	r2!, {r4, r5, r6, r8, sp, lr}^
 908:	745f7974 	ldrbvc	r7, [pc], #-2420	; 910 <SYS_MODE+0x8f1>
 90c:	00657079 	rsbeq	r7, r5, r9, ror r0
 910:	6f666966 	svcvs	0x00666966
 914:	616e655f 	cmnvs	lr, pc, asr r5
 918:	00656c62 	rsbeq	r6, r5, r2, ror #24
 91c:	76726473 			; <UNDEFINED> instruction: 0x76726473
 920:	7261755f 	rsbvc	r7, r1, #398458880	; 0x17c00000
 924:	69665f74 	stmdbvs	r6!, {r2, r4, r5, r6, r8, r9, sl, fp, ip, lr}^
 928:	6c5f6f66 	mrrcvs	15, 6, r6, pc, cr6	; <UNPREDICTABLE>
 92c:	6c657665 	stclvs	6, cr7, [r5], #-404	; 0xfffffe6c
 930:	7079745f 	rsbsvc	r7, r9, pc, asr r4
 934:	41550065 	cmpmi	r5, r5, rrx
 938:	505f5452 	subspl	r5, pc, r2, asr r4	; <UNPREDICTABLE>
 93c:	54495241 	strbpl	r5, [r9], #-577	; 0xfffffdbf
 940:	4f4e5f59 	svcmi	0x004e5f59
 944:	72647300 	rsbvc	r7, r4, #0, 6
 948:	61755f76 	cmnvs	r5, r6, ror pc
 94c:	735f7472 	cmpvc	pc, #1912602624	; 0x72000000
 950:	00646e65 	rsbeq	r6, r4, r5, ror #28
 954:	76726473 			; <UNDEFINED> instruction: 0x76726473
 958:	7261755f 	rsbvc	r7, r1, #398458880	; 0x17c00000
 95c:	6f775f74 	svcvs	0x00775f74
 960:	656c6472 	strbvs	r6, [ip, #-1138]!	; 0xfffffb8e
 964:	6874676e 	ldmdavs	r4!, {r1, r2, r3, r5, r6, r8, r9, sl, sp, lr}^
 968:	7079745f 	rsbsvc	r7, r9, pc, asr r4
 96c:	74730065 	ldrbtvc	r0, [r3], #-101	; 0xffffff9b
 970:	6962706f 	stmdbvs	r2!, {r0, r1, r2, r3, r5, r6, ip, sp, lr}^
 974:	73007374 	movwvc	r7, #884	; 0x374
 978:	5f767264 	svcpl	0x00767264
 97c:	74726175 	ldrbtvc	r6, [r2], #-373	; 0xfffffe8b
 980:	6e6f635f 	mcrvs	3, 3, r6, cr15, cr15, {2}
 984:	75676966 	strbvc	r6, [r7, #-2406]!	; 0xfffff69a
 988:	665f6572 			; <UNDEFINED> instruction: 0x665f6572
 98c:	5f6f6669 	svcpl	0x006f6669
 990:	5f646e61 	svcpl	0x00646e61
 994:	00616d64 	rsbeq	r6, r1, r4, ror #26
 998:	76726473 			; <UNDEFINED> instruction: 0x76726473
 99c:	7261755f 	rsbvc	r7, r1, #398458880	; 0x17c00000
 9a0:	6f635f74 	svcvs	0x00635f74
 9a4:	6769666e 	strbvs	r6, [r9, -lr, ror #12]!
 9a8:	7079745f 	rsbsvc	r7, r9, pc, asr r4
 9ac:	41550065 	cmpmi	r5, r5, rrx
 9b0:	505f5452 	subspl	r5, pc, r2, asr r4	; <UNPREDICTABLE>
 9b4:	54495241 	strbpl	r5, [r9], #-577	; 0xfffffdbf
 9b8:	56455f59 			; <UNDEFINED> instruction: 0x56455f59
 9bc:	70004e45 	andvc	r4, r0, r5, asr #28
 9c0:	74697261 	strbtvc	r7, [r9], #-609	; 0xfffffd9f
 9c4:	61620079 	smcvs	8201	; 0x2009
 9c8:	61726475 	cmnvs	r2, r5, ror r4
 9cc:	55006574 	strpl	r6, [r0, #-1396]	; 0xfffffa8c
 9d0:	5f545241 	svcpl	0x00545241
 9d4:	504f5453 	subpl	r5, pc, r3, asr r4	; <UNPREDICTABLE>
 9d8:	53544942 	cmppl	r4, #1081344	; 0x108000
 9dc:	454e4f5f 	strbmi	r4, [lr, #-3935]	; 0xfffff0a1
 9e0:	5449425f 	strbpl	r4, [r9], #-607	; 0xfffffda1
 9e4:	64730053 	ldrbtvs	r0, [r3], #-83	; 0xffffffad
 9e8:	755f7672 	ldrbvc	r7, [pc, #-1650]	; 37e <SYS_MODE+0x35f>
 9ec:	5f747261 	svcpl	0x00747261
 9f0:	646e6966 	strbtvs	r6, [lr], #-2406	; 0xfffff69a
 9f4:	7461725f 	strbtvc	r7, [r1], #-607	; 0xfffffda1
 9f8:	41550065 	cmpmi	r5, r5, rrx
 9fc:	575f5452 			; <UNDEFINED> instruction: 0x575f5452
 a00:	4c44524f 	sfmmi	f5, 2, [r4], {79}	; 0x4f
 a04:	54474e45 	strbpl	r4, [r7], #-3653	; 0xfffff1bb
 a08:	5f355f48 	svcpl	0x00355f48
 a0c:	53544942 	cmppl	r4, #1081344	; 0x108000
 a10:	52415500 	subpl	r5, r1, #0, 10
 a14:	4f575f54 	svcmi	0x00575f54
 a18:	454c4452 	strbmi	r4, [ip, #-1106]	; 0xfffffbae
 a1c:	4854474e 	ldmdami	r4, {r1, r2, r3, r6, r8, r9, sl, lr}^
 a20:	425f385f 	subsmi	r3, pc, #6225920	; 0x5f0000
 a24:	00535449 	subseq	r5, r3, r9, asr #8
 a28:	64726f77 	ldrbtvs	r6, [r2], #-3959	; 0xfffff089
 a2c:	676e656c 	strbvs	r6, [lr, -ip, ror #10]!
 a30:	55006874 	strpl	r6, [r0, #-2164]	; 0xfffff78c
 a34:	5f545241 	svcpl	0x00545241
 a38:	4f464946 	svcmi	0x00464946
 a3c:	56454c5f 			; <UNDEFINED> instruction: 0x56454c5f
 a40:	315f4c45 	cmpcc	pc, r5, asr #24
 a44:	78720036 	ldmdavc	r2!, {r1, r2, r4, r5}^
 a48:	6669665f 			; <UNDEFINED> instruction: 0x6669665f
 a4c:	656c5f6f 	strbvs	r5, [ip, #-3951]!	; 0xfffff091
 a50:	006c6576 	rsbeq	r6, ip, r6, ror r5
 a54:	54524155 	ldrbpl	r4, [r2], #-341	; 0xfffffeab
 a58:	4f54535f 	svcmi	0x0054535f
 a5c:	54494250 	strbpl	r4, [r9], #-592	; 0xfffffdb0
 a60:	4e4f5f53 	mcrmi	15, 2, r5, cr15, cr3, {2}
 a64:	4c414845 	mcrrmi	8, 4, r4, r1, cr5
 a68:	49425f46 	stmdbmi	r2, {r1, r2, r6, r8, r9, sl, fp, ip, lr}^
 a6c:	62005354 	andvs	r5, r0, #84, 6	; 0x50000001
 a70:	5f657361 	svcpl	0x00657361
 a74:	72646461 	rsbvc	r6, r4, #1627389952	; 0x61000000
 a78:	00737365 	rsbseq	r7, r3, r5, ror #6
 a7c:	54524155 	ldrbpl	r4, [r2], #-341	; 0xfffffeab
 a80:	5241505f 	subpl	r5, r1, #95	; 0x5f
 a84:	5f595449 	svcpl	0x00595449
 a88:	0044444f 	subeq	r4, r4, pc, asr #8
 a8c:	5f646c6f 	svcpl	0x00646c6f
 a90:	00726665 	rsbseq	r6, r2, r5, ror #12
 a94:	6f6f425f 	svcvs	0x006f425f
 a98:	6164006c 	cmnvs	r4, ip, rrx
 a9c:	55006174 	strpl	r6, [r0, #-372]	; 0xfffffe8c
 aa0:	5f545241 	svcpl	0x00545241
 aa4:	504f5453 	subpl	r5, pc, r3, asr r4	; <UNPREDICTABLE>
 aa8:	53544942 	cmppl	r4, #1081344	; 0x108000
 aac:	4f57545f 	svcmi	0x0057545f
 ab0:	5449425f 	strbpl	r4, [r9], #-607	; 0xfffffda1
 ab4:	682f0053 	stmdavs	pc!, {r0, r1, r4, r6}	; <UNPREDICTABLE>
 ab8:	2f656d6f 	svccs	0x00656d6f
 abc:	696c7a63 	stmdbvs	ip!, {r0, r1, r5, r6, r9, fp, ip, sp, lr}^
 ac0:	632f786d 			; <UNDEFINED> instruction: 0x632f786d
 ac4:	7365646f 	cmnvc	r5, #1862270976	; 0x6f000000
 ac8:	65636170 	strbvs	r6, [r3, #-368]!	; 0xfffffe90
 acc:	7261622f 	rsbvc	r6, r1, #-268435454	; 0xf0000002
 ad0:	74656d65 	strbtvc	r6, [r5], #-3429	; 0xfffff29b
 ad4:	665f6c61 	ldrbvs	r6, [pc], -r1, ror #24
 ad8:	635f726f 	cmpvs	pc, #-268435450	; 0xf0000006
 adc:	6972642f 	ldmdbvs	r2!, {r0, r1, r2, r3, r5, sl, sp, lr}^
 ae0:	2f726576 	svccs	0x00726576
 ae4:	33336d61 	teqcc	r3, #6208	; 0x1840
 ae8:	732f7835 			; <UNDEFINED> instruction: 0x732f7835
 aec:	732f6372 			; <UNDEFINED> instruction: 0x732f6372
 af0:	5f767264 	svcpl	0x00767264
 af4:	74726175 	ldrbtvc	r6, [r2], #-373	; 0xfffffe8b
 af8:	5500632e 	strpl	r6, [r0, #-814]	; 0xfffffcd2
 afc:	5f545241 	svcpl	0x00545241
 b00:	4f464946 	svcmi	0x00464946
 b04:	56454c5f 			; <UNDEFINED> instruction: 0x56454c5f
 b08:	385f4c45 	ldmdacc	pc, {r0, r2, r6, sl, fp, lr}^	; <UNPREDICTABLE>
 b0c:	72647300 	rsbvc	r7, r4, #0, 6
 b10:	61755f76 	cmnvs	r5, r6, ror pc
 b14:	625f7472 	subsvs	r7, pc, #1912602624	; 0x72000000
 b18:	72647561 	rsbvc	r7, r4, #406847488	; 0x18400000
 b1c:	5f657461 	svcpl	0x00657461
 b20:	65707974 	ldrbvs	r7, [r0, #-2420]!	; 0xfffff68c
 b24:	616d6400 	cmnvs	sp, r0, lsl #8
 b28:	616e655f 	cmnvs	lr, pc, asr r5
 b2c:	00656c62 	rsbeq	r6, r5, r2, ror #24
 b30:	54524155 	ldrbpl	r4, [r2], #-341	; 0xfffffeab
 b34:	524f575f 	subpl	r5, pc, #24903680	; 0x17c0000
 b38:	4e454c44 	cdpmi	12, 4, cr4, cr5, cr4, {2}
 b3c:	5f485447 	svcpl	0x00485447
 b40:	49425f37 	stmdbmi	r2, {r0, r1, r2, r4, r5, r8, r9, sl, fp, ip, lr}^
 b44:	55005354 	strpl	r5, [r0, #-852]	; 0xfffffcac
 b48:	5f545241 	svcpl	0x00545241
 b4c:	4f464946 	svcmi	0x00464946
 b50:	56454c5f 			; <UNDEFINED> instruction: 0x56454c5f
 b54:	325f4c45 	subscc	r4, pc, #17664	; 0x4500
 b58:	756e0034 	strbvc	r0, [lr, #-52]!	; 0xffffffcc
 b5c:	7265626d 	rsbvc	r6, r5, #-805306362	; 0xd0000006
 b60:	646c6f00 	strbtvs	r6, [ip], #-3840	; 0xfffff100
 b64:	72636d5f 	rsbvc	r6, r3, #6080	; 0x17c0
 b68:	72647300 	rsbvc	r7, r4, #0, 6
 b6c:	61755f76 	cmnvs	r5, r6, ror pc
 b70:	735f7472 	cmpvc	pc, #1912602624	; 0x72000000
 b74:	62706f74 	rsbsvs	r6, r0, #116, 30	; 0x1d0
 b78:	5f737469 	svcpl	0x00737469
 b7c:	65707974 	ldrbvs	r7, [r0, #-2420]!	; 0xfffff68c
 b80:	52415500 	subpl	r5, r1, #0, 10
 b84:	4f575f54 	svcmi	0x00575f54
 b88:	454c4452 	strbmi	r4, [ip, #-1106]	; 0xfffffbae
 b8c:	4854474e 	ldmdami	r4, {r1, r2, r3, r6, r8, r9, sl, lr}^
 b90:	425f365f 	subsmi	r3, pc, #99614720	; 0x5f00000
 b94:	00535449 	subseq	r5, r3, r9, asr #8
 b98:	76726473 			; <UNDEFINED> instruction: 0x76726473
 b9c:	6974645f 	ldmdbvs	r4!, {r0, r1, r2, r3, r4, r6, sl, sp, lr}^
 ba0:	5f72656d 	svcpl	0x0072656d
 ba4:	62616e65 	rsbvs	r6, r1, #1616	; 0x650
 ba8:	7300656c 	movwvc	r6, #1388	; 0x56c
 bac:	5f767264 	svcpl	0x00767264
 bb0:	6d697464 	cfstrdvs	mvd7, [r9, #-400]!	; 0xfffffe70
 bb4:	635f7265 	cmpvs	pc, #1342177286	; 0x50000006
 bb8:	746e756f 	strbtvc	r7, [lr], #-1391	; 0xfffffa91
 bbc:	735f7265 	cmpvc	pc, #1342177286	; 0x50000006
 bc0:	73007465 	movwvc	r7, #1125	; 0x465
 bc4:	5f767264 	svcpl	0x00767264
 bc8:	6d697464 	cfstrdvs	mvd7, [r9, #-400]!	; 0xfffffe70
 bcc:	705f7265 	subsvc	r7, pc, r5, ror #4
 bd0:	63736572 	cmnvs	r3, #478150656	; 0x1c800000
 bd4:	72656c61 	rsbvc	r6, r5, #24832	; 0x6100
 bd8:	6b6c635f 	blvs	1b1995c <SYS_MODE+0x1b1993d>
 bdc:	616e655f 	cmnvs	lr, pc, asr r5
 be0:	00656c62 	rsbeq	r6, r5, r2, ror #24
 be4:	454d4954 	strbmi	r4, [sp, #-2388]	; 0xfffff6ac
 be8:	5f575f52 	svcpl	0x00575f52
 bec:	444e4550 	strbmi	r4, [lr], #-1360	; 0xfffffab0
 bf0:	444c545f 	strbmi	r5, [ip], #-1119	; 0xfffffba1
 bf4:	64730052 	ldrbtvs	r0, [r3], #-82	; 0xffffffae
 bf8:	645f7672 	ldrbvs	r7, [pc], #-1650	; c00 <SYS_MODE+0xbe1>
 bfc:	656d6974 	strbvs	r6, [sp, #-2420]!	; 0xfffff68c
 c00:	65725f72 	ldrbvs	r5, [r2, #-3954]!	; 0xfffff08e
 c04:	64616f6c 	strbtvs	r6, [r1], #-3948	; 0xfffff094
 c08:	7465735f 	strbtvc	r7, [r5], #-863	; 0xfffffca1
 c0c:	4d495400 	cfstrdmi	mvd5, [r9, #-0]
 c10:	575f5245 	ldrbpl	r5, [pc, -r5, asr #4]
 c14:	4e45505f 	mcrmi	0, 2, r5, cr5, cr15, {2}
 c18:	4d545f44 	ldclmi	15, cr5, [r4, #-272]	; 0xfffffef0
 c1c:	73005041 	movwvc	r5, #65	; 0x41
 c20:	5f767264 	svcpl	0x00767264
 c24:	6d697464 	cfstrdvs	mvd7, [r9, #-400]!	; 0xfffffe70
 c28:	705f7265 	subsvc	r7, pc, r5, ror #4
 c2c:	63736572 	cmnvs	r3, #478150656	; 0x1c800000
 c30:	72656c61 	rsbvc	r6, r5, #24832	; 0x6100
 c34:	6b6c635f 	blvs	1b199b8 <SYS_MODE+0x1b19999>
 c38:	7369645f 	cmnvc	r9, #1593835520	; 0x5f000000
 c3c:	656c6261 	strbvs	r6, [ip, #-609]!	; 0xfffffd9f
 c40:	4d495400 	cfstrdmi	mvd5, [r9, #-0]
 c44:	545f5245 	ldrbpl	r5, [pc], #-581	; c4c <SYS_MODE+0xc2d>
 c48:	47474952 	smlsldmi	r4, r7, r2, r9
 c4c:	525f5245 	subspl	r5, pc, #1342177284	; 0x50000004
 c50:	414f4c45 	cmpmi	pc, r5, asr #24
 c54:	49540044 	ldmdbmi	r4, {r2, r6}^
 c58:	5f52454d 	svcpl	0x0052454d
 c5c:	45544e49 	ldrbmi	r4, [r4, #-3657]	; 0xfffff1b7
 c60:	50555252 	subspl	r5, r5, r2, asr r2
 c64:	564f5f54 			; <UNDEFINED> instruction: 0x564f5f54
 c68:	49540046 	ldmdbmi	r4, {r1, r2, r6}^
 c6c:	5f52454d 	svcpl	0x0052454d
 c70:	45505f57 	ldrbmi	r5, [r0, #-3927]	; 0xfffff0a9
 c74:	545f444e 	ldrbpl	r4, [pc], #-1102	; c7c <SYS_MODE+0xc5d>
 c78:	00524c43 	subseq	r4, r2, r3, asr #24
 c7c:	76726473 			; <UNDEFINED> instruction: 0x76726473
 c80:	6974645f 	ldmdbvs	r4!, {r0, r1, r2, r3, r4, r6, sl, sp, lr}^
 c84:	5f72656d 	svcpl	0x0072656d
 c88:	67697274 			; <UNDEFINED> instruction: 0x67697274
 c8c:	5f726567 	svcpl	0x00726567
 c90:	65646f6d 	strbvs	r6, [r4, #-3949]!	; 0xfffff093
 c94:	72647300 	rsbvc	r7, r4, #0, 6
 c98:	74645f76 	strbtvc	r5, [r4], #-3958	; 0xfffff08a
 c9c:	72656d69 	rsbvc	r6, r5, #6720	; 0x1a40
 ca0:	746e695f 	strbtvc	r6, [lr], #-2399	; 0xfffff6a1
 ca4:	6174735f 	cmnvs	r4, pc, asr r3
 ca8:	5f737574 	svcpl	0x00737574
 cac:	61656c63 	cmnvs	r5, r3, ror #24
 cb0:	69770072 	ldmdbvs	r7!, {r1, r4, r5, r6}^
 cb4:	00687464 	rsbeq	r7, r8, r4, ror #8
 cb8:	72646461 	rsbvc	r6, r4, #1627389952	; 0x61000000
 cbc:	72647300 	rsbvc	r7, r4, #0, 6
 cc0:	74645f76 	strbtvc	r5, [r4], #-3958	; 0xfffff08a
 cc4:	72656d69 	rsbvc	r6, r5, #6720	; 0x1a40
 cc8:	6e65705f 	mcrvs	0, 3, r7, cr5, cr15, {2}
 ccc:	74735f64 	ldrbtvc	r5, [r3], #-3940	; 0xfffff09c
 cd0:	73757461 	cmnvc	r5, #1627389952	; 0x61000000
 cd4:	72647300 	rsbvc	r7, r4, #0, 6
 cd8:	74645f76 	strbtvc	r5, [r4], #-3958	; 0xfffff08a
 cdc:	72656d69 	rsbvc	r6, r5, #6720	; 0x1a40
 ce0:	6d6f635f 	stclvs	3, cr6, [pc, #-380]!	; b6c <SYS_MODE+0xb4d>
 ce4:	65726170 	ldrbvs	r6, [r2, #-368]!	; 0xfffffe90
 ce8:	7465735f 	strbtvc	r7, [r5], #-863	; 0xfffffca1
 cec:	72647300 	rsbvc	r7, r4, #0, 6
 cf0:	74645f76 	strbtvc	r5, [r4], #-3958	; 0xfffff08a
 cf4:	72656d69 	rsbvc	r6, r5, #6720	; 0x1a40
 cf8:	6961775f 	stmdbvs	r1!, {r0, r1, r2, r3, r4, r6, r8, r9, sl, ip, sp, lr}^
 cfc:	6f665f74 	svcvs	0x00665f74
 d00:	72775f72 	rsbsvc	r5, r7, #456	; 0x1c8
 d04:	6c657469 	cfstrdvs	mvd7, [r5], #-420	; 0xfffffe5c
 d08:	72647300 	rsbvc	r7, r4, #0, 6
 d0c:	74645f76 	strbtvc	r5, [r4], #-3958	; 0xfffff08a
 d10:	72656d69 	rsbvc	r6, r5, #6720	; 0x1a40
 d14:	666f735f 			; <UNDEFINED> instruction: 0x666f735f
 d18:	65725f74 	ldrbvs	r5, [r2, #-3956]!	; 0xfffff08c
 d1c:	00746573 	rsbseq	r6, r4, r3, ror r5
 d20:	6d6f682f 	stclvs	8, cr6, [pc, #-188]!	; c6c <SYS_MODE+0xc4d>
 d24:	7a632f65 	bvc	18ccac0 <SYS_MODE+0x18ccaa1>
 d28:	786d696c 	stmdavc	sp!, {r2, r3, r5, r6, r8, fp, sp, lr}^
 d2c:	646f632f 	strbtvs	r6, [pc], #-815	; d34 <SYS_MODE+0xd15>
 d30:	61707365 	cmnvs	r0, r5, ror #6
 d34:	622f6563 	eorvs	r6, pc, #415236096	; 0x18c00000
 d38:	6d657261 	sfmvs	f7, 2, [r5, #-388]!	; 0xfffffe7c
 d3c:	6c617465 	cfstrdvs	mvd7, [r1], #-404	; 0xfffffe6c
 d40:	726f665f 	rsbvc	r6, pc, #99614720	; 0x5f00000
 d44:	642f635f 	strtvs	r6, [pc], #-863	; d4c <SYS_MODE+0xd2d>
 d48:	65766972 	ldrbvs	r6, [r6, #-2418]!	; 0xfffff68e
 d4c:	6d612f72 	stclvs	15, cr2, [r1, #-456]!	; 0xfffffe38
 d50:	78353333 	ldmdavc	r5!, {r0, r1, r4, r5, r8, r9, ip, sp}
 d54:	6372732f 	cmnvs	r2, #-1140850688	; 0xbc000000
 d58:	7264732f 	rsbvc	r7, r4, #-1140850688	; 0xbc000000
 d5c:	69745f76 	ldmdbvs	r4!, {r1, r2, r4, r5, r6, r8, r9, sl, fp, ip, lr}^
 d60:	2e72656d 	cdpcs	5, 7, cr6, cr2, cr13, {3}
 d64:	64730063 	ldrbtvs	r0, [r3], #-99	; 0xffffff9d
 d68:	645f7672 	ldrbvs	r7, [pc], #-1650	; d70 <SYS_MODE+0xd51>
 d6c:	656d6974 	strbvs	r6, [sp, #-2420]!	; 0xfffff68c
 d70:	69645f72 	stmdbvs	r4!, {r1, r4, r5, r6, r8, r9, sl, fp, ip, lr}^
 d74:	6c626173 	stfvse	f6, [r2], #-460	; 0xfffffe34
 d78:	64730065 	ldrbtvs	r0, [r3], #-101	; 0xffffff9b
 d7c:	645f7672 	ldrbvs	r7, [pc], #-1650	; d84 <SYS_MODE+0xd65>
 d80:	656d6974 	strbvs	r6, [sp, #-2420]!	; 0xfffff68c
 d84:	6e695f72 	mcrvs	15, 3, r5, cr9, cr2, {3}
 d88:	6e655f74 	mcrvs	15, 3, r5, cr5, cr4, {3}
 d8c:	656c6261 	strbvs	r6, [ip, #-609]!	; 0xfffffd9f
 d90:	61747300 	cmnvs	r4, r0, lsl #6
 d94:	69627472 	stmdbvs	r2!, {r1, r4, r5, r6, sl, ip, sp, lr}^
 d98:	49540074 	ldmdbmi	r4, {r2, r4, r5, r6}^
 d9c:	5f52454d 	svcpl	0x0052454d
 da0:	45544e49 	ldrbmi	r4, [r4, #-3657]	; 0xfffff1b7
 da4:	50555252 	subspl	r5, r5, r2, asr r2
 da8:	43545f54 	cmpmi	r4, #84, 30	; 0x150
 dac:	73005241 	movwvc	r5, #577	; 0x241
 db0:	5f767264 	svcpl	0x00767264
 db4:	6d697464 	cfstrdvs	mvd7, [r9, #-400]!	; 0xfffffe70
 db8:	6d5f7265 	lfmvs	f7, 2, [pc, #-404]	; c2c <SYS_MODE+0xc0d>
 dbc:	5f65646f 	svcpl	0x0065646f
 dc0:	666e6f63 	strbtvs	r6, [lr], -r3, ror #30
 dc4:	72756769 	rsbsvc	r6, r5, #27525120	; 0x1a40000
 dc8:	64730065 	ldrbtvs	r0, [r3], #-101	; 0xffffff9b
 dcc:	645f7672 	ldrbvs	r7, [pc], #-1650	; dd4 <SYS_MODE+0xdb5>
 dd0:	656d6974 	strbvs	r6, [sp, #-2420]!	; 0xfffff68c
 dd4:	6e695f72 	mcrvs	15, 3, r5, cr9, cr2, {3}
 dd8:	72726574 	rsbsvc	r6, r2, #116, 10	; 0x1d000000
 ddc:	00747075 	rsbseq	r7, r4, r5, ror r0
 de0:	72776d72 	rsbsvc	r6, r7, #7296	; 0x1c80
 de4:	73003233 	movwvc	r3, #563	; 0x233
 de8:	5f767264 	svcpl	0x00767264
 dec:	6d697464 	cfstrdvs	mvd7, [r9, #-400]!	; 0xfffffe70
 df0:	695f7265 	ldmdbvs	pc, {r0, r2, r5, r6, r9, ip, sp, lr}^	; <UNPREDICTABLE>
 df4:	645f746e 	ldrbvs	r7, [pc], #-1134	; dfc <SYS_MODE+0xddd>
 df8:	62617369 	rsbvs	r7, r1, #-1543503871	; 0xa4000001
 dfc:	6300656c 	movwvs	r6, #1388	; 0x56c
 e00:	61706d6f 	cmnvs	r0, pc, ror #26
 e04:	54006572 	strpl	r6, [r0], #-1394	; 0xfffffa8e
 e08:	52454d49 	subpl	r4, r5, #4672	; 0x1240
 e0c:	4952545f 	ldmdbmi	r2, {r0, r1, r2, r3, r4, r6, sl, ip, lr}^
 e10:	52454747 	subpl	r4, r5, #18612224	; 0x11c0000
 e14:	4d4f435f 	stclmi	3, cr4, [pc, #-380]	; ca0 <SYS_MODE+0xc81>
 e18:	45524150 	ldrbmi	r4, [r2, #-336]	; 0xfffffeb0
 e1c:	4d495400 	cfstrdmi	mvd5, [r9, #-0]
 e20:	575f5245 	ldrbpl	r5, [pc, -r5, asr #4]
 e24:	4e45505f 	mcrmi	0, 2, r5, cr5, cr15, {2}
 e28:	43545f44 	cmpmi	r4, #68, 30	; 0x110
 e2c:	72005252 	andvc	r5, r0, #536870917	; 0x20000005
 e30:	616f6c65 	cmnvs	pc, r5, ror #24
 e34:	49540064 	ldmdbmi	r4, {r2, r5, r6}^
 e38:	5f52454d 	svcpl	0x0052454d
 e3c:	45544e49 	ldrbmi	r4, [r4, #-3657]	; 0xfffff1b7
 e40:	50555252 	subspl	r5, r5, r2, asr r2
 e44:	414d5f54 	cmpmi	sp, r4, asr pc
 e48:	49540054 	ldmdbmi	r4, {r2, r4, r6}^
 e4c:	5f52454d 	svcpl	0x0052454d
 e50:	47495254 	smlsldmi	r5, r9, r4, r2
 e54:	5f524547 	svcpl	0x00524547
 e58:	004c4c41 	subeq	r4, ip, r1, asr #24
 e5c:	454d4954 	strbmi	r4, [sp, #-2388]	; 0xfffff6ac
 e60:	5f575f52 	svcpl	0x00575f52
 e64:	444e4550 	strbmi	r4, [lr], #-1360	; 0xfffffab0
 e68:	4754545f 			; <UNDEFINED> instruction: 0x4754545f
 e6c:	61700052 	cmnvs	r0, r2, asr r0
 e70:	6172665f 	cmnvs	r2, pc, asr r6
 e74:	7000656d 	andvc	r6, r0, sp, ror #10
 e78:	746e6972 	strbtvc	r6, [lr], #-2418	; 0xfffff68e
 e7c:	682f0066 	stmdavs	pc!, {r1, r2, r5, r6}	; <UNPREDICTABLE>
 e80:	2f656d6f 	svccs	0x00656d6f
 e84:	696c7a63 	stmdbvs	ip!, {r0, r1, r5, r6, r9, fp, ip, sp, lr}^
 e88:	632f786d 			; <UNDEFINED> instruction: 0x632f786d
 e8c:	7365646f 	cmnvc	r5, #1862270976	; 0x6f000000
 e90:	65636170 	strbvs	r6, [r3, #-368]!	; 0xfffffe90
 e94:	7261622f 	rsbvc	r6, r1, #-268435454	; 0xf0000002
 e98:	74656d65 	strbtvc	r6, [r5], #-3429	; 0xfffff29b
 e9c:	665f6c61 	ldrbvs	r6, [pc], -r1, ror #24
 ea0:	635f726f 	cmpvs	pc, #-268435450	; 0xf0000006
 ea4:	616f622f 	cmnvs	pc, pc, lsr #4
 ea8:	612f6472 			; <UNDEFINED> instruction: 0x612f6472
 eac:	3533336d 	ldrcc	r3, [r3, #-877]!	; 0xfffffc93
 eb0:	72742f38 	rsbsvc	r2, r4, #56, 30	; 0xe0
 eb4:	6f747279 	svcvs	0x00747279
 eb8:	72732f73 	rsbsvc	r2, r3, #460	; 0x1cc
 ebc:	6f622f63 	svcvs	0x00622f63
 ec0:	5f647261 	svcpl	0x00647261
 ec4:	74696e69 	strbtvc	r6, [r9], #-3689	; 0xfffff197
 ec8:	6500632e 	strvs	r6, [r0, #-814]	; 0xfffffcd2
 ecc:	796c7261 	stmdbvc	ip!, {r0, r5, r6, r9, ip, sp, lr}^
 ed0:	756d6d5f 	strbvc	r6, [sp, #-3423]!	; 0xfffff2a1
 ed4:	6e6f635f 	mcrvs	3, 3, r6, cr15, cr15, {2}
 ed8:	00676966 	rsbeq	r6, r7, r6, ror #18
 edc:	61666564 	cmnvs	r6, r4, ror #10
 ee0:	5f746c75 	svcpl	0x00746c75
 ee4:	74726175 	ldrbtvc	r6, [r2], #-373	; 0xfffffe8b
 ee8:	63657300 	cmnvs	r5, #0, 6
 eec:	5f646e6f 	svcpl	0x00646e6f
 ef0:	6d617266 	sfmvs	f7, 2, [r1, #-408]!	; 0xfffffe68
 ef4:	64730065 	ldrbtvs	r0, [r3], #-101	; 0xffffff9b
 ef8:	745f7672 	ldrbvc	r7, [pc], #-1650	; f00 <SYS_MODE+0xee1>
 efc:	72656d69 	rsbvc	r6, r5, #6720	; 0x1a40
 f00:	746e695f 	strbtvc	r6, [lr], #-2399	; 0xfffff6a1
 f04:	61685f63 	cmnvs	r8, r3, ror #30
 f08:	656c646e 	strbvs	r6, [ip, #-1134]!	; 0xfffffb92
 f0c:	42700072 	rsbsmi	r0, r0, #114	; 0x72
 f10:	65666675 	strbvs	r6, [r6, #-1653]!	; 0xfffff98b
 f14:	69730072 	ldmdbvs	r3!, {r1, r4, r5, r6}^
 f18:	7000657a 	andvc	r6, r0, sl, ror r5
 f1c:	5f656761 	svcpl	0x00656761
 f20:	65736162 	ldrbvs	r6, [r3, #-354]!	; 0xfffffe9e
 f24:	72775f00 	rsbsvc	r5, r7, #0, 30
 f28:	00657469 	rsbeq	r7, r5, r9, ror #8
 f2c:	6c626174 	stfvse	f6, [r2], #-464	; 0xfffffe30
 f30:	61625f65 	cmnvs	r2, r5, ror #30
 f34:	5f006573 	svcpl	0x00006573
 f38:	5f6f695f 	svcpl	0x006f695f
 f3c:	63747570 	cmnvs	r4, #112, 10	; 0x1c000000
 f40:	00726168 	rsbseq	r6, r2, r8, ror #2
 f44:	68637261 	stmdavs	r3!, {r0, r5, r6, r9, ip, sp, lr}^
 f48:	626c745f 	rsbvs	r7, ip, #1593835520	; 0x5f000000
 f4c:	6e6f635f 	mcrvs	3, 3, r6, cr15, cr15, {2}
 f50:	5f676966 	svcpl	0x00676966
 f54:	72627474 	rsbvc	r7, r2, #116, 8	; 0x74000000
 f58:	72610030 	rsbvc	r0, r1, #48	; 0x30
 f5c:	745f6863 	ldrbvc	r6, [pc], #-2147	; f64 <SYS_MODE+0xf45>
 f60:	635f626c 	cmpvs	pc, #108, 4	; 0xc0000006
 f64:	69666e6f 	stmdbvs	r6!, {r0, r1, r2, r3, r5, r6, r9, sl, fp, sp, lr}^
 f68:	74745f67 	ldrbtvc	r5, [r4], #-3943	; 0xfffff099
 f6c:	00317262 	eorseq	r7, r1, r2, ror #4
 f70:	76726473 			; <UNDEFINED> instruction: 0x76726473
 f74:	6d69745f 	cfstrdvs	mvd7, [r9, #-380]!	; 0xfffffe84
 f78:	695f7265 	ldmdbvs	pc, {r0, r2, r5, r6, r9, ip, sp, lr}^	; <UNPREDICTABLE>
 f7c:	0074696e 	rsbseq	r6, r4, lr, ror #18
 f80:	72747461 	rsbsvc	r7, r4, #1627389952	; 0x61000000
 f84:	74756269 	ldrbtvc	r6, [r5], #-617	; 0xfffffd97
 f88:	72610065 	rsbvc	r0, r1, #101	; 0x65
 f8c:	745f6863 	ldrbvc	r6, [pc], #-2147	; f94 <SYS_MODE+0xf75>
 f90:	635f626c 	cmpvs	pc, #108, 4	; 0xc0000006
 f94:	69666e6f 	stmdbvs	r6!, {r0, r1, r2, r3, r5, r6, r9, sl, fp, sp, lr}^
 f98:	74745f67 	ldrbtvc	r5, [r4], #-3943	; 0xfffff099
 f9c:	00726362 	rsbseq	r6, r2, r2, ror #6
 fa0:	6c626174 	stfvse	f6, [r2], #-464	; 0xfffffe30
 fa4:	72665f65 	rsbvc	r5, r6, #404	; 0x194
 fa8:	00656d61 	rsbeq	r6, r5, r1, ror #26

Disassembly of section .debug_loc:

00000000 <.debug_loc>:
	...
       8:	007d0002 	rsbseq	r0, sp, r2
	...
      14:	087d0002 	ldmdaeq	sp!, {r1}^
	...
      20:	187d0002 	ldmdane	sp!, {r1}^
	...
      2c:	087d0002 	ldmdaeq	sp!, {r1}^
	...
      44:	00500001 	subseq	r0, r0, r1
      48:	00000000 	andeq	r0, r0, r0
      4c:	01000000 	mrseq	r0, (UNDEF: 0)
      50:	00005400 	andeq	r5, r0, r0, lsl #8
      54:	00000000 	andeq	r0, r0, r0
      58:	00020000 	andeq	r0, r2, r0
	...
      64:	00020000 	andeq	r0, r2, r0
      68:	00009f30 	andeq	r9, r0, r0, lsr pc
      6c:	00000000 	andeq	r0, r0, r0
      70:	00010000 	andeq	r0, r1, r0
      74:	00000050 	andeq	r0, r0, r0, asr r0
      78:	00000000 	andeq	r0, r0, r0
      7c:	00071400 	andeq	r1, r7, r0, lsl #8
      80:	000718c2 	andeq	r1, r7, r2, asr #17
      84:	7d0002c2 	sfmvc	f0, 4, [r0, #-776]	; 0xfffffcf8
      88:	00071800 	andeq	r1, r7, r0, lsl #16
      8c:	000780c2 	andeq	r8, r7, r2, asr #1
      90:	7d0002c2 	sfmvc	f0, 4, [r0, #-776]	; 0xfffffcf8
      94:	00000008 	andeq	r0, r0, r8
	...
      a4:	7d000200 	sfmvc	f0, 4, [r0, #-0]
	...
      b0:	7d000200 	sfmvc	f0, 4, [r0, #-0]
      b4:	00000008 	andeq	r0, r0, r8
	...
      c8:	50000100 	andpl	r0, r0, r0, lsl #2
	...
      d4:	00540001 	subseq	r0, r4, r1
      d8:	00000000 	andeq	r0, r0, r0
      dc:	f0000000 			; <UNDEFINED> instruction: 0xf0000000
      e0:	f4c20007 	vst1.8	{d16[0]}, [r2], r7
      e4:	02c20007 	sbceq	r0, r2, #7
      e8:	f4007d00 			; <UNDEFINED> instruction: 0xf4007d00
      ec:	30c20007 	sbccc	r0, r2, r7
      f0:	02c20008 	sbceq	r0, r2, #8
      f4:	00107d00 	andseq	r7, r0, r0, lsl #26
	...
     100:	f0000000 			; <UNDEFINED> instruction: 0xf0000000
     104:	0fc20007 	svceq	0x00c20007
     108:	01c20008 	biceq	r0, r2, r8
     10c:	080f5000 	stmdaeq	pc, {ip, lr}	; <UNPREDICTABLE>
     110:	0830c200 	ldmdaeq	r0!, {r9, lr, pc}
     114:	0001c200 	andeq	ip, r1, r0, lsl #4
     118:	00000054 	andeq	r0, r0, r4, asr r0
	...
     124:	0007f000 	andeq	pc, r7, r0
     128:	00080fc2 	andeq	r0, r8, r2, asr #31
     12c:	510001c2 	smlabtpl	r0, r2, r1, r0
     130:	c200080f 	andgt	r0, r0, #983040	; 0xf0000
     134:	c2000830 	andgt	r0, r0, #48, 16	; 0x300000
     138:	01f30004 	mvnseq	r0, r4
     13c:	00009f51 	andeq	r9, r0, r1, asr pc
	...
     148:	07f00000 	ldrbeq	r0, [r0, r0]!
     14c:	080fc200 	stmdaeq	pc, {r9, lr, pc}	; <UNPREDICTABLE>
     150:	0001c200 	andeq	ip, r1, r0, lsl #4
     154:	00080f52 	andeq	r0, r8, r2, asr pc
     158:	000830c2 	andeq	r3, r8, r2, asr #1
     15c:	560001c2 	strpl	r0, [r0], -r2, asr #3
	...
     16c:	c20007f0 	andgt	r0, r0, #240, 14	; 0x3c00000
     170:	c200080f 	andgt	r0, r0, #983040	; 0xf0000
     174:	0f530001 	svceq	0x00530001
     178:	30c20008 	sbccc	r0, r2, r8
     17c:	01c20008 	biceq	r0, r2, r8
     180:	00005500 	andeq	r5, r0, r0, lsl #10
     184:	00000000 	andeq	r0, r0, r0
     188:	07ac0000 	streq	r0, [ip, r0]!
     18c:	07b0c200 	ldreq	ip, [r0, r0, lsl #4]!
     190:	0002c200 	andeq	ip, r2, r0, lsl #4
     194:	07b0007d 			; <UNDEFINED> instruction: 0x07b0007d
     198:	07f0c200 	ldrbeq	ip, [r0, r0, lsl #4]!
     19c:	0002c200 	andeq	ip, r2, r0, lsl #4
     1a0:	0000087d 	andeq	r0, r0, sp, ror r8
     1a4:	00000000 	andeq	r0, r0, r0
     1a8:	00020000 	andeq	r0, r2, r0
     1ac:	07b00000 	ldreq	r0, [r0, r0]!
     1b0:	07b8c200 	ldreq	ip, [r8, r0, lsl #4]!
     1b4:	0002c200 	andeq	ip, r2, r0, lsl #4
     1b8:	07b89f30 			; <UNDEFINED> instruction: 0x07b89f30
     1bc:	07e7c200 	strbeq	ip, [r7, r0, lsl #4]!
     1c0:	0001c200 	andeq	ip, r1, r0, lsl #4
     1c4:	00000053 	andeq	r0, r0, r3, asr r0
     1c8:	00000000 	andeq	r0, r0, r0
     1cc:	00078400 	andeq	r8, r7, r0, lsl #8
     1d0:	000788c2 	andeq	r8, r7, r2, asr #17
     1d4:	7d0002c2 	sfmvc	f0, 4, [r0, #-776]	; 0xfffffcf8
     1d8:	00078800 	andeq	r8, r7, r0, lsl #16
     1dc:	0007acc2 	andeq	sl, r7, r2, asr #25
     1e0:	7d0002c2 	sfmvc	f0, 4, [r0, #-776]	; 0xfffffcf8
     1e4:	00000008 	andeq	r0, r0, r8
	...
     1f0:	00078400 	andeq	r8, r7, r0, lsl #8
     1f4:	00078fc2 	andeq	r8, r7, r2, asr #31
     1f8:	500001c2 	andpl	r0, r0, r2, asr #3
     1fc:	c200078f 	andgt	r0, r0, #37486592	; 0x23c0000
     200:	c20007ac 	andgt	r0, r0, #172, 14	; 0x2b00000
     204:	00540001 	subseq	r0, r4, r1
	...
     218:	01000000 	mrseq	r0, (UNDEF: 0)
     21c:	00005000 	andeq	r5, r0, r0
     220:	00000000 	andeq	r0, r0, r0
     224:	00040000 	andeq	r0, r4, r0
     228:	9f5001f3 	svcls	0x005001f3
	...
     234:	00010102 	andeq	r0, r1, r2, lsl #2
	...
     240:	00020000 	andeq	r0, r2, r0
     244:	00009f30 	andeq	r9, r0, r0, lsr pc
     248:	00000000 	andeq	r0, r0, r0
     24c:	00050000 	andeq	r0, r5, r0
     250:	25350070 	ldrcs	r0, [r5, #-112]!	; 0xffffff90
     254:	0000009f 	muleq	r0, pc, r0	; <UNPREDICTABLE>
     258:	00000000 	andeq	r0, r0, r0
     25c:	f3000600 	vmax.u8	d0, d0, d0
     260:	25355001 	ldrcs	r5, [r5, #-1]!
     264:	0000009f 	muleq	r0, pc, r0	; <UNPREDICTABLE>
     268:	00000000 	andeq	r0, r0, r0
     26c:	00000300 	andeq	r0, r0, r0, lsl #6
	...
     278:	02000000 	andeq	r0, r0, #0
     27c:	009f3000 	addseq	r3, pc, r0
     280:	00000000 	andeq	r0, r0, r0
     284:	01000000 	mrseq	r0, (UNDEF: 0)
     288:	00005200 	andeq	r5, r0, r0, lsl #4
     28c:	00000000 	andeq	r0, r0, r0
     290:	00060000 	andeq	r0, r6, r0
     294:	4f5001f3 	svcmi	0x005001f3
     298:	00009f1a 	andeq	r9, r0, sl, lsl pc
	...
     2a4:	08b80000 	ldmeq	r8!, {}	; <UNPREDICTABLE>
     2a8:	08d0c200 	ldmeq	r0, {r9, lr, pc}^
     2ac:	0001c200 	andeq	ip, r1, r0, lsl #4
     2b0:	0008d050 	andeq	sp, r8, r0, asr r0
     2b4:	0008e0c2 	andeq	lr, r8, r2, asr #1
     2b8:	f30004c2 	vshl.u8	q0, q1, q8
     2bc:	009f5001 	addseq	r5, pc, r1
     2c0:	00000000 	andeq	r0, r0, r0
     2c4:	02000000 	andeq	r0, r0, #0
     2c8:	00000101 	andeq	r0, r0, r1, lsl #2
     2cc:	0008b800 	andeq	fp, r8, r0, lsl #16
     2d0:	0008c0c2 	andeq	ip, r8, r2, asr #1
     2d4:	300002c2 	andcc	r0, r0, r2, asr #5
     2d8:	0008c09f 	muleq	r8, pc, r0	; <UNPREDICTABLE>
     2dc:	0008d0c2 	andeq	sp, r8, r2, asr #1
     2e0:	700005c2 	andvc	r0, r0, r2, asr #11
     2e4:	9f253500 	svcls	0x00253500
     2e8:	c20008d0 	andgt	r0, r0, #208, 16	; 0xd00000
     2ec:	c20008e0 	andgt	r0, r0, #224, 16	; 0xe00000
     2f0:	01f30006 	mvnseq	r0, r6
     2f4:	9f253550 	svcls	0x00253550
	...
     300:	00000003 	andeq	r0, r0, r3
     304:	08b80000 	ldmeq	r8!, {}	; <UNPREDICTABLE>
     308:	08c4c200 	stmiaeq	r4, {r9, lr, pc}^
     30c:	0002c200 	andeq	ip, r2, r0, lsl #4
     310:	08c49f30 	stmiaeq	r4, {r4, r5, r8, r9, sl, fp, ip, pc}^
     314:	08d4c200 	ldmeq	r4, {r9, lr, pc}^
     318:	0001c200 	andeq	ip, r1, r0, lsl #4
     31c:	0008d452 	andeq	sp, r8, r2, asr r4
     320:	0008e0c2 	andeq	lr, r8, r2, asr #1
     324:	f30006c2 	vmax.u8	q0, q8, q1
     328:	1a4f5001 	bne	13d4334 <SYS_MODE+0x13d4315>
     32c:	0000009f 	muleq	r0, pc, r0	; <UNPREDICTABLE>
	...
     340:	50000100 	andpl	r0, r0, r0, lsl #2
	...
     34c:	01f30004 	mvnseq	r0, r4
     350:	00009f50 	andeq	r9, r0, r0, asr pc
     354:	00000000 	andeq	r0, r0, r0
     358:	01020000 	mrseq	r0, (UNDEF: 2)
     35c:	00000001 	andeq	r0, r0, r1
	...
     368:	9f300002 	svcls	0x00300002
	...
     374:	00700005 	rsbseq	r0, r0, r5
     378:	009f2535 	addseq	r2, pc, r5, lsr r5	; <UNPREDICTABLE>
     37c:	00000000 	andeq	r0, r0, r0
     380:	06000000 	streq	r0, [r0], -r0
     384:	5001f300 	andpl	pc, r1, r0, lsl #6
     388:	009f2535 	addseq	r2, pc, r5, lsr r5	; <UNPREDICTABLE>
     38c:	00000000 	andeq	r0, r0, r0
     390:	03000000 	movweq	r0, #0
	...
     3a0:	30000200 	andcc	r0, r0, r0, lsl #4
     3a4:	0000009f 	muleq	r0, pc, r0	; <UNPREDICTABLE>
     3a8:	00000000 	andeq	r0, r0, r0
     3ac:	52000100 	andpl	r0, r0, #0, 2
	...
     3b8:	01f30006 	mvnseq	r0, r6
     3bc:	9f1a4f50 	svcls	0x001a4f50
	...
     3cc:	c2000890 	andgt	r0, r0, #144, 16	; 0x900000
     3d0:	c20008a8 	andgt	r0, r0, #168, 16	; 0xa80000
     3d4:	a8500001 	ldmdage	r0, {r0}^
     3d8:	b8c20008 	stmialt	r2, {r3}^
     3dc:	04c20008 	strbeq	r0, [r2], #8
     3e0:	5001f300 	andpl	pc, r1, r0, lsl #6
     3e4:	0000009f 	muleq	r0, pc, r0	; <UNPREDICTABLE>
     3e8:	00000000 	andeq	r0, r0, r0
     3ec:	01010200 	mrseq	r0, R9_usr
     3f0:	90000000 	andls	r0, r0, r0
     3f4:	98c20008 	stmials	r2, {r3}^
     3f8:	02c20008 	sbceq	r0, r2, #8
     3fc:	989f3000 	ldmls	pc, {ip, sp}	; <UNPREDICTABLE>
     400:	a8c20008 	stmiage	r2, {r3}^
     404:	05c20008 	strbeq	r0, [r2, #8]
     408:	35007000 	strcc	r7, [r0, #-0]
     40c:	08a89f25 	stmiaeq	r8!, {r0, r2, r5, r8, r9, sl, fp, ip, pc}
     410:	08b8c200 	ldmeq	r8!, {r9, lr, pc}
     414:	0006c200 	andeq	ip, r6, r0, lsl #4
     418:	355001f3 	ldrbcc	r0, [r0, #-499]	; 0xfffffe0d
     41c:	00009f25 	andeq	r9, r0, r5, lsr #30
     420:	00000000 	andeq	r0, r0, r0
     424:	00030000 	andeq	r0, r3, r0
     428:	00000000 	andeq	r0, r0, r0
     42c:	c2000890 	andgt	r0, r0, #144, 16	; 0x900000
     430:	c200089c 	andgt	r0, r0, #156, 16	; 0x9c0000
     434:	9f300002 	svcls	0x00300002
     438:	c200089c 	andgt	r0, r0, #156, 16	; 0x9c0000
     43c:	c20008ac 	andgt	r0, r0, #172, 16	; 0xac0000
     440:	ac520001 	mrrcge	0, 0, r0, r2, cr1
     444:	b8c20008 	stmialt	r2, {r3}^
     448:	06c20008 	strbeq	r0, [r2], r8
     44c:	5001f300 	andpl	pc, r1, r0, lsl #6
     450:	009f1a4f 	addseq	r1, pc, pc, asr #20
	...
     45c:	68000000 	stmdavs	r0, {}	; <UNPREDICTABLE>
     460:	84c20008 	strbhi	r0, [r2], #8
     464:	01c20008 	biceq	r0, r2, r8
     468:	08845100 	stmeq	r4, {r8, ip, lr}
     46c:	0890c200 	ldmeq	r0, {r9, lr, pc}
     470:	0004c200 	andeq	ip, r4, r0, lsl #4
     474:	9f5101f3 	svcls	0x005101f3
	...
     480:	00000002 	andeq	r0, r0, r2
     484:	c2000830 	andgt	r0, r0, #48, 16	; 0x300000
     488:	c200083c 	andgt	r0, r0, #60, 16	; 0x3c0000
     48c:	9f300002 	svcls	0x00300002
     490:	c200083c 	andgt	r0, r0, #60, 16	; 0x3c0000
     494:	c2000868 	andgt	r0, r0, #104, 16	; 0x680000
     498:	00520001 	subseq	r0, r2, r1
     49c:	00000000 	andeq	r0, r0, r0
     4a0:	03000000 	movweq	r0, #0
     4a4:	00000000 	andeq	r0, r0, r0
     4a8:	00083000 	andeq	r3, r8, r0
     4ac:	00084cc2 	andeq	r4, r8, r2, asr #25
     4b0:	300002c2 	andcc	r0, r0, r2, asr #5
     4b4:	00084c9f 	muleq	r8, pc, ip	; <UNPREDICTABLE>
     4b8:	000850c2 	andeq	r5, r8, r2, asr #1
     4bc:	530001c2 	movwpl	r0, #450	; 0x1c2
     4c0:	c200085c 	andgt	r0, r0, #92, 16	; 0x5c0000
     4c4:	c2000868 	andgt	r0, r0, #104, 16	; 0x680000
     4c8:	00530001 	subseq	r0, r3, r1
     4cc:	00000000 	andeq	r0, r0, r0
     4d0:	01000000 	mrseq	r0, (UNDEF: 0)
     4d4:	000c0c00 	andeq	r0, ip, r0, lsl #24
     4d8:	000c20c2 	andeq	r2, ip, r2, asr #1
     4dc:	500001c2 	andpl	r0, r0, r2, asr #3
	...
     4e8:	0c0c0001 	stceq	0, cr0, [ip], {1}
     4ec:	0c20c200 	sfmeq	f4, 1, [r0], #-0
     4f0:	0001c200 	andeq	ip, r1, r0, lsl #4
     4f4:	00000051 	andeq	r0, r0, r1, asr r0
     4f8:	00000000 	andeq	r0, r0, r0
     4fc:	01010000 	mrseq	r0, (UNDEF: 1)
     500:	000c1000 	andeq	r1, ip, r0
     504:	000c10c2 	andeq	r1, ip, r2, asr #1
     508:	530001c2 	movwpl	r0, #450	; 0x1c2
     50c:	c2000c10 	andgt	r0, r0, #16, 24	; 0x1000
     510:	c2000c20 	andgt	r0, r0, #32, 24	; 0x2000
     514:	00730008 	rsbseq	r0, r3, r8
     518:	3324fe09 	msrcc	CPSR_s, #9, 28	; 0x90
     51c:	00009f25 	andeq	r9, r0, r5, lsr #30
     520:	00000000 	andeq	r0, r0, r0
     524:	0bdc0000 	bleq	ff70052c <__HeapLimit+0x3d6f352c>
     528:	0be0c200 	bleq	ff830d30 <__HeapLimit+0x3d823d30>
     52c:	0002c200 	andeq	ip, r2, r0, lsl #4
     530:	0be0007d 	bleq	ff80072c <__HeapLimit+0x3d7f372c>
     534:	0c0cc200 	sfmeq	f4, 1, [ip], {-0}
     538:	0002c200 	andeq	ip, r2, r0, lsl #4
     53c:	0000107d 	andeq	r1, r0, sp, ror r0
	...
     548:	0bdc0000 	bleq	ff700550 <__HeapLimit+0x3d6f3550>
     54c:	0befc200 	bleq	ffbf0d54 <__HeapLimit+0x3dbe3d54>
     550:	0001c200 	andeq	ip, r1, r0, lsl #4
     554:	000bef50 	andeq	lr, fp, r0, asr pc
     558:	000c0cc2 	andeq	r0, ip, r2, asr #25
     55c:	550001c2 	strpl	r0, [r0, #-450]	; 0xfffffe3e
	...
     56c:	c2000bdc 	andgt	r0, r0, #220, 22	; 0x37000
     570:	c2000bef 	andgt	r0, r0, #244736	; 0x3bc00
     574:	ef510001 	svc	0x00510001
     578:	0cc2000b 	stcleq	0, cr0, [r2], {11}
     57c:	01c2000c 	biceq	r0, r2, ip
     580:	00005400 	andeq	r5, r0, r0, lsl #8
     584:	00000000 	andeq	r0, r0, r0
     588:	0ac80000 	beq	ff200590 <__HeapLimit+0x3d1f3590>
     58c:	0accc200 	beq	ff330d94 <__HeapLimit+0x3d323d94>
     590:	0002c200 	andeq	ip, r2, r0, lsl #4
     594:	0acc007d 	beq	ff300790 <__HeapLimit+0x3d2f3790>
     598:	0ad0c200 	beq	ff430da0 <__HeapLimit+0x3d423da0>
     59c:	0002c200 	andeq	ip, r2, r0, lsl #4
     5a0:	0ad00c7d 	beq	ff40379c <__HeapLimit+0x3d3f679c>
     5a4:	0b9cc200 	bleq	fe730dac <__HeapLimit+0x3c723dac>
     5a8:	0002c200 	andeq	ip, r2, r0, lsl #4
     5ac:	0b9c187d 	bleq	fe7067a8 <__HeapLimit+0x3c6f97a8>
     5b0:	0ba0c200 	bleq	fe830db8 <__HeapLimit+0x3c823db8>
     5b4:	0002c200 	andeq	ip, r2, r0, lsl #4
     5b8:	0ba00c7d 	bleq	fe8037b4 <__HeapLimit+0x3c7f67b4>
     5bc:	0bdcc200 	bleq	ff730dc4 <__HeapLimit+0x3d723dc4>
     5c0:	0002c200 	andeq	ip, r2, r0, lsl #4
     5c4:	0000187d 	andeq	r1, r0, sp, ror r8
	...
     5d0:	0ac80000 	beq	ff2005d8 <__HeapLimit+0x3d1f35d8>
     5d4:	0af0c200 	beq	ffc30ddc <__HeapLimit+0x3dc23ddc>
     5d8:	0001c200 	andeq	ip, r1, r0, lsl #4
     5dc:	000af050 	andeq	pc, sl, r0, asr r0	; <UNPREDICTABLE>
     5e0:	000bdcc2 	andeq	sp, fp, r2, asr #25
     5e4:	540001c2 	strpl	r0, [r0], #-450	; 0xfffffe3e
	...
     5f4:	c2000ac8 	andgt	r0, r0, #200, 20	; 0xc8000
     5f8:	c2000af3 	andgt	r0, r0, #995328	; 0xf3000
     5fc:	f3510001 	vhadd.u16	d16, d1, d1
     600:	dcc2000a 	stclle	0, cr0, [r2], {10}
     604:	01c2000b 	biceq	r0, r2, fp
     608:	00005500 	andeq	r5, r0, r0, lsl #10
     60c:	00000000 	andeq	r0, r0, r0
     610:	00010000 	andeq	r0, r1, r0
	...
     61c:	00010100 	andeq	r0, r1, r0, lsl #2
     620:	00000000 	andeq	r0, r0, r0
     624:	02010100 	andeq	r0, r1, #0, 2
     628:	01000002 	tsteq	r0, r2
     62c:	00020201 	andeq	r0, r2, r1, lsl #4
     630:	0ad80000 	beq	ff600638 <__HeapLimit+0x3d5f3638>
     634:	0b10c200 	bleq	430e3c <SYS_MODE+0x430e1d>
     638:	0002c200 	andeq	ip, r2, r0, lsl #4
     63c:	0b109f30 	bleq	428304 <SYS_MODE+0x4282e5>
     640:	0b14c200 	bleq	530e48 <SYS_MODE+0x530e29>
     644:	0001c200 	andeq	ip, r1, r0, lsl #4
     648:	000b1451 	andeq	r1, fp, r1, asr r4
     64c:	000b1cc2 	andeq	r1, fp, r2, asr #25
     650:	530001c2 	movwpl	r0, #450	; 0x1c2
     654:	c2000b1c 	andgt	r0, r0, #28, 22	; 0x7000
     658:	c2000b20 	andgt	r0, r0, #32, 22	; 0x8000
     65c:	08740002 	ldmdaeq	r4!, {r1}^
     660:	c2000b20 	andgt	r0, r0, #32, 22	; 0x8000
     664:	c2000b48 	andgt	r0, r0, #72, 22	; 0x12000
     668:	00710005 	rsbseq	r0, r1, r5
     66c:	489f2140 	ldmmi	pc, {r6, r8, sp}	; <UNPREDICTABLE>
     670:	88c2000b 	stmiahi	r2, {r0, r1, r3}^
     674:	01c2000b 	biceq	r0, r2, fp
     678:	0b885300 	bleq	fe215280 <__HeapLimit+0x3c208280>
     67c:	0b8cc200 	bleq	fe330e84 <__HeapLimit+0x3c323e84>
     680:	0007c200 	andeq	ip, r7, r0, lsl #4
     684:	7f0b0073 	svcvc	0x000b0073
     688:	8c9f1aff 	vldmiahi	pc, {s2-s256}
     68c:	94c2000b 	strbls	r0, [r2], #11
     690:	01c2000b 	biceq	r0, r2, fp
     694:	0b945300 	bleq	fe51529c <__HeapLimit+0x3c50829c>
     698:	0b98c200 	bleq	fe630ea0 <__HeapLimit+0x3c623ea0>
     69c:	0002c200 	andeq	ip, r2, r0, lsl #4
     6a0:	0ba00c74 	bleq	fe803878 <__HeapLimit+0x3c7f6878>
     6a4:	0bccc200 	bleq	ff330eac <__HeapLimit+0x3d323eac>
     6a8:	0001c200 	andeq	ip, r1, r0, lsl #4
     6ac:	000bcc53 	andeq	ip, fp, r3, asr ip
     6b0:	000bccc2 	andeq	ip, fp, r2, asr #25
     6b4:	730005c2 	movwvc	r0, #1474	; 0x5c2
     6b8:	9f213800 	svcls	0x00213800
     6bc:	c2000bcc 	andgt	r0, r0, #204, 22	; 0x33000
     6c0:	c2000bd0 	andgt	r0, r0, #208, 22	; 0x34000
     6c4:	00730005 	rsbseq	r0, r3, r5
     6c8:	d09f2148 	addsle	r2, pc, r8, asr #2
     6cc:	d4c2000b 	strble	r0, [r2], #11
     6d0:	01c2000b 	biceq	r0, r2, fp
     6d4:	0bd45300 	bleq	ff5152dc <__HeapLimit+0x3d5082dc>
     6d8:	0bd4c200 	bleq	ff530ee0 <__HeapLimit+0x3d523ee0>
     6dc:	0005c200 	andeq	ip, r5, r0, lsl #4
     6e0:	21380073 	teqcs	r8, r3, ror r0
     6e4:	000bd49f 	muleq	fp, pc, r4	; <UNPREDICTABLE>
     6e8:	000bd8c2 	andeq	sp, fp, r2, asr #17
     6ec:	730008c2 	movwvc	r0, #2242	; 0x8c2
     6f0:	1aef0900 	bne	ffbc2af8 <__HeapLimit+0x3dbb5af8>
     6f4:	d89f2138 	ldmle	pc, {r3, r4, r5, r8, sp}	; <UNPREDICTABLE>
     6f8:	dcc2000b 	stclle	0, cr0, [r2], {11}
     6fc:	01c2000b 	biceq	r0, r2, fp
     700:	00005300 	andeq	r5, r0, r0, lsl #6
     704:	00000000 	andeq	r0, r0, r0
     708:	01010000 	mrseq	r0, (UNDEF: 1)
     70c:	00000001 	andeq	r0, r0, r1
     710:	c2000ad8 	andgt	r0, r0, #216, 20	; 0xd8000
     714:	c2000b10 	andgt	r0, r0, #16, 22	; 0x4000
     718:	9f300002 	svcls	0x00300002
     71c:	c2000b10 	andgt	r0, r0, #16, 22	; 0x4000
     720:	c2000b5c 	andgt	r0, r0, #92, 22	; 0x17000
     724:	00710008 	rsbseq	r0, r1, r8
     728:	3324ff09 	msrcc	CPSR_s, #9, 30	; 0x24
     72c:	0ba09f25 	bleq	fe8283c8 <__HeapLimit+0x3c81b3c8>
     730:	0ba8c200 	bleq	fea30f38 <__HeapLimit+0x3ca23f38>
     734:	0008c200 	andeq	ip, r8, r0, lsl #4
     738:	ff090071 			; <UNDEFINED> instruction: 0xff090071
     73c:	9f253324 	svcls	0x00253324
	...
     748:	c20009ec 	andgt	r0, r0, #236, 18	; 0x3b0000
     74c:	c20009f0 	andgt	r0, r0, #240, 18	; 0x3c0000
     750:	007d0002 	rsbseq	r0, sp, r2
     754:	c20009f0 	andgt	r0, r0, #240, 18	; 0x3c0000
     758:	c2000ac8 	andgt	r0, r0, #200, 20	; 0xc8000
     75c:	087d0002 	ldmdaeq	sp!, {r1}^
	...
     768:	00000001 	andeq	r0, r0, r1
     76c:	01000000 	mrseq	r0, (UNDEF: 0)
     770:	00000001 	andeq	r0, r0, r1
	...
     780:	09f00000 	ldmibeq	r0!, {}^	; <UNPREDICTABLE>
     784:	0a00c200 	beq	30f8c <SYS_MODE+0x30f6d>
     788:	0002c200 	andeq	ip, r2, r0, lsl #4
     78c:	0a009f30 	beq	28454 <SYS_MODE+0x28435>
     790:	0a10c200 	beq	430f98 <SYS_MODE+0x430f79>
     794:	0001c200 	andeq	ip, r1, r0, lsl #4
     798:	000a1053 	andeq	r1, sl, r3, asr r0
     79c:	000a14c2 	andeq	r1, sl, r2, asr #9
     7a0:	700002c2 	andvc	r0, r0, r2, asr #5
     7a4:	000a1808 	andeq	r1, sl, r8, lsl #16
     7a8:	000a24c2 	andeq	r2, sl, r2, asr #9
     7ac:	530001c2 	movwpl	r0, #450	; 0x1c2
     7b0:	c2000a24 	andgt	r0, r0, #36, 20	; 0x24000
     7b4:	c2000a34 	andgt	r0, r0, #52, 20	; 0x34000
     7b8:	9f360002 	svcls	0x00360002
     7bc:	c2000a34 	andgt	r0, r0, #52, 20	; 0x34000
     7c0:	c2000a60 	andgt	r0, r0, #96, 20	; 0x60000
     7c4:	60520001 	subsvs	r0, r2, r1
     7c8:	68c2000a 	stmiavs	r2, {r1, r3}^
     7cc:	01c2000a 	biceq	r0, r2, sl
     7d0:	0a685300 	beq	1a153d8 <SYS_MODE+0x1a153b9>
     7d4:	0a6cc200 	beq	1b30fdc <SYS_MODE+0x1b30fbd>
     7d8:	0002c200 	andeq	ip, r2, r0, lsl #4
     7dc:	0a7c0870 	beq	1f029a4 <SYS_MODE+0x1f02985>
     7e0:	0a90c200 	beq	fe430fe8 <__HeapLimit+0x3c423fe8>
     7e4:	0001c200 	andeq	ip, r1, r0, lsl #4
     7e8:	000a9053 	andeq	r9, sl, r3, asr r0
     7ec:	000a94c2 	andeq	r9, sl, r2, asr #9
     7f0:	700002c2 	andvc	r0, r0, r2, asr #5
     7f4:	000a9808 	andeq	r9, sl, r8, lsl #16
     7f8:	000ab0c2 	andeq	fp, sl, r2, asr #1
     7fc:	530001c2 	movwpl	r0, #450	; 0x1c2
     800:	c2000ab0 	andgt	r0, r0, #176, 20	; 0xb0000
     804:	c2000ab8 	andgt	r0, r0, #184, 20	; 0xb8000
     808:	9f360002 	svcls	0x00360002
     80c:	c2000ab8 	andgt	r0, r0, #184, 20	; 0xb8000
     810:	c2000ac8 	andgt	r0, r0, #200, 20	; 0xc8000
     814:	00530001 	subseq	r0, r3, r1
     818:	00000000 	andeq	r0, r0, r0
     81c:	01000000 	mrseq	r0, (UNDEF: 0)
     820:	f0000000 			; <UNDEFINED> instruction: 0xf0000000
     824:	f4c20009 	vst1.8	{d16[0]}, [r2], r9
     828:	02c20009 	sbceq	r0, r2, #9
     82c:	f49f3000 			; <UNDEFINED> instruction: 0xf49f3000
     830:	c8c20009 	stmiagt	r2, {r0, r3}^
     834:	01c2000a 	biceq	r0, r2, sl
     838:	00005c00 	andeq	r5, r0, r0, lsl #24
     83c:	00000000 	andeq	r0, r0, r0
     840:	00010000 	andeq	r0, r1, r0
     844:	09f00000 	ldmibeq	r0!, {}^	; <UNPREDICTABLE>
     848:	0a04c200 	beq	131050 <SYS_MODE+0x131031>
     84c:	0002c200 	andeq	ip, r2, r0, lsl #4
     850:	0a049f30 	beq	128518 <SYS_MODE+0x1284f9>
     854:	0ac8c200 	beq	ff23105c <__HeapLimit+0x3d22405c>
     858:	0001c200 	andeq	ip, r1, r0, lsl #4
     85c:	00000054 	andeq	r0, r0, r4, asr r0
     860:	00000000 	andeq	r0, r0, r0
     864:	00000100 	andeq	r0, r0, r0, lsl #2
     868:	0009f000 	andeq	pc, r9, r0
     86c:	000a1cc2 	andeq	r1, sl, r2, asr #25
     870:	300002c2 	andcc	r0, r0, r2, asr #5
     874:	000a1c9f 	muleq	sl, pc, ip	; <UNPREDICTABLE>
     878:	000ac8c2 	andeq	ip, sl, r2, asr #17
     87c:	5e0001c2 	adfpldm	f0, f0, f2
	...
     888:	00000002 	andeq	r0, r0, r2
     88c:	09c80000 	stmibeq	r8, {}^	; <UNPREDICTABLE>
     890:	09ccc200 	stmibeq	ip, {r9, lr, pc}^
     894:	0002c200 	andeq	ip, r2, r0, lsl #4
     898:	09cc9f30 	stmibeq	ip, {r4, r5, r8, r9, sl, fp, ip, pc}^
     89c:	09d8c200 	ldmibeq	r8, {r9, lr, pc}^
     8a0:	0001c200 	andeq	ip, r1, r0, lsl #4
     8a4:	0009d853 	andeq	sp, r9, r3, asr r8
     8a8:	0009ecc2 	andeq	lr, r9, r2, asr #25
     8ac:	700003c2 	andvc	r0, r0, r2, asr #7
     8b0:	000000d4 	ldrdeq	r0, [r0], -r4
     8b4:	00000000 	andeq	r0, r0, r0
     8b8:	00020000 	andeq	r0, r2, r0
     8bc:	09c80000 	stmibeq	r8, {}^	; <UNPREDICTABLE>
     8c0:	09dcc200 	ldmibeq	ip, {r9, lr, pc}^
     8c4:	0002c200 	andeq	ip, r2, r0, lsl #4
     8c8:	09dc9f30 	ldmibeq	ip, {r4, r5, r8, r9, sl, fp, ip, pc}^
     8cc:	09ecc200 	stmibeq	ip!, {r9, lr, pc}^
     8d0:	0001c200 	andeq	ip, r1, r0, lsl #4
     8d4:	00000053 	andeq	r0, r0, r3, asr r0
     8d8:	00000000 	andeq	r0, r0, r0
     8dc:	00095000 	andeq	r5, r9, r0
     8e0:	000954c2 	andeq	r5, r9, r2, asr #9
     8e4:	7d0002c2 	sfmvc	f0, 4, [r0, #-776]	; 0xfffffcf8
     8e8:	00095400 	andeq	r5, r9, r0, lsl #8
     8ec:	0009c8c2 	andeq	ip, r9, r2, asr #17
     8f0:	7d0002c2 	sfmvc	f0, 4, [r0, #-776]	; 0xfffffcf8
     8f4:	00000010 	andeq	r0, r0, r0, lsl r0
	...
     900:	00095000 	andeq	r5, r9, r0
     904:	000964c2 	andeq	r6, r9, r2, asr #9
     908:	500001c2 	andpl	r0, r0, r2, asr #3
     90c:	c2000964 	andgt	r0, r0, #100, 18	; 0x190000
     910:	c20009c8 	andgt	r0, r0, #200, 18	; 0x320000
     914:	00540001 	subseq	r0, r4, r1
	...
     924:	00095000 	andeq	r5, r9, r0
     928:	0009a4c2 	andeq	sl, r9, r2, asr #9
     92c:	510001c2 	smlabtpl	r0, r2, r1, r0
     930:	c20009a4 	andgt	r0, r0, #164, 18	; 0x290000
     934:	c20009c0 	andgt	r0, r0, #192, 18	; 0x300000
     938:	c0560001 	subsgt	r0, r6, r1
     93c:	c8c20009 	stmiagt	r2, {r0, r3}^
     940:	01c20009 	biceq	r0, r2, r9
     944:	00005100 	andeq	r5, r0, r0, lsl #2
	...
     954:	c2000950 	andgt	r0, r0, #80, 18	; 0x140000
     958:	c20009ac 	andgt	r0, r0, #172, 18	; 0x2b0000
     95c:	ac520001 	mrrcge	0, 0, r0, r2, cr1
     960:	c0c20009 	sbcgt	r0, r2, r9
     964:	01c20009 	biceq	r0, r2, r9
     968:	09c05500 	stmibeq	r0, {r8, sl, ip, lr}^
     96c:	09c8c200 	stmibeq	r8, {r9, lr, pc}^
     970:	0001c200 	andeq	ip, r1, r0, lsl #4
     974:	00000052 	andeq	r0, r0, r2, asr r0
     978:	00000000 	andeq	r0, r0, r0
     97c:	78000000 	stmdavc	r0, {}	; <UNPREDICTABLE>
     980:	a8c20009 	stmiage	r2, {r0, r3}^
     984:	01c20009 	biceq	r0, r2, r9
     988:	00005300 	andeq	r5, r0, r0, lsl #6
     98c:	00000000 	andeq	r0, r0, r0
     990:	00020000 	andeq	r0, r2, r0
	...
     99c:	9f310002 	svcls	0x00310002
	...
     9a8:	00000002 	andeq	r0, r0, r2
     9ac:	00000000 	andeq	r0, r0, r0
     9b0:	00010000 	andeq	r0, r1, r0
     9b4:	00000051 	andeq	r0, r0, r1, asr r0
     9b8:	00000000 	andeq	r0, r0, r0
     9bc:	00000200 	andeq	r0, r0, r0, lsl #4
     9c0:	00000000 	andeq	r0, r0, r0
     9c4:	03000000 	movweq	r0, #0
     9c8:	9f307000 	svcls	0x00307000
	...
     9d4:	00000004 	andeq	r0, r0, r4
	...
     9e0:	9f300002 	svcls	0x00300002
	...
     9ec:	00530001 	subseq	r0, r3, r1
     9f0:	00000000 	andeq	r0, r0, r0
     9f4:	02000000 	andeq	r0, r0, #0
     9f8:	000d4400 	andeq	r4, sp, r0, lsl #8
     9fc:	000d58c2 	andeq	r5, sp, r2, asr #17
     a00:	310002c2 	smlabtcc	r0, r2, r2, r0
     a04:	0000009f 	muleq	r0, pc, r0	; <UNPREDICTABLE>
     a08:	00000000 	andeq	r0, r0, r0
     a0c:	44000200 	strmi	r0, [r0], #-512	; 0xfffffe00
     a10:	58c2000d 	stmiapl	r2, {r0, r2, r3}^
     a14:	01c2000d 	biceq	r0, r2, sp
     a18:	00005100 	andeq	r5, r0, r0, lsl #2
     a1c:	00000000 	andeq	r0, r0, r0
     a20:	00020000 	andeq	r0, r2, r0
     a24:	c2000d44 	andgt	r0, r0, #68, 26	; 0x1100
     a28:	c2000d58 	andgt	r0, r0, #88, 26	; 0x1600
     a2c:	2c700003 	ldclcs	0, cr0, [r0], #-12
     a30:	0000009f 	muleq	r0, pc, r0	; <UNPREDICTABLE>
     a34:	00000000 	andeq	r0, r0, r0
     a38:	00000400 	andeq	r0, r0, r0, lsl #8
     a3c:	000d4400 	andeq	r4, sp, r0, lsl #8
     a40:	000d48c2 	andeq	r4, sp, r2, asr #17
     a44:	300002c2 	andcc	r0, r0, r2, asr #5
     a48:	000d489f 	muleq	sp, pc, r8	; <UNPREDICTABLE>
     a4c:	000d58c2 	andeq	r5, sp, r2, asr #17
     a50:	530001c2 	movwpl	r0, #450	; 0x1c2
	...
     a5c:	0d280002 	stceq	0, cr0, [r8, #-8]!
     a60:	0d3cc200 	lfmeq	f4, 1, [ip, #-0]
     a64:	0002c200 	andeq	ip, r2, r0, lsl #4
     a68:	00009f31 	andeq	r9, r0, r1, lsr pc
     a6c:	00000000 	andeq	r0, r0, r0
     a70:	00020000 	andeq	r0, r2, r0
     a74:	c2000d28 	andgt	r0, r0, #40, 26	; 0xa00
     a78:	c2000d3c 	andgt	r0, r0, #60, 26	; 0xf00
     a7c:	00510001 	subseq	r0, r1, r1
     a80:	00000000 	andeq	r0, r0, r0
     a84:	02000000 	andeq	r0, r0, #0
     a88:	000d2800 	andeq	r2, sp, r0, lsl #16
     a8c:	000d3cc2 	andeq	r3, sp, r2, asr #25
     a90:	700003c2 	andvc	r0, r0, r2, asr #7
     a94:	00009f28 	andeq	r9, r0, r8, lsr #30
     a98:	00000000 	andeq	r0, r0, r0
     a9c:	00040000 	andeq	r0, r4, r0
     aa0:	0d280000 	stceq	0, cr0, [r8, #-0]
     aa4:	0d2cc200 	sfmeq	f4, 1, [ip, #-0]
     aa8:	0002c200 	andeq	ip, r2, r0, lsl #4
     aac:	0d2c9f30 	stceq	15, cr9, [ip, #-192]!	; 0xffffff40
     ab0:	0d3cc200 	lfmeq	f4, 1, [ip, #-0]
     ab4:	0001c200 	andeq	ip, r1, r0, lsl #4
     ab8:	00000053 	andeq	r0, r0, r3, asr r0
	...
     ac8:	7d000200 	sfmvc	f0, 4, [r0, #-0]
	...
     ad4:	7d000200 	sfmvc	f0, 4, [r0, #-0]
     ad8:	00000010 	andeq	r0, r0, r0, lsl r0
	...
     aec:	50000100 	andpl	r0, r0, r0, lsl #2
	...
     af8:	00540001 	subseq	r0, r4, r1
	...
     b0c:	01000000 	mrseq	r0, (UNDEF: 0)
     b10:	00005100 	andeq	r5, r0, r0, lsl #2
     b14:	00000000 	andeq	r0, r0, r0
     b18:	00010000 	andeq	r0, r1, r0
     b1c:	00000055 	andeq	r0, r0, r5, asr r0
     b20:	00000000 	andeq	r0, r0, r0
     b24:	000d0c00 	andeq	r0, sp, r0, lsl #24
     b28:	000d10c2 	andeq	r1, sp, r2, asr #1
     b2c:	7d0002c2 	sfmvc	f0, 4, [r0, #-776]	; 0xfffffcf8
     b30:	000d1000 	andeq	r1, sp, r0
     b34:	000d28c2 	andeq	r2, sp, r2, asr #17
     b38:	7d0002c2 	sfmvc	f0, 4, [r0, #-776]	; 0xfffffcf8
     b3c:	00000010 	andeq	r0, r0, r0, lsl r0
	...
     b48:	000d0c00 	andeq	r0, sp, r0, lsl #24
     b4c:	000d1fc2 	andeq	r1, sp, r2, asr #31
     b50:	500001c2 	andpl	r0, r0, r2, asr #3
     b54:	c2000d1f 	andgt	r0, r0, #1984	; 0x7c0
     b58:	c2000d28 	andgt	r0, r0, #40, 26	; 0xa00
     b5c:	00540001 	subseq	r0, r4, r1
	...
     b68:	0c000000 	stceq	0, cr0, [r0], {-0}
     b6c:	1cc2000d 	stclne	0, cr0, [r2], {13}
     b70:	01c2000d 	biceq	r0, r2, sp
     b74:	0d1c5100 	ldfeqs	f5, [ip, #-0]
     b78:	0d28c200 	sfmeq	f4, 1, [r8, #-0]
     b7c:	0001c200 	andeq	ip, r1, r0, lsl #4
     b80:	00000055 	andeq	r0, r0, r5, asr r0
     b84:	00000000 	andeq	r0, r0, r0
     b88:	000cf000 	andeq	pc, ip, r0
     b8c:	000cf4c2 	andeq	pc, ip, r2, asr #9
     b90:	7d0002c2 	sfmvc	f0, 4, [r0, #-776]	; 0xfffffcf8
     b94:	000cf400 	andeq	pc, ip, r0, lsl #8
     b98:	000d0cc2 	andeq	r0, sp, r2, asr #25
     b9c:	7d0002c2 	sfmvc	f0, 4, [r0, #-776]	; 0xfffffcf8
     ba0:	00000010 	andeq	r0, r0, r0, lsl r0
	...
     bac:	000cf000 	andeq	pc, ip, r0
     bb0:	000d03c2 	andeq	r0, sp, r2, asr #7
     bb4:	500001c2 	andpl	r0, r0, r2, asr #3
     bb8:	c2000d03 	andgt	r0, r0, #3, 26	; 0xc0
     bbc:	c2000d0c 	andgt	r0, r0, #12, 26	; 0x300
     bc0:	00540001 	subseq	r0, r4, r1
	...
     bcc:	f0000000 			; <UNDEFINED> instruction: 0xf0000000
     bd0:	00c2000c 	sbceq	r0, r2, ip
     bd4:	01c2000d 	biceq	r0, r2, sp
     bd8:	0d005100 	stfeqs	f5, [r0, #-0]
     bdc:	0d0cc200 	sfmeq	f4, 1, [ip, #-0]
     be0:	0001c200 	andeq	ip, r1, r0, lsl #4
     be4:	00000055 	andeq	r0, r0, r5, asr r0
	...
     bf4:	7d000200 	sfmvc	f0, 4, [r0, #-0]
	...
     c00:	7d000200 	sfmvc	f0, 4, [r0, #-0]
     c04:	00000008 	andeq	r0, r0, r8
	...
     c18:	50000100 	andpl	r0, r0, r0, lsl #2
	...
     c24:	00540001 	subseq	r0, r4, r1
     c28:	00000000 	andeq	r0, r0, r0
     c2c:	01000000 	mrseq	r0, (UNDEF: 0)
	...
     c38:	30000200 	andcc	r0, r0, r0, lsl #4
     c3c:	0000009f 	muleq	r0, pc, r0	; <UNPREDICTABLE>
     c40:	00000000 	andeq	r0, r0, r0
     c44:	00000100 	andeq	r0, r0, r0, lsl #2
     c48:	00000000 	andeq	r0, r0, r0
     c4c:	02000000 	andeq	r0, r0, #0
     c50:	009f3100 	addseq	r3, pc, r0, lsl #2
     c54:	00000000 	andeq	r0, r0, r0
     c58:	01000000 	mrseq	r0, (UNDEF: 0)
	...
     c64:	35000200 	strcc	r0, [r0, #-512]	; 0xfffffe00
     c68:	0000009f 	muleq	r0, pc, r0	; <UNPREDICTABLE>
     c6c:	00000000 	andeq	r0, r0, r0
     c70:	00000100 	andeq	r0, r0, r0, lsl #2
     c74:	00000000 	andeq	r0, r0, r0
     c78:	03000000 	movweq	r0, #0
     c7c:	9f387400 	svcls	0x00387400
	...
     c88:	00000003 	andeq	r0, r0, r3
	...
     c94:	9f300002 	svcls	0x00300002
	...
     ca0:	00530001 	subseq	r0, r3, r1
	...
     cb0:	02000000 	andeq	r0, r0, #0
     cb4:	00007d00 	andeq	r7, r0, r0, lsl #26
     cb8:	00000000 	andeq	r0, r0, r0
     cbc:	02000000 	andeq	r0, r0, #0
     cc0:	00107d00 	andseq	r7, r0, r0, lsl #26
	...
     cd4:	01000000 	mrseq	r0, (UNDEF: 0)
     cd8:	00005000 	andeq	r5, r0, r0
     cdc:	00000000 	andeq	r0, r0, r0
     ce0:	00010000 	andeq	r0, r1, r0
     ce4:	00000055 	andeq	r0, r0, r5, asr r0
	...
     cf8:	01000000 	mrseq	r0, (UNDEF: 0)
     cfc:	00005100 	andeq	r5, r0, r0, lsl #2
     d00:	00000000 	andeq	r0, r0, r0
     d04:	00010000 	andeq	r0, r1, r0
     d08:	00000054 	andeq	r0, r0, r4, asr r0
     d0c:	00000000 	andeq	r0, r0, r0
     d10:	f3000400 	vshl.u8	d0, d0, d0
     d14:	009f5101 	addseq	r5, pc, r1, lsl #2
     d18:	00000000 	andeq	r0, r0, r0
     d1c:	01000000 	mrseq	r0, (UNDEF: 0)
	...
     d2c:	02000000 	andeq	r0, r0, #0
     d30:	009f3000 	addseq	r3, pc, r0
     d34:	00000000 	andeq	r0, r0, r0
     d38:	01000000 	mrseq	r0, (UNDEF: 0)
     d3c:	00005300 	andeq	r5, r0, r0, lsl #6
     d40:	00000000 	andeq	r0, r0, r0
     d44:	00010000 	andeq	r0, r1, r0
     d48:	00000053 	andeq	r0, r0, r3, asr r0
     d4c:	00000000 	andeq	r0, r0, r0
     d50:	54000100 	strpl	r0, [r0], #-256	; 0xffffff00
	...
     d5c:	c2000c98 	andgt	r0, r0, #152, 24	; 0x9800
     d60:	c2000c9c 	andgt	r0, r0, #156, 24	; 0x9c00
     d64:	007d0002 	rsbseq	r0, sp, r2
     d68:	c2000c9c 	andgt	r0, r0, #156, 24	; 0x9c00
     d6c:	c2000cf0 	andgt	r0, r0, #240, 24	; 0xf000
     d70:	107d0002 	rsbsne	r0, sp, r2
	...
     d80:	c2000c98 	andgt	r0, r0, #152, 24	; 0x9800
     d84:	c2000cab 	andgt	r0, r0, #43776	; 0xab00
     d88:	ab500001 	blge	1400d94 <SYS_MODE+0x1400d75>
     d8c:	f0c2000c 			; <UNDEFINED> instruction: 0xf0c2000c
     d90:	01c2000c 	biceq	r0, r2, ip
     d94:	00005400 	andeq	r5, r0, r0, lsl #8
	...
     da0:	0c980000 	ldceq	0, cr0, [r8], {0}
     da4:	0ca8c200 	sfmeq	f4, 1, [r8]
     da8:	0001c200 	andeq	ip, r1, r0, lsl #4
     dac:	000ca851 	andeq	sl, ip, r1, asr r8
     db0:	000cf0c2 	andeq	pc, ip, r2, asr #1
     db4:	550001c2 	strpl	r0, [r0, #-450]	; 0xfffffe3e
	...
     dc0:	01000001 	tsteq	r0, r1
     dc4:	00000001 	andeq	r0, r0, r1
     dc8:	00010100 	andeq	r0, r1, r0, lsl #2
     dcc:	0ca40000 	stceq	0, cr0, [r4]
     dd0:	0cb0c200 	lfmeq	f4, 1, [r0]
     dd4:	0002c200 	andeq	ip, r2, r0, lsl #4
     dd8:	0cb09f30 	ldceq	15, cr9, [r0], #192	; 0xc0
     ddc:	0cb0c200 	lfmeq	f4, 1, [r0]
     de0:	0001c200 	andeq	ip, r1, r0, lsl #4
     de4:	000cb053 	andeq	fp, ip, r3, asr r0
     de8:	000cb4c2 	andeq	fp, ip, r2, asr #9
     dec:	730006c2 	movwvc	r0, #1730	; 0x6c2
     df0:	1afd0900 	bne	fff431f8 <__HeapLimit+0x3df361f8>
     df4:	000cb49f 	muleq	ip, pc, r4	; <UNPREDICTABLE>
     df8:	000cc3c2 	andeq	ip, ip, r2, asr #7
     dfc:	530001c2 	movwpl	r0, #450	; 0x1c2
     e00:	c2000cc8 	andgt	r0, r0, #200, 24	; 0xc800
     e04:	c2000ce0 	andgt	r0, r0, #224, 24	; 0xe000
     e08:	e0530001 	subs	r0, r3, r1
     e0c:	e4c2000c 	strb	r0, [r2], #12
     e10:	05c2000c 	strbeq	r0, [r2, #12]
     e14:	32007300 	andcc	r7, r0, #0, 6
     e18:	0ce49f21 	stcleq	15, cr9, [r4], #132	; 0x84
     e1c:	0cf0c200 	lfmeq	f4, 3, [r0]
     e20:	0001c200 	andeq	ip, r1, r0, lsl #4
     e24:	00000053 	andeq	r0, r0, r3, asr r0
	...
     e34:	7d000200 	sfmvc	f0, 4, [r0, #-0]
	...
     e40:	7d000200 	sfmvc	f0, 4, [r0, #-0]
     e44:	00000008 	andeq	r0, r0, r8
	...
     e58:	50000100 	andpl	r0, r0, r0, lsl #2
	...
     e64:	00540001 	subseq	r0, r4, r1
     e68:	00000000 	andeq	r0, r0, r0
     e6c:	01000000 	mrseq	r0, (UNDEF: 0)
	...
     e78:	30000200 	andcc	r0, r0, r0, lsl #4
     e7c:	0000009f 	muleq	r0, pc, r0	; <UNPREDICTABLE>
     e80:	00000000 	andeq	r0, r0, r0
     e84:	00000100 	andeq	r0, r0, r0, lsl #2
     e88:	00000000 	andeq	r0, r0, r0
     e8c:	02000000 	andeq	r0, r0, #0
     e90:	009f3100 	addseq	r3, pc, r0, lsl #2
     e94:	00000000 	andeq	r0, r0, r0
     e98:	01000000 	mrseq	r0, (UNDEF: 0)
	...
     ea4:	74000300 	strvc	r0, [r0], #-768	; 0xfffffd00
     ea8:	00009f38 	andeq	r9, r0, r8, lsr pc
     eac:	00000000 	andeq	r0, r0, r0
     eb0:	00030000 	andeq	r0, r3, r0
	...
     ebc:	00020000 	andeq	r0, r2, r0
     ec0:	00009f30 	andeq	r9, r0, r0, lsr pc
     ec4:	00000000 	andeq	r0, r0, r0
     ec8:	00010000 	andeq	r0, r1, r0
     ecc:	00000053 	andeq	r0, r0, r3, asr r0
     ed0:	00000000 	andeq	r0, r0, r0
     ed4:	000c7800 	andeq	r7, ip, r0, lsl #16
     ed8:	000c7cc2 	andeq	r7, ip, r2, asr #25
     edc:	7d0002c2 	sfmvc	f0, 4, [r0, #-776]	; 0xfffffcf8
     ee0:	000c7c00 	andeq	r7, ip, r0, lsl #24
     ee4:	000c98c2 	andeq	r9, ip, r2, asr #17
     ee8:	7d0002c2 	sfmvc	f0, 4, [r0, #-776]	; 0xfffffcf8
     eec:	00000008 	andeq	r0, r0, r8
	...
     ef8:	000c7800 	andeq	r7, ip, r0, lsl #16
     efc:	000c87c2 	andeq	r8, ip, r2, asr #15
     f00:	500001c2 	andpl	r0, r0, r2, asr #3
     f04:	c2000c87 	andgt	r0, r0, #34560	; 0x8700
     f08:	c2000c98 	andgt	r0, r0, #152, 24	; 0x9800
     f0c:	00540001 	subseq	r0, r4, r1
     f10:	00000000 	andeq	r0, r0, r0
     f14:	01000000 	mrseq	r0, (UNDEF: 0)
     f18:	000c8800 	andeq	r8, ip, r0, lsl #16
     f1c:	000c94c2 	andeq	r9, ip, r2, asr #9
     f20:	310002c2 	smlabtcc	r0, r2, r2, r0
     f24:	0000009f 	muleq	r0, pc, r0	; <UNPREDICTABLE>
     f28:	00000000 	andeq	r0, r0, r0
     f2c:	88000100 	stmdahi	r0, {r8}
     f30:	94c2000c 	strbls	r0, [r2], #12
     f34:	02c2000c 	sbceq	r0, r2, #12
     f38:	009f3000 	addseq	r3, pc, r0
     f3c:	00000000 	andeq	r0, r0, r0
     f40:	01000000 	mrseq	r0, (UNDEF: 0)
     f44:	000c8800 	andeq	r8, ip, r0, lsl #16
     f48:	000c94c2 	andeq	r9, ip, r2, asr #9
     f4c:	740003c2 	strvc	r0, [r0], #-962	; 0xfffffc3e
     f50:	00009f38 	andeq	r9, r0, r8, lsr pc
     f54:	00000000 	andeq	r0, r0, r0
     f58:	00030000 	andeq	r0, r3, r0
     f5c:	00010100 	andeq	r0, r1, r0, lsl #2
     f60:	0c880000 	stceq	0, cr0, [r8], {0}
     f64:	0c8cc200 	sfmeq	f4, 1, [ip], {0}
     f68:	0002c200 	andeq	ip, r2, r0, lsl #4
     f6c:	0c8c9f30 	stceq	15, cr9, [ip], {48}	; 0x30
     f70:	0c8cc200 	sfmeq	f4, 1, [ip], {0}
     f74:	0001c200 	andeq	ip, r1, r0, lsl #4
     f78:	000c8c53 	andeq	r8, ip, r3, asr ip
     f7c:	000c90c2 	andeq	r9, ip, r2, asr #1
     f80:	730006c2 	movwvc	r0, #1730	; 0x6c2
     f84:	1afe0900 	bne	fff8338c <__HeapLimit+0x3df7638c>
     f88:	000c909f 	muleq	ip, pc, r0	; <UNPREDICTABLE>
     f8c:	000c94c2 	andeq	r9, ip, r2, asr #9
     f90:	530001c2 	movwpl	r0, #450	; 0x1c2
	...
     f9c:	00000002 	andeq	r0, r0, r2
     fa0:	0c4c0000 	mareq	acc0, r0, ip
     fa4:	0c64c200 	sfmeq	f4, 3, [r4], #-0
     fa8:	0002c200 	andeq	ip, r2, r0, lsl #4
     fac:	0c649f31 	stcleq	15, cr9, [r4], #-196	; 0xffffff3c
     fb0:	0c68c200 	sfmeq	f4, 3, [r8], #-0
     fb4:	0001c200 	andeq	ip, r1, r0, lsl #4
     fb8:	000c6c53 	andeq	r6, ip, r3, asr ip
     fbc:	000c78c2 	andeq	r7, ip, r2, asr #17
     fc0:	530001c2 	movwpl	r0, #450	; 0x1c2
	...
     fcc:	0c500000 	mraeq	r0, r0, acc0
     fd0:	0c64c200 	sfmeq	f4, 3, [r4], #-0
     fd4:	0002c200 	andeq	ip, r2, r0, lsl #4
     fd8:	00009f31 	andeq	r9, r0, r1, lsr pc
	...
     fe4:	c2000c50 	andgt	r0, r0, #80, 24	; 0x5000
     fe8:	c2000c64 	andgt	r0, r0, #100, 24	; 0x6400
     fec:	9f300002 	svcls	0x00300002
	...
     ff8:	01000002 	tsteq	r0, r2
     ffc:	00000001 	andeq	r0, r0, r1
    1000:	0c500000 	mraeq	r0, r0, acc0
    1004:	0c54c200 	lfmeq	f4, 3, [r4], {-0}
    1008:	0002c200 	andeq	ip, r2, r0, lsl #4
    100c:	0c549f30 	mrrceq	15, 3, r9, r4, cr0
    1010:	0c54c200 	lfmeq	f4, 3, [r4], {-0}
    1014:	0001c200 	andeq	ip, r1, r0, lsl #4
    1018:	000c5453 	andeq	r5, ip, r3, asr r4
    101c:	000c58c2 	andeq	r5, ip, r2, asr #17
    1020:	730006c2 	movwvc	r0, #1730	; 0x6c2
    1024:	1afe0900 	bne	fff8342c <__HeapLimit+0x3df7642c>
    1028:	000c589f 	muleq	ip, pc, r8	; <UNPREDICTABLE>
    102c:	000c60c2 	andeq	r6, ip, r2, asr #1
    1030:	530001c2 	movwpl	r0, #450	; 0x1c2
    1034:	c2000c60 	andgt	r0, r0, #96, 24	; 0x6000
    1038:	c2000c64 	andgt	r0, r0, #100, 24	; 0x6400
    103c:	00720002 	rsbseq	r0, r2, r2
	...
    1048:	00000002 	andeq	r0, r0, r2
    104c:	0c200000 	stceq	0, cr0, [r0], #-0
    1050:	0c34c200 	lfmeq	f4, 1, [r4], #-0
    1054:	0002c200 	andeq	ip, r2, r0, lsl #4
    1058:	0c349f31 	ldceq	15, cr9, [r4], #-196	; 0xffffff3c
    105c:	0c38c200 	lfmeq	f4, 1, [r8], #-0
    1060:	0001c200 	andeq	ip, r1, r0, lsl #4
    1064:	000c4053 	andeq	r4, ip, r3, asr r0
    1068:	000c4cc2 	andeq	r4, ip, r2, asr #25
    106c:	530001c2 	movwpl	r0, #450	; 0x1c2
	...
    1078:	c2000fa8 	andgt	r0, r0, #168, 30	; 0x2a0
    107c:	c2000fac 	andgt	r0, r0, #172, 30	; 0x2b0
    1080:	007d0002 	rsbseq	r0, sp, r2
    1084:	c2000fac 	andgt	r0, r0, #172, 30	; 0x2b0
    1088:	c2000fdc 	andgt	r0, r0, #220, 30	; 0x370
    108c:	087d0002 	ldmdaeq	sp!, {r1}^
	...
    1098:	c2000edc 	andgt	r0, r0, #220, 28	; 0xdc0
    109c:	c2000ee0 	andgt	r0, r0, #224, 28	; 0xe00
    10a0:	007d0002 	rsbseq	r0, sp, r2
    10a4:	c2000ee0 	andgt	r0, r0, #224, 28	; 0xe00
    10a8:	c2000f4c 	andgt	r0, r0, #76, 30	; 0x130
    10ac:	087d0002 	ldmdaeq	sp!, {r1}^
	...
    10bc:	c2000edc 	andgt	r0, r0, #220, 28	; 0xdc0
    10c0:	c2000ef7 	andgt	r0, r0, #3952	; 0xf70
    10c4:	f7500001 			; <UNDEFINED> instruction: 0xf7500001
    10c8:	4cc2000e 	stclmi	0, cr0, [r2], {14}
    10cc:	01c2000f 	biceq	r0, r2, pc
    10d0:	00005400 	andeq	r5, r0, r0, lsl #8
    10d4:	00000000 	andeq	r0, r0, r0
    10d8:	0ec00000 	cdpeq	0, 12, cr0, cr0, cr0, {0}
    10dc:	0ec4c200 	cdpeq	2, 12, cr12, cr4, cr0, {0}
    10e0:	0002c200 	andeq	ip, r2, r0, lsl #4
    10e4:	0ec4007d 	mcreq	0, 6, r0, cr4, cr13, {3}
    10e8:	0edcc200 	cdpeq	2, 13, cr12, cr12, cr0, {0}
    10ec:	0002c200 	andeq	ip, r2, r0, lsl #4
    10f0:	0000087d 	andeq	r0, r0, sp, ror r8
	...
    10fc:	0ec00000 	cdpeq	0, 12, cr0, cr0, cr0, {0}
    1100:	0ec7c200 	cdpeq	2, 12, cr12, cr7, cr0, {0}
    1104:	0001c200 	andeq	ip, r1, r0, lsl #4
    1108:	000ec750 	andeq	ip, lr, r0, asr r7
    110c:	000edcc2 	andeq	sp, lr, r2, asr #25
    1110:	f30004c2 	vshl.u8	q0, q1, q8
    1114:	009f5001 	addseq	r5, pc, r1
    1118:	00000000 	andeq	r0, r0, r0
    111c:	9c000000 	stcls	0, cr0, [r0], {-0}
    1120:	a0c2000f 	sbcge	r0, r2, pc
    1124:	02c2000f 	sbceq	r0, r2, #15
    1128:	a0007d00 	andge	r7, r0, r0, lsl #26
    112c:	a8c2000f 	stmiage	r2, {r0, r1, r2, r3}^
    1130:	02c2000f 	sbceq	r0, r2, #15
    1134:	00087d00 	andeq	r7, r8, r0, lsl #26
    1138:	00000000 	andeq	r0, r0, r0
    113c:	5c000000 	stcpl	0, cr0, [r0], {-0}
    1140:	60c2000d 	sbcvs	r0, r2, sp
    1144:	02c2000d 	sbceq	r0, r2, #13
    1148:	60007d00 	andvs	r7, r0, r0, lsl #26
    114c:	c0c2000d 	sbcgt	r0, r2, sp
    1150:	02c2000e 	sbceq	r0, r2, #14
    1154:	00087d00 	andeq	r7, r8, r0, lsl #26
    1158:	00000000 	andeq	r0, r0, r0
    115c:	01000000 	mrseq	r0, (UNDEF: 0)
    1160:	01000000 	mrseq	r0, (UNDEF: 0)
    1164:	01000100 	mrseq	r0, (UNDEF: 16)
    1168:	7c000000 	stcvc	0, cr0, [r0], {-0}
    116c:	88c2000d 	stmiahi	r2, {r0, r2, r3}^
    1170:	02c2000d 	sbceq	r0, r2, #13
    1174:	a09f3000 	addsge	r3, pc, r0
    1178:	b8c2000d 	stmialt	r2, {r0, r2, r3}^
    117c:	01c2000d 	biceq	r0, r2, sp
    1180:	0df85000 	ldcleq	0, cr5, [r8]
    1184:	0e0cc200 	cdpeq	2, 0, cr12, cr12, cr0, {0}
    1188:	0002c200 	andeq	ip, r2, r0, lsl #4
    118c:	0e189f30 	mrceq	15, 0, r9, cr8, cr0, {1}
    1190:	0e2cc200 	cdpeq	2, 2, cr12, cr12, cr0, {0}
    1194:	0002c200 	andeq	ip, r2, r0, lsl #4
    1198:	0e489f30 	mcreq	15, 2, r9, cr8, cr0, {1}
    119c:	0e6cc200 	cdpeq	2, 6, cr12, cr12, cr0, {0}
    11a0:	0002c200 	andeq	ip, r2, r0, lsl #4
    11a4:	0e809f39 	mcreq	15, 4, r9, cr0, cr9, {1}
    11a8:	0ea4c200 	cdpeq	2, 10, cr12, cr4, cr0, {0}
    11ac:	0001c200 	andeq	ip, r1, r0, lsl #4
    11b0:	0000005c 	andeq	r0, r0, ip, asr r0
    11b4:	00000000 	andeq	r0, r0, r0
    11b8:	00000200 	andeq	r0, r0, r0, lsl #4
    11bc:	00000000 	andeq	r0, r0, r0
    11c0:	7c000000 	stcvc	0, cr0, [r0], {-0}
    11c4:	88c2000d 	stmiahi	r2, {r0, r2, r3}^
    11c8:	02c2000d 	sbceq	r0, r2, #13
    11cc:	889f3000 	ldmhi	pc, {ip, sp}	; <UNPREDICTABLE>
    11d0:	ccc2000d 	stclgt	0, cr0, [r2], {13}
    11d4:	01c2000d 	biceq	r0, r2, sp
    11d8:	0ddc5200 	lfmeq	f5, 2, [ip]
    11dc:	0e0cc200 	cdpeq	2, 0, cr12, cr12, cr0, {0}
    11e0:	0001c200 	andeq	ip, r1, r0, lsl #4
    11e4:	000e0c52 	andeq	r0, lr, r2, asr ip
    11e8:	000e44c2 	andeq	r4, lr, r2, asr #9
    11ec:	510001c2 	smlabtpl	r0, r2, r1, r0
    11f0:	c2000e48 	andgt	r0, r0, #72, 28	; 0x480
    11f4:	c2000e6c 	andgt	r0, r0, #108, 28	; 0x6c0
    11f8:	00510001 	subseq	r0, r1, r1
    11fc:	00000000 	andeq	r0, r0, r0
    1200:	03000000 	movweq	r0, #0
    1204:	000d7c00 	andeq	r7, sp, r0, lsl #24
    1208:	000e0cc2 	andeq	r0, lr, r2, asr #25
    120c:	400005c2 	andmi	r0, r0, r2, asr #11
    1210:	9f1f244b 	svcls	0x001f244b
	...
    121c:	0e0c0000 	cdpeq	0, 0, cr0, cr12, cr0, {0}
    1220:	0e6cc200 	cdpeq	2, 6, cr12, cr12, cr0, {0}
    1224:	0001c200 	andeq	ip, r1, r0, lsl #4
    1228:	0000005c 	andeq	r0, r0, ip, asr r0
    122c:	00000000 	andeq	r0, r0, r0
    1230:	6c000000 	stcvs	0, cr0, [r0], {-0}
    1234:	c0c2000e 	sbcgt	r0, r2, lr
    1238:	01c2000e 	biceq	r0, r2, lr
    123c:	00005100 	andeq	r5, r0, r0, lsl #2
    1240:	00000000 	andeq	r0, r0, r0
    1244:	00050000 	andeq	r0, r5, r0
    1248:	00000000 	andeq	r0, r0, r0
    124c:	c2000d7c 	andgt	r0, r0, #124, 26	; 0x1f00
    1250:	c2000d88 	andgt	r0, r0, #136, 26	; 0x2200
    1254:	9f300002 	svcls	0x00300002
    1258:	c2000d88 	andgt	r0, r0, #136, 26	; 0x2200
    125c:	c2000dd8 	andgt	r0, r0, #216, 26	; 0x3600
    1260:	dc510001 	mrrcle	0, 0, r0, r1, cr1
    1264:	0cc2000d 	stcleq	0, cr0, [r2], {13}
    1268:	01c2000e 	biceq	r0, r2, lr
    126c:	00005100 	andeq	r5, r0, r0, lsl #2
	...
    1278:	c2000e0c 	andgt	r0, r0, #12, 28	; 0xc0
    127c:	c2000e6c 	andgt	r0, r0, #108, 28	; 0x6c0
    1280:	00520001 	subseq	r0, r2, r1
	...
    128c:	000e6c00 	andeq	r6, lr, r0, lsl #24
    1290:	000ec0c2 	andeq	ip, lr, r2, asr #1
    1294:	500001c2 	andpl	r0, r0, r2, asr #3
	...
    12a0:	c2000f6c 	andgt	r0, r0, #108, 30	; 0x1b0
    12a4:	c2000f70 	andgt	r0, r0, #112, 30	; 0x1c0
    12a8:	007d0002 	rsbseq	r0, sp, r2
    12ac:	c2000f70 	andgt	r0, r0, #112, 30	; 0x1c0
    12b0:	c2000f9c 	andgt	r0, r0, #156, 30	; 0x270
    12b4:	107d0002 	rsbsne	r0, sp, r2
	...
    12c4:	c2000f6c 	andgt	r0, r0, #108, 30	; 0x1b0
    12c8:	c2000f80 	andgt	r0, r0, #128, 30	; 0x200
    12cc:	80500001 	subshi	r0, r0, r1
    12d0:	9cc2000f 	stclls	0, cr0, [r2], {15}
    12d4:	04c2000f 	strbeq	r0, [r2], #15
    12d8:	5001f300 	andpl	pc, r1, r0, lsl #6
    12dc:	0000009f 	muleq	r0, pc, r0	; <UNPREDICTABLE>
	...
    12e8:	00000101 	andeq	r0, r0, r1, lsl #2
    12ec:	000f6c00 	andeq	r6, pc, r0, lsl #24
    12f0:	000f80c2 	andeq	r8, pc, r2, asr #1
    12f4:	510001c2 	smlabtpl	r0, r2, r1, r0
    12f8:	c2000f80 	andgt	r0, r0, #128, 30	; 0x200
    12fc:	c2000f80 	andgt	r0, r0, #128, 30	; 0x200
    1300:	80540001 	subshi	r0, r4, r1
    1304:	84c2000f 	strbhi	r0, [r2], #15
    1308:	03c2000f 	biceq	r0, r2, #15
    130c:	9f017400 	svcls	0x00017400
    1310:	c2000f84 	andgt	r0, r0, #132, 30	; 0x210
    1314:	c2000f9c 	andgt	r0, r0, #156, 30	; 0x270
    1318:	00540001 	subseq	r0, r4, r1
	...
    1324:	6c000000 	stcvs	0, cr0, [r0], {-0}
    1328:	80c2000f 	sbchi	r0, r2, pc
    132c:	01c2000f 	biceq	r0, r2, pc
    1330:	0f805200 	svceq	0x00805200
    1334:	0f9cc200 	svceq	0x009cc200
    1338:	0001c200 	andeq	ip, r1, r0, lsl #4
    133c:	00000056 	andeq	r0, r0, r6, asr r0
    1340:	00000000 	andeq	r0, r0, r0
    1344:	00000300 	andeq	r0, r0, r0, lsl #6
    1348:	000f7800 	andeq	r7, pc, r0, lsl #16
    134c:	000f80c2 	andeq	r8, pc, r2, asr #1
    1350:	300002c2 	andcc	r0, r0, r2, asr #5
    1354:	000f809f 	muleq	pc, pc, r0	; <UNPREDICTABLE>
    1358:	000f9cc2 	andeq	r9, pc, r2, asr #25
    135c:	550001c2 	strpl	r0, [r0, #-450]	; 0xfffffe3e
	...
    1368:	c2000f4c 	andgt	r0, r0, #76, 30	; 0x130
    136c:	c2000f50 	andgt	r0, r0, #80, 30	; 0x140
    1370:	007d0002 	rsbseq	r0, sp, r2
    1374:	c2000f50 	andgt	r0, r0, #80, 30	; 0x140
    1378:	c2000f6c 	andgt	r0, r0, #108, 30	; 0x1b0
    137c:	087d0002 	ldmdaeq	sp!, {r1}^
	...
    138c:	0f4c0000 	svceq	0x004c0000
    1390:	0f5cc200 	svceq	0x005cc200
    1394:	0001c200 	andeq	ip, r1, r0, lsl #4
    1398:	000f5c50 	andeq	r5, pc, r0, asr ip	; <UNPREDICTABLE>
    139c:	000f63c2 	andeq	r6, pc, r2, asr #7
    13a0:	510001c2 	smlabtpl	r0, r2, r1, r0
    13a4:	c2000f63 	andgt	r0, r0, #396	; 0x18c
    13a8:	c2000f6c 	andgt	r0, r0, #108, 30	; 0x1b0
    13ac:	00540001 	subseq	r0, r4, r1
    13b0:	00000000 	andeq	r0, r0, r0
    13b4:	Address 0x00000000000013b4 is out of bounds.


Disassembly of section .debug_ranges:

00000000 <.debug_ranges>:
   0:	c20006e0 	andgt	r0, r0, #224, 12	; 0xe000000
   4:	c20006f0 	andgt	r0, r0, #240, 12	; 0xf000000
   8:	00000001 	andeq	r0, r0, r1
   c:	00000001 	andeq	r0, r0, r1
  10:	00000001 	andeq	r0, r0, r1
  14:	00000001 	andeq	r0, r0, r1
  18:	c20006f0 	andgt	r0, r0, #240, 12	; 0xf000000
  1c:	c2000714 	andgt	r0, r0, #20, 14	; 0x500000
	...
  28:	c2000714 	andgt	r0, r0, #20, 14	; 0x500000
  2c:	c2000780 	andgt	r0, r0, #128, 14	; 0x2000000
	...
  38:	c2000780 	andgt	r0, r0, #128, 14	; 0x2000000
  3c:	c2000784 	andgt	r0, r0, #132, 14	; 0x2100000
  40:	c2000784 	andgt	r0, r0, #132, 14	; 0x2100000
  44:	c20007ac 	andgt	r0, r0, #172, 14	; 0x2b00000
  48:	c20007ac 	andgt	r0, r0, #172, 14	; 0x2b00000
  4c:	c20007f0 	andgt	r0, r0, #240, 14	; 0x3c00000
  50:	c20007f0 	andgt	r0, r0, #240, 14	; 0x3c00000
  54:	c2000830 	andgt	r0, r0, #48, 16	; 0x300000
  58:	00000001 	andeq	r0, r0, r1
  5c:	00000001 	andeq	r0, r0, r1
	...
  68:	c2000830 	andgt	r0, r0, #48, 16	; 0x300000
  6c:	c2000868 	andgt	r0, r0, #104, 16	; 0x680000
  70:	c2000868 	andgt	r0, r0, #104, 16	; 0x680000
  74:	c2000890 	andgt	r0, r0, #144, 16	; 0x900000
  78:	c2000890 	andgt	r0, r0, #144, 16	; 0x900000
  7c:	c20008b8 	andgt	r0, r0, #184, 16	; 0xb80000
  80:	00000001 	andeq	r0, r0, r1
  84:	00000001 	andeq	r0, r0, r1
  88:	c20008b8 	andgt	r0, r0, #184, 16	; 0xb80000
  8c:	c20008e0 	andgt	r0, r0, #224, 16	; 0xe00000
  90:	00000001 	andeq	r0, r0, r1
  94:	00000001 	andeq	r0, r0, r1
	...
  a0:	c2000950 	andgt	r0, r0, #80, 18	; 0x140000
  a4:	c20009c8 	andgt	r0, r0, #200, 18	; 0x320000
  a8:	c20009c8 	andgt	r0, r0, #200, 18	; 0x320000
  ac:	c20009ec 	andgt	r0, r0, #236, 18	; 0x3b0000
  b0:	c20009ec 	andgt	r0, r0, #236, 18	; 0x3b0000
  b4:	c2000ac8 	andgt	r0, r0, #200, 20	; 0xc8000
  b8:	c2000ac8 	andgt	r0, r0, #200, 20	; 0xc8000
  bc:	c2000bdc 	andgt	r0, r0, #220, 22	; 0x37000
  c0:	c2000bdc 	andgt	r0, r0, #220, 22	; 0x37000
  c4:	c2000c0c 	andgt	r0, r0, #12, 24	; 0xc00
  c8:	c2000c0c 	andgt	r0, r0, #12, 24	; 0xc00
  cc:	c2000c20 	andgt	r0, r0, #32, 24	; 0x2000
	...
  d8:	c2000c50 	andgt	r0, r0, #80, 24	; 0x5000
  dc:	c2000c5c 	andgt	r0, r0, #92, 24	; 0x5c00
  e0:	c2000c60 	andgt	r0, r0, #96, 24	; 0x6000
  e4:	c2000c64 	andgt	r0, r0, #100, 24	; 0x6400
	...
  f0:	c2000c20 	andgt	r0, r0, #32, 24	; 0x2000
  f4:	c2000c4c 	andgt	r0, r0, #76, 24	; 0x4c00
  f8:	c2000c4c 	andgt	r0, r0, #76, 24	; 0x4c00
  fc:	c2000c78 	andgt	r0, r0, #120, 24	; 0x7800
 100:	c2000c78 	andgt	r0, r0, #120, 24	; 0x7800
 104:	c2000c98 	andgt	r0, r0, #152, 24	; 0x9800
 108:	00000001 	andeq	r0, r0, r1
 10c:	00000001 	andeq	r0, r0, r1
 110:	c2000c98 	andgt	r0, r0, #152, 24	; 0x9800
 114:	c2000cf0 	andgt	r0, r0, #240, 24	; 0xf000
 118:	00000001 	andeq	r0, r0, r1
 11c:	00000001 	andeq	r0, r0, r1
 120:	00000001 	andeq	r0, r0, r1
 124:	00000001 	andeq	r0, r0, r1
 128:	c2000cf0 	andgt	r0, r0, #240, 24	; 0xf000
 12c:	c2000d0c 	andgt	r0, r0, #12, 26	; 0x300
 130:	c2000d0c 	andgt	r0, r0, #12, 26	; 0x300
 134:	c2000d28 	andgt	r0, r0, #40, 26	; 0xa00
 138:	00000001 	andeq	r0, r0, r1
 13c:	00000001 	andeq	r0, r0, r1
 140:	c2000d28 	andgt	r0, r0, #40, 26	; 0xa00
 144:	c2000d44 	andgt	r0, r0, #68, 26	; 0x1100
 148:	c2000d44 	andgt	r0, r0, #68, 26	; 0x1100
 14c:	c2000d5c 	andgt	r0, r0, #92, 26	; 0x1700
 150:	00000001 	andeq	r0, r0, r1
 154:	00000001 	andeq	r0, r0, r1
	...
 160:	c2000d7c 	andgt	r0, r0, #124, 26	; 0x1f00
 164:	c2000d80 	andgt	r0, r0, #128, 26	; 0x2000
 168:	c2000d84 	andgt	r0, r0, #132, 26	; 0x2100
 16c:	c2000dc8 	andgt	r0, r0, #200, 26	; 0x3200
 170:	c2000ddc 	andgt	r0, r0, #220, 26	; 0x3700
 174:	c2000e0c 	andgt	r0, r0, #12, 28	; 0xc0
	...
 180:	c2000dc8 	andgt	r0, r0, #200, 26	; 0x3200
 184:	c2000dcc 	andgt	r0, r0, #204, 26	; 0x3300
 188:	c2000e0c 	andgt	r0, r0, #12, 28	; 0xc0
 18c:	c2000e3c 	andgt	r0, r0, #60, 28	; 0x3c0
 190:	c2000e48 	andgt	r0, r0, #72, 28	; 0x480
 194:	c2000e6c 	andgt	r0, r0, #108, 28	; 0x6c0
	...
 1a0:	c2000e3c 	andgt	r0, r0, #60, 28	; 0x3c0
 1a4:	c2000e40 	andgt	r0, r0, #64, 28	; 0x400
 1a8:	c2000e6c 	andgt	r0, r0, #108, 28	; 0x6c0
 1ac:	c2000ec0 	andgt	r0, r0, #192, 28	; 0xc00
	...
 1b8:	c2000d5c 	andgt	r0, r0, #92, 26	; 0x1700
 1bc:	c2000ec0 	andgt	r0, r0, #192, 28	; 0xc00
 1c0:	c2000ec0 	andgt	r0, r0, #192, 28	; 0xc00
 1c4:	c2000edc 	andgt	r0, r0, #220, 28	; 0xdc0
 1c8:	c2000edc 	andgt	r0, r0, #220, 28	; 0xdc0
 1cc:	c2000f4c 	andgt	r0, r0, #76, 30	; 0x130
 1d0:	c2000f4c 	andgt	r0, r0, #76, 30	; 0x130
 1d4:	c2000f6c 	andgt	r0, r0, #108, 30	; 0x1b0
 1d8:	c2000f6c 	andgt	r0, r0, #108, 30	; 0x1b0
 1dc:	c2000f9c 	andgt	r0, r0, #156, 30	; 0x270
 1e0:	c2000f9c 	andgt	r0, r0, #156, 30	; 0x270
 1e4:	c2000fa8 	andgt	r0, r0, #168, 30	; 0x2a0
 1e8:	c2000fa8 	andgt	r0, r0, #168, 30	; 0x2a0
 1ec:	c2000fdc 	andgt	r0, r0, #220, 30	; 0x370
	...

Disassembly of section .debug_frame:

00000000 <.debug_frame>:
       0:	0000000c 	andeq	r0, r0, ip
       4:	ffffffff 			; <UNDEFINED> instruction: 0xffffffff
       8:	7c020001 	stcvc	0, cr0, [r2], {1}
       c:	000d0c0e 	andeq	r0, sp, lr, lsl #24
      10:	0000000c 	andeq	r0, r0, ip
      14:	00000000 	andeq	r0, r0, r0
      18:	c20006e0 	andgt	r0, r0, #224, 12	; 0xe000000
      1c:	00000010 	andeq	r0, r0, r0, lsl r0
      20:	0000000c 	andeq	r0, r0, ip
	...
      2c:	00000008 	andeq	r0, r0, r8
      30:	0000001c 	andeq	r0, r0, ip, lsl r0
	...
      3c:	000000a0 	andeq	r0, r0, r0, lsr #1
      40:	84080e42 	strhi	r0, [r8], #-3650	; 0xfffff1be
      44:	42018e02 	andmi	r8, r1, #2, 28
      48:	4a02180e 	bmi	86088 <SYS_MODE+0x86069>
      4c:	0000080e 	andeq	r0, r0, lr, lsl #16
      50:	0000000c 	andeq	r0, r0, ip
      54:	00000000 	andeq	r0, r0, r0
      58:	c20006f0 	andgt	r0, r0, #240, 12	; 0xf000000
      5c:	00000024 	andeq	r0, r0, r4, lsr #32
      60:	0000000c 	andeq	r0, r0, ip
      64:	ffffffff 			; <UNDEFINED> instruction: 0xffffffff
      68:	7c020001 	stcvc	0, cr0, [r2], {1}
      6c:	000d0c0e 	andeq	r0, sp, lr, lsl #24
      70:	00000014 	andeq	r0, r0, r4, lsl r0
      74:	00000060 	andeq	r0, r0, r0, rrx
      78:	c2000714 	andgt	r0, r0, #20, 14	; 0x500000
      7c:	0000006c 	andeq	r0, r0, ip, rrx
      80:	84080e42 	strhi	r0, [r8], #-3650	; 0xfffff1be
      84:	00018e02 	andeq	r8, r1, r2, lsl #28
      88:	0000000c 	andeq	r0, r0, ip
      8c:	ffffffff 			; <UNDEFINED> instruction: 0xffffffff
      90:	7c020001 	stcvc	0, cr0, [r2], {1}
      94:	000d0c0e 	andeq	r0, sp, lr, lsl #24
      98:	0000000c 	andeq	r0, r0, ip
      9c:	00000088 	andeq	r0, r0, r8, lsl #1
      a0:	c2000780 	andgt	r0, r0, #128, 14	; 0x2000000
      a4:	00000004 	andeq	r0, r0, r4
      a8:	00000014 	andeq	r0, r0, r4, lsl r0
      ac:	00000088 	andeq	r0, r0, r8, lsl #1
      b0:	c2000784 	andgt	r0, r0, #132, 14	; 0x2100000
      b4:	00000028 	andeq	r0, r0, r8, lsr #32
      b8:	84080e42 	strhi	r0, [r8], #-3650	; 0xfffff1be
      bc:	00018e02 	andeq	r8, r1, r2, lsl #28
      c0:	00000014 	andeq	r0, r0, r4, lsl r0
      c4:	00000088 	andeq	r0, r0, r8, lsl #1
      c8:	c20007ac 	andgt	r0, r0, #172, 14	; 0x2b00000
      cc:	00000044 	andeq	r0, r0, r4, asr #32
      d0:	84080e42 	strhi	r0, [r8], #-3650	; 0xfffff1be
      d4:	00018e02 	andeq	r8, r1, r2, lsl #28
      d8:	00000018 	andeq	r0, r0, r8, lsl r0
      dc:	00000088 	andeq	r0, r0, r8, lsl #1
      e0:	c20007f0 	andgt	r0, r0, #240, 14	; 0x3c00000
      e4:	00000040 	andeq	r0, r0, r0, asr #32
      e8:	84100e42 	ldrhi	r0, [r0], #-3650	; 0xfffff1be
      ec:	86038504 	strhi	r8, [r3], -r4, lsl #10
      f0:	00018e02 	andeq	r8, r1, r2, lsl #28
      f4:	00000014 	andeq	r0, r0, r4, lsl r0
      f8:	00000088 	andeq	r0, r0, r8, lsl #1
      fc:	00000000 	andeq	r0, r0, r0
     100:	00000030 	andeq	r0, r0, r0, lsr r0
     104:	84080e42 	strhi	r0, [r8], #-3650	; 0xfffff1be
     108:	00018e02 	andeq	r8, r1, r2, lsl #28
     10c:	0000000c 	andeq	r0, r0, ip
     110:	ffffffff 			; <UNDEFINED> instruction: 0xffffffff
     114:	7c020001 	stcvc	0, cr0, [r2], {1}
     118:	000d0c0e 	andeq	r0, sp, lr, lsl #24
     11c:	0000000c 	andeq	r0, r0, ip
     120:	0000010c 	andeq	r0, r0, ip, lsl #2
     124:	c2000830 	andgt	r0, r0, #48, 16	; 0x300000
     128:	00000038 	andeq	r0, r0, r8, lsr r0
     12c:	0000000c 	andeq	r0, r0, ip
     130:	0000010c 	andeq	r0, r0, ip, lsl #2
     134:	c2000868 	andgt	r0, r0, #104, 16	; 0x680000
     138:	00000028 	andeq	r0, r0, r8, lsr #32
     13c:	0000000c 	andeq	r0, r0, ip
     140:	0000010c 	andeq	r0, r0, ip, lsl #2
     144:	c2000890 	andgt	r0, r0, #144, 16	; 0x900000
     148:	00000028 	andeq	r0, r0, r8, lsr #32
     14c:	0000000c 	andeq	r0, r0, ip
     150:	0000010c 	andeq	r0, r0, ip, lsl #2
     154:	00000000 	andeq	r0, r0, r0
     158:	00000028 	andeq	r0, r0, r8, lsr #32
     15c:	0000000c 	andeq	r0, r0, ip
     160:	0000010c 	andeq	r0, r0, ip, lsl #2
     164:	c20008b8 	andgt	r0, r0, #184, 16	; 0xb80000
     168:	00000028 	andeq	r0, r0, r8, lsr #32
     16c:	0000000c 	andeq	r0, r0, ip
     170:	0000010c 	andeq	r0, r0, ip, lsl #2
     174:	00000000 	andeq	r0, r0, r0
     178:	00000028 	andeq	r0, r0, r8, lsr #32
     17c:	0000000c 	andeq	r0, r0, ip
     180:	ffffffff 			; <UNDEFINED> instruction: 0xffffffff
     184:	7c020001 	stcvc	0, cr0, [r2], {1}
     188:	000d0c0e 	andeq	r0, sp, lr, lsl #24
     18c:	00000018 	andeq	r0, r0, r8, lsl r0
     190:	0000017c 	andeq	r0, r0, ip, ror r1
     194:	c2000950 	andgt	r0, r0, #80, 18	; 0x140000
     198:	00000078 	andeq	r0, r0, r8, ror r0
     19c:	84100e42 	ldrhi	r0, [r0], #-3650	; 0xfffff1be
     1a0:	86038504 	strhi	r8, [r3], -r4, lsl #10
     1a4:	00018e02 	andeq	r8, r1, r2, lsl #28
     1a8:	0000000c 	andeq	r0, r0, ip
     1ac:	0000017c 	andeq	r0, r0, ip, ror r1
     1b0:	c20009c8 	andgt	r0, r0, #200, 18	; 0x320000
     1b4:	00000024 	andeq	r0, r0, r4, lsr #32
     1b8:	00000014 	andeq	r0, r0, r4, lsl r0
     1bc:	0000017c 	andeq	r0, r0, ip, ror r1
     1c0:	c20009ec 	andgt	r0, r0, #236, 18	; 0x3b0000
     1c4:	000000dc 	ldrdeq	r0, [r0], -ip
     1c8:	84080e42 	strhi	r0, [r8], #-3650	; 0xfffff1be
     1cc:	00018e02 	andeq	r8, r1, r2, lsl #28
     1d0:	00000020 	andeq	r0, r0, r0, lsr #32
     1d4:	0000017c 	andeq	r0, r0, ip, ror r1
     1d8:	c2000ac8 	andgt	r0, r0, #200, 20	; 0xc8000
     1dc:	00000114 	andeq	r0, r0, r4, lsl r1
     1e0:	840c0e42 	strhi	r0, [ip], #-3650	; 0xfffff1be
     1e4:	8e028503 	cfsh32hi	mvfx8, mvfx2, #3
     1e8:	180e4201 	stmdane	lr, {r0, r9, lr}
     1ec:	0e0a6602 	cfmadd32eq	mvax0, mvfx6, mvfx10, mvfx2
     1f0:	000b420c 	andeq	r4, fp, ip, lsl #4
     1f4:	00000018 	andeq	r0, r0, r8, lsl r0
     1f8:	0000017c 	andeq	r0, r0, ip, ror r1
     1fc:	c2000bdc 	andgt	r0, r0, #220, 22	; 0x37000
     200:	00000030 	andeq	r0, r0, r0, lsr r0
     204:	84100e42 	ldrhi	r0, [r0], #-3650	; 0xfffff1be
     208:	86038504 	strhi	r8, [r3], -r4, lsl #10
     20c:	00018e02 	andeq	r8, r1, r2, lsl #28
     210:	0000000c 	andeq	r0, r0, ip
     214:	0000017c 	andeq	r0, r0, ip, ror r1
     218:	c2000c0c 	andgt	r0, r0, #12, 24	; 0xc00
     21c:	00000014 	andeq	r0, r0, r4, lsl r0
     220:	0000000c 	andeq	r0, r0, ip
     224:	ffffffff 			; <UNDEFINED> instruction: 0xffffffff
     228:	7c020001 	stcvc	0, cr0, [r2], {1}
     22c:	000d0c0e 	andeq	r0, sp, lr, lsl #24
     230:	0000000c 	andeq	r0, r0, ip
     234:	00000220 	andeq	r0, r0, r0, lsr #4
     238:	c2000c20 	andgt	r0, r0, #32, 24	; 0x2000
     23c:	0000002c 	andeq	r0, r0, ip, lsr #32
     240:	0000000c 	andeq	r0, r0, ip
     244:	00000220 	andeq	r0, r0, r0, lsr #4
     248:	c2000c4c 	andgt	r0, r0, #76, 24	; 0x4c00
     24c:	0000002c 	andeq	r0, r0, ip, lsr #32
     250:	00000014 	andeq	r0, r0, r4, lsl r0
     254:	00000220 	andeq	r0, r0, r0, lsr #4
     258:	c2000c78 	andgt	r0, r0, #120, 24	; 0x7800
     25c:	00000020 	andeq	r0, r0, r0, lsr #32
     260:	84080e42 	strhi	r0, [r8], #-3650	; 0xfffff1be
     264:	00018e02 	andeq	r8, r1, r2, lsl #28
     268:	00000014 	andeq	r0, r0, r4, lsl r0
     26c:	00000220 	andeq	r0, r0, r0, lsr #4
     270:	00000000 	andeq	r0, r0, r0
     274:	00000020 	andeq	r0, r0, r0, lsr #32
     278:	84080e42 	strhi	r0, [r8], #-3650	; 0xfffff1be
     27c:	00018e02 	andeq	r8, r1, r2, lsl #28
     280:	00000018 	andeq	r0, r0, r8, lsl r0
     284:	00000220 	andeq	r0, r0, r0, lsr #4
     288:	c2000c98 	andgt	r0, r0, #152, 24	; 0x9800
     28c:	00000058 	andeq	r0, r0, r8, asr r0
     290:	84100e42 	ldrhi	r0, [r0], #-3650	; 0xfffff1be
     294:	86038504 	strhi	r8, [r3], -r4, lsl #10
     298:	00018e02 	andeq	r8, r1, r2, lsl #28
     29c:	00000018 	andeq	r0, r0, r8, lsl r0
     2a0:	00000220 	andeq	r0, r0, r0, lsr #4
     2a4:	00000000 	andeq	r0, r0, r0
     2a8:	00000048 	andeq	r0, r0, r8, asr #32
     2ac:	84100e42 	ldrhi	r0, [r0], #-3650	; 0xfffff1be
     2b0:	86038504 	strhi	r8, [r3], -r4, lsl #10
     2b4:	00018e02 	andeq	r8, r1, r2, lsl #28
     2b8:	00000014 	andeq	r0, r0, r4, lsl r0
     2bc:	00000220 	andeq	r0, r0, r0, lsr #4
     2c0:	00000000 	andeq	r0, r0, r0
     2c4:	00000020 	andeq	r0, r0, r0, lsr #32
     2c8:	84080e42 	strhi	r0, [r8], #-3650	; 0xfffff1be
     2cc:	00018e02 	andeq	r8, r1, r2, lsl #28
     2d0:	00000018 	andeq	r0, r0, r8, lsl r0
     2d4:	00000220 	andeq	r0, r0, r0, lsr #4
     2d8:	c2000cf0 	andgt	r0, r0, #240, 24	; 0xf000
     2dc:	0000001c 	andeq	r0, r0, ip, lsl r0
     2e0:	84100e42 	ldrhi	r0, [r0], #-3650	; 0xfffff1be
     2e4:	86038504 	strhi	r8, [r3], -r4, lsl #10
     2e8:	00018e02 	andeq	r8, r1, r2, lsl #28
     2ec:	00000018 	andeq	r0, r0, r8, lsl r0
     2f0:	00000220 	andeq	r0, r0, r0, lsr #4
     2f4:	c2000d0c 	andgt	r0, r0, #12, 26	; 0x300
     2f8:	0000001c 	andeq	r0, r0, ip, lsl r0
     2fc:	84100e42 	ldrhi	r0, [r0], #-3650	; 0xfffff1be
     300:	86038504 	strhi	r8, [r3], -r4, lsl #10
     304:	00018e02 	andeq	r8, r1, r2, lsl #28
     308:	00000018 	andeq	r0, r0, r8, lsl r0
     30c:	00000220 	andeq	r0, r0, r0, lsr #4
     310:	00000000 	andeq	r0, r0, r0
     314:	0000001c 	andeq	r0, r0, ip, lsl r0
     318:	84100e42 	ldrhi	r0, [r0], #-3650	; 0xfffff1be
     31c:	86038504 	strhi	r8, [r3], -r4, lsl #10
     320:	00018e02 	andeq	r8, r1, r2, lsl #28
     324:	0000000c 	andeq	r0, r0, ip
     328:	00000220 	andeq	r0, r0, r0, lsr #4
     32c:	c2000d28 	andgt	r0, r0, #40, 26	; 0xa00
     330:	0000001c 	andeq	r0, r0, ip, lsl r0
     334:	0000000c 	andeq	r0, r0, ip
     338:	00000220 	andeq	r0, r0, r0, lsr #4
     33c:	c2000d44 	andgt	r0, r0, #68, 26	; 0x1100
     340:	00000018 	andeq	r0, r0, r8, lsl r0
     344:	0000000c 	andeq	r0, r0, ip
     348:	00000220 	andeq	r0, r0, r0, lsr #4
     34c:	00000000 	andeq	r0, r0, r0
     350:	00000018 	andeq	r0, r0, r8, lsl r0
     354:	0000000c 	andeq	r0, r0, ip
     358:	ffffffff 			; <UNDEFINED> instruction: 0xffffffff
     35c:	7c020001 	stcvc	0, cr0, [r2], {1}
     360:	000d0c0e 	andeq	r0, sp, lr, lsl #24
     364:	00000014 	andeq	r0, r0, r4, lsl r0
     368:	00000354 	andeq	r0, r0, r4, asr r3
     36c:	c2000d5c 	andgt	r0, r0, #92, 26	; 0x1700
     370:	00000164 	andeq	r0, r0, r4, ror #2
     374:	84080e42 	strhi	r0, [r8], #-3650	; 0xfffff1be
     378:	00018e02 	andeq	r8, r1, r2, lsl #28
     37c:	00000014 	andeq	r0, r0, r4, lsl r0
     380:	00000354 	andeq	r0, r0, r4, asr r3
     384:	c2000ec0 	andgt	r0, r0, #192, 28	; 0xc00
     388:	0000001c 	andeq	r0, r0, ip, lsl r0
     38c:	84080e42 	strhi	r0, [r8], #-3650	; 0xfffff1be
     390:	00018e02 	andeq	r8, r1, r2, lsl #28
     394:	00000014 	andeq	r0, r0, r4, lsl r0
     398:	00000354 	andeq	r0, r0, r4, asr r3
     39c:	c2000edc 	andgt	r0, r0, #220, 28	; 0xdc0
     3a0:	00000070 	andeq	r0, r0, r0, ror r0
     3a4:	84080e42 	strhi	r0, [r8], #-3650	; 0xfffff1be
     3a8:	00018e02 	andeq	r8, r1, r2, lsl #28
     3ac:	00000014 	andeq	r0, r0, r4, lsl r0
     3b0:	00000354 	andeq	r0, r0, r4, asr r3
     3b4:	c2000f4c 	andgt	r0, r0, #76, 30	; 0x130
     3b8:	00000020 	andeq	r0, r0, r0, lsr #32
     3bc:	84080e42 	strhi	r0, [r8], #-3650	; 0xfffff1be
     3c0:	00018e02 	andeq	r8, r1, r2, lsl #28
     3c4:	00000018 	andeq	r0, r0, r8, lsl r0
     3c8:	00000354 	andeq	r0, r0, r4, asr r3
     3cc:	c2000f6c 	andgt	r0, r0, #108, 30	; 0x1b0
     3d0:	00000030 	andeq	r0, r0, r0, lsr r0
     3d4:	84100e42 	ldrhi	r0, [r0], #-3650	; 0xfffff1be
     3d8:	86038504 	strhi	r8, [r3], -r4, lsl #10
     3dc:	00018e02 	andeq	r8, r1, r2, lsl #28
     3e0:	00000014 	andeq	r0, r0, r4, lsl r0
     3e4:	00000354 	andeq	r0, r0, r4, asr r3
     3e8:	c2000f9c 	andgt	r0, r0, #156, 30	; 0x270
     3ec:	0000000c 	andeq	r0, r0, ip
     3f0:	84080e42 	strhi	r0, [r8], #-3650	; 0xfffff1be
     3f4:	00018e02 	andeq	r8, r1, r2, lsl #28
     3f8:	00000014 	andeq	r0, r0, r4, lsl r0
     3fc:	00000354 	andeq	r0, r0, r4, asr r3
     400:	c2000fa8 	andgt	r0, r0, #168, 30	; 0x2a0
     404:	00000034 	andeq	r0, r0, r4, lsr r0
     408:	84080e42 	strhi	r0, [r8], #-3650	; 0xfffff1be
     40c:	00018e02 	andeq	r8, r1, r2, lsl #28
     410:	0000000c 	andeq	r0, r0, ip
     414:	ffffffff 			; <UNDEFINED> instruction: 0xffffffff
     418:	7c020001 	stcvc	0, cr0, [r2], {1}
     41c:	000d0c0e 	andeq	r0, sp, lr, lsl #24
     420:	00000018 	andeq	r0, r0, r8, lsl r0
     424:	00000410 	andeq	r0, r0, r0, lsl r4
     428:	c2000fdc 	andgt	r0, r0, #220, 30	; 0x370
     42c:	000000a4 	andeq	r0, r0, r4, lsr #1
     430:	840c0e41 	strhi	r0, [ip], #-3649	; 0xfffff1bf
     434:	8e028503 	cfsh32hi	mvfx8, mvfx2, #3
     438:	00000001 	andeq	r0, r0, r1
     43c:	0000000c 	andeq	r0, r0, ip
     440:	ffffffff 			; <UNDEFINED> instruction: 0xffffffff
     444:	7c020001 	stcvc	0, cr0, [r2], {1}
     448:	000d0c0e 	andeq	r0, sp, lr, lsl #24
     44c:	0000002c 	andeq	r0, r0, ip, lsr #32
     450:	0000043c 	andeq	r0, r0, ip, lsr r4
     454:	00000000 	andeq	r0, r0, r0
     458:	0000001e 	andeq	r0, r0, lr, lsl r0
     45c:	810c0e41 	tsthi	ip, r1, asr #28
     460:	83028203 	movwhi	r8, #8707	; 0x2203
     464:	100e4201 	andne	r4, lr, r1, lsl #4
     468:	0e41048e 	cdpeq	4, 4, cr0, cr1, cr14, {4}
     46c:	100e4718 	andne	r4, lr, r8, lsl r7
     470:	0c0ece42 	stceq	14, cr12, [lr], {66}	; 0x42
     474:	c1c2c341 	bicgt	ip, r2, r1, asr #6
     478:	0000000e 	andeq	r0, r0, lr
     47c:	00000030 	andeq	r0, r0, r0, lsr r0
     480:	0000043c 	andeq	r0, r0, ip, lsr r4
     484:	c2001080 	andgt	r1, r0, #128	; 0x80
     488:	00000028 	andeq	r0, r0, r8, lsr #32
     48c:	80100e41 	andshi	r0, r0, r1, asr #28
     490:	82038104 	andhi	r8, r3, #4, 2
     494:	45018302 	strmi	r8, [r1, #-770]	; 0xfffffcfe
     498:	058e140e 	streq	r1, [lr, #1038]	; 0x40e
     49c:	49200e41 	stmdbmi	r0!, {r0, r6, r9, sl, fp}
     4a0:	ce42140e 	cdpgt	4, 4, cr1, cr2, cr14, {0}
     4a4:	c341100e 	movtgt	r1, #4110	; 0x100e
     4a8:	0ec0c1c2 	acseqdm	f4, f2
     4ac:	00000000 	andeq	r0, r0, r0
     4b0:	0000000c 	andeq	r0, r0, ip
     4b4:	ffffffff 			; <UNDEFINED> instruction: 0xffffffff
     4b8:	7c020001 	stcvc	0, cr0, [r2], {1}
     4bc:	000d0c0e 	andeq	r0, sp, lr, lsl #24
     4c0:	00000074 	andeq	r0, r0, r4, ror r0
     4c4:	000004b0 			; <UNDEFINED> instruction: 0x000004b0
     4c8:	c20010a8 	andgt	r1, r0, #168	; 0xa8
     4cc:	00001aca 	andeq	r1, r0, sl, asr #21
     4d0:	84240e42 	strthi	r0, [r4], #-3650	; 0xfffff1be
     4d4:	86088509 	strhi	r8, [r8], -r9, lsl #10
     4d8:	88068707 	stmdahi	r6, {r0, r1, r2, r8, r9, sl, pc}
     4dc:	8a048905 	bhi	1228f8 <SYS_MODE+0x1228d9>
     4e0:	8e028b03 	vmlahi.f64	d8, d2, d3
     4e4:	3c0e4401 	cfstrscc	mvf4, [lr], {1}
     4e8:	050f5005 	streq	r5, [pc, #-5]	; 4eb <SYS_MODE+0x4cc>
     4ec:	52050e51 	andpl	r0, r5, #1296	; 0x510
     4f0:	0c53050d 	cfldr64eq	mvdx0, [r3], {13}
     4f4:	050b5405 	streq	r5, [fp, #-1029]	; 0xfffffbfb
     4f8:	0e410a55 			; <UNDEFINED> instruction: 0x0e410a55
     4fc:	2a0302f8 	bcs	c10e4 <SYS_MODE+0xc10c5>
     500:	3c0e0a01 			; <UNDEFINED> instruction: 0x3c0e0a01
     504:	06540642 	ldrbeq	r0, [r4], -r2, asr #12
     508:	06520655 			; <UNDEFINED> instruction: 0x06520655
     50c:	06500653 			; <UNDEFINED> instruction: 0x06500653
     510:	42240e51 	eormi	r0, r4, #1296	; 0x510
     514:	c9cacbce 	stmibgt	sl, {r1, r2, r3, r6, r7, r8, r9, fp, lr, pc}^
     518:	c5c6c7c8 	strbgt	ip, [r6, #1992]	; 0x7c8
     51c:	42000ec4 	andmi	r0, r0, #196, 28	; 0xc40
     520:	034d030b 	movteq	r0, #54027	; 0xd30b
     524:	423c0e0a 	eorsmi	r0, ip, #10, 28	; 0xa0
     528:	55065406 	strpl	r5, [r6, #-1030]	; 0xfffffbfa
     52c:	53065206 	movwpl	r5, #25094	; 0x6206
     530:	51065006 	tstpl	r6, r6
     534:	0b42240e 	bleq	1089574 <SYS_MODE+0x1089555>
     538:	00000018 	andeq	r0, r0, r8, lsl r0
     53c:	000004b0 			; <UNDEFINED> instruction: 0x000004b0
     540:	00000000 	andeq	r0, r0, r0
     544:	0000001e 	andeq	r0, r0, lr, lsl r0
     548:	8e040e45 	cdphi	14, 0, cr0, cr4, cr5, {2}
     54c:	0ece4801 	cdpeq	8, 12, cr4, cr14, cr1, {0}
     550:	00000000 	andeq	r0, r0, r0
     554:	00000020 	andeq	r0, r0, r0, lsr #32
     558:	000004b0 			; <UNDEFINED> instruction: 0x000004b0
     55c:	c2002b74 	andgt	r2, r0, #116, 22	; 0x1d000
     560:	00000080 	andeq	r0, r0, r0, lsl #1
     564:	84100e41 	ldrhi	r0, [r0], #-3649	; 0xfffff1bf
     568:	86038504 	strhi	r8, [r3], -r4, lsl #10
     56c:	44018e02 	strmi	r8, [r1], #-3586	; 0xfffff1fe
     570:	7a09800e 	bvc	2605b0 <SYS_MODE+0x260591>
     574:	0000100e 	andeq	r1, r0, lr
     578:	0000000c 	andeq	r0, r0, ip
     57c:	ffffffff 			; <UNDEFINED> instruction: 0xffffffff
     580:	7c020001 	stcvc	0, cr0, [r2], {1}
     584:	000d0c0e 	andeq	r0, sp, lr, lsl #24
     588:	00000018 	andeq	r0, r0, r8, lsl r0
     58c:	00000578 	andeq	r0, r0, r8, ror r5
     590:	c2002bf4 	andgt	r2, r0, #244, 22	; 0x3d000
     594:	000000ce 	andeq	r0, r0, lr, asr #1
     598:	83100e41 	tsthi	r0, #1040	; 0x410
     59c:	85038404 	strhi	r8, [r3, #-1028]	; 0xfffffbfc
     5a0:	00018e02 	andeq	r8, r1, r2, lsl #28
     5a4:	0000000c 	andeq	r0, r0, ip
     5a8:	ffffffff 			; <UNDEFINED> instruction: 0xffffffff
     5ac:	7c020001 	stcvc	0, cr0, [r2], {1}
     5b0:	000d0c0e 	andeq	r0, sp, lr, lsl #24
     5b4:	00000028 	andeq	r0, r0, r8, lsr #32
     5b8:	000005a4 	andeq	r0, r0, r4, lsr #11
     5bc:	c2002cc4 	andgt	r2, r0, #196, 24	; 0xc400
     5c0:	0000012e 	andeq	r0, r0, lr, lsr #2
     5c4:	84240e43 	strthi	r0, [r4], #-3651	; 0xfffff1bd
     5c8:	86088509 	strhi	r8, [r8], -r9, lsl #10
     5cc:	88068707 	stmdahi	r6, {r0, r1, r2, r8, r9, sl, pc}
     5d0:	8a048905 	bhi	1229ec <SYS_MODE+0x1229cd>
     5d4:	8e028b03 	vmlahi.f64	d8, d2, d3
     5d8:	380e4201 	stmdacc	lr, {r0, r9, lr}
     5dc:	240e9002 	strcs	r9, [lr], #-2
     5e0:	00000064 	andeq	r0, r0, r4, rrx
     5e4:	000005a4 	andeq	r0, r0, r4, lsr #11
     5e8:	c2002df8 	andgt	r2, r0, #248, 26	; 0x3e00
     5ec:	00000d16 	andeq	r0, r0, r6, lsl sp
     5f0:	84240e42 	strthi	r0, [r4], #-3650	; 0xfffff1be
     5f4:	86088509 	strhi	r8, [r8], -r9, lsl #10
     5f8:	88068707 	stmdahi	r6, {r0, r1, r2, r8, r9, sl, pc}
     5fc:	8a048905 	bhi	122a18 <SYS_MODE+0x1229f9>
     600:	8e028b03 	vmlahi.f64	d8, d2, d3
     604:	2c0e4501 	cfstr32cs	mvfx4, [lr], {1}
     608:	050b5005 	streq	r5, [fp, #-5]
     60c:	0e410a51 			; <UNDEFINED> instruction: 0x0e410a51
     610:	0e0a7968 	vmlseq.f16	s14, s20, s17	; <UNPREDICTABLE>
     614:	5006422c 	andpl	r4, r6, ip, lsr #4
     618:	240e5106 	strcs	r5, [lr], #-262	; 0xfffffefa
     61c:	ab020b42 	blge	8332c <SYS_MODE+0x8330d>
     620:	422c0e0a 	eormi	r0, ip, #10, 28	; 0xa0
     624:	51065006 	tstpl	r6, r6
     628:	0b42240e 	bleq	1089668 <SYS_MODE+0x1089649>
     62c:	0a027c03 	beq	9f640 <SYS_MODE+0x9f621>
     630:	06422c0e 	strbeq	r2, [r2], -lr, lsl #24
     634:	0e510650 	mrceq	6, 2, r0, cr1, cr0, {2}
     638:	4f0b4224 	svcmi	0x000b4224
     63c:	422c0e0a 	eormi	r0, ip, #10, 28	; 0xa0
     640:	51065006 	tstpl	r6, r6
     644:	0b42240e 	bleq	1089684 <SYS_MODE+0x1089665>
     648:	0000000c 	andeq	r0, r0, ip
     64c:	ffffffff 			; <UNDEFINED> instruction: 0xffffffff
     650:	7c020001 	stcvc	0, cr0, [r2], {1}
     654:	000d0c0e 	andeq	r0, sp, lr, lsl #24
     658:	00000020 	andeq	r0, r0, r0, lsr #32
     65c:	00000648 	andeq	r0, r0, r8, asr #12
     660:	c2003b10 	andgt	r3, r0, #16, 22	; 0x4000
     664:	0000014e 	andeq	r0, r0, lr, asr #2
     668:	83200e42 			; <UNDEFINED> instruction: 0x83200e42
     66c:	85078408 	strhi	r8, [r7, #-1032]	; 0xfffffbf8
     670:	87058606 	strhi	r8, [r5, -r6, lsl #12]
     674:	89038804 	stmdbhi	r3, {r2, fp, pc}
     678:	00018e02 	andeq	r8, r1, r2, lsl #28
     67c:	00000018 	andeq	r0, r0, r8, lsl r0
     680:	00000648 	andeq	r0, r0, r8, asr #12
     684:	c2003c60 	andgt	r3, r0, #96, 24	; 0x6000
     688:	0000005a 	andeq	r0, r0, sl, asr r0
     68c:	83100e41 	tsthi	r0, #1040	; 0x410
     690:	85038404 	strhi	r8, [r3, #-1028]	; 0xfffffbfc
     694:	00018e02 	andeq	r8, r1, r2, lsl #28
     698:	00000020 	andeq	r0, r0, r0, lsr #32
     69c:	00000648 	andeq	r0, r0, r8, asr #12
     6a0:	00000000 	andeq	r0, r0, r0
     6a4:	00000078 	andeq	r0, r0, r8, ror r0
     6a8:	83100e41 	tsthi	r0, #1040	; 0x410
     6ac:	85038404 	strhi	r8, [r3, #-1028]	; 0xfffffbfc
     6b0:	79018e02 	stmdbvc	r1, {r1, r9, sl, fp, pc}
     6b4:	c3c4c5ce 	bicgt	ip, r4, #864026624	; 0x33800000
     6b8:	0000000e 	andeq	r0, r0, lr
     6bc:	0000000c 	andeq	r0, r0, ip
     6c0:	ffffffff 			; <UNDEFINED> instruction: 0xffffffff
     6c4:	7c020001 	stcvc	0, cr0, [r2], {1}
     6c8:	000d0c0e 	andeq	r0, sp, lr, lsl #24
     6cc:	0000000c 	andeq	r0, r0, ip
     6d0:	000006bc 			; <UNDEFINED> instruction: 0x000006bc
     6d4:	c2003cbc 	andgt	r3, r0, #188, 24	; 0xbc00
     6d8:	0000000c 	andeq	r0, r0, ip
     6dc:	00000014 	andeq	r0, r0, r4, lsl r0
     6e0:	000006bc 			; <UNDEFINED> instruction: 0x000006bc
     6e4:	00000000 	andeq	r0, r0, r0
     6e8:	0000001c 	andeq	r0, r0, ip, lsl r0
     6ec:	83080e41 	movwhi	r0, #36417	; 0x8e41
     6f0:	00018e02 	andeq	r8, r1, r2, lsl #28
     6f4:	00000014 	andeq	r0, r0, r4, lsl r0
     6f8:	000006bc 			; <UNDEFINED> instruction: 0x000006bc
     6fc:	00000000 	andeq	r0, r0, r0
     700:	0000001c 	andeq	r0, r0, ip, lsl r0
     704:	83080e41 	movwhi	r0, #36417	; 0x8e41
     708:	00018e02 	andeq	r8, r1, r2, lsl #28
     70c:	00000018 	andeq	r0, r0, r8, lsl r0
     710:	000006bc 			; <UNDEFINED> instruction: 0x000006bc
     714:	00000000 	andeq	r0, r0, r0
     718:	0000002e 	andeq	r0, r0, lr, lsr #32
     71c:	84100e41 	ldrhi	r0, [r0], #-3649	; 0xfffff1bf
     720:	86038504 	strhi	r8, [r3], -r4, lsl #10
     724:	00018e02 	andeq	r8, r1, r2, lsl #28
     728:	0000000c 	andeq	r0, r0, ip
     72c:	000006bc 			; <UNDEFINED> instruction: 0x000006bc
     730:	00000000 	andeq	r0, r0, r0
     734:	00000016 	andeq	r0, r0, r6, lsl r0
     738:	0000003c 	andeq	r0, r0, ip, lsr r0
     73c:	000006bc 			; <UNDEFINED> instruction: 0x000006bc
     740:	c2003cc8 	andgt	r3, r0, #200, 24	; 0xc800
     744:	0000011c 	andeq	r0, r0, ip, lsl r1
     748:	84200e42 	strthi	r0, [r0], #-3650	; 0xfffff1be
     74c:	86078508 	strhi	r8, [r7], -r8, lsl #10
     750:	88058706 	stmdahi	r5, {r1, r2, r8, r9, sl, pc}
     754:	8a038904 	bhi	e2b6c <SYS_MODE+0xe2b4d>
     758:	02018e02 	andeq	r8, r1, #2, 28
     75c:	cace0a82 	bgt	ff38316c <__HeapLimit+0x3d37616c>
     760:	c6c7c8c9 	strbgt	ip, [r7], r9, asr #17
     764:	000ec4c5 	andeq	ip, lr, r5, asr #9
     768:	ce460b42 	vmlsgt.f64	d16, d6, d2
     76c:	c7c8c9ca 	strbgt	ip, [r8, sl, asr #19]
     770:	0ec4c5c6 	cdpeq	5, 12, cr12, cr4, cr6, {6}
     774:	00000000 	andeq	r0, r0, r0
     778:	0000001c 	andeq	r0, r0, ip, lsl r0
     77c:	000006bc 			; <UNDEFINED> instruction: 0x000006bc
     780:	00000000 	andeq	r0, r0, r0
     784:	000000d4 	ldrdeq	r0, [r0], -r4
     788:	84180e42 	ldrhi	r0, [r8], #-3650	; 0xfffff1be
     78c:	86058506 	strhi	r8, [r5], -r6, lsl #10
     790:	88038704 	stmdahi	r3, {r2, r8, r9, sl, pc}
     794:	00018e02 	andeq	r8, r1, r2, lsl #28
     798:	0000000c 	andeq	r0, r0, ip
     79c:	000006bc 			; <UNDEFINED> instruction: 0x000006bc
     7a0:	c2003de4 	andgt	r3, r0, #228, 26	; 0x3900
     7a4:	0000000c 	andeq	r0, r0, ip
     7a8:	0000000c 	andeq	r0, r0, ip
     7ac:	000006bc 			; <UNDEFINED> instruction: 0x000006bc
     7b0:	c2003df0 	andgt	r3, r0, #240, 26	; 0x3c00
     7b4:	0000000c 	andeq	r0, r0, ip
     7b8:	0000000c 	andeq	r0, r0, ip
     7bc:	000006bc 			; <UNDEFINED> instruction: 0x000006bc
     7c0:	00000000 	andeq	r0, r0, r0
     7c4:	0000000c 	andeq	r0, r0, ip
     7c8:	0000000c 	andeq	r0, r0, ip
     7cc:	000006bc 			; <UNDEFINED> instruction: 0x000006bc
     7d0:	00000000 	andeq	r0, r0, r0
     7d4:	0000000c 	andeq	r0, r0, ip
     7d8:	00000018 	andeq	r0, r0, r8, lsl r0
     7dc:	000006bc 			; <UNDEFINED> instruction: 0x000006bc
     7e0:	00000000 	andeq	r0, r0, r0
     7e4:	00000028 	andeq	r0, r0, r8, lsr #32
     7e8:	83080e41 	movwhi	r0, #36417	; 0x8e41
     7ec:	51018e02 	tstpl	r1, r2, lsl #28
     7f0:	000ec3ce 	andeq	ip, lr, lr, asr #7
     7f4:	00000018 	andeq	r0, r0, r8, lsl r0
     7f8:	000006bc 			; <UNDEFINED> instruction: 0x000006bc
     7fc:	00000000 	andeq	r0, r0, r0
     800:	00000028 	andeq	r0, r0, r8, lsr #32
     804:	83080e41 	movwhi	r0, #36417	; 0x8e41
     808:	51018e02 	tstpl	r1, r2, lsl #28
     80c:	000ec3ce 	andeq	ip, lr, lr, asr #7
     810:	0000000c 	andeq	r0, r0, ip
     814:	ffffffff 			; <UNDEFINED> instruction: 0xffffffff
     818:	7c020001 	stcvc	0, cr0, [r2], {1}
     81c:	000d0c0e 	andeq	r0, sp, lr, lsl #24
     820:	0000001c 	andeq	r0, r0, ip, lsl r0
     824:	00000810 	andeq	r0, r0, r0, lsl r8
     828:	c2003dfc 	andgt	r3, r0, #252, 26	; 0x3f00
     82c:	000000aa 	andeq	r0, r0, sl, lsr #1
     830:	83180e41 	tsthi	r8, #1040	; 0x410
     834:	85058406 	strhi	r8, [r5, #-1030]	; 0xfffffbfa
     838:	87038604 	strhi	r8, [r3, -r4, lsl #12]
     83c:	00018e02 	andeq	r8, r1, r2, lsl #28
     840:	00000058 	andeq	r0, r0, r8, asr r0
     844:	00000810 	andeq	r0, r0, r0, lsl r8
     848:	c2003ea8 	andgt	r3, r0, #168, 28	; 0xa80
     84c:	0000021c 	andeq	r0, r0, ip, lsl r2
     850:	83180e43 	tsthi	r8, #1072	; 0x430
     854:	85058406 	strhi	r8, [r5, #-1030]	; 0xfffffbfa
     858:	87038604 	strhi	r8, [r3, -r4, lsl #12]
     85c:	02018e02 	andeq	r8, r1, #2, 28
     860:	c7ce0a4e 	strbgt	r0, [lr, lr, asr #20]
     864:	c3c4c5c6 	bicgt	ip, r4, #830472192	; 0x31800000
     868:	0b42000e 	bleq	10808a8 <SYS_MODE+0x1080889>
     86c:	c3000e56 	movwgt	r0, #3670	; 0xe56
     870:	c7c6c5c4 	strbgt	ip, [r6, r4, asr #11]
     874:	180e41ce 	stmdane	lr, {r1, r2, r3, r6, r7, r8, lr}
     878:	05840683 	streq	r0, [r4, #1667]	; 0x683
     87c:	03860485 	orreq	r0, r6, #-2063597568	; 0x85000000
     880:	018e0287 	orreq	r0, lr, r7, lsl #5
     884:	c7ce0a6a 	strbgt	r0, [lr, sl, ror #20]
     888:	c3c4c5c6 	bicgt	ip, r4, #830472192	; 0x31800000
     88c:	0b42000e 	bleq	10808cc <SYS_MODE+0x10808ad>
     890:	c7ce0a57 			; <UNDEFINED> instruction: 0xc7ce0a57
     894:	c3c4c5c6 	bicgt	ip, r4, #830472192	; 0x31800000
     898:	0b42000e 	bleq	10808d8 <SYS_MODE+0x10808b9>
     89c:	0000000c 	andeq	r0, r0, ip
     8a0:	ffffffff 			; <UNDEFINED> instruction: 0xffffffff
     8a4:	7c020001 	stcvc	0, cr0, [r2], {1}
     8a8:	000d0c0e 	andeq	r0, sp, lr, lsl #24
     8ac:	0000001c 	andeq	r0, r0, ip, lsl r0
     8b0:	0000089c 	muleq	r0, ip, r8
     8b4:	00000000 	andeq	r0, r0, r0
     8b8:	0000003c 	andeq	r0, r0, ip, lsr r0
     8bc:	84180e42 	ldrhi	r0, [r8], #-3650	; 0xfffff1be
     8c0:	86058506 	strhi	r8, [r5], -r6, lsl #10
     8c4:	88038704 	stmdahi	r3, {r2, r8, r9, sl, pc}
     8c8:	00018e02 	andeq	r8, r1, r2, lsl #28
     8cc:	00000020 	andeq	r0, r0, r0, lsr #32
     8d0:	0000089c 	muleq	r0, ip, r8
     8d4:	c20040c4 	andgt	r4, r0, #196	; 0xc4
     8d8:	00000040 	andeq	r0, r0, r0, asr #32
     8dc:	83200e42 			; <UNDEFINED> instruction: 0x83200e42
     8e0:	85078408 	strhi	r8, [r7, #-1032]	; 0xfffffbf8
     8e4:	87058606 	strhi	r8, [r5, -r6, lsl #12]
     8e8:	89038804 	stmdbhi	r3, {r2, fp, pc}
     8ec:	00018e02 	andeq	r8, r1, r2, lsl #28
     8f0:	0000000c 	andeq	r0, r0, ip
     8f4:	ffffffff 			; <UNDEFINED> instruction: 0xffffffff
     8f8:	7c020001 	stcvc	0, cr0, [r2], {1}
     8fc:	000d0c0e 	andeq	r0, sp, lr, lsl #24
     900:	0000000c 	andeq	r0, r0, ip
     904:	000008f0 	strdeq	r0, [r0], -r0	; <UNPREDICTABLE>
     908:	00000000 	andeq	r0, r0, r0
     90c:	00000004 	andeq	r0, r0, r4
     910:	0000000c 	andeq	r0, r0, ip
     914:	000008f0 	strdeq	r0, [r0], -r0	; <UNPREDICTABLE>
     918:	c2004104 	andgt	r4, r0, #4, 2
     91c:	00000008 	andeq	r0, r0, r8
     920:	0000000c 	andeq	r0, r0, ip
     924:	000008f0 	strdeq	r0, [r0], -r0	; <UNPREDICTABLE>
     928:	00000000 	andeq	r0, r0, r0
     92c:	00000008 	andeq	r0, r0, r8
     930:	0000000c 	andeq	r0, r0, ip
     934:	ffffffff 			; <UNDEFINED> instruction: 0xffffffff
     938:	7c020001 	stcvc	0, cr0, [r2], {1}
     93c:	000d0c0e 	andeq	r0, sp, lr, lsl #24
     940:	0000000c 	andeq	r0, r0, ip
     944:	00000930 	andeq	r0, r0, r0, lsr r9
     948:	00000000 	andeq	r0, r0, r0
     94c:	00000002 	andeq	r0, r0, r2
     950:	0000000c 	andeq	r0, r0, ip
     954:	00000930 	andeq	r0, r0, r0, lsr r9
     958:	c200410c 	andgt	r4, r0, #12, 2
     95c:	00000002 	andeq	r0, r0, r2
     960:	0000000c 	andeq	r0, r0, ip
     964:	00000930 	andeq	r0, r0, r0, lsr r9
     968:	00000000 	andeq	r0, r0, r0
     96c:	00000002 	andeq	r0, r0, r2
     970:	0000000c 	andeq	r0, r0, ip
     974:	00000930 	andeq	r0, r0, r0, lsr r9
     978:	c2004110 	andgt	r4, r0, #16, 2
     97c:	00000002 	andeq	r0, r0, r2
     980:	0000000c 	andeq	r0, r0, ip
     984:	00000930 	andeq	r0, r0, r0, lsr r9
     988:	00000000 	andeq	r0, r0, r0
     98c:	00000002 	andeq	r0, r0, r2
     990:	0000000c 	andeq	r0, r0, ip
     994:	00000930 	andeq	r0, r0, r0, lsr r9
     998:	c2004114 	andgt	r4, r0, #20, 2
     99c:	00000002 	andeq	r0, r0, r2
     9a0:	0000000c 	andeq	r0, r0, ip
     9a4:	00000930 	andeq	r0, r0, r0, lsr r9
     9a8:	00000000 	andeq	r0, r0, r0
     9ac:	00000004 	andeq	r0, r0, r4
     9b0:	0000000c 	andeq	r0, r0, ip
     9b4:	00000930 	andeq	r0, r0, r0, lsr r9
     9b8:	00000000 	andeq	r0, r0, r0
     9bc:	00000004 	andeq	r0, r0, r4
     9c0:	0000000c 	andeq	r0, r0, ip
     9c4:	00000930 	andeq	r0, r0, r0, lsr r9
     9c8:	00000000 	andeq	r0, r0, r0
     9cc:	00000002 	andeq	r0, r0, r2
     9d0:	0000000c 	andeq	r0, r0, ip
     9d4:	00000930 	andeq	r0, r0, r0, lsr r9
     9d8:	c2004118 	andgt	r4, r0, #24, 2
     9dc:	00000002 	andeq	r0, r0, r2
     9e0:	0000000c 	andeq	r0, r0, ip
     9e4:	ffffffff 			; <UNDEFINED> instruction: 0xffffffff
     9e8:	7c020001 	stcvc	0, cr0, [r2], {1}
     9ec:	000d0c0e 	andeq	r0, sp, lr, lsl #24
     9f0:	0000002c 	andeq	r0, r0, ip, lsr #32
     9f4:	000009e0 	andeq	r0, r0, r0, ror #19
     9f8:	c200411c 	andgt	r4, r0, #28, 2
     9fc:	000000e2 	andeq	r0, r0, r2, ror #1
     a00:	84180e43 	ldrhi	r0, [r8], #-3651	; 0xfffff1bd
     a04:	86058506 	strhi	r8, [r5], -r6, lsl #10
     a08:	88038704 	stmdahi	r3, {r2, r8, r9, sl, pc}
     a0c:	42018e02 	andmi	r8, r1, #2, 28
     a10:	0a49700e 	beq	125ca50 <SYS_MODE+0x125ca31>
     a14:	0b42180e 	bleq	1086a54 <SYS_MODE+0x1086a35>
     a18:	180e0a6d 	stmdane	lr, {r0, r2, r3, r5, r6, r9, fp}
     a1c:	00000b42 	andeq	r0, r0, r2, asr #22
     a20:	0000002c 	andeq	r0, r0, ip, lsr #32
     a24:	000009e0 	andeq	r0, r0, r0, ror #19
     a28:	00000000 	andeq	r0, r0, r0
     a2c:	0000005e 	andeq	r0, r0, lr, asr r0
     a30:	84100e41 	ldrhi	r0, [r0], #-3649	; 0xfffff1bf
     a34:	86038504 	strhi	r8, [r3], -r4, lsl #10
     a38:	44018e02 	strmi	r8, [r1], #-3586	; 0xfffff1fe
     a3c:	0a58680e 	beq	161aa7c <SYS_MODE+0x161aa5d>
     a40:	0b41100e 	bleq	1044a80 <SYS_MODE+0x1044a61>
     a44:	100e0a4b 	andne	r0, lr, fp, asr #20
     a48:	0e440b41 	vmlseq.f64	d16, d4, d1
     a4c:	00000010 	andeq	r0, r0, r0, lsl r0
     a50:	0000000c 	andeq	r0, r0, ip
     a54:	ffffffff 			; <UNDEFINED> instruction: 0xffffffff
     a58:	7c020001 	stcvc	0, cr0, [r2], {1}
     a5c:	000d0c0e 	andeq	r0, sp, lr, lsl #24
     a60:	00000038 	andeq	r0, r0, r8, lsr r0
     a64:	00000a50 	andeq	r0, r0, r0, asr sl
     a68:	c2004200 	andgt	r4, r0, #0, 4
     a6c:	00000554 	andeq	r0, r0, r4, asr r5
     a70:	84240e42 	strthi	r0, [r4], #-3650	; 0xfffff1be
     a74:	86088509 	strhi	r8, [r8], -r9, lsl #10
     a78:	88068707 	stmdahi	r6, {r0, r1, r2, r8, r9, sl, pc}
     a7c:	8a048905 	bhi	122e98 <SYS_MODE+0x122e79>
     a80:	8e028b03 	vmlahi.f64	d8, d2, d3
     a84:	300e4401 	andcc	r4, lr, r1, lsl #8
     a88:	240e0a66 	strcs	r0, [lr], #-2662	; 0xfffff59a
     a8c:	0a790b42 	beq	1e4379c <SYS_MODE+0x1e4377d>
     a90:	0b42240e 	bleq	1089ad0 <SYS_MODE+0x1089ab1>
     a94:	0a013603 	beq	4e2a8 <SYS_MODE+0x4e289>
     a98:	0b42240e 	bleq	1089ad8 <SYS_MODE+0x1089ab9>
     a9c:	0000000c 	andeq	r0, r0, ip
     aa0:	ffffffff 			; <UNDEFINED> instruction: 0xffffffff
     aa4:	7c020001 	stcvc	0, cr0, [r2], {1}
     aa8:	000d0c0e 	andeq	r0, sp, lr, lsl #24
     aac:	0000000c 	andeq	r0, r0, ip
     ab0:	00000a9c 	muleq	r0, ip, sl
     ab4:	c2004de0 	andgt	r4, r0, #224, 26	; 0x3800
     ab8:	0000000c 	andeq	r0, r0, ip
     abc:	0000000c 	andeq	r0, r0, ip
     ac0:	00000a9c 	muleq	r0, ip, sl
     ac4:	c2004dec 	andgt	r4, r0, #236, 26	; 0x3b00
     ac8:	0000000c 	andeq	r0, r0, ip
     acc:	0000000c 	andeq	r0, r0, ip
     ad0:	ffffffff 			; <UNDEFINED> instruction: 0xffffffff
     ad4:	7c020001 	stcvc	0, cr0, [r2], {1}
     ad8:	000d0c0e 	andeq	r0, sp, lr, lsl #24
     adc:	00000018 	andeq	r0, r0, r8, lsl r0
     ae0:	00000acc 	andeq	r0, r0, ip, asr #21
     ae4:	c2004df8 	andgt	r4, r0, #248, 26	; 0x3e00
     ae8:	0000004c 	andeq	r0, r0, ip, asr #32
     aec:	83100e41 	tsthi	r0, #1040	; 0x410
     af0:	85038404 	strhi	r8, [r3, #-1028]	; 0xfffffbfc
     af4:	00018e02 	andeq	r8, r1, r2, lsl #28
     af8:	0000000c 	andeq	r0, r0, ip
     afc:	00000acc 	andeq	r0, r0, ip, asr #21
     b00:	c2004e44 	andgt	r4, r0, #68, 28	; 0x440
     b04:	00000012 	andeq	r0, r0, r2, lsl r0
     b08:	00000024 	andeq	r0, r0, r4, lsr #32
     b0c:	00000acc 	andeq	r0, r0, ip, asr #21
     b10:	c2004e58 	andgt	r4, r0, #88, 28	; 0x580
     b14:	000000ac 	andeq	r0, r0, ip, lsr #1
     b18:	84140e41 	ldrhi	r0, [r4], #-3649	; 0xfffff1bf
     b1c:	86048505 	strhi	r8, [r4], -r5, lsl #10
     b20:	8e028703 	cdphi	7, 0, cr8, cr2, cr3, {0}
     b24:	200e4301 	andcs	r4, lr, r1, lsl #6
     b28:	140e0a64 	strne	r0, [lr], #-2660	; 0xfffff59c
     b2c:	00000b41 	andeq	r0, r0, r1, asr #22
     b30:	00000020 	andeq	r0, r0, r0, lsr #32
     b34:	00000acc 	andeq	r0, r0, ip, asr #21
     b38:	00000000 	andeq	r0, r0, r0
     b3c:	000000ba 	strheq	r0, [r0], -sl
     b40:	83200e42 			; <UNDEFINED> instruction: 0x83200e42
     b44:	85078408 	strhi	r8, [r7, #-1032]	; 0xfffffbf8
     b48:	87058606 	strhi	r8, [r5, -r6, lsl #12]
     b4c:	89038804 	stmdbhi	r3, {r2, fp, pc}
     b50:	00018e02 	andeq	r8, r1, r2, lsl #28
     b54:	0000000c 	andeq	r0, r0, ip
     b58:	00000acc 	andeq	r0, r0, ip, asr #21
     b5c:	c2004f04 	andgt	r4, r0, #4, 30
     b60:	00000040 	andeq	r0, r0, r0, asr #32
     b64:	0000000c 	andeq	r0, r0, ip
     b68:	00000acc 	andeq	r0, r0, ip, asr #21
     b6c:	c2004f44 	andgt	r4, r0, #68, 30	; 0x110
     b70:	00000058 	andeq	r0, r0, r8, asr r0
     b74:	00000018 	andeq	r0, r0, r8, lsl r0
     b78:	00000acc 	andeq	r0, r0, ip, asr #21
     b7c:	c2004f9c 	andgt	r4, r0, #156, 30	; 0x270
     b80:	00000060 	andeq	r0, r0, r0, rrx
     b84:	83100e41 	tsthi	r0, #1040	; 0x410
     b88:	85038404 	strhi	r8, [r3, #-1028]	; 0xfffffbfc
     b8c:	00018e02 	andeq	r8, r1, r2, lsl #28
     b90:	0000002c 	andeq	r0, r0, ip, lsr #32
     b94:	00000acc 	andeq	r0, r0, ip, asr #21
     b98:	c2004ffc 	andgt	r4, r0, #252, 30	; 0x3f0
     b9c:	0000016e 	andeq	r0, r0, lr, ror #2
     ba0:	84240e42 	strthi	r0, [r4], #-3650	; 0xfffff1be
     ba4:	86088509 	strhi	r8, [r8], -r9, lsl #10
     ba8:	88068707 	stmdahi	r6, {r0, r1, r2, r8, r9, sl, pc}
     bac:	8a048905 	bhi	122fc8 <SYS_MODE+0x122fa9>
     bb0:	8e028b03 	vmlahi.f64	d8, d2, d3
     bb4:	380e4301 	stmdacc	lr, {r0, r8, r9, lr}
     bb8:	0e0aa302 	cdpeq	3, 0, cr10, cr10, cr2, {0}
     bbc:	000b4224 	andeq	r4, fp, r4, lsr #4
     bc0:	0000001c 	andeq	r0, r0, ip, lsl r0
     bc4:	00000acc 	andeq	r0, r0, ip, asr #21
     bc8:	c200516c 	andgt	r5, r0, #108, 2
     bcc:	000000c4 	andeq	r0, r0, r4, asr #1
     bd0:	84180e44 	ldrhi	r0, [r8], #-3652	; 0xfffff1bc
     bd4:	86058506 	strhi	r8, [r5], -r6, lsl #10
     bd8:	88038704 	stmdahi	r3, {r2, r8, r9, sl, pc}
     bdc:	00018e02 	andeq	r8, r1, r2, lsl #28
     be0:	00000020 	andeq	r0, r0, r0, lsr #32
     be4:	00000acc 	andeq	r0, r0, ip, asr #21
     be8:	c2005230 	andgt	r5, r0, #48, 4
     bec:	000000ec 	andeq	r0, r0, ip, ror #1
     bf0:	84200e42 	strthi	r0, [r0], #-3650	; 0xfffff1be
     bf4:	86078508 	strhi	r8, [r7], -r8, lsl #10
     bf8:	88058706 	stmdahi	r5, {r1, r2, r8, r9, sl, pc}
     bfc:	8a038904 	bhi	e3014 <SYS_MODE+0xe2ff5>
     c00:	00018e02 	andeq	r8, r1, r2, lsl #28
     c04:	00000020 	andeq	r0, r0, r0, lsr #32
     c08:	00000acc 	andeq	r0, r0, ip, asr #21
     c0c:	c200531c 	andgt	r5, r0, #28, 6	; 0x70000000
     c10:	00000044 	andeq	r0, r0, r4, asr #32
     c14:	84040e4c 	strhi	r0, [r4], #-3660	; 0xfffff1b4
     c18:	0ec44f01 	cdpeq	15, 12, cr4, cr4, cr1, {0}
     c1c:	040e4200 	streq	r4, [lr], #-512	; 0xfffffe00
     c20:	c4440184 	strbgt	r0, [r4], #-388	; 0xfffffe7c
     c24:	0000000e 	andeq	r0, r0, lr
     c28:	00000024 	andeq	r0, r0, r4, lsr #32
     c2c:	00000acc 	andeq	r0, r0, ip, asr #21
     c30:	c2005360 	andgt	r5, r0, #96, 6	; 0x80000001
     c34:	0000015c 	andeq	r0, r0, ip, asr r1
     c38:	83280e42 			; <UNDEFINED> instruction: 0x83280e42
     c3c:	8509840a 	strhi	r8, [r9, #-1034]	; 0xfffffbf6
     c40:	87078608 	strhi	r8, [r7, -r8, lsl #12]
     c44:	89058806 	stmdbhi	r5, {r1, r2, fp, pc}
     c48:	8b038a04 	blhi	e3460 <SYS_MODE+0xe3441>
     c4c:	00018e02 	andeq	r8, r1, r2, lsl #28
     c50:	00000020 	andeq	r0, r0, r0, lsr #32
     c54:	00000acc 	andeq	r0, r0, ip, asr #21
     c58:	00000000 	andeq	r0, r0, r0
     c5c:	0000005e 	andeq	r0, r0, lr, asr r0
     c60:	50080e41 	andpl	r0, r8, r1, asr #28
     c64:	41000e0a 	tstmi	r0, sl, lsl #28
     c68:	0e0a4e0b 	cdpeq	14, 0, cr4, cr10, cr11, {0}
     c6c:	4d0b4100 	stfmis	f4, [fp, #-0]
     c70:	0000000e 	andeq	r0, r0, lr
     c74:	0000001c 	andeq	r0, r0, ip, lsl r0
     c78:	00000acc 	andeq	r0, r0, ip, asr #21
     c7c:	00000000 	andeq	r0, r0, r0
     c80:	000000c8 	andeq	r0, r0, r8, asr #1
     c84:	83180e41 	tsthi	r8, #1040	; 0x410
     c88:	85058406 	strhi	r8, [r5, #-1030]	; 0xfffffbfa
     c8c:	87038604 	strhi	r8, [r3, -r4, lsl #12]
     c90:	00018e02 	andeq	r8, r1, r2, lsl #28
     c94:	0000002c 	andeq	r0, r0, ip, lsr #32
     c98:	00000acc 	andeq	r0, r0, ip, asr #21
     c9c:	c20054bc 	andgt	r5, r0, #188, 8	; 0xbc000000
     ca0:	000000ca 	andeq	r0, r0, sl, asr #1
     ca4:	841c0e42 	ldrhi	r0, [ip], #-3650	; 0xfffff1be
     ca8:	86068507 	strhi	r8, [r6], -r7, lsl #10
     cac:	88048705 	stmdahi	r4, {r0, r2, r8, r9, sl, pc}
     cb0:	8e028903 	vmlahi.f16	s16, s4, s6	; <UNPREDICTABLE>
     cb4:	280e4301 	stmdacs	lr, {r0, r8, r9, lr}
     cb8:	1c0e0a74 			; <UNDEFINED> instruction: 0x1c0e0a74
     cbc:	0a580b42 	beq	16039cc <SYS_MODE+0x16039ad>
     cc0:	0b421c0e 	bleq	1087d00 <SYS_MODE+0x1087ce1>
     cc4:	00000028 	andeq	r0, r0, r8, lsr #32
     cc8:	00000acc 	andeq	r0, r0, ip, asr #21
     ccc:	00000000 	andeq	r0, r0, r0
     cd0:	0000005e 	andeq	r0, r0, lr, asr r0
     cd4:	84140e41 	ldrhi	r0, [r4], #-3649	; 0xfffff1bf
     cd8:	86048505 	strhi	r8, [r4], -r5, lsl #10
     cdc:	8e028703 	cdphi	7, 0, cr8, cr2, cr3, {0}
     ce0:	200e4301 	andcs	r4, lr, r1, lsl #6
     ce4:	140e0a5e 	strne	r0, [lr], #-2654	; 0xfffff5a2
     ce8:	0e4b0b41 	vmlseq.f64	d16, d11, d1
     cec:	00000014 	andeq	r0, r0, r4, lsl r0
     cf0:	0000000c 	andeq	r0, r0, ip
     cf4:	00000acc 	andeq	r0, r0, ip, asr #21
     cf8:	00000000 	andeq	r0, r0, r0
     cfc:	00000028 	andeq	r0, r0, r8, lsr #32
     d00:	00000018 	andeq	r0, r0, r8, lsl r0
     d04:	00000acc 	andeq	r0, r0, ip, asr #21
     d08:	00000000 	andeq	r0, r0, r0
     d0c:	0000005c 	andeq	r0, r0, ip, asr r0
     d10:	84080e4f 	strhi	r0, [r8], #-3663	; 0xfffff1b1
     d14:	56018e02 	strpl	r8, [r1], -r2, lsl #28
     d18:	cec4000e 	cdpgt	0, 12, cr0, cr4, cr14, {0}
     d1c:	0000000c 	andeq	r0, r0, ip
     d20:	00000acc 	andeq	r0, r0, ip, asr #21
     d24:	00000000 	andeq	r0, r0, r0
     d28:	00000048 	andeq	r0, r0, r8, asr #32
     d2c:	0000000c 	andeq	r0, r0, ip
     d30:	ffffffff 			; <UNDEFINED> instruction: 0xffffffff
     d34:	7c020001 	stcvc	0, cr0, [r2], {1}
     d38:	000d0c0e 	andeq	r0, sp, lr, lsl #24
     d3c:	00000020 	andeq	r0, r0, r0, lsr #32
     d40:	00000d2c 	andeq	r0, r0, ip, lsr #26
     d44:	c2005588 	andgt	r5, r0, #136, 10	; 0x22000000
     d48:	00000078 	andeq	r0, r0, r8, ror r0
     d4c:	84080e41 	strhi	r0, [r8], #-3649	; 0xfffff1bf
     d50:	45018502 	strmi	r8, [r1, #-1282]	; 0xfffffafe
     d54:	0e70100e 	cdpeq	0, 7, cr1, cr0, cr14, {0}
     d58:	c4c54108 	strbgt	r4, [r5], #264	; 0x108
     d5c:	0000000e 	andeq	r0, r0, lr
     d60:	0000000c 	andeq	r0, r0, ip
     d64:	ffffffff 			; <UNDEFINED> instruction: 0xffffffff
     d68:	7c020001 	stcvc	0, cr0, [r2], {1}
     d6c:	000d0c0e 	andeq	r0, sp, lr, lsl #24
     d70:	00000018 	andeq	r0, r0, r8, lsl r0
     d74:	00000d60 	andeq	r0, r0, r0, ror #26
     d78:	c2005600 	andgt	r5, r0, #0, 12
     d7c:	00000026 	andeq	r0, r0, r6, lsr #32
     d80:	83100e41 	tsthi	r0, #1040	; 0x410
     d84:	85038404 	strhi	r8, [r3, #-1028]	; 0xfffffbfc
     d88:	00018e02 	andeq	r8, r1, r2, lsl #28
     d8c:	0000000c 	andeq	r0, r0, ip
     d90:	ffffffff 			; <UNDEFINED> instruction: 0xffffffff
     d94:	7c020001 	stcvc	0, cr0, [r2], {1}
     d98:	000d0c0e 	andeq	r0, sp, lr, lsl #24
     d9c:	00000014 	andeq	r0, r0, r4, lsl r0
     da0:	00000d8c 	andeq	r0, r0, ip, lsl #27
     da4:	c2005628 	andgt	r5, r0, #40, 12	; 0x2800000
     da8:	00000022 	andeq	r0, r0, r2, lsr #32
     dac:	84080e41 	strhi	r0, [r8], #-3649	; 0xfffff1bf
     db0:	00018e02 	andeq	r8, r1, r2, lsl #28
     db4:	0000000c 	andeq	r0, r0, ip
     db8:	00000d8c 	andeq	r0, r0, ip, lsl #27
     dbc:	00000000 	andeq	r0, r0, r0
     dc0:	00000004 	andeq	r0, r0, r4
     dc4:	00000028 	andeq	r0, r0, r8, lsr #32
     dc8:	00000d8c 	andeq	r0, r0, ip, lsl #27
     dcc:	c200564c 	andgt	r5, r0, #76, 12	; 0x4c00000
     dd0:	0000003e 	andeq	r0, r0, lr, lsr r0
     dd4:	84180e42 	ldrhi	r0, [r8], #-3650	; 0xfffff1be
     dd8:	86058506 	strhi	r8, [r5], -r6, lsl #10
     ddc:	88038704 	stmdahi	r3, {r2, r8, r9, sl, pc}
     de0:	52018e02 	andpl	r8, r1, #2, 28
     de4:	c7c8ce0a 	strbgt	ip, [r8, sl, lsl #28]
     de8:	0ec4c5c6 	cdpeq	5, 12, cr12, cr4, cr6, {6}
     dec:	000b4200 	andeq	r4, fp, r0, lsl #4
     df0:	00000014 	andeq	r0, r0, r4, lsl r0
     df4:	00000d8c 	andeq	r0, r0, ip, lsl #27
     df8:	c200568c 	andgt	r5, r0, #140, 12	; 0x8c00000
     dfc:	00000020 	andeq	r0, r0, r0, lsr #32
     e00:	84080e41 	strhi	r0, [r8], #-3649	; 0xfffff1bf
     e04:	00018e02 	andeq	r8, r1, r2, lsl #28
     e08:	0000000c 	andeq	r0, r0, ip
     e0c:	00000d8c 	andeq	r0, r0, ip, lsl #27
     e10:	c20056ac 	andgt	r5, r0, #172, 12	; 0xac00000
     e14:	00000008 	andeq	r0, r0, r8
     e18:	0000000c 	andeq	r0, r0, ip
     e1c:	ffffffff 			; <UNDEFINED> instruction: 0xffffffff
     e20:	7c020001 	stcvc	0, cr0, [r2], {1}
     e24:	000d0c0e 	andeq	r0, sp, lr, lsl #24
     e28:	00000018 	andeq	r0, r0, r8, lsl r0
     e2c:	00000e18 	andeq	r0, r0, r8, lsl lr
     e30:	c200579c 	andgt	r5, r0, #156, 14	; 0x2700000
     e34:	0000006e 	andeq	r0, r0, lr, rrx
     e38:	840c0e41 	strhi	r0, [ip], #-3649	; 0xfffff1bf
     e3c:	8e028503 	cfsh32hi	mvfx8, mvfx2, #3
     e40:	00000001 	andeq	r0, r0, r1
     e44:	0000000c 	andeq	r0, r0, ip
     e48:	ffffffff 			; <UNDEFINED> instruction: 0xffffffff
     e4c:	7c020001 	stcvc	0, cr0, [r2], {1}
     e50:	000d0c0e 	andeq	r0, sp, lr, lsl #24
     e54:	00000024 	andeq	r0, r0, r4, lsr #32
     e58:	00000e44 	andeq	r0, r0, r4, asr #28
     e5c:	c200580c 	andgt	r5, r0, #12, 16	; 0xc0000
     e60:	00000074 	andeq	r0, r0, r4, ror r0
     e64:	83280e42 			; <UNDEFINED> instruction: 0x83280e42
     e68:	8509840a 	strhi	r8, [r9, #-1034]	; 0xfffffbf6
     e6c:	87078608 	strhi	r8, [r7, -r8, lsl #12]
     e70:	89058806 	stmdbhi	r5, {r1, r2, fp, pc}
     e74:	8b038a04 	blhi	e368c <SYS_MODE+0xe366d>
     e78:	00018e02 	andeq	r8, r1, r2, lsl #28
     e7c:	0000001c 	andeq	r0, r0, ip, lsl r0
     e80:	00000e44 	andeq	r0, r0, r4, asr #28
     e84:	c2005880 	andgt	r5, r0, #128, 16	; 0x800000
     e88:	00000018 	andeq	r0, r0, r8, lsl r0
     e8c:	84040e41 	strhi	r0, [r4], #-3649	; 0xfffff1bf
     e90:	c40a4401 	strgt	r4, [sl], #-1025	; 0xfffffbff
     e94:	0b42000e 	bleq	1080ed4 <SYS_MODE+0x1080eb5>
     e98:	000ec444 	andeq	ip, lr, r4, asr #8
     e9c:	00000058 	andeq	r0, r0, r8, asr r0
     ea0:	00000e44 	andeq	r0, r0, r4, asr #28
     ea4:	c2005898 	andgt	r5, r0, #152, 16	; 0x980000
     ea8:	00000da0 	andeq	r0, r0, r0, lsr #27
     eac:	84240e42 	strthi	r0, [r4], #-3650	; 0xfffff1be
     eb0:	86088509 	strhi	r8, [r8], -r9, lsl #10
     eb4:	88068707 	stmdahi	r6, {r0, r1, r2, r8, r9, sl, pc}
     eb8:	8a048905 	bhi	1232d4 <SYS_MODE+0x1232b5>
     ebc:	8e028b03 	vmlahi.f64	d8, d2, d3
     ec0:	2c0e4401 	cfstrscs	mvf4, [lr], {1}
     ec4:	050b5005 	streq	r5, [fp, #-5]
     ec8:	0e410a51 			; <UNDEFINED> instruction: 0x0e410a51
     ecc:	46030298 			; <UNDEFINED> instruction: 0x46030298
     ed0:	2c0e0a01 			; <UNDEFINED> instruction: 0x2c0e0a01
     ed4:	06500642 	ldrbeq	r0, [r0], -r2, asr #12
     ed8:	42240e51 	eormi	r0, r4, #1296	; 0x510
     edc:	c9cacbce 	stmibgt	sl, {r1, r2, r3, r6, r7, r8, r9, fp, lr, pc}^
     ee0:	c5c6c7c8 	strbgt	ip, [r6, #1992]	; 0x7c8
     ee4:	42000ec4 	andmi	r0, r0, #196, 28	; 0xc40
     ee8:	0a55020b 	beq	154171c <SYS_MODE+0x15416fd>
     eec:	06422c0e 	strbeq	r2, [r2], -lr, lsl #24
     ef0:	0e510650 	mrceq	6, 2, r0, cr1, cr0, {2}
     ef4:	000b4224 	andeq	r4, fp, r4, lsr #4
     ef8:	00000018 	andeq	r0, r0, r8, lsl r0
     efc:	00000e44 	andeq	r0, r0, r4, asr #28
     f00:	00000000 	andeq	r0, r0, r0
     f04:	0000001e 	andeq	r0, r0, lr, lsl r0
     f08:	8e040e45 	cdphi	14, 0, cr0, cr4, cr5, {2}
     f0c:	0ece4801 	cdpeq	8, 12, cr4, cr14, cr1, {0}
     f10:	00000000 	andeq	r0, r0, r0
     f14:	00000020 	andeq	r0, r0, r0, lsr #32
     f18:	00000e44 	andeq	r0, r0, r4, asr #28
     f1c:	c2006638 	andgt	r6, r0, #56, 12	; 0x3800000
     f20:	00000080 	andeq	r0, r0, r0, lsl #1
     f24:	84100e41 	ldrhi	r0, [r0], #-3649	; 0xfffff1bf
     f28:	86038504 	strhi	r8, [r3], -r4, lsl #10
     f2c:	44018e02 	strmi	r8, [r1], #-3586	; 0xfffff1fe
     f30:	7a09800e 	bvc	260f70 <SYS_MODE+0x260f51>
     f34:	0000100e 	andeq	r1, r0, lr
     f38:	0000000c 	andeq	r0, r0, ip
     f3c:	ffffffff 			; <UNDEFINED> instruction: 0xffffffff
     f40:	7c020001 	stcvc	0, cr0, [r2], {1}
     f44:	000d0c0e 	andeq	r0, sp, lr, lsl #24
     f48:	00000018 	andeq	r0, r0, r8, lsl r0
     f4c:	00000f38 	andeq	r0, r0, r8, lsr pc
     f50:	c20066b8 	andgt	r6, r0, #184, 12	; 0xb800000
     f54:	0000002e 	andeq	r0, r0, lr, lsr #32
     f58:	83100e41 	tsthi	r0, #1040	; 0x410
     f5c:	85038404 	strhi	r8, [r3, #-1028]	; 0xfffffbfc
     f60:	00018e02 	andeq	r8, r1, r2, lsl #28
     f64:	0000000c 	andeq	r0, r0, ip
     f68:	ffffffff 			; <UNDEFINED> instruction: 0xffffffff
     f6c:	7c020001 	stcvc	0, cr0, [r2], {1}
     f70:	000d0c0e 	andeq	r0, sp, lr, lsl #24
     f74:	00000014 	andeq	r0, r0, r4, lsl r0
     f78:	00000f64 	andeq	r0, r0, r4, ror #30
     f7c:	c20066e8 	andgt	r6, r0, #232, 12	; 0xe800000
     f80:	00000044 	andeq	r0, r0, r4, asr #32
     f84:	8e040e45 	cdphi	14, 0, cr0, cr4, cr5, {2}
     f88:	180e4501 	stmdane	lr, {r0, r8, sl, lr}
     f8c:	00000014 	andeq	r0, r0, r4, lsl r0
     f90:	00000f64 	andeq	r0, r0, r4, ror #30
     f94:	00000000 	andeq	r0, r0, r0
     f98:	0000000a 	andeq	r0, r0, sl
     f9c:	83080e41 	movwhi	r0, #36417	; 0x8e41
     fa0:	00018e02 	andeq	r8, r1, r2, lsl #28
     fa4:	0000000c 	andeq	r0, r0, ip
     fa8:	ffffffff 			; <UNDEFINED> instruction: 0xffffffff
     fac:	7c020001 	stcvc	0, cr0, [r2], {1}
     fb0:	000d0c0e 	andeq	r0, sp, lr, lsl #24
     fb4:	00000018 	andeq	r0, r0, r8, lsl r0
     fb8:	00000fa4 	andeq	r0, r0, r4, lsr #31
     fbc:	c200672c 	andgt	r6, r0, #44, 14	; 0xb00000
     fc0:	00000078 	andeq	r0, r0, r8, ror r0
     fc4:	83100e41 	tsthi	r0, #1040	; 0x410
     fc8:	85038404 	strhi	r8, [r3, #-1028]	; 0xfffffbfc
     fcc:	00018e02 	andeq	r8, r1, r2, lsl #28
     fd0:	0000000c 	andeq	r0, r0, ip
     fd4:	ffffffff 			; <UNDEFINED> instruction: 0xffffffff
     fd8:	7c020001 	stcvc	0, cr0, [r2], {1}
     fdc:	000d0c0e 	andeq	r0, sp, lr, lsl #24
     fe0:	00000018 	andeq	r0, r0, r8, lsl r0
     fe4:	00000fd0 	ldrdeq	r0, [r0], -r0	; <UNPREDICTABLE>
     fe8:	c20067a4 	andgt	r6, r0, #164, 14	; 0x2900000
     fec:	00000026 	andeq	r0, r0, r6, lsr #32
     ff0:	83100e41 	tsthi	r0, #1040	; 0x410
     ff4:	85038404 	strhi	r8, [r3, #-1028]	; 0xfffffbfc
     ff8:	00018e02 	andeq	r8, r1, r2, lsl #28
     ffc:	0000000c 	andeq	r0, r0, ip
    1000:	ffffffff 			; <UNDEFINED> instruction: 0xffffffff
    1004:	7c020001 	stcvc	0, cr0, [r2], {1}
    1008:	000d0c0e 	andeq	r0, sp, lr, lsl #24
    100c:	0000000c 	andeq	r0, r0, ip
    1010:	00000ffc 	strdeq	r0, [r0], -ip
    1014:	c20067cc 	andgt	r6, r0, #204, 14	; 0x3300000
    1018:	0000000c 	andeq	r0, r0, ip
    101c:	0000000c 	andeq	r0, r0, ip
    1020:	ffffffff 			; <UNDEFINED> instruction: 0xffffffff
    1024:	7c020001 	stcvc	0, cr0, [r2], {1}
    1028:	000d0c0e 	andeq	r0, sp, lr, lsl #24
    102c:	00000018 	andeq	r0, r0, r8, lsl r0
    1030:	0000101c 	andeq	r1, r0, ip, lsl r0
    1034:	c20067d8 	andgt	r6, r0, #216, 14	; 0x3600000
    1038:	000000cc 	andeq	r0, r0, ip, asr #1
    103c:	84100e41 	ldrhi	r0, [r0], #-3649	; 0xfffff1bf
    1040:	86038504 	strhi	r8, [r3], -r4, lsl #10
    1044:	00018e02 	andeq	r8, r1, r2, lsl #28
    1048:	0000000c 	andeq	r0, r0, ip
    104c:	0000101c 	andeq	r1, r0, ip, lsl r0
    1050:	00000000 	andeq	r0, r0, r0
    1054:	00000010 	andeq	r0, r0, r0, lsl r0
    1058:	0000000c 	andeq	r0, r0, ip
    105c:	ffffffff 			; <UNDEFINED> instruction: 0xffffffff
    1060:	7c020001 	stcvc	0, cr0, [r2], {1}
    1064:	000d0c0e 	andeq	r0, sp, lr, lsl #24
    1068:	00000028 	andeq	r0, r0, r8, lsr #32
    106c:	00001058 	andeq	r1, r0, r8, asr r0
    1070:	00000000 	andeq	r0, r0, r0
    1074:	0000001c 	andeq	r0, r0, ip, lsl r0
    1078:	82080e41 	andhi	r0, r8, #1040	; 0x410
    107c:	41018302 	tstmi	r1, r2, lsl #6
    1080:	038e0c0e 	orreq	r0, lr, #3584	; 0xe00
    1084:	47180e41 	ldrmi	r0, [r8, -r1, asr #28]
    1088:	ce420c0e 	cdpgt	12, 4, cr0, cr2, cr14, {0}
    108c:	c341080e 	movtgt	r0, #6158	; 0x180e
    1090:	00000ec2 	andeq	r0, r0, r2, asr #29
    1094:	0000002c 	andeq	r0, r0, ip, lsr #32
    1098:	00001058 	andeq	r1, r0, r8, asr r0
    109c:	c20068a4 	andgt	r6, r0, #164, 16	; 0xa40000
    10a0:	0000002a 	andeq	r0, r0, sl, lsr #32
    10a4:	810c0e41 	tsthi	ip, r1, asr #28
    10a8:	83028203 	movwhi	r8, #8707	; 0x2203
    10ac:	100e4501 	andne	r4, lr, r1, lsl #10
    10b0:	0e42048e 	cdpeq	4, 4, cr0, cr2, cr14, {4}
    10b4:	100e4918 	andne	r4, lr, r8, lsl r9
    10b8:	0c0ece42 	stceq	14, cr12, [lr], {66}	; 0x42
    10bc:	c1c2c341 	bicgt	ip, r2, r1, asr #6
    10c0:	0000000e 	andeq	r0, r0, lr
    10c4:	0000000c 	andeq	r0, r0, ip
    10c8:	ffffffff 			; <UNDEFINED> instruction: 0xffffffff
    10cc:	7c020001 	stcvc	0, cr0, [r2], {1}
    10d0:	000d0c0e 	andeq	r0, sp, lr, lsl #24
    10d4:	00000030 	andeq	r0, r0, r0, lsr r0
    10d8:	000010c4 	andeq	r1, r0, r4, asr #1
    10dc:	c20068d0 	andgt	r6, r0, #208, 16	; 0xd00000
    10e0:	000000aa 	andeq	r0, r0, sl, lsr #1
    10e4:	84200e42 	strthi	r0, [r0], #-3650	; 0xfffff1be
    10e8:	86078508 	strhi	r8, [r7], -r8, lsl #10
    10ec:	88058706 	stmdahi	r5, {r1, r2, r8, r9, sl, pc}
    10f0:	8a038904 	bhi	e3508 <SYS_MODE+0xe34e9>
    10f4:	43018e02 	movwmi	r8, #7682	; 0x1e02
    10f8:	0a7e280e 	beq	1f8b138 <SYS_MODE+0x1f8b119>
    10fc:	0b42200e 	bleq	108913c <SYS_MODE+0x108911d>
    1100:	200e0a49 	andcs	r0, lr, r9, asr #20
    1104:	00000b42 	andeq	r0, r0, r2, asr #22
    1108:	00000024 	andeq	r0, r0, r4, lsr #32
    110c:	000010c4 	andeq	r1, r0, r4, asr #1
    1110:	c200697c 	andgt	r6, r0, #124, 18	; 0x1f0000
    1114:	0000006a 	andeq	r0, r0, sl, rrx
    1118:	840c0e42 	strhi	r0, [ip], #-3650	; 0xfffff1be
    111c:	8e028503 	cfsh32hi	mvfx8, mvfx2, #3
    1120:	180e4301 	stmdane	lr, {r0, r8, r9, lr}
    1124:	0c0e0a5b 			; <UNDEFINED> instruction: 0x0c0e0a5b
    1128:	0e530b41 	vnmlaeq.f64	d16, d3, d1
    112c:	0000000c 	andeq	r0, r0, ip
    1130:	00000018 	andeq	r0, r0, r8, lsl r0
    1134:	000010c4 	andeq	r1, r0, r4, asr #1
    1138:	00000000 	andeq	r0, r0, r0
    113c:	00000074 	andeq	r0, r0, r4, ror r0
    1140:	84100e45 	ldrhi	r0, [r0], #-3653	; 0xfffff1bb
    1144:	86038504 	strhi	r8, [r3], -r4, lsl #10
    1148:	00018e02 	andeq	r8, r1, r2, lsl #28
    114c:	0000000c 	andeq	r0, r0, ip
    1150:	ffffffff 			; <UNDEFINED> instruction: 0xffffffff
    1154:	7c020001 	stcvc	0, cr0, [r2], {1}
    1158:	000d0c0e 	andeq	r0, sp, lr, lsl #24
    115c:	00000018 	andeq	r0, r0, r8, lsl r0
    1160:	0000114c 	andeq	r1, r0, ip, asr #2
    1164:	c20069e8 	andgt	r6, r0, #232, 18	; 0x3a0000
    1168:	0000002c 	andeq	r0, r0, ip, lsr #32
    116c:	83100e41 	tsthi	r0, #1040	; 0x410
    1170:	85038404 	strhi	r8, [r3, #-1028]	; 0xfffffbfc
    1174:	00018e02 	andeq	r8, r1, r2, lsl #28
    1178:	0000000c 	andeq	r0, r0, ip
    117c:	ffffffff 			; <UNDEFINED> instruction: 0xffffffff
    1180:	7c020001 	stcvc	0, cr0, [r2], {1}
    1184:	000d0c0e 	andeq	r0, sp, lr, lsl #24
    1188:	00000050 	andeq	r0, r0, r0, asr r0
    118c:	00001178 	andeq	r1, r0, r8, ror r1
    1190:	c2006a14 	andgt	r6, r0, #20, 20	; 0x14000
    1194:	000002fa 	strdeq	r0, [r0], -sl
    1198:	84240e46 	strthi	r0, [r4], #-3654	; 0xfffff1ba
    119c:	86088509 	strhi	r8, [r8], -r9, lsl #10
    11a0:	88068707 	stmdahi	r6, {r0, r1, r2, r8, r9, sl, pc}
    11a4:	8a048905 	bhi	1235c0 <SYS_MODE+0x1235a1>
    11a8:	8e028b03 	vmlahi.f64	d8, d2, d3
    11ac:	300e4401 	andcc	r4, lr, r1, lsl #8
    11b0:	240e0a6b 	strcs	r0, [lr], #-2667	; 0xfffff595
    11b4:	83020b42 	movwhi	r0, #11074	; 0x2b42
    11b8:	0e42240e 	cdpeq	4, 4, cr2, cr2, cr14, {0}
    11bc:	c6c5c400 	strbgt	ip, [r5], r0, lsl #8
    11c0:	cac9c8c7 	bgt	ff2734e4 <__HeapLimit+0x3d2664e4>
    11c4:	0e42cecb 	cdpeq	14, 4, cr12, cr2, cr11, {6}
    11c8:	85098430 	strhi	r8, [r9, #-1072]	; 0xfffffbd0
    11cc:	87078608 	strhi	r8, [r7, -r8, lsl #12]
    11d0:	89058806 	stmdbhi	r5, {r1, r2, fp, pc}
    11d4:	8b038a04 	blhi	e39ec <SYS_MODE+0xe39cd>
    11d8:	00018e02 	andeq	r8, r1, r2, lsl #28
    11dc:	0000000c 	andeq	r0, r0, ip
    11e0:	ffffffff 			; <UNDEFINED> instruction: 0xffffffff
    11e4:	7c020001 	stcvc	0, cr0, [r2], {1}
    11e8:	000d0c0e 	andeq	r0, sp, lr, lsl #24
    11ec:	00000018 	andeq	r0, r0, r8, lsl r0
    11f0:	000011dc 	ldrdeq	r1, [r0], -ip
    11f4:	c2006d10 	andgt	r6, r0, #16, 26	; 0x400
    11f8:	00000026 	andeq	r0, r0, r6, lsr #32
    11fc:	83100e41 	tsthi	r0, #1040	; 0x410
    1200:	85038404 	strhi	r8, [r3, #-1028]	; 0xfffffbfc
    1204:	00018e02 	andeq	r8, r1, r2, lsl #28
    1208:	0000000c 	andeq	r0, r0, ip
    120c:	ffffffff 			; <UNDEFINED> instruction: 0xffffffff
    1210:	7c020001 	stcvc	0, cr0, [r2], {1}
    1214:	000d0c0e 	andeq	r0, sp, lr, lsl #24
    1218:	00000020 	andeq	r0, r0, r0, lsr #32
    121c:	00001208 	andeq	r1, r0, r8, lsl #4
    1220:	00000000 	andeq	r0, r0, r0
    1224:	00000052 	andeq	r0, r0, r2, asr r0
    1228:	84080e42 	strhi	r0, [r8], #-3650	; 0xfffff1be
    122c:	4e018e02 	cdpmi	14, 0, cr8, cr1, cr2, {0}
    1230:	cec4000e 	cdpgt	0, 12, cr0, cr4, cr14, {0}
    1234:	84080e45 	strhi	r0, [r8], #-3653	; 0xfffff1bb
    1238:	00018e02 	andeq	r8, r1, r2, lsl #28
    123c:	0000000c 	andeq	r0, r0, ip
    1240:	00001208 	andeq	r1, r0, r8, lsl #4
    1244:	c2006d38 	andgt	r6, r0, #56, 26	; 0xe00
    1248:	0000000e 	andeq	r0, r0, lr
    124c:	00000020 	andeq	r0, r0, r0, lsr #32
    1250:	00001208 	andeq	r1, r0, r8, lsl #4
    1254:	00000000 	andeq	r0, r0, r0
    1258:	00000052 	andeq	r0, r0, r2, asr r0
    125c:	84080e42 	strhi	r0, [r8], #-3650	; 0xfffff1be
    1260:	4e018e02 	cdpmi	14, 0, cr8, cr1, cr2, {0}
    1264:	cec4000e 	cdpgt	0, 12, cr0, cr4, cr14, {0}
    1268:	84080e45 	strhi	r0, [r8], #-3653	; 0xfffff1bb
    126c:	00018e02 	andeq	r8, r1, r2, lsl #28
    1270:	0000000c 	andeq	r0, r0, ip
    1274:	ffffffff 			; <UNDEFINED> instruction: 0xffffffff
    1278:	7c020001 	stcvc	0, cr0, [r2], {1}
    127c:	000d0c0e 	andeq	r0, sp, lr, lsl #24
    1280:	00000018 	andeq	r0, r0, r8, lsl r0
    1284:	00001270 	andeq	r1, r0, r0, ror r2
    1288:	c2006d48 	andgt	r6, r0, #72, 26	; 0x1200
    128c:	0000002e 	andeq	r0, r0, lr, lsr #32
    1290:	83100e41 	tsthi	r0, #1040	; 0x410
    1294:	85038404 	strhi	r8, [r3, #-1028]	; 0xfffffbfc
    1298:	00018e02 	andeq	r8, r1, r2, lsl #28
    129c:	0000000c 	andeq	r0, r0, ip
    12a0:	ffffffff 			; <UNDEFINED> instruction: 0xffffffff
    12a4:	7c020001 	stcvc	0, cr0, [r2], {1}
    12a8:	000d0c0e 	andeq	r0, sp, lr, lsl #24
    12ac:	00000018 	andeq	r0, r0, r8, lsl r0
    12b0:	0000129c 	muleq	r0, ip, r2
    12b4:	00000000 	andeq	r0, r0, r0
    12b8:	00000016 	andeq	r0, r0, r6, lsl r0
    12bc:	84040e45 	strhi	r0, [r4], #-3653	; 0xfffff1bb
    12c0:	0ec44501 	cdpeq	5, 12, cr4, cr4, cr1, {0}
    12c4:	00000000 	andeq	r0, r0, r0
    12c8:	00000018 	andeq	r0, r0, r8, lsl r0
    12cc:	0000129c 	muleq	r0, ip, r2
    12d0:	c2006d78 	andgt	r6, r0, #120, 26	; 0x1e00
    12d4:	00000024 	andeq	r0, r0, r4, lsr #32
    12d8:	4b080e41 	blmi	204be4 <SYS_MODE+0x204bc5>
    12dc:	41000e0a 	tstmi	r0, sl, lsl #28
    12e0:	0000000b 	andeq	r0, r0, fp
    12e4:	0000000c 	andeq	r0, r0, ip
    12e8:	ffffffff 			; <UNDEFINED> instruction: 0xffffffff
    12ec:	7c020001 	stcvc	0, cr0, [r2], {1}
    12f0:	000d0c0e 	andeq	r0, sp, lr, lsl #24
    12f4:	00000020 	andeq	r0, r0, r0, lsr #32
    12f8:	000012e4 	andeq	r1, r0, r4, ror #5
    12fc:	c2006d9c 	andgt	r6, r0, #156, 26	; 0x2700
    1300:	000000f6 	strdeq	r0, [r0], -r6
    1304:	84100e68 	ldrhi	r0, [r0], #-3688	; 0xfffff198
    1308:	86038504 	strhi	r8, [r3], -r4, lsl #10
    130c:	02018e02 	andeq	r8, r1, #2, 28
    1310:	c4000e4f 	strgt	r0, [r0], #-3663	; 0xfffff1b1
    1314:	00cec6c5 	sbceq	ip, lr, r5, asr #13
    1318:	0000000c 	andeq	r0, r0, ip
    131c:	ffffffff 			; <UNDEFINED> instruction: 0xffffffff
    1320:	7c020001 	stcvc	0, cr0, [r2], {1}
    1324:	000d0c0e 	andeq	r0, sp, lr, lsl #24
    1328:	00000018 	andeq	r0, r0, r8, lsl r0
    132c:	00001318 	andeq	r1, r0, r8, lsl r3
    1330:	c2006e94 	andgt	r6, r0, #148, 28	; 0x940
    1334:	0000002e 	andeq	r0, r0, lr, lsr #32
    1338:	83100e41 	tsthi	r0, #1040	; 0x410
    133c:	85038404 	strhi	r8, [r3, #-1028]	; 0xfffffbfc
    1340:	00018e02 	andeq	r8, r1, r2, lsl #28
    1344:	0000000c 	andeq	r0, r0, ip
    1348:	ffffffff 			; <UNDEFINED> instruction: 0xffffffff
    134c:	7c020001 	stcvc	0, cr0, [r2], {1}
    1350:	000d0c0e 	andeq	r0, sp, lr, lsl #24
    1354:	0000004c 	andeq	r0, r0, ip, asr #32
    1358:	00001344 	andeq	r1, r0, r4, asr #6
    135c:	c2006ec4 	andgt	r6, r0, #196, 28	; 0xc40
    1360:	0000040a 	andeq	r0, r0, sl, lsl #8
    1364:	84240e42 	strthi	r0, [r4], #-3650	; 0xfffff1be
    1368:	86088509 	strhi	r8, [r8], -r9, lsl #10
    136c:	88068707 	stmdahi	r6, {r0, r1, r2, r8, r9, sl, pc}
    1370:	8a048905 	bhi	12378c <SYS_MODE+0x12376d>
    1374:	8e028b03 	vmlahi.f64	d8, d2, d3
    1378:	300e4201 	andcc	r4, lr, r1, lsl #4
    137c:	0e0a7702 	cdpeq	7, 0, cr7, cr10, cr2, {0}
    1380:	5a0b4224 	bpl	2d1c18 <SYS_MODE+0x2d1bf9>
    1384:	42240e0a 	eormi	r0, r4, #10, 28	; 0xa0
    1388:	0e0a640b 	cdpeq	4, 0, cr6, cr10, cr11, {0}
    138c:	cbce4224 	blgt	ff391c24 <__HeapLimit+0x3d384c24>
    1390:	c7c8c9ca 	strbgt	ip, [r8, sl, asr #19]
    1394:	0ec4c5c6 	cdpeq	5, 12, cr12, cr4, cr6, {6}
    1398:	460b4200 	strmi	r4, [fp], -r0, lsl #4
    139c:	42240e0a 	eormi	r0, r4, #10, 28	; 0xa0
    13a0:	0000000b 	andeq	r0, r0, fp
    13a4:	0000000c 	andeq	r0, r0, ip
    13a8:	ffffffff 			; <UNDEFINED> instruction: 0xffffffff
    13ac:	7c020001 	stcvc	0, cr0, [r2], {1}
    13b0:	000d0c0e 	andeq	r0, sp, lr, lsl #24
    13b4:	00000024 	andeq	r0, r0, r4, lsr #32
    13b8:	000013a4 	andeq	r1, r0, r4, lsr #7
    13bc:	00000000 	andeq	r0, r0, r0
    13c0:	00000048 	andeq	r0, r0, r8, asr #32
    13c4:	84180e42 	ldrhi	r0, [r8], #-3650	; 0xfffff1be
    13c8:	86058506 	strhi	r8, [r5], -r6, lsl #10
    13cc:	88038704 	stmdahi	r3, {r2, r8, r9, sl, pc}
    13d0:	60018e02 	andvs	r8, r1, r2, lsl #28
    13d4:	c6c7c8ce 	strbgt	ip, [r7], lr, asr #17
    13d8:	000ec4c5 	andeq	ip, lr, r5, asr #9
    13dc:	00000028 	andeq	r0, r0, r8, lsr #32
    13e0:	000013a4 	andeq	r1, r0, r4, lsr #7
    13e4:	00000000 	andeq	r0, r0, r0
    13e8:	00000092 	muleq	r0, r2, r0
    13ec:	84100e49 	ldrhi	r0, [r0], #-3657	; 0xfffff1b7
    13f0:	86038504 	strhi	r8, [r3], -r4, lsl #10
    13f4:	7c018e02 	stcvc	14, cr8, [r1], {2}
    13f8:	c5c6ce0a 	strbgt	ip, [r6, #3594]	; 0xe0a
    13fc:	42000ec4 	andmi	r0, r0, #196, 28	; 0xc40
    1400:	000e410b 	andeq	r4, lr, fp, lsl #2
    1404:	cec6c5c4 	cdpgt	5, 12, cr12, cr6, cr4, {6}
    1408:	0000000c 	andeq	r0, r0, ip
    140c:	ffffffff 			; <UNDEFINED> instruction: 0xffffffff
    1410:	7c020001 	stcvc	0, cr0, [r2], {1}
    1414:	000d0c0e 	andeq	r0, sp, lr, lsl #24
    1418:	0000001c 	andeq	r0, r0, ip, lsl r0
    141c:	00001408 	andeq	r1, r0, r8, lsl #8
    1420:	c20072d0 	andgt	r7, r0, #208, 4
    1424:	000000b0 	strheq	r0, [r0], -r0	; <UNPREDICTABLE>
    1428:	83180e41 	tsthi	r8, #1040	; 0x410
    142c:	85058406 	strhi	r8, [r5, #-1030]	; 0xfffffbfa
    1430:	87038604 	strhi	r8, [r3, -r4, lsl #12]
    1434:	00018e02 	andeq	r8, r1, r2, lsl #28
    1438:	0000000c 	andeq	r0, r0, ip
    143c:	00001408 	andeq	r1, r0, r8, lsl #8
    1440:	00000000 	andeq	r0, r0, r0
    1444:	00000012 	andeq	r0, r0, r2, lsl r0
    1448:	0000000c 	andeq	r0, r0, ip
    144c:	ffffffff 			; <UNDEFINED> instruction: 0xffffffff
    1450:	7c020001 	stcvc	0, cr0, [r2], {1}
    1454:	000d0c0e 	andeq	r0, sp, lr, lsl #24
    1458:	00000020 	andeq	r0, r0, r0, lsr #32
    145c:	00001448 	andeq	r1, r0, r8, asr #8
    1460:	c2007380 	andgt	r7, r0, #128, 6
    1464:	0000003c 	andeq	r0, r0, ip, lsr r0
    1468:	84100e41 	ldrhi	r0, [r0], #-3649	; 0xfffff1bf
    146c:	86038504 	strhi	r8, [r3], -r4, lsl #10
    1470:	43018e02 	movwmi	r8, #7682	; 0x1e02
    1474:	0a4f200e 	beq	13c94b4 <SYS_MODE+0x13c9495>
    1478:	0b41100e 	bleq	10454b8 <SYS_MODE+0x1045499>
    147c:	00000020 	andeq	r0, r0, r0, lsr #32
    1480:	00001448 	andeq	r1, r0, r8, asr #8
    1484:	00000000 	andeq	r0, r0, r0
    1488:	00000050 	andeq	r0, r0, r0, asr r0
    148c:	84100e45 	ldrhi	r0, [r0], #-3653	; 0xfffff1bb
    1490:	86038504 	strhi	r8, [r3], -r4, lsl #10
    1494:	43018e02 	movwmi	r8, #7682	; 0x1e02
    1498:	0a53200e 	beq	14c94d8 <SYS_MODE+0x14c94b9>
    149c:	0b41100e 	bleq	10454dc <SYS_MODE+0x10454bd>
    14a0:	0000000c 	andeq	r0, r0, ip
    14a4:	ffffffff 			; <UNDEFINED> instruction: 0xffffffff
    14a8:	7c020001 	stcvc	0, cr0, [r2], {1}
    14ac:	000d0c0e 	andeq	r0, sp, lr, lsl #24
    14b0:	00000018 	andeq	r0, r0, r8, lsl r0
    14b4:	000014a0 	andeq	r1, r0, r0, lsr #9
    14b8:	00000000 	andeq	r0, r0, r0
    14bc:	00000016 	andeq	r0, r0, r6, lsl r0
    14c0:	84040e45 	strhi	r0, [r4], #-3653	; 0xfffff1bb
    14c4:	0ec44501 	cdpeq	5, 12, cr4, cr4, cr1, {0}
    14c8:	00000000 	andeq	r0, r0, r0
    14cc:	0000000c 	andeq	r0, r0, ip
    14d0:	000014a0 	andeq	r1, r0, r0, lsr #9
    14d4:	c20073bc 	andgt	r7, r0, #188, 6	; 0xf0000002
    14d8:	0000001c 	andeq	r0, r0, ip, lsl r0
    14dc:	0000000c 	andeq	r0, r0, ip
    14e0:	ffffffff 			; <UNDEFINED> instruction: 0xffffffff
    14e4:	7c020001 	stcvc	0, cr0, [r2], {1}
    14e8:	000d0c0e 	andeq	r0, sp, lr, lsl #24
    14ec:	00000014 	andeq	r0, r0, r4, lsl r0
    14f0:	000014dc 	ldrdeq	r1, [r0], -ip
    14f4:	c20073d8 	andgt	r7, r0, #216, 6	; 0x60000003
    14f8:	0000000e 	andeq	r0, r0, lr
    14fc:	83080e42 	movwhi	r0, #36418	; 0x8e42
    1500:	00018e02 	andeq	r8, r1, r2, lsl #28
    1504:	0000000c 	andeq	r0, r0, ip
    1508:	ffffffff 			; <UNDEFINED> instruction: 0xffffffff
    150c:	7c020001 	stcvc	0, cr0, [r2], {1}
    1510:	000d0c0e 	andeq	r0, sp, lr, lsl #24
    1514:	00000018 	andeq	r0, r0, r8, lsl r0
    1518:	00001504 	andeq	r1, r0, r4, lsl #10
    151c:	00000000 	andeq	r0, r0, r0
    1520:	00000030 	andeq	r0, r0, r0, lsr r0
    1524:	83100e41 	tsthi	r0, #1040	; 0x410
    1528:	85038404 	strhi	r8, [r3, #-1028]	; 0xfffffbfc
    152c:	00018e02 	andeq	r8, r1, r2, lsl #28
    1530:	0000001c 	andeq	r0, r0, ip, lsl r0
    1534:	00001504 	andeq	r1, r0, r4, lsl #10
    1538:	00000000 	andeq	r0, r0, r0
    153c:	0000004c 	andeq	r0, r0, ip, asr #32
    1540:	83180e41 	tsthi	r8, #1040	; 0x410
    1544:	85058406 	strhi	r8, [r5, #-1030]	; 0xfffffbfa
    1548:	87038604 	strhi	r8, [r3, -r4, lsl #12]
    154c:	00018e02 	andeq	r8, r1, r2, lsl #28
    1550:	00000020 	andeq	r0, r0, r0, lsr #32
    1554:	00001504 	andeq	r1, r0, r4, lsl #10
    1558:	00000000 	andeq	r0, r0, r0
    155c:	00000056 	andeq	r0, r0, r6, asr r0
    1560:	83100e41 	tsthi	r0, #1040	; 0x410
    1564:	85038404 	strhi	r8, [r3, #-1028]	; 0xfffffbfc
    1568:	68018e02 	stmdavs	r1, {r1, r9, sl, fp, pc}
    156c:	c3c4c5ce 	bicgt	ip, r4, #864026624	; 0x33800000
    1570:	0000000e 	andeq	r0, r0, lr
    1574:	00000020 	andeq	r0, r0, r0, lsr #32
    1578:	00001504 	andeq	r1, r0, r4, lsl #10
    157c:	00000000 	andeq	r0, r0, r0
    1580:	00000062 	andeq	r0, r0, r2, rrx
    1584:	83100e45 	tsthi	r0, #1104	; 0x450
    1588:	85038404 	strhi	r8, [r3, #-1028]	; 0xfffffbfc
    158c:	69018e02 	stmdbvs	r1, {r1, r9, sl, fp, pc}
    1590:	c4c3000e 	strbgt	r0, [r3], #14
    1594:	0000cec5 	andeq	ip, r0, r5, asr #29
    1598:	00000020 	andeq	r0, r0, r0, lsr #32
    159c:	00001504 	andeq	r1, r0, r4, lsl #10
    15a0:	c20073e8 	andgt	r7, r0, #232, 6	; 0xa0000003
    15a4:	0000005e 	andeq	r0, r0, lr, asr r0
    15a8:	83100e41 	tsthi	r0, #1040	; 0x410
    15ac:	85038404 	strhi	r8, [r3, #-1028]	; 0xfffffbfc
    15b0:	6c018e02 	stcvs	14, cr8, [r1], {2}
    15b4:	c3c4c5ce 	bicgt	ip, r4, #864026624	; 0x33800000
    15b8:	0000000e 	andeq	r0, r0, lr
    15bc:	00000018 	andeq	r0, r0, r8, lsl r0
    15c0:	00001504 	andeq	r1, r0, r4, lsl #10
    15c4:	00000000 	andeq	r0, r0, r0
    15c8:	00000058 	andeq	r0, r0, r8, asr r0
    15cc:	84100e45 	ldrhi	r0, [r0], #-3653	; 0xfffff1bb
    15d0:	86038504 	strhi	r8, [r3], -r4, lsl #10
    15d4:	00018e02 	andeq	r8, r1, r2, lsl #28
    15d8:	00000018 	andeq	r0, r0, r8, lsl r0
    15dc:	00001504 	andeq	r1, r0, r4, lsl #10
    15e0:	00000000 	andeq	r0, r0, r0
    15e4:	0000003a 	andeq	r0, r0, sl, lsr r0
    15e8:	83100e41 	tsthi	r0, #1040	; 0x410
    15ec:	85038404 	strhi	r8, [r3, #-1028]	; 0xfffffbfc
    15f0:	00018e02 	andeq	r8, r1, r2, lsl #28
    15f4:	00000018 	andeq	r0, r0, r8, lsl r0
    15f8:	00001504 	andeq	r1, r0, r4, lsl #10
    15fc:	00000000 	andeq	r0, r0, r0
    1600:	00000066 	andeq	r0, r0, r6, rrx
    1604:	83100e41 	tsthi	r0, #1040	; 0x410
    1608:	85038404 	strhi	r8, [r3, #-1028]	; 0xfffffbfc
    160c:	00018e02 	andeq	r8, r1, r2, lsl #28
    1610:	0000000c 	andeq	r0, r0, ip
    1614:	ffffffff 			; <UNDEFINED> instruction: 0xffffffff
    1618:	7c020001 	stcvc	0, cr0, [r2], {1}
    161c:	000d0c0e 	andeq	r0, sp, lr, lsl #24
    1620:	00000018 	andeq	r0, r0, r8, lsl r0
    1624:	00001610 	andeq	r1, r0, r0, lsl r6
    1628:	c2007448 	andgt	r7, r0, #72, 8	; 0x48000000
    162c:	0000002c 	andeq	r0, r0, ip, lsr #32
    1630:	83100e41 	tsthi	r0, #1040	; 0x410
    1634:	85038404 	strhi	r8, [r3, #-1028]	; 0xfffffbfc
    1638:	00018e02 	andeq	r8, r1, r2, lsl #28
    163c:	0000000c 	andeq	r0, r0, ip
    1640:	00001610 	andeq	r1, r0, r0, lsl r6
    1644:	c2007474 	andgt	r7, r0, #116, 8	; 0x74000000
    1648:	00000004 	andeq	r0, r0, r4
    164c:	0000000c 	andeq	r0, r0, ip
    1650:	ffffffff 			; <UNDEFINED> instruction: 0xffffffff
    1654:	7c010001 	stcvc	0, cr0, [r1], {1}
    1658:	000d0c0e 	andeq	r0, sp, lr, lsl #24
    165c:	0000000c 	andeq	r0, r0, ip
    1660:	0000164c 	andeq	r1, r0, ip, asr #12
    1664:	c2007479 	andgt	r7, r0, #2030043136	; 0x79000000
    1668:	0000025c 	andeq	r0, r0, ip, asr r2
    166c:	0000000c 	andeq	r0, r0, ip
    1670:	ffffffff 			; <UNDEFINED> instruction: 0xffffffff
    1674:	7c010001 	stcvc	0, cr0, [r1], {1}
    1678:	000d0c0e 	andeq	r0, sp, lr, lsl #24
    167c:	0000000c 	andeq	r0, r0, ip
    1680:	0000166c 	andeq	r1, r0, ip, ror #12
    1684:	c20076f1 	andgt	r7, r0, #252706816	; 0xf100000
    1688:	00000294 	muleq	r0, r4, r2
    168c:	0000000c 	andeq	r0, r0, ip
    1690:	ffffffff 			; <UNDEFINED> instruction: 0xffffffff
    1694:	7c020001 	stcvc	0, cr0, [r2], {1}
    1698:	000d0c0e 	andeq	r0, sp, lr, lsl #24
    169c:	00000018 	andeq	r0, r0, r8, lsl r0
    16a0:	0000168c 	andeq	r1, r0, ip, lsl #13
    16a4:	c20079a4 	andgt	r7, r0, #164, 18	; 0x290000
    16a8:	00000030 	andeq	r0, r0, r0, lsr r0
    16ac:	8e100e50 	mrchi	14, 0, r0, cr0, cr0, {2}
    16b0:	0ece4703 	cdpeq	7, 12, cr4, cr14, cr3, {0}
    16b4:	00000010 	andeq	r0, r0, r0, lsl r0
    16b8:	0000000c 	andeq	r0, r0, ip
    16bc:	ffffffff 			; <UNDEFINED> instruction: 0xffffffff
    16c0:	7c020001 	stcvc	0, cr0, [r2], {1}
    16c4:	000d0c0e 	andeq	r0, sp, lr, lsl #24
    16c8:	00000020 	andeq	r0, r0, r0, lsr #32
    16cc:	000016b8 			; <UNDEFINED> instruction: 0x000016b8
    16d0:	c20079d4 	andgt	r7, r0, #212, 18	; 0x350000
    16d4:	00000112 	andeq	r0, r0, r2, lsl r1
    16d8:	84200e43 	strthi	r0, [r0], #-3651	; 0xfffff1bd
    16dc:	86078508 	strhi	r8, [r7], -r8, lsl #10
    16e0:	88058706 	stmdahi	r5, {r1, r2, r8, r9, sl, pc}
    16e4:	8a038904 	bhi	e3afc <SYS_MODE+0xe3add>
    16e8:	00018e02 	andeq	r8, r1, r2, lsl #28
    16ec:	0000000c 	andeq	r0, r0, ip
    16f0:	ffffffff 			; <UNDEFINED> instruction: 0xffffffff
    16f4:	7c020001 	stcvc	0, cr0, [r2], {1}
    16f8:	000d0c0e 	andeq	r0, sp, lr, lsl #24
    16fc:	0000000c 	andeq	r0, r0, ip
    1700:	000016ec 	andeq	r1, r0, ip, ror #13
    1704:	c2007ae8 	andgt	r7, r0, #232, 20	; 0xe8000
    1708:	00000012 	andeq	r0, r0, r2, lsl r0
    170c:	0000000c 	andeq	r0, r0, ip
    1710:	ffffffff 			; <UNDEFINED> instruction: 0xffffffff
    1714:	7c020001 	stcvc	0, cr0, [r2], {1}
    1718:	000d0c0e 	andeq	r0, sp, lr, lsl #24
    171c:	0000000c 	andeq	r0, r0, ip
    1720:	0000170c 	andeq	r1, r0, ip, lsl #14
    1724:	c2007afc 	andgt	r7, r0, #252, 20	; 0xfc000
    1728:	00000012 	andeq	r0, r0, r2, lsl r0
    172c:	0000000c 	andeq	r0, r0, ip
    1730:	ffffffff 			; <UNDEFINED> instruction: 0xffffffff
    1734:	7c020001 	stcvc	0, cr0, [r2], {1}
    1738:	000d0c0e 	andeq	r0, sp, lr, lsl #24
    173c:	0000000c 	andeq	r0, r0, ip
    1740:	0000172c 	andeq	r1, r0, ip, lsr #14
    1744:	c2007b10 	andgt	r7, r0, #16, 22	; 0x4000
    1748:	00000012 	andeq	r0, r0, r2, lsl r0
    174c:	0000000c 	andeq	r0, r0, ip
    1750:	ffffffff 			; <UNDEFINED> instruction: 0xffffffff
    1754:	7c020001 	stcvc	0, cr0, [r2], {1}
    1758:	000d0c0e 	andeq	r0, sp, lr, lsl #24
    175c:	0000000c 	andeq	r0, r0, ip
    1760:	0000174c 	andeq	r1, r0, ip, asr #14
    1764:	c2007b24 	andgt	r7, r0, #36, 22	; 0x9000
    1768:	00000010 	andeq	r0, r0, r0, lsl r0
    176c:	0000000c 	andeq	r0, r0, ip
    1770:	ffffffff 			; <UNDEFINED> instruction: 0xffffffff
    1774:	7c020001 	stcvc	0, cr0, [r2], {1}
    1778:	000d0c0e 	andeq	r0, sp, lr, lsl #24
    177c:	0000000c 	andeq	r0, r0, ip
    1780:	0000176c 	andeq	r1, r0, ip, ror #14
    1784:	c2007b34 	andgt	r7, r0, #52, 22	; 0xd000
    1788:	00000012 	andeq	r0, r0, r2, lsl r0
    178c:	0000000c 	andeq	r0, r0, ip
    1790:	ffffffff 			; <UNDEFINED> instruction: 0xffffffff
    1794:	7c020001 	stcvc	0, cr0, [r2], {1}
    1798:	000d0c0e 	andeq	r0, sp, lr, lsl #24
    179c:	0000000c 	andeq	r0, r0, ip
    17a0:	0000178c 	andeq	r1, r0, ip, lsl #15
    17a4:	c2007b48 	andgt	r7, r0, #72, 22	; 0x12000
    17a8:	00000012 	andeq	r0, r0, r2, lsl r0
    17ac:	0000000c 	andeq	r0, r0, ip
    17b0:	ffffffff 			; <UNDEFINED> instruction: 0xffffffff
    17b4:	7c020001 	stcvc	0, cr0, [r2], {1}
    17b8:	000d0c0e 	andeq	r0, sp, lr, lsl #24
    17bc:	0000000c 	andeq	r0, r0, ip
    17c0:	000017ac 	andeq	r1, r0, ip, lsr #15
    17c4:	c2007b5c 	andgt	r7, r0, #92, 22	; 0x17000
    17c8:	00000012 	andeq	r0, r0, r2, lsl r0
    17cc:	0000000c 	andeq	r0, r0, ip
    17d0:	ffffffff 			; <UNDEFINED> instruction: 0xffffffff
    17d4:	7c020001 	stcvc	0, cr0, [r2], {1}
    17d8:	000d0c0e 	andeq	r0, sp, lr, lsl #24
    17dc:	0000000c 	andeq	r0, r0, ip
    17e0:	000017cc 	andeq	r1, r0, ip, asr #15
    17e4:	c2007b70 	andgt	r7, r0, #112, 22	; 0x1c000
    17e8:	00000020 	andeq	r0, r0, r0, lsr #32
    17ec:	0000000c 	andeq	r0, r0, ip
    17f0:	ffffffff 			; <UNDEFINED> instruction: 0xffffffff
    17f4:	7c020001 	stcvc	0, cr0, [r2], {1}
    17f8:	000d0c0e 	andeq	r0, sp, lr, lsl #24
    17fc:	0000000c 	andeq	r0, r0, ip
    1800:	000017ec 	andeq	r1, r0, ip, ror #15
    1804:	c2007b90 	andgt	r7, r0, #144, 22	; 0x24000
    1808:	00000002 	andeq	r0, r0, r2

Disassembly of section .stab:

00000000 <.stab>:
   0:	00000001 	andeq	r0, r0, r1
   4:	000e0000 	andeq	r0, lr, r0
   8:	00000183 	andeq	r0, r0, r3, lsl #3
   c:	00000009 	andeq	r0, r0, r9
  10:	0000001e 	andeq	r0, r0, lr, lsl r0
  14:	00000000 	andeq	r0, r0, r0
  18:	00000038 	andeq	r0, r0, r8, lsr r0
  1c:	00000001 	andeq	r0, r0, r1
  20:	00000000 	andeq	r0, r0, r0
  24:	0000003f 	andeq	r0, r0, pc, lsr r0
  28:	0000001e 	andeq	r0, r0, lr, lsl r0
  2c:	00000000 	andeq	r0, r0, r0
  30:	0000006e 	andeq	r0, r0, lr, rrx
  34:	00000001 	andeq	r0, r0, r1
  38:	00000000 	andeq	r0, r0, r0
  3c:	00000075 	andeq	r0, r0, r5, ror r0
  40:	0000001e 	andeq	r0, r0, lr, lsl r0
  44:	00000000 	andeq	r0, r0, r0
  48:	000000a5 	andeq	r0, r0, r5, lsr #1
  4c:	00000001 	andeq	r0, r0, r1
  50:	00000000 	andeq	r0, r0, r0
  54:	000000ad 	andeq	r0, r0, sp, lsr #1
  58:	0000001e 	andeq	r0, r0, lr, lsl r0
  5c:	00000000 	andeq	r0, r0, r0
  60:	000000dd 	ldrdeq	r0, [r0], -sp
  64:	00000001 	andeq	r0, r0, r1
  68:	00000000 	andeq	r0, r0, r0
  6c:	000000e5 	andeq	r0, r0, r5, ror #1
  70:	0000001e 	andeq	r0, r0, lr, lsl r0
  74:	00000000 	andeq	r0, r0, r0
  78:	00000113 	andeq	r0, r0, r3, lsl r1
  7c:	00000001 	andeq	r0, r0, r1
  80:	00000000 	andeq	r0, r0, r0
  84:	00000119 	andeq	r0, r0, r9, lsl r1
  88:	0000001e 	andeq	r0, r0, lr, lsl r0
  8c:	00000000 	andeq	r0, r0, r0
  90:	00000148 	andeq	r0, r0, r8, asr #2
  94:	00000001 	andeq	r0, r0, r1
  98:	00000000 	andeq	r0, r0, r0
  9c:	0000014f 	andeq	r0, r0, pc, asr #2
  a0:	0000001e 	andeq	r0, r0, lr, lsl r0
  a4:	00000000 	andeq	r0, r0, r0
  a8:	0000017d 	andeq	r0, r0, sp, ror r1
  ac:	00000001 	andeq	r0, r0, r1
  b0:	00000000 	andeq	r0, r0, r0

Disassembly of section .stabstr:

00000000 <.stabstr>:
   0:	6f6c6300 	svcvs	0x006c6300
   4:	632e6573 			; <UNDEFINED> instruction: 0x632e6573
   8:	6c635f00 	stclvs	15, cr5, [r3], #-0
   c:	2065736f 	rsbcs	r7, r5, pc, ror #6
  10:	6e207369 	cdpvs	3, 2, cr7, cr0, cr9, {3}
  14:	6920746f 	stmdbvs	r0!, {r0, r1, r2, r3, r5, r6, sl, ip, sp, lr}
  18:	656c706d 	strbvs	r7, [ip, #-109]!	; 0xffffff93
  1c:	746e656d 	strbtvc	r6, [lr], #-1389	; 0xfffffa93
  20:	61206465 			; <UNDEFINED> instruction: 0x61206465
  24:	7720646e 	strvc	r6, [r0, -lr, ror #8]!
  28:	206c6c69 	rsbcs	r6, ip, r9, ror #24
  2c:	61776c61 	cmnvs	r7, r1, ror #24
  30:	66207379 			; <UNDEFINED> instruction: 0x66207379
  34:	006c6961 	rsbeq	r6, ip, r1, ror #18
  38:	6f6c635f 	svcvs	0x006c635f
  3c:	5f006573 	svcpl	0x00006573
  40:	61747366 	cmnvs	r4, r6, ror #6
  44:	73692074 	cmnvc	r9, #116	; 0x74
  48:	746f6e20 	strbtvc	r6, [pc], #-3616	; 50 <SYS_MODE+0x31>
  4c:	706d6920 	rsbvc	r6, sp, r0, lsr #18
  50:	656d656c 	strbvs	r6, [sp, #-1388]!	; 0xfffffa94
  54:	6465746e 	strbtvs	r7, [r5], #-1134	; 0xfffffb92
  58:	646e6120 	strbtvs	r6, [lr], #-288	; 0xfffffee0
  5c:	6c697720 	stclvs	7, cr7, [r9], #-128	; 0xffffff80
  60:	6c61206c 	stclvs	0, cr2, [r1], #-432	; 0xfffffe50
  64:	73796177 	cmnvc	r9, #-1073741795	; 0xc000001d
  68:	69616620 	stmdbvs	r1!, {r5, r9, sl, sp, lr}^
  6c:	665f006c 	ldrbvs	r0, [pc], -ip, rrx
  70:	74617473 	strbtvc	r7, [r1], #-1139	; 0xfffffb8d
  74:	65675f00 	strbvs	r5, [r7, #-3840]!	; 0xfffff100
  78:	64697074 	strbtvs	r7, [r9], #-116	; 0xffffff8c
  7c:	20736920 	rsbscs	r6, r3, r0, lsr #18
  80:	20746f6e 	rsbscs	r6, r4, lr, ror #30
  84:	6c706d69 	ldclvs	13, cr6, [r0], #-420	; 0xfffffe5c
  88:	6e656d65 	cdpvs	13, 6, cr6, cr5, cr5, {3}
  8c:	20646574 	rsbcs	r6, r4, r4, ror r5
  90:	20646e61 	rsbcs	r6, r4, r1, ror #28
  94:	6c6c6977 			; <UNDEFINED> instruction: 0x6c6c6977
  98:	776c6120 	strbvc	r6, [ip, -r0, lsr #2]!
  9c:	20737961 	rsbscs	r7, r3, r1, ror #18
  a0:	6c696166 	stfvse	f6, [r9], #-408	; 0xfffffe68
  a4:	65675f00 	strbvs	r5, [r7, #-3840]!	; 0xfffff100
  a8:	64697074 	strbtvs	r7, [r9], #-116	; 0xffffff8c
  ac:	73695f00 	cmnvc	r9, #0, 30
  b0:	79747461 	ldmdbvc	r4!, {r0, r5, r6, sl, ip, sp, lr}^
  b4:	20736920 	rsbscs	r6, r3, r0, lsr #18
  b8:	20746f6e 	rsbscs	r6, r4, lr, ror #30
  bc:	6c706d69 	ldclvs	13, cr6, [r0], #-420	; 0xfffffe5c
  c0:	6e656d65 	cdpvs	13, 6, cr6, cr5, cr5, {3}
  c4:	20646574 	rsbcs	r6, r4, r4, ror r5
  c8:	20646e61 	rsbcs	r6, r4, r1, ror #28
  cc:	6c6c6977 			; <UNDEFINED> instruction: 0x6c6c6977
  d0:	776c6120 	strbvc	r6, [ip, -r0, lsr #2]!
  d4:	20737961 	rsbscs	r7, r3, r1, ror #18
  d8:	6c696166 	stfvse	f6, [r9], #-408	; 0xfffffe68
  dc:	73695f00 	cmnvc	r9, #0, 30
  e0:	79747461 	ldmdbvc	r4!, {r0, r5, r6, sl, ip, sp, lr}^
  e4:	696b5f00 	stmdbvs	fp!, {r8, r9, sl, fp, ip, lr}^
  e8:	69206c6c 	stmdbvs	r0!, {r2, r3, r5, r6, sl, fp, sp, lr}
  ec:	6f6e2073 	svcvs	0x006e2073
  f0:	6d692074 	stclvs	0, cr2, [r9, #-464]!	; 0xfffffe30
  f4:	6d656c70 	stclvs	12, cr6, [r5, #-448]!	; 0xfffffe40
  f8:	65746e65 	ldrbvs	r6, [r4, #-3685]!	; 0xfffff19b
  fc:	6e612064 	cdpvs	0, 6, cr2, cr1, cr4, {3}
 100:	69772064 	ldmdbvs	r7!, {r2, r5, r6, sp}^
 104:	61206c6c 			; <UNDEFINED> instruction: 0x61206c6c
 108:	7961776c 	stmdbvc	r1!, {r2, r3, r5, r6, r8, r9, sl, ip, sp, lr}^
 10c:	61662073 	smcvs	25091	; 0x6203
 110:	5f006c69 	svcpl	0x00006c69
 114:	6c6c696b 			; <UNDEFINED> instruction: 0x6c6c696b
 118:	736c5f00 	cmnvc	ip, #0, 30
 11c:	206b6565 	rsbcs	r6, fp, r5, ror #10
 120:	6e207369 	cdpvs	3, 2, cr7, cr0, cr9, {3}
 124:	6920746f 	stmdbvs	r0!, {r0, r1, r2, r3, r5, r6, sl, ip, sp, lr}
 128:	656c706d 	strbvs	r7, [ip, #-109]!	; 0xffffff93
 12c:	746e656d 	strbtvc	r6, [lr], #-1389	; 0xfffffa93
 130:	61206465 			; <UNDEFINED> instruction: 0x61206465
 134:	7720646e 	strvc	r6, [r0, -lr, ror #8]!
 138:	206c6c69 	rsbcs	r6, ip, r9, ror #24
 13c:	61776c61 	cmnvs	r7, r1, ror #24
 140:	66207379 			; <UNDEFINED> instruction: 0x66207379
 144:	006c6961 	rsbeq	r6, ip, r1, ror #18
 148:	65736c5f 	ldrbvs	r6, [r3, #-3167]!	; 0xfffff3a1
 14c:	5f006b65 	svcpl	0x00006b65
 150:	64616572 	strbtvs	r6, [r1], #-1394	; 0xfffffa8e
 154:	20736920 	rsbscs	r6, r3, r0, lsr #18
 158:	20746f6e 	rsbscs	r6, r4, lr, ror #30
 15c:	6c706d69 	ldclvs	13, cr6, [r0], #-420	; 0xfffffe5c
 160:	6e656d65 	cdpvs	13, 6, cr6, cr5, cr5, {3}
 164:	20646574 	rsbcs	r6, r4, r4, ror r5
 168:	20646e61 	rsbcs	r6, r4, r1, ror #28
 16c:	6c6c6977 			; <UNDEFINED> instruction: 0x6c6c6977
 170:	776c6120 	strbvc	r6, [ip, -r0, lsr #2]!
 174:	20737961 	rsbscs	r7, r3, r1, ror #18
 178:	6c696166 	stfvse	f6, [r9], #-408	; 0xfffffe68
 17c:	65725f00 	ldrbvs	r5, [r2, #-3840]!	; 0xfffff100
 180:	Address 0x0000000000000180 is out of bounds.

